
DUE6001-D.3.1.0.dat:     file format binary


Disassembly of section .data:

00000000 <.data>:
       0:	ffff ffff 			@ <UNDEFINED> instruction: 0xffffffff
       4:	4c15      	ldr	r4, [pc, #84]	@ (0x5c)
       6:	0000      	movs	r0, r0
       8:	4c16      	ldr	r4, [pc, #88]	@ (0x64)
       a:	0000      	movs	r0, r0
       c:	4c17      	ldr	r4, [pc, #92]	@ (0x6c)
       e:	0000      	movs	r0, r0
      10:	4c26      	ldr	r4, [pc, #152]	@ (0xac)
      12:	0000      	movs	r0, r0
      14:	4c27      	ldr	r4, [pc, #156]	@ (0xb4)
      16:	0000      	movs	r0, r0
      18:	4c28      	ldr	r4, [pc, #160]	@ (0xbc)
      1a:	0000      	movs	r0, r0
      1c:	4cf5      	ldr	r4, [pc, #980]	@ (0x3f4)
      1e:	0000      	movs	r0, r0
      20:	4c55      	ldr	r4, [pc, #340]	@ (0x178)
      22:	0000      	movs	r0, r0
      24:	4c56      	ldr	r4, [pc, #344]	@ (0x180)
      26:	0000      	movs	r0, r0
      28:	4c61      	ldr	r4, [pc, #388]	@ (0x1b0)
      2a:	0000      	movs	r0, r0
      2c:	4c62      	ldr	r4, [pc, #392]	@ (0x1b8)
      2e:	0000      	movs	r0, r0
      30:	4cf5      	ldr	r4, [pc, #980]	@ (0x408)
      32:	0000      	movs	r0, r0
      34:	4cf5      	ldr	r4, [pc, #980]	@ (0x40c)
      36:	0000      	movs	r0, r0
      38:	4c99      	ldr	r4, [pc, #612]	@ (0x2a0)
      3a:	0000      	movs	r0, r0
      3c:	4c9a      	ldr	r4, [pc, #616]	@ (0x2a8)
      3e:	0000      	movs	r0, r0
      40:	4c9b      	ldr	r4, [pc, #620]	@ (0x2b0)
      42:	0000      	movs	r0, r0
      44:	4c9c      	ldr	r4, [pc, #624]	@ (0x2b8)
      46:	0000      	movs	r0, r0
      48:	4c9d      	ldr	r4, [pc, #628]	@ (0x2c0)
      4a:	0000      	movs	r0, r0
      4c:	4c9e      	ldr	r4, [pc, #632]	@ (0x2c8)
      4e:	0000      	movs	r0, r0
      50:	4c9f      	ldr	r4, [pc, #636]	@ (0x2d0)
      52:	0000      	movs	r0, r0
      54:	4cad      	ldr	r4, [pc, #692]	@ (0x30c)
      56:	0000      	movs	r0, r0
      58:	4cbb      	ldr	r4, [pc, #748]	@ (0x348)
      5a:	0000      	movs	r0, r0
      5c:	4cc9      	ldr	r4, [pc, #804]	@ (0x384)
      5e:	0000      	movs	r0, r0
      60:	4cf5      	ldr	r4, [pc, #980]	@ (0x438)
      62:	0000      	movs	r0, r0
      64:	4cd7      	ldr	r4, [pc, #860]	@ (0x3c4)
      66:	0000      	movs	r0, r0
      68:	4cf5      	ldr	r4, [pc, #980]	@ (0x440)
      6a:	0000      	movs	r0, r0
      6c:	4ce5      	ldr	r4, [pc, #916]	@ (0x404)
      6e:	0000      	movs	r0, r0
      70:	4ce6      	ldr	r4, [pc, #920]	@ (0x40c)
      72:	0000      	movs	r0, r0
      74:	4cf4      	ldr	r4, [pc, #976]	@ (0x448)
      76:	0000      	movs	r0, r0
      78:	4cf5      	ldr	r4, [pc, #980]	@ (0x450)
      7a:	0000      	movs	r0, r0
      7c:	0cfe      	lsrs	r6, r7, #19
      7e:	0001      	movs	r1, r0
      80:	bfb9      	ittee	lt
      82:	0000      	movlt	r0, r0
      84:	508f      	strlt	r7, [r1, r2]
      86:	0000      	movge	r0, r0
      88:	9c41      	ldrge	r4, [sp, #260]	@ 0x104
      8a:	0000      	movs	r0, r0
      8c:	65d2      	str	r2, [r2, #92]	@ 0x5c
      8e:	0000      	movs	r0, r0
      90:	b36f      	cbz	r7, 0xee
      92:	0000      	movs	r0, r0
      94:	078c      	lsls	r4, r1, #30
      96:	0001      	movs	r1, r0
      98:	f447 0000 	orr.w	r0, r7, #8388608	@ 0x800000
      9c:	f107 0000 	add.w	r0, r7, #0
      a0:	b41a      	push	{r1, r3, r4}
      a2:	0000      	movs	r0, r0
      a4:	f14b 0000 	adc.w	r0, fp, #0
      a8:	cc0c      	ldmia	r4!, {r2, r3}
      aa:	0000      	movs	r0, r0
      ac:	9523      	str	r5, [sp, #140]	@ 0x8c
      ae:	0000      	movs	r0, r0
      b0:	9faa      	ldr	r7, [sp, #680]	@ 0x2a8
      b2:	0000      	movs	r0, r0
      b4:	9d81      	ldr	r5, [sp, #516]	@ 0x204
      b6:	0000      	movs	r0, r0
      b8:	941e      	str	r4, [sp, #120]	@ 0x78
      ba:	0000      	movs	r0, r0
      bc:	86a9      	strh	r1, [r5, #52]	@ 0x34
      be:	0000      	movs	r0, r0
      c0:	3105      	adds	r1, #5
      c2:	0000      	movs	r0, r0
      c4:	4b92      	ldr	r3, [pc, #584]	@ (0x310)
      c6:	cd4c      	ldmia	r5!, {r2, r3, r6}
      c8:	0000      	movs	r0, r0
      ca:	000c      	movs	r4, r1
      cc:	0102      	lsls	r2, r0, #4
      ce:	0000      	movs	r0, r0
      d0:	0b02      	lsrs	r2, r0, #12
      d2:	3100      	adds	r1, #0
      d4:	0000      	movs	r0, r0
      d6:	0000      	movs	r0, r0
      d8:	3a00      	subs	r2, #0
      da:	c785      	stmia	r7!, {r0, r2, r7}
      dc:	c74e      	stmia	r7!, {r1, r2, r3, r6}
      de:	c74e      	stmia	r7!, {r1, r2, r3, r6}
      e0:	c74e      	stmia	r7!, {r1, r2, r3, r6}
      e2:	c74e      	stmia	r7!, {r1, r2, r3, r6}
      e4:	c74e      	stmia	r7!, {r1, r2, r3, r6}
      e6:	c74e      	stmia	r7!, {r1, r2, r3, r6}
      e8:	964e      	str	r6, [sp, #312]	@ 0x138
      ea:	ab57      	add	r3, sp, #348	@ 0x15c
      ec:	7657      	strb	r7, [r2, #25]
      ee:	7657      	strb	r7, [r2, #25]
      f0:	7757      	strb	r7, [r2, #29]
      f2:	7757      	strb	r7, [r2, #29]
      f4:	e457      	b.n	0xfffff9a6
      f6:	0057      	lsls	r7, r2, #1
      f8:	7658      	strb	r0, [r3, #25]
      fa:	7657      	strb	r7, [r2, #25]
      fc:	9c57      	ldr	r4, [sp, #348]	@ 0x15c
      fe:	7758      	strb	r0, [r3, #29]
     100:	2357      	movs	r3, #87	@ 0x57
     102:	7659      	strb	r1, [r3, #25]
     104:	ee57 7759 	mrc	7, 2, r7, cr7, cr9, {2}
     108:	7757      	strb	r7, [r2, #29]
     10a:	7757      	strb	r7, [r2, #29]
     10c:	0a57      	lsrs	r7, r2, #9
     10e:	275a      	movs	r7, #90	@ 0x5a
     110:	765a      	strb	r2, [r3, #25]
     112:	7657      	strb	r7, [r2, #25]
     114:	7757      	strb	r7, [r2, #29]
     116:	f157 765a 	adcs.w	r6, r7, #57147392	@ 0x3680000
     11a:	7657      	strb	r7, [r2, #25]
     11c:	ba57      	rev16	r7, r2
     11e:	775b      	strb	r3, [r3, #29]
     120:	7657      	strb	r7, [r2, #25]
     122:	7657      	strb	r7, [r2, #25]
     124:	eb57 775b 	adcs.w	r7, r7, fp, lsr #29
     128:	7757      	strb	r7, [r2, #29]
     12a:	7757      	strb	r7, [r2, #29]
     12c:	7757      	strb	r7, [r2, #29]
     12e:	7757      	strb	r7, [r2, #29]
     130:	7757      	strb	r7, [r2, #29]
     132:	7757      	strb	r7, [r2, #29]
     134:	7757      	strb	r7, [r2, #29]
     136:	7757      	strb	r7, [r2, #29]
     138:	7757      	strb	r7, [r2, #29]
     13a:	7757      	strb	r7, [r2, #29]
     13c:	7757      	strb	r7, [r2, #29]
     13e:	7757      	strb	r7, [r2, #29]
     140:	7757      	strb	r7, [r2, #29]
     142:	7757      	strb	r7, [r2, #29]
     144:	0f57      	lsrs	r7, r2, #29
     146:	2b5c      	cmp	r3, #92	@ 0x5c
     148:	765c      	strb	r4, [r3, #25]
     14a:	7757      	strb	r7, [r2, #29]
     14c:	7757      	strb	r7, [r2, #29]
     14e:	7757      	strb	r7, [r2, #29]
     150:	7657      	strb	r7, [r2, #25]
     152:	7657      	strb	r7, [r2, #25]
     154:	7657      	strb	r7, [r2, #25]
     156:	7657      	strb	r7, [r2, #25]
     158:	7657      	strb	r7, [r2, #25]
     15a:	7657      	strb	r7, [r2, #25]
     15c:	c757      	stmia	r7!, {r0, r1, r2, r4, r6}
     15e:	775c      	strb	r4, [r3, #29]
     160:	7657      	strb	r7, [r2, #25]
     162:	7657      	strb	r7, [r2, #25]
     164:	f457 775c 	orrs.w	r7, r7, #880	@ 0x370
     168:	7657      	strb	r7, [r2, #25]
     16a:	7657      	strb	r7, [r2, #25]
     16c:	3057      	adds	r0, #87	@ 0x57
     16e:	775d      	strb	r5, [r3, #29]
     170:	8c57      	ldrh	r7, [r2, #34]	@ 0x22
     172:	775d      	strb	r5, [r3, #29]
     174:	7657      	strb	r7, [r2, #25]
     176:	7657      	strb	r7, [r2, #25]
     178:	7757      	strb	r7, [r2, #29]
     17a:	7757      	strb	r7, [r2, #29]
     17c:	7757      	strb	r7, [r2, #29]
     17e:	7757      	strb	r7, [r2, #29]
     180:	7757      	strb	r7, [r2, #29]
     182:	7757      	strb	r7, [r2, #29]
     184:	7657      	strb	r7, [r2, #25]
     186:	7657      	strb	r7, [r2, #25]
     188:	7757      	strb	r7, [r2, #29]
     18a:	7757      	strb	r7, [r2, #29]
     18c:	7657      	strb	r7, [r2, #25]
     18e:	7657      	strb	r7, [r2, #25]
     190:	6257      	str	r7, [r2, #36]	@ 0x24
     192:	765e      	strb	r6, [r3, #25]
     194:	7657      	strb	r7, [r2, #25]
     196:	7657      	strb	r7, [r2, #25]
     198:	7657      	strb	r7, [r2, #25]
     19a:	7657      	strb	r7, [r2, #25]
     19c:	0457      	lsls	r7, r2, #17
     19e:	775f      	strb	r7, [r3, #29]
     1a0:	7757      	strb	r7, [r2, #29]
     1a2:	7757      	strb	r7, [r2, #29]
     1a4:	7657      	strb	r7, [r2, #25]
     1a6:	7657      	strb	r7, [r2, #25]
     1a8:	1e57      	subs	r7, r2, #1
     1aa:	765f      	strb	r7, [r3, #25]
     1ac:	7657      	strb	r7, [r2, #25]
     1ae:	7657      	strb	r7, [r2, #25]
     1b0:	7757      	strb	r7, [r2, #29]
     1b2:	7757      	strb	r7, [r2, #29]
     1b4:	7757      	strb	r7, [r2, #29]
     1b6:	7757      	strb	r7, [r2, #29]
     1b8:	7757      	strb	r7, [r2, #29]
     1ba:	7757      	strb	r7, [r2, #29]
     1bc:	7757      	strb	r7, [r2, #29]
     1be:	7757      	strb	r7, [r2, #29]
     1c0:	7757      	strb	r7, [r2, #29]
     1c2:	7757      	strb	r7, [r2, #29]
     1c4:	7757      	strb	r7, [r2, #29]
     1c6:	7757      	strb	r7, [r2, #29]
     1c8:	7757      	strb	r7, [r2, #29]
     1ca:	7757      	strb	r7, [r2, #29]
     1cc:	7757      	strb	r7, [r2, #29]
     1ce:	7757      	strb	r7, [r2, #29]
     1d0:	7757      	strb	r7, [r2, #29]
     1d2:	7757      	strb	r7, [r2, #29]
     1d4:	7757      	strb	r7, [r2, #29]
     1d6:	7757      	strb	r7, [r2, #29]
     1d8:	7757      	strb	r7, [r2, #29]
     1da:	7757      	strb	r7, [r2, #29]
     1dc:	7757      	strb	r7, [r2, #29]
     1de:	7757      	strb	r7, [r2, #29]
     1e0:	7657      	strb	r7, [r2, #25]
     1e2:	7657      	strb	r7, [r2, #25]
     1e4:	1f57      	subs	r7, r2, #5
     1e6:	775f      	strb	r7, [r3, #29]
     1e8:	7657      	strb	r7, [r2, #25]
     1ea:	7657      	strb	r7, [r2, #25]
     1ec:	8057      	strh	r7, [r2, #2]
     1ee:	775f      	strb	r7, [r3, #29]
     1f0:	7657      	strb	r7, [r2, #25]
     1f2:	7657      	strb	r7, [r2, #25]
     1f4:	bd57      	pop	{r0, r1, r2, r4, r6, pc}
     1f6:	775f      	strb	r7, [r3, #29]
     1f8:	7757      	strb	r7, [r2, #29]
     1fa:	7757      	strb	r7, [r2, #29]
     1fc:	7757      	strb	r7, [r2, #29]
     1fe:	7757      	strb	r7, [r2, #29]
     200:	0a57      	lsrs	r7, r2, #9
     202:	7760      	strb	r0, [r4, #29]
     204:	7657      	strb	r7, [r2, #25]
     206:	7657      	strb	r7, [r2, #25]
     208:	7757      	strb	r7, [r2, #29]
     20a:	7757      	strb	r7, [r2, #29]
     20c:	7757      	strb	r7, [r2, #29]
     20e:	7757      	strb	r7, [r2, #29]
     210:	7657      	strb	r7, [r2, #25]
     212:	7657      	strb	r7, [r2, #25]
     214:	2057      	movs	r0, #87	@ 0x57
     216:	7760      	strb	r0, [r4, #29]
     218:	a257      	add	r2, pc, #348	@ (adr r2, 0x378)
     21a:	302b      	adds	r0, #43	@ 0x2b
     21c:	7a0e      	ldrb	r6, [r1, #8]
     21e:	624d      	str	r5, [r1, #36]	@ 0x24
     220:	852b      	strh	r3, [r5, #40]	@ 0x28
     222:	00b4      	lsls	r4, r6, #2
     224:	1900      	adds	r0, r0, r4
     226:	73b2      	strb	r2, [r6, #14]
     228:	a4d8      	add	r4, pc, #864	@ (adr r4, 0x58c)
     22a:	b173      	cbz	r3, 0x24a
     22c:	0172      	lsls	r2, r6, #5
     22e:	0010      	movs	r0, r2
     230:	2700      	movs	r7, #0
     232:	110f      	asrs	r7, r1, #4
     234:	3555      	adds	r5, #85	@ 0x55
     236:	03b0      	lsls	r0, r6, #14
     238:	09f3      	lsrs	r3, r6, #7
     23a:	0003      	movs	r3, r0
     23c:	0000      	movs	r0, r0
     23e:	0000      	movs	r0, r0
     240:	0d00      	lsrs	r0, r0, #20
     242:	1b13      	subs	r3, r2, r4
     244:	0b04      	lsrs	r4, r0, #12
     246:	1911      	adds	r1, r2, r4
     248:	0902      	lsrs	r2, r0, #4
     24a:	1d15      	adds	r5, r2, #4
     24c:	0301      	lsls	r1, r0, #12
     24e:	0805      	lsrs	r5, r0, #32
     250:	0c0a      	lsrs	r2, r1, #16
     252:	1210      	asrs	r0, r2, #8
     254:	1814      	adds	r4, r2, r0
     256:	1c1a      	adds	r2, r3, #0
     258:	0e06      	lsrs	r6, r0, #24
     25a:	1e16      	subs	r6, r2, #0
     25c:	2631      	movs	r6, #49	@ 0x31
     25e:	8497      	strh	r7, [r2, #36]	@ 0x24
     260:	4133      	asrs	r3, r6
     262:	9353      	str	r3, [sp, #332]	@ 0x14c
     264:	8362      	strh	r2, [r4, #26]
     266:	0201      	lsls	r1, r0, #8
     268:	0403      	lsls	r3, r0, #16
     26a:	ff05 0201 	vhsub.u8	d0, d5, d1
     26e:	0403      	lsls	r3, r0, #16
     270:	3f64      	subs	r7, #100	@ 0x64
     272:	0849      	lsrs	r1, r1, #1
     274:	0849      	lsrs	r1, r1, #1
     276:	0849      	lsrs	r1, r1, #1
     278:	0849      	lsrs	r1, r1, #1
     27a:	0849      	lsrs	r1, r1, #1
     27c:	0849      	lsrs	r1, r1, #1
     27e:	0849      	lsrs	r1, r1, #1
     280:	0808      	lsrs	r0, r1, #32
     282:	0100      	lsls	r0, r0, #4
     284:	1002      	asrs	r2, r0, #32
     286:	0810      	lsrs	r0, r2, #32
     288:	3f62      	subs	r7, #98	@ 0x62
     28a:	3f63      	subs	r7, #99	@ 0x63
     28c:	0849      	lsrs	r1, r1, #1
     28e:	3f79      	subs	r7, #121	@ 0x79
     290:	0849      	lsrs	r1, r1, #1
     292:	0849      	lsrs	r1, r1, #1
     294:	0849      	lsrs	r1, r1, #1
     296:	3f73      	subs	r7, #115	@ 0x73
     298:	3fe9      	subs	r7, #233	@ 0xe9
     29a:	0849      	lsrs	r1, r1, #1
     29c:	0849      	lsrs	r1, r1, #1
     29e:	0849      	lsrs	r1, r1, #1
     2a0:	0849      	lsrs	r1, r1, #1
     2a2:	0849      	lsrs	r1, r1, #1
     2a4:	0849      	lsrs	r1, r1, #1
     2a6:	0849      	lsrs	r1, r1, #1
     2a8:	ab03      	add	r3, sp, #12
     2aa:	b9bd      	cbnz	r5, 0x2dc
     2ac:	04bd      	lsls	r5, r7, #18
     2ae:	bde3      	pop	{r0, r1, r5, r6, r7, pc}
     2b0:	bdf1      	pop	{r0, r4, r5, r6, r7, pc}
     2b2:	1b01      	subs	r1, r0, r4
     2b4:	57be      	ldrsb	r6, [r7, r6]
     2b6:	01be      	lsls	r6, r7, #6
     2b8:	be25      	bkpt	0x0025
     2ba:	be57      	bkpt	0x0057
     2bc:	2f01      	cmp	r7, #1
     2be:	57be      	ldrsb	r6, [r7, r6]
     2c0:	01be      	lsls	r6, r7, #6
     2c2:	be39      	bkpt	0x0039
     2c4:	be57      	bkpt	0x0057
     2c6:	4301      	orrs	r1, r0
     2c8:	57be      	ldrsb	r6, [r7, r6]
     2ca:	01be      	lsls	r6, r7, #6
     2cc:	be4d      	bkpt	0x004d
     2ce:	be57      	bkpt	0x0057
     2d0:	8e02      	ldrh	r2, [r0, #48]	@ 0x30
     2d2:	59be      	ldr	r6, [r7, r6]
     2d4:	09bf      	lsrs	r7, r7, #6
     2d6:	0000      	movs	r0, r0
     2d8:	0000      	movs	r0, r0
     2da:	0332      	lsls	r2, r6, #12
     2dc:	bff6      	itet	<und>
     2de:	0319      	lsl<und>	r1, r3, #12
     2e0:	c001      	stmiaal	r0!, {r0}
     2e2:	0332      	lsl<und>	r2, r6, #12
     2e4:	c440      	stmia	r4!, {r6}
     2e6:	0332      	lsls	r2, r6, #12
     2e8:	c419      	stmia	r4!, {r0, r3, r4}
     2ea:	0319      	lsls	r1, r3, #12
     2ec:	c050      	stmia	r0!, {r4, r6}
     2ee:	0332      	lsls	r2, r6, #12
     2f0:	c084      	stmia	r0!, {r2, r7}
     2f2:	0319      	lsls	r1, r3, #12
     2f4:	c08f      	stmia	r0!, {r0, r1, r2, r3, r7}
     2f6:	0319      	lsls	r1, r3, #12
     2f8:	c070      	stmia	r0!, {r4, r5, r6}
     2fa:	0332      	lsls	r2, r6, #12
     2fc:	c10c      	stmia	r1!, {r2, r3}
     2fe:	0332      	lsls	r2, r6, #12
     300:	c035      	stmia	r0!, {r0, r2, r4, r5}
     302:	0319      	lsls	r1, r3, #12
     304:	c040      	stmia	r0!, {r6}
     306:	0332      	lsls	r2, r6, #12
     308:	c419      	stmia	r4!, {r0, r3, r4}
     30a:	0332      	lsls	r2, r6, #12
     30c:	c0c8      	stmia	r0!, {r3, r6, r7}
     30e:	0319      	lsls	r1, r3, #12
     310:	c0d3      	stmia	r0!, {r0, r1, r4, r6, r7}
     312:	0332      	lsls	r2, r6, #12
     314:	c11b      	stmia	r1!, {r0, r1, r3, r4}
     316:	0332      	lsls	r2, r6, #12
     318:	c7ee      	stmia	r7!, {r1, r2, r3, r5, r6, r7}
     31a:	0332      	lsls	r2, r6, #12
     31c:	c12a      	stmia	r1!, {r1, r3, r5}
     31e:	0332      	lsls	r2, r6, #12
     320:	c11b      	stmia	r1!, {r0, r1, r3, r4}
     322:	0332      	lsls	r2, r6, #12
     324:	c699      	stmia	r6!, {r0, r3, r4, r7}
     326:	0132      	lsls	r2, r6, #4
     328:	c284      	stmia	r2!, {r2, r7}
     32a:	0332      	lsls	r2, r6, #12
     32c:	c884      	ldmia	r0!, {r2, r7}
     32e:	0332      	lsls	r2, r6, #12
     330:	c011      	stmia	r0!, {r0, r4}
     332:	0332      	lsls	r2, r6, #12
     334:	c060      	stmia	r0!, {r5, r6}
     336:	0332      	lsls	r2, r6, #12
     338:	c09f      	stmia	r0!, {r0, r1, r2, r3, r4, r7}
     33a:	0332      	lsls	r2, r6, #12
     33c:	c0e3      	stmia	r0!, {r0, r1, r5, r6, r7}
     33e:	0332      	lsls	r2, r6, #12
     340:	c021      	stmia	r0!, {r0, r5}
     342:	0332      	lsls	r2, r6, #12
     344:	c070      	stmia	r0!, {r4, r5, r6}
     346:	0332      	lsls	r2, r6, #12
     348:	c0af      	stmia	r0!, {r0, r1, r2, r3, r5, r7}
     34a:	0332      	lsls	r2, r6, #12
     34c:	c0f3      	stmia	r0!, {r0, r1, r4, r5, r6, r7}
     34e:	0332      	lsls	r2, r6, #12
     350:	c3c2      	stmia	r3!, {r1, r6, r7}
     352:	0332      	lsls	r2, r6, #12
     354:	c14f      	stmia	r1!, {r0, r1, r2, r3, r6}
     356:	0332      	lsls	r2, r6, #12
     358:	c15f      	stmia	r1!, {r0, r1, r2, r3, r4, r6}
     35a:	0332      	lsls	r2, r6, #12
     35c:	c20d      	stmia	r2!, {r0, r2, r3}
     35e:	0332      	lsls	r2, r6, #12
     360:	c21c      	stmia	r2!, {r2, r3, r4}
     362:	0332      	lsls	r2, r6, #12
     364:	c22c      	stmia	r2!, {r2, r3, r5}
     366:	0132      	lsls	r2, r6, #4
     368:	c255      	stmia	r2!, {r0, r2, r4, r6}
     36a:	0132      	lsls	r2, r6, #4
     36c:	c265      	stmia	r2!, {r0, r2, r5, r6}
     36e:	0332      	lsls	r2, r6, #12
     370:	c798      	stmia	r7!, {r3, r4, r7}
     372:	0332      	lsls	r2, r6, #12
     374:	c138      	stmia	r1!, {r3, r4, r5}
     376:	0332      	lsls	r2, r6, #12
     378:	c16f      	stmia	r1!, {r0, r1, r2, r3, r5, r6}
     37a:	0332      	lsls	r2, r6, #12
     37c:	c181      	stmia	r1!, {r0, r7}
     37e:	0332      	lsls	r2, r6, #12
     380:	c193      	stmia	r1!, {r0, r1, r4, r7}
     382:	0332      	lsls	r2, r6, #12
     384:	c1ac      	stmia	r1!, {r2, r3, r5, r7}
     386:	0132      	lsls	r2, r6, #4
     388:	c1c5      	stmia	r1!, {r0, r2, r6, r7}
     38a:	0332      	lsls	r2, r6, #12
     38c:	c1d4      	stmia	r1!, {r2, r4, r6, r7}
     38e:	0332      	lsls	r2, r6, #12
     390:	c1ed      	stmia	r1!, {r0, r2, r3, r5, r6, r7}
     392:	0332      	lsls	r2, r6, #12
     394:	c275      	stmia	r2!, {r0, r2, r4, r5, r6}
     396:	0332      	lsls	r2, r6, #12
     398:	c294      	stmia	r2!, {r2, r4, r7}
     39a:	0332      	lsls	r2, r6, #12
     39c:	c710      	stmia	r7!, {r4}
     39e:	0132      	lsls	r2, r6, #4
     3a0:	c732      	stmia	r7!, {r1, r4, r5}
     3a2:	0332      	lsls	r2, r6, #12
     3a4:	c838      	ldmia	r0!, {r3, r4, r5}
     3a6:	0132      	lsls	r2, r6, #4
     3a8:	c846      	ldmia	r0!, {r1, r2, r6}
     3aa:	0132      	lsls	r2, r6, #4
     3ac:	c862      	ldmia	r0!, {r1, r5, r6}
     3ae:	0332      	lsls	r2, r6, #12
     3b0:	c440      	stmia	r4!, {r6}
     3b2:	0332      	lsls	r2, r6, #12
     3b4:	c3a7      	stmia	r3!, {r0, r1, r2, r5, r7}
     3b6:	0332      	lsls	r2, r6, #12
     3b8:	c3b7      	stmia	r3!, {r0, r1, r2, r4, r5, r7}
     3ba:	0332      	lsls	r2, r6, #12
     3bc:	c24a      	stmia	r2!, {r1, r3, r6}
     3be:	0332      	lsls	r2, r6, #12
     3c0:	c21c      	stmia	r2!, {r2, r3, r4}
     3c2:	c40e      	stmia	r4!, {r1, r2, r3}
     3c4:	c3fe      	stmia	r3!, {r1, r2, r3, r4, r5, r6, r7}
     3c6:	c470      	stmia	r4!, {r4, r5, r6}
     3c8:	c480      	stmia	r4!, {r7}
     3ca:	c5b5      	stmia	r5!, {r0, r2, r4, r5, r7}
     3cc:	c634      	stmia	r6!, {r2, r4, r5}
     3ce:	c648      	stmia	r6!, {r3, r6}
     3d0:	c685      	stmia	r6!, {r0, r2, r7}
     3d2:	c284      	stmia	r2!, {r2, r7}
     3d4:	c2a5      	stmia	r2!, {r0, r2, r5, r7}
     3d6:	c2c7      	stmia	r2!, {r0, r1, r2, r6, r7}
     3d8:	c2eb      	stmia	r2!, {r0, r1, r3, r5, r6, r7}
     3da:	c30f      	stmia	r3!, {r0, r1, r2, r3}
     3dc:	c337      	stmia	r3!, {r0, r1, r2, r4, r5}
     3de:	c35f      	stmia	r3!, {r0, r1, r2, r3, r4, r6}
     3e0:	c4a5      	stmia	r4!, {r0, r2, r5, r7}
     3e2:	c4b9      	stmia	r4!, {r0, r3, r4, r5, r7}
     3e4:	c4da      	stmia	r4!, {r1, r3, r4, r6, r7}
     3e6:	c4f6      	stmia	r4!, {r1, r2, r4, r5, r6, r7}
     3e8:	c50b      	stmia	r5!, {r0, r1, r3}
     3ea:	c520      	stmia	r5!, {r5}
     3ec:	c54b      	stmia	r5!, {r0, r1, r3, r6}
     3ee:	c570      	stmia	r5!, {r4, r5, r6}
     3f0:	c58c      	stmia	r5!, {r2, r3, r7}
     3f2:	c732      	stmia	r7!, {r1, r4, r5}
     3f4:	c765      	stmia	r7!, {r0, r2, r5, r6}
     3f6:	c787      	stmia	r7!, {r0, r1, r2, r7}
     3f8:	c7a9      	stmia	r7!, {r0, r3, r5, r7}
     3fa:	c7b7      	stmia	r7!, {r0, r1, r2, r4, r5, r7}
     3fc:	c7c5      	stmia	r7!, {r0, r2, r6, r7}
     3fe:	c7fc      	stmia	r7!, {r2, r3, r4, r5, r6, r7}
     400:	c818      	ldmia	r0!, {r3, r4}
     402:	c846      	ldmia	r0!, {r1, r2, r6}
     404:	c862      	ldmia	r0!, {r1, r5, r6}
     406:	c8a2      	ldmia	r0!, {r1, r5, r7}
     408:	c8d4      	ldmia	r0!, {r2, r4, r6, r7}
     40a:	c23b      	stmia	r2!, {r0, r1, r3, r4, r5}
     40c:	c44f      	stmia	r4!, {r0, r1, r2, r3, r6}
     40e:	c430      	stmia	r4!, {r4, r5}
     410:	c6a9      	stmia	r6!, {r0, r3, r5, r7}
     412:	c6b6      	stmia	r6!, {r1, r2, r4, r5, r7}
     414:	c3e0      	stmia	r3!, {r5, r6, r7}
     416:	c2b6      	stmia	r2!, {r1, r2, r4, r5, r7}
     418:	c2d9      	stmia	r2!, {r0, r3, r4, r6, r7}
     41a:	c2fd      	stmia	r2!, {r0, r2, r3, r4, r5, r6, r7}
     41c:	c323      	stmia	r3!, {r0, r1, r5}
     41e:	c34b      	stmia	r3!, {r0, r1, r3, r6}
     420:	c383      	stmia	r3!, {r0, r1, r7}
     422:	c754      	stmia	r7!, {r2, r4, r6}
     424:	c776      	stmia	r7!, {r1, r2, r4, r5, r6}
     426:	c80a      	ldmia	r0!, {r1, r3}
     428:	c828      	ldmia	r0!, {r3, r5}
     42a:	c854      	ldmia	r0!, {r2, r4, r6}
     42c:	c873      	ldmia	r0, {r0, r1, r4, r5, r6}
     42e:	c894      	ldmia	r0!, {r2, r4, r7}
     430:	0001      	movs	r1, r0
     432:	0000      	movs	r0, r0
     434:	0002      	movs	r2, r0
     436:	0000      	movs	r0, r0
     438:	0004      	movs	r4, r0
     43a:	0000      	movs	r0, r0
     43c:	0008      	movs	r0, r1
     43e:	0000      	movs	r0, r0
     440:	0010      	movs	r0, r2
     442:	0000      	movs	r0, r0
     444:	0020      	movs	r0, r4
     446:	0000      	movs	r0, r0
     448:	0040      	lsls	r0, r0, #1
     44a:	0000      	movs	r0, r0
     44c:	0080      	lsls	r0, r0, #2
     44e:	0000      	movs	r0, r0
     450:	0100      	lsls	r0, r0, #4
     452:	0000      	movs	r0, r0
     454:	0200      	lsls	r0, r0, #8
     456:	0000      	movs	r0, r0
     458:	0400      	lsls	r0, r0, #16
     45a:	0000      	movs	r0, r0
     45c:	0800      	lsrs	r0, r0, #32
     45e:	0000      	movs	r0, r0
     460:	1000      	asrs	r0, r0, #32
     462:	0000      	movs	r0, r0
     464:	2000      	movs	r0, #0
     466:	0000      	movs	r0, r0
     468:	4000      	ands	r0, r0
     46a:	0000      	movs	r0, r0
     46c:	8000      	strh	r0, [r0, #0]
     46e:	0000      	movs	r0, r0
     470:	0000      	movs	r0, r0
     472:	0001      	movs	r1, r0
     474:	0000      	movs	r0, r0
     476:	0002      	movs	r2, r0
     478:	0000      	movs	r0, r0
     47a:	0004      	movs	r4, r0
     47c:	0000      	movs	r0, r0
     47e:	0008      	movs	r0, r1
     480:	0000      	movs	r0, r0
     482:	0010      	movs	r0, r2
     484:	0000      	movs	r0, r0
     486:	0020      	movs	r0, r4
     488:	0000      	movs	r0, r0
     48a:	0040      	lsls	r0, r0, #1
     48c:	0000      	movs	r0, r0
     48e:	0080      	lsls	r0, r0, #2
     490:	0000      	movs	r0, r0
     492:	0100      	lsls	r0, r0, #4
     494:	0000      	movs	r0, r0
     496:	0200      	lsls	r0, r0, #8
     498:	0000      	movs	r0, r0
     49a:	0400      	lsls	r0, r0, #16
     49c:	0000      	movs	r0, r0
     49e:	0800      	lsrs	r0, r0, #32
     4a0:	0000      	movs	r0, r0
     4a2:	1000      	asrs	r0, r0, #32
     4a4:	0000      	movs	r0, r0
     4a6:	2000      	movs	r0, #0
     4a8:	0000      	movs	r0, r0
     4aa:	4000      	ands	r0, r0
     4ac:	0000      	movs	r0, r0
     4ae:	8000      	strh	r0, [r0, #0]
     4b0:	0145      	lsls	r5, r0, #5
     4b2:	4500      	cmp	r0, r0
     4b4:	0201      	lsls	r1, r0, #8
     4b6:	0145      	lsls	r5, r0, #5
     4b8:	4504      	cmp	r4, r0
     4ba:	0002      	movs	r2, r0
     4bc:	0345      	lsls	r5, r0, #13
     4be:	4500      	cmp	r0, r0
     4c0:	0103      	lsls	r3, r0, #4
     4c2:	0145      	lsls	r5, r0, #5
     4c4:	4503      	cmp	r3, r0
     4c6:	0304      	lsls	r4, r0, #12
     4c8:	0157      	lsls	r7, r2, #5
     4ca:	5700      	ldrsb	r0, [r0, r4]
     4cc:	0101      	lsls	r1, r0, #4
     4ce:	0157      	lsls	r7, r2, #5
     4d0:	5702      	ldrsb	r2, [r0, r4]
     4d2:	0003      	movs	r3, r0
     4d4:	d52c      	bpl.n	0x530
     4d6:	d423      	bmi.n	0x520
     4d8:	d745      	bvc.n	0x566
     4da:	d63c      	bvs.n	0x556
     4dc:	d855      	bhi.n	0x58a
     4de:	d878      	bhi.n	0x5d2
     4e0:	d879      	bhi.n	0x5d6
     4e2:	0032      	movs	r2, r6
     4e4:	1101      	asrs	r1, r0, #4
     4e6:	32f4      	adds	r2, #244	@ 0xf4
     4e8:	0300      	lsls	r0, r0, #12
     4ea:	f23a 0032 			@ <UNDEFINED> instruction: 0xf23a0032
     4ee:	5403      	strb	r3, [r0, r0]
     4f0:	32f2      	adds	r2, #242	@ 0xf2
     4f2:	0300      	lsls	r0, r0, #12
     4f4:	f25d 0032 			@ <UNDEFINED> instruction: 0xf25d0032
     4f8:	8503      	strh	r3, [r0, #40]	@ 0x28
     4fa:	32f2      	adds	r2, #242	@ 0xf2
     4fc:	0300      	lsls	r0, r0, #12
     4fe:	f2c0 0032 	movt	r0, #50	@ 0x32
     502:	dd03      	ble.n	0x50c
     504:	32f2      	adds	r2, #242	@ 0xf2
     506:	0300      	lsls	r0, r0, #12
     508:	f2eb 0032 			@ <UNDEFINED> instruction: 0xf2eb0032
     50c:	f903 32f2 	vst1.64	{d3-d6}, [r3 :256], r2
     510:	0300      	lsls	r0, r0, #12
     512:	f309 0032 			@ <UNDEFINED> instruction: 0xf3090032
     516:	8103      	strh	r3, [r0, #8]
     518:	32f1      	adds	r2, #241	@ 0xf1
     51a:	0300      	lsls	r0, r0, #12
     51c:	f198 0014 			@ <UNDEFINED> instruction: 0xf1980014
     520:	a503      	add	r5, pc, #12	@ (adr r5, 0x530)
     522:	32f1      	adds	r2, #241	@ 0xf1
     524:	0300      	lsls	r0, r0, #12
     526:	f1f5 000a 			@ <UNDEFINED> instruction: 0xf1f5000a
     52a:	bd03      	pop	{r0, r1, pc}
     52c:	32f1      	adds	r2, #241	@ 0xf1
     52e:	0300      	lsls	r0, r0, #12
     530:	f1c6 0032 	rsb	r0, r6, #50	@ 0x32
     534:	e703      	b.n	0x33e
     536:	32f1      	adds	r2, #241	@ 0xf1
     538:	0300      	lsls	r0, r0, #12
     53a:	f20d 00fa 	addw	r0, sp, #250	@ 0xfa
     53e:	1603      	asrs	r3, r0, #24
     540:	faf2 0300 			@ <UNDEFINED> instruction: 0xfaf20300
     544:	f21f 00fa 			@ <UNDEFINED> instruction: 0xf21f00fa
     548:	2803      	cmp	r0, #3
     54a:	faf2 0300 			@ <UNDEFINED> instruction: 0xfaf20300
     54e:	f231 00fa 			@ <UNDEFINED> instruction: 0xf23100fa
     552:	1203      	asrs	r3, r0, #8
     554:	32f3      	adds	r2, #243	@ 0xf3
     556:	0300      	lsls	r0, r0, #12
     558:	f31f 0032 			@ <UNDEFINED> instruction: 0xf31f0032
     55c:	4703      	bx	r0
     55e:	32f3      	adds	r2, #243	@ 0xf3
     560:	0300      	lsls	r0, r0, #12
     562:	f355 0032 			@ <UNDEFINED> instruction: 0xf3550032
     566:	6203      	str	r3, [r0, #32]
     568:	32f3      	adds	r2, #243	@ 0xf3
     56a:	0300      	lsls	r0, r0, #12
     56c:	f370 0032 			@ <UNDEFINED> instruction: 0xf3700032
     570:	7e03      	ldrb	r3, [r0, #24]
     572:	32f3      	adds	r2, #243	@ 0xf3
     574:	0300      	lsls	r0, r0, #12
     576:	f38c 0032 			@ <UNDEFINED> instruction: 0xf38c0032
     57a:	9a03      	ldr	r2, [sp, #12]
     57c:	32f3      	adds	r2, #243	@ 0xf3
     57e:	0300      	lsls	r0, r0, #12
     580:	f3a8 0032 			@ <UNDEFINED> instruction: 0xf3a80032
     584:	bc03      	pop	{r0, r1}
     586:	32f3      	adds	r2, #243	@ 0xf3
     588:	0300      	lsls	r0, r0, #12
     58a:	f3ca 0032 			@ <UNDEFINED> instruction: 0xf3ca0032
     58e:	df03      	svc	3
     590:	32f3      	adds	r2, #243	@ 0xf3
     592:	0300      	lsls	r0, r0, #12
     594:	f3f4 0032 			@ <UNDEFINED> instruction: 0xf3f40032
     598:	0103      	lsls	r3, r0, #4
     59a:	fff4 ffff 			@ <UNDEFINED> instruction: 0xfff4ffff
     59e:	ffff ffff 			@ <UNDEFINED> instruction: 0xffffffff
     5a2:	ffff ffff 			@ <UNDEFINED> instruction: 0xffffffff
     5a6:	f0ff 4100 			@ <UNDEFINED> instruction: 0xf0ff4100
     5aa:	0000      	movs	r0, r0
     5ac:	0000      	movs	r0, r0
     5ae:	0010      	movs	r0, r2
     5b0:	0000      	movs	r0, r0
     5b2:	0000      	movs	r0, r0
     5b4:	0100      	lsls	r0, r0, #4
     5b6:	0000      	movs	r0, r0
     5b8:	0000      	movs	r0, r0
     5ba:	0000      	movs	r0, r0
     5bc:	0500      	lsls	r0, r0, #20
     5be:	0000      	movs	r0, r0
     5c0:	0000      	movs	r0, r0
     5c2:	0000      	movs	r0, r0
     5c4:	2300      	movs	r3, #0
     5c6:	e8e4 03fa 	strd	r0, r3, [r4], #1000	@ 0x3e8
     5ca:	8606      	strh	r6, [r0, #48]	@ 0x30
     5cc:	d8f2      	bhi.n	0x5b4
     5ce:	ab5d      	add	r3, sp, #372	@ 0x174
     5d0:	a7d6      	add	r7, pc, #856	@ (adr r7, 0x92c)
     5d2:	d343      	bcc.n	0x65c
     5d4:	3895      	subs	r0, #149	@ 0x95
     5d6:	c282      	stmia	r2!, {r1, r7}
     5d8:	3ba6      	subs	r3, #166	@ 0xa6
     5da:	4484      	add	ip, r0
     5dc:	e354      	b.n	0xc88
     5de:	efd9 4482 	vaddhn.i32	d20, <illegal reg q12.5>, q1
     5e2:	3c9a      	subs	r4, #154	@ 0x9a
     5e4:	8217      	strh	r7, [r2, #16]
     5e6:	3269      	adds	r2, #105	@ 0x69
     5e8:	b9bd      	cbnz	r5, 0x61a
     5ea:	76ed      	strb	r5, [r5, #27]
     5ec:	5ae9      	ldrh	r1, [r5, r3]
     5ee:	9934      	ldr	r1, [sp, #208]	@ 0xd0
     5f0:	1e6b      	subs	r3, r5, #1
     5f2:	a5ae      	add	r5, pc, #696	@ (adr r5, 0x8ac)
     5f4:	627c      	str	r4, [r7, #36]	@ 0x24
     5f6:	226f      	movs	r2, #111	@ 0x6f
     5f8:	dbcf      	blt.n	0x59a
     5fa:	5482      	strb	r2, [r0, r2]
     5fc:	8126      	strh	r6, [r4, #8]
     5fe:	cdb6      	ldmia	r5, {r1, r2, r4, r5, r7}
     600:	9f4d      	ldr	r7, [sp, #308]	@ 0x134
     602:	6818      	ldr	r0, [r3, #0]
     604:	c731      	stmia	r7!, {r0, r4, r5}
     606:	e52a      	b.n	0x5e
     608:	1c14      	adds	r4, r2, #0
     60a:	b1a8      	cbz	r0, 0x638
     60c:	9d32      	ldr	r5, [sp, #200]	@ 0xc8
     60e:	7c1e      	ldrb	r6, [r3, #16]
     610:	027f      	lsls	r7, r7, #9
     612:	1406      	asrs	r6, r0, #16
     614:	b84e      			@ <UNDEFINED> instruction: 0xb84e
     616:	cad0      	ldmia	r2!, {r4, r6, r7}
     618:	a463      	add	r4, pc, #396	@ (adr r4, 0x7a8)
     61a:	7b78      	ldrb	r0, [r7, #13]
     61c:	3951      	subs	r1, #81	@ 0x51
     61e:	0766      	lsls	r6, r4, #29
     620:	3b2e      	subs	r3, #46	@ 0x2e
     622:	1360      	asrs	r0, r4, #13
     624:	4860      	ldr	r0, [pc, #384]	@ (0x7a8)
     626:	1aad      	subs	r5, r5, r2
     628:	ec81 61d5 	stfs	f6, [r1], {213}	@ 0xd5
     62c:	d5d0      	bpl.n	0x5d0
     62e:	66b3      	str	r3, [r6, #104]	@ 0x68
     630:	eefe 75d3 	mrc	5, 7, r7, cr14, cr3, {6}
     634:	6e9e      	ldr	r6, [r3, #104]	@ 0x68
     636:	1130      	asrs	r0, r6, #4
     638:	82a9      	strh	r1, [r5, #20]
     63a:	70e5      	strb	r5, [r4, #3]
     63c:	5779      	ldrsb	r1, [r7, r5]
     63e:	1656      	asrs	r6, r2, #25
     640:	b987      	cbnz	r7, 0x664
     642:	6385      	str	r5, [r0, #56]	@ 0x38
     644:	7919      	ldrb	r1, [r3, #4]
     646:	c5cb      	stmia	r5!, {r0, r1, r3, r6, r7}
     648:	fbff b52e 			@ <UNDEFINED> instruction: 0xfbffb52e
     64c:	ac86      	add	r4, sp, #536	@ 0x218
     64e:	a378      	add	r3, pc, #480	@ (adr r3, 0x830)
     650:	1501      	asrs	r1, r0, #20
     652:	c0fd      	stmia	r0!, {r0, r2, r3, r4, r5, r6, r7}
     654:	3618      	adds	r6, #24
     656:	6871      	ldr	r1, [r6, #4]
     658:	cda6      	ldmia	r5, {r1, r2, r5, r7}
     65a:	dd5f      	ble.n	0x71c
     65c:	6120      	str	r0, [r4, #16]
     65e:	7e27      	ldrb	r7, [r4, #24]
     660:	7421      	strb	r1, [r4, #16]
     662:	beda      	bkpt	0x00da
     664:	5739      	ldrsb	r1, [r7, r4]
     666:	7adf      	ldrb	r7, [r3, #11]
     668:	9a34      	ldr	r2, [sp, #208]	@ 0xd0
     66a:	a780      	add	r7, pc, #512	@ (adr r7, 0x86c)
     66c:	fb14 d9a7 			@ <UNDEFINED> instruction: 0xfb14d9a7
     670:	8f35      	ldrh	r5, [r6, #56]	@ 0x38
     672:	677d      	str	r5, [r7, #116]	@ 0x74
     674:	520c      	strh	r4, [r1, r0]
     676:	6a09      	ldr	r1, [r1, #32]
     678:	30d5      	adds	r0, #213	@ 0xd5
     67a:	a536      	add	r5, pc, #216	@ (adr r5, 0x754)
     67c:	bf38      	it	cc
     67e:	a340      	addcc	r3, pc, #256	@ (adr r3, 0x780)
     680:	819e      	strh	r6, [r3, #12]
     682:	d7f3      	bvc.n	0x66c
     684:	7cfb      	ldrb	r3, [r7, #19]
     686:	39e3      	subs	r1, #227	@ 0xe3
     688:	9b82      	ldr	r3, [sp, #520]	@ 0x208
     68a:	ff2f 3487 	vshl.u32	d3, d7, d31
     68e:	438e      	bics	r6, r1
     690:	c444      	stmia	r4!, {r2, r6}
     692:	e9de 54cb 	ldrd	r5, r4, [lr, #812]	@ 0x32c
     696:	947b      	str	r4, [sp, #492]	@ 0x1ec
     698:	a632      	add	r6, pc, #200	@ (adr r6, 0x764)
     69a:	23c2      	movs	r3, #194	@ 0xc2
     69c:	ee3d 954c 	cdp	5, 3, cr9, cr13, cr12, {2}
     6a0:	420b      	tst	r3, r1
     6a2:	c3fa      	stmia	r3!, {r1, r3, r4, r5, r6, r7}
     6a4:	084e      	lsrs	r6, r1, #1
     6a6:	a12e      	add	r1, pc, #184	@ (adr r1, 0x760)
     6a8:	2866      	cmp	r0, #102	@ 0x66
     6aa:	24d9      	movs	r4, #217	@ 0xd9
     6ac:	76b2      	strb	r2, [r6, #26]
     6ae:	a25b      	add	r2, pc, #364	@ (adr r2, 0x81c)
     6b0:	6d49      	ldr	r1, [r1, #84]	@ 0x54
     6b2:	d18b      	bne.n	0x5cc
     6b4:	7225      	strb	r5, [r4, #8]
     6b6:	f6f8 8664 	blt.w	0xfff39382
     6ba:	9868      	ldr	r0, [sp, #416]	@ 0x1a0
     6bc:	d416      	bmi.n	0x6ec
     6be:	5ca4      	ldrb	r4, [r4, r2]
     6c0:	5dcc      	ldrb	r4, [r1, r7]
     6c2:	b665      	cpsie	af
     6c4:	6c92      	ldr	r2, [r2, #72]	@ 0x48
     6c6:	4870      	ldr	r0, [pc, #448]	@ (0x888)
     6c8:	fd50 b9ed 	ldc2l	9, cr11, [r0, #-474]	@ 0xfffffe26	@ <UNPREDICTABLE>
     6cc:	5eda      	ldrsh	r2, [r3, r3]
     6ce:	4615      	mov	r5, r2
     6d0:	a757      	add	r7, pc, #348	@ (adr r7, 0x830)
     6d2:	9d8d      	ldr	r5, [sp, #564]	@ 0x234
     6d4:	9084      	str	r0, [sp, #528]	@ 0x210
     6d6:	abd8      	add	r3, sp, #864	@ 0x360
     6d8:	8c00      	ldrh	r0, [r0, #32]
     6da:	d3bc      	bcc.n	0x656
     6dc:	f70a 58e4 			@ <UNDEFINED> instruction: 0xf70a58e4
     6e0:	b805      			@ <UNDEFINED> instruction: 0xb805
     6e2:	45b3      	cmp	fp, r6
     6e4:	d006      	beq.n	0x6f4
     6e6:	1e2c      	subs	r4, r5, #0
     6e8:	ca8f      	ldmia	r2, {r0, r1, r2, r3, r7}
     6ea:	0f3f      	lsrs	r7, r7, #28
     6ec:	c102      	stmia	r1!, {r1}
     6ee:	bdaf      	pop	{r0, r1, r2, r3, r5, r7, pc}
     6f0:	0103      	lsls	r3, r0, #4
     6f2:	8a13      	ldrh	r3, [r2, #16]
     6f4:	3a6b      	subs	r2, #107	@ 0x6b
     6f6:	1191      	asrs	r1, r2, #6
     6f8:	4f41      	ldr	r7, [pc, #260]	@ (0x800)
     6fa:	dc67      	bgt.n	0x7cc
     6fc:	97ea      	str	r7, [sp, #936]	@ 0x3a8
     6fe:	cff2      	ldmia	r7, {r1, r4, r5, r6, r7}
     700:	f0ce e6b4 	blx	0x4cf46c
     704:	9673      	str	r6, [sp, #460]	@ 0x1cc
     706:	74ac      	strb	r4, [r5, #18]
     708:	e722      	b.n	0x550
     70a:	35ad      	adds	r5, #173	@ 0xad
     70c:	e285      	b.n	0xc1a
     70e:	37f9      	adds	r7, #249	@ 0xf9
     710:	1ce8      	adds	r0, r5, #3
     712:	df75      	svc	117	@ 0x75
     714:	476e      	bx	sp
     716:	1af1      	subs	r1, r6, r3
     718:	1d71      	adds	r1, r6, #5
     71a:	c529      	stmia	r5!, {r0, r3, r5}
     71c:	6f89      	ldr	r1, [r1, #120]	@ 0x78
     71e:	62b7      	str	r7, [r6, #40]	@ 0x28
     720:	aa0e      	add	r2, sp, #56	@ 0x38
     722:	be18      	bkpt	0x0018
     724:	fc1b 3e56 	ldc2	14, cr3, [fp], {86}	@ 0x56
     728:	c64b      	stmia	r6!, {r0, r1, r3, r6}
     72a:	79d2      	ldrb	r2, [r2, #7]
     72c:	9a20      	ldr	r2, [sp, #128]	@ 0x80
     72e:	c0db      	stmia	r0!, {r0, r1, r3, r4, r6, r7}
     730:	78fe      	ldrb	r6, [r7, #3]
     732:	5acd      	ldrh	r5, [r1, r3]
     734:	1ff4      	subs	r4, r6, #7
     736:	a8dd      	add	r0, sp, #884	@ 0x374
     738:	8833      	ldrh	r3, [r6, #0]
     73a:	c707      	stmia	r7!, {r0, r1, r2}
     73c:	b131      	cbz	r1, 0x74c
     73e:	1012      	asrs	r2, r2, #32
     740:	2759      	movs	r7, #89	@ 0x59
     742:	ec80 605f 	stc	0, cr6, [r0], {95}	@ 0x5f
     746:	7f51      	ldrb	r1, [r2, #29]
     748:	19a9      	adds	r1, r5, r6
     74a:	4ab5      	ldr	r2, [pc, #724]	@ (0xa20)
     74c:	2d0d      	cmp	r5, #13
     74e:	7ae5      	ldrb	r5, [r4, #11]
     750:	939f      	str	r3, [sp, #636]	@ 0x27c
     752:	9cc9      	ldr	r4, [sp, #804]	@ 0x324
     754:	a0ef      	add	r0, pc, #956	@ (adr r0, 0xb14)
     756:	3be0      	subs	r3, #224	@ 0xe0
     758:	ae4d      	add	r6, sp, #308	@ 0x134
     75a:	f52a c8b0 	blx	0xff52a8bc
     75e:	bbeb      	cbnz	r3, 0x7dc
     760:	833c      	strh	r4, [r7, #24]
     762:	9953      	ldr	r1, [sp, #332]	@ 0x14c
     764:	1761      	asrs	r1, r4, #29
     766:	042b      	lsls	r3, r5, #16
     768:	ba7e      	rev16	r6, r7
     76a:	d677      	bvs.n	0x85c
     76c:	e126      	b.n	0x9bc
     76e:	1469      	asrs	r1, r5, #17
     770:	5563      	strb	r3, [r4, r5]
     772:	0c21      	lsrs	r1, r4, #16
     774:	477d      	bx	pc
     776:	2ede      	cmp	r6, #222	@ 0xde
     778:	5fb9      	ldrsh	r1, [r7, r6]
     77a:	00ca      	lsls	r2, r1, #3
     77c:	0500      	lsls	r0, r0, #20
     77e:	0500      	lsls	r0, r0, #20
     780:	0510      	lsls	r0, r2, #20
     782:	150a      	asrs	r2, r1, #20
     784:	111b      	asrs	r3, r3, #4
     786:	0601      	lsls	r1, r0, #24
     788:	0e08      	lsrs	r0, r1, #24
     78a:	0112      	lsls	r2, r2, #4
     78c:	0906      	lsrs	r6, r0, #4
     78e:	130f      	asrs	r7, r1, #12
     790:	0702      	lsls	r2, r0, #28
     792:	251f      	movs	r5, #31
     794:	0120      	lsls	r0, r4, #4
     796:	0206      	lsls	r6, r0, #8
     798:	2108      	movs	r1, #8
     79a:	0601      	lsls	r1, r0, #24
     79c:	0802      	lsrs	r2, r0, #32
     79e:	1130      	asrs	r0, r6, #4
     7a0:	1116      	asrs	r6, r2, #4
     7a2:	3217      	adds	r2, #23
     7a4:	0c07      	lsrs	r7, r0, #16
     7a6:	0701      	lsls	r1, r0, #28
     7a8:	0064      	lsls	r4, r4, #1
     7aa:	1103      	asrs	r3, r0, #4
     7ac:	64fb      	str	r3, [r7, #76]	@ 0x4c
     7ae:	0300      	lsls	r0, r0, #12
     7b0:	fb37 0064 			@ <UNDEFINED> instruction: 0xfb370064
     7b4:	5e03      	ldrsh	r3, [r0, r0]
     7b6:	64fb      	str	r3, [r7, #76]	@ 0x4c
     7b8:	0300      	lsls	r0, r0, #12
     7ba:	fb74 0064 			@ <UNDEFINED> instruction: 0xfb740064
     7be:	8a03      	ldrh	r3, [r0, #16]
     7c0:	64fb      	str	r3, [r7, #76]	@ 0x4c
     7c2:	0300      	lsls	r0, r0, #12
     7c4:	fba5 0064 			@ <UNDEFINED> instruction: 0xfba50064
     7c8:	c003      	stmia	r0!, {r0, r1}
     7ca:	96fb      	str	r6, [sp, #1004]	@ 0x3ec
     7cc:	0300      	lsls	r0, r0, #12
     7ce:	fbdb 0064 			@ <UNDEFINED> instruction: 0xfbdb0064
     7d2:	6b03      	ldr	r3, [r0, #48]	@ 0x30
     7d4:	01fc      	lsls	r4, r7, #7
     7d6:	0402      	lsls	r2, r0, #16
     7d8:	1008      	asrs	r0, r1, #32
     7da:	4020      	ands	r0, r4
     7dc:	0080      	lsls	r0, r0, #2
     7de:	8900      	ldrh	r0, [r0, #8]
     7e0:	1211      	asrs	r1, r2, #8
     7e2:	9b23      	ldr	r3, [sp, #140]	@ 0x8c
     7e4:	2432      	movs	r4, #50	@ 0x32
     7e6:	ad46      	add	r5, sp, #280	@ 0x118
     7e8:	3657      	adds	r6, #87	@ 0x57
     7ea:	bf65      	ittet	vs
     7ec:	4874      	ldrvs	r0, [pc, #464]	@ (0x9c0)
     7ee:	c18c      	stmiavs	r1!, {r2, r3, r7}
     7f0:	5a9d      	ldrhvc	r5, [r3, r2]
     7f2:	d3af      	bcc.n	0x754	@ unpredictable <IT:vs>
     7f4:	6cbe      	ldr	r6, [r7, #72]	@ 0x48
     7f6:	e5ca      	b.n	0x38e
     7f8:	7edb      	ldrb	r3, [r3, #27]
     7fa:	f7e9 81f8 	hvc	#37368	@ 0x91f8
     7fe:	0810      	lsrs	r0, r2, #32
     800:	9301      	str	r3, [sp, #4]
     802:	1a33      	subs	r3, r6, r0
     804:	a522      	add	r5, pc, #136	@ (adr r5, 0x890)
     806:	2c56      	cmp	r4, #86	@ 0x56
     808:	b747      			@ <UNDEFINED> instruction: 0xb747
     80a:	3e75      	subs	r6, #117	@ 0x75
     80c:	c964      	ldmia	r1!, {r2, r5, r6}
     80e:	409c      	lsls	r4, r3
     810:	db8d      	blt.n	0x72e
     812:	52bf      	strh	r7, [r7, r2]
     814:	edae 64da 	cfstrs	mvf6, [lr, #872]!	@ 0x368
     818:	ffcb 76f9 	vqshlu.s64	<illegal reg q11.5>, <illegal reg q12.5>, #11
     81c:	02e8      	lsls	r0, r5, #11
     81e:	8b21      	ldrh	r1, [r4, #24]
     820:	1030      	asrs	r0, r6, #32
     822:	9902      	ldr	r1, [sp, #8]
     824:	2613      	movs	r6, #19
     826:	af67      	add	r7, sp, #412	@ 0x19c
     828:	3476      	adds	r4, #118	@ 0x76
     82a:	bd44      	pop	{r2, r6, pc}
     82c:	4a55      	ldr	r2, [pc, #340]	@ (0x984)
     82e:	c3ad      	stmia	r3!, {r0, r2, r3, r5, r7}
     830:	58bc      	ldr	r4, [r7, r2]
     832:	d18e      	bne.n	0x752
     834:	6e9f      	ldr	r7, [r3, #104]	@ 0x68
     836:	e7eb      	b.n	0x810
     838:	7cfa      	ldrb	r2, [r7, #19]
     83a:	f5c8 83d9 	bvc.w	0xfff08ff0
     83e:	0a31      	lsrs	r1, r6, #8
     840:	9120      	str	r1, [sp, #128]	@ 0x80
     842:	1812      	adds	r2, r2, r0
     844:	a703      	add	r7, pc, #12	@ (adr r7, 0x854)
     846:	2e77      	cmp	r6, #119	@ 0x77
     848:	b566      	push	{r1, r2, r5, r6, lr}
     84a:	3c54      	subs	r4, #84	@ 0x54
     84c:	cb45      	ldmia	r3!, {r0, r2, r6}
     84e:	42bd      	cmp	r5, r7
     850:	d9ac      	bls.n	0x7ac
     852:	509e      	str	r6, [r3, r2]
     854:	ef8f 66fb 			@ <UNDEFINED> instruction: 0xef8f66fb
     858:	fdea 74d8 	stc2l	4, cr7, [sl, #864]!	@ 0x360
     85c:	04c9      	lsls	r1, r1, #19
     85e:	8d42      	ldrh	r2, [r0, #42]	@ 0x2a
     860:	1653      	asrs	r3, r2, #25
     862:	9f61      	ldr	r7, [sp, #388]	@ 0x184
     864:	2070      	movs	r0, #112	@ 0x70
     866:	a904      	add	r1, sp, #16
     868:	3215      	adds	r2, #21
     86a:	bb27      	cbnz	r7, 0x8b6
     86c:	4c36      	ldr	r4, [pc, #216]	@ (0x948)
     86e:	c5ce      	stmia	r5!, {r1, r2, r3, r6, r7}
     870:	5edf      	ldrsh	r7, [r3, r3]
     872:	d7ed      	bvc.n	0x850
     874:	68fc      	ldr	r4, [r7, #12]
     876:	e188      	b.n	0xb8a
     878:	7a99      	ldrb	r1, [r3, #10]
     87a:	f3ab 85ba 	undefined (bcc, cond=0xE)
     87e:	0c52      	lsrs	r2, r2, #17
     880:	9743      	str	r7, [sp, #268]	@ 0x10c
     882:	1e71      	subs	r1, r6, #1
     884:	a160      	add	r1, pc, #384	@ (adr r1, 0xa08)
     886:	2814      	cmp	r0, #20
     888:	b305      	cbz	r5, 0x8cc
     88a:	3a37      	subs	r2, #55	@ 0x37
     88c:	cd26      	ldmia	r5, {r1, r2, r5}
     88e:	44de      	add	lr, fp
     890:	dfcf      	svc	207	@ 0xcf
     892:	56fd      	ldrsb	r5, [r7, r3]
     894:	e9ec 6098 	strd	r6, r0, [ip, #608]!	@ 0x260
     898:	fb89 72bb 			@ <UNDEFINED> instruction: 0xfb8972bb
     89c:	06aa      	lsls	r2, r5, #26
     89e:	8f63      	ldrh	r3, [r4, #58]	@ 0x3a
     8a0:	1472      	asrs	r2, r6, #17
     8a2:	9d40      	ldr	r5, [sp, #256]	@ 0x100
     8a4:	2251      	movs	r2, #81	@ 0x51
     8a6:	ab25      	add	r3, sp, #148	@ 0x94
     8a8:	3034      	adds	r0, #52	@ 0x34
     8aa:	b906      	cbnz	r6, 0x8ae
     8ac:	4e17      	ldr	r6, [pc, #92]	@ (0x90c)
     8ae:	c7ef      	stmia	r7!, {r0, r1, r2, r3, r5, r6, r7}
     8b0:	5cfe      	ldrb	r6, [r7, r3]
     8b2:	d5cc      	bpl.n	0x84e
     8b4:	6add      	ldr	r5, [r3, #44]	@ 0x2c
     8b6:	e3a9      	b.n	0x100c
     8b8:	78b8      	ldrb	r0, [r7, #2]
     8ba:	f18a 879b 	bvs.w	0xb7f4
     8be:	0e73      	lsrs	r3, r6, #25
     8c0:	9562      	str	r5, [sp, #392]	@ 0x188
     8c2:	1c50      	adds	r0, r2, #1
     8c4:	a341      	add	r3, pc, #260	@ (adr r3, 0x9cc)
     8c6:	2a35      	cmp	r2, #53	@ 0x35
     8c8:	b124      	cbz	r4, 0x8d4
     8ca:	3816      	subs	r0, #22
     8cc:	cf07      	ldmia	r7!, {r0, r1, r2}
     8ce:	46ff      	mov	pc, pc
     8d0:	ddee      	ble.n	0x8b0
     8d2:	54dc      	strb	r4, [r3, r3]
     8d4:	ebcd 62b9 	rsb	r2, sp, r9, ror #26
     8d8:	f9a8 709a 	vld1.8			@ <UNDEFINED> instruction: 0xf9a8709a
     8dc:	088b      	lsrs	r3, r1, #2
     8de:	8184      	strh	r4, [r0, #12]
     8e0:	1a95      	subs	r5, r2, r2
     8e2:	93a7      	str	r3, [sp, #668]	@ 0x29c
     8e4:	2cb6      	cmp	r4, #182	@ 0xb6
     8e6:	a5c2      	add	r5, pc, #776	@ (adr r5, 0xbf0)
     8e8:	3ed3      	subs	r6, #211	@ 0xd3
     8ea:	b7e1      			@ <UNDEFINED> instruction: 0xb7e1
     8ec:	40f0      	lsrs	r0, r6
     8ee:	c908      	ldmia	r1!, {r3}
     8f0:	5219      	strh	r1, [r3, r0]
     8f2:	db2b      	blt.n	0x94c
     8f4:	643a      	str	r2, [r7, #64]	@ 0x40
     8f6:	ed4e 765f 	stcl	6, cr7, [lr, #-380]	@ 0xfffffe84
     8fa:	ff6d 897c 	vmul.p32	q12, <illegal reg q6.5>, q14
     8fe:	0094      	lsls	r4, r2, #2
     900:	9b85      	ldr	r3, [sp, #532]	@ 0x214
     902:	12b7      	asrs	r7, r6, #10
     904:	ada6      	add	r5, sp, #664	@ 0x298
     906:	24d2      	movs	r4, #210	@ 0xd2
     908:	bfc3      	ittte	gt
     90a:	36f1      	addgt	r6, #241	@ 0xf1
     90c:	c1e0      	stmiagt	r1!, {r5, r6, r7}
     90e:	4818      	ldrgt	r0, [pc, #96]	@ (0x970)
     910:	d309      	bcc.n	0x926	@ unpredictable <IT:le>
     912:	5a3b      	ldrh	r3, [r7, r0]
     914:	e52a      	b.n	0x36c
     916:	6c5e      	ldr	r6, [r3, #68]	@ 0x44
     918:	f74f 7e7d 			@ <UNDEFINED> instruction: 0xf74f7e7d
     91c:	0a6c      	lsrs	r4, r5, #9
     91e:	83a5      	strh	r5, [r4, #28]
     920:	18b4      	adds	r4, r6, r2
     922:	9186      	str	r1, [sp, #536]	@ 0x218
     924:	2e97      	cmp	r6, #151	@ 0x97
     926:	a7e3      	add	r7, pc, #908	@ (adr r7, 0xcb4)
     928:	3cf2      	subs	r4, #242	@ 0xf2
     92a:	b5c0      	push	{r6, r7, lr}
     92c:	42d1      	cmn	r1, r2
     92e:	cb29      	ldmia	r3, {r0, r3, r5}
     930:	5038      	str	r0, [r7, r0]
     932:	d90a      	bls.n	0x94a
     934:	661b      	str	r3, [r3, #96]	@ 0x60
     936:	ef6f 747e 	vqshl.s32	<illegal reg q11.5>, q15, <illegal reg q7.5>
     93a:	fd4c 8b5d 	stc2l	11, cr8, [ip, #-372]	@ 0xfffffe8c	@ <UNPREDICTABLE>
     93e:	02b5      	lsls	r5, r6, #10
     940:	99a4      	ldr	r1, [sp, #656]	@ 0x290
     942:	1096      	asrs	r6, r2, #2
     944:	af87      	add	r7, sp, #540	@ 0x21c
     946:	26f3      	movs	r6, #243	@ 0xf3
     948:	bde2      	pop	{r1, r5, r6, r7, pc}
     94a:	34d0      	adds	r4, #208	@ 0xd0
     94c:	c3c1      	stmia	r3!, {r0, r6, r7}
     94e:	4a39      	ldr	r2, [pc, #228]	@ (0xa34)
     950:	d128      	bne.n	0x9a4
     952:	581a      	ldr	r2, [r3, r0]
     954:	e70b      	b.n	0x76e
     956:	6e7f      	ldr	r7, [r7, #100]	@ 0x64
     958:	f56e 7c5c 	sbc.w	ip, lr, #880	@ 0x370
     95c:	0c4d      	lsrs	r5, r1, #17
     95e:	85c6      	strh	r6, [r0, #46]	@ 0x2e
     960:	1ed7      	subs	r7, r2, #3
     962:	97e5      	str	r7, [sp, #916]	@ 0x394
     964:	28f4      	cmp	r0, #244	@ 0xf4
     966:	a180      	add	r1, pc, #512	@ (adr r1, 0xb68)
     968:	3a91      	subs	r2, #145	@ 0x91
     96a:	b3a3      	cbz	r3, 0x9d6
     96c:	44b2      	add	sl, r6
     96e:	cd4a      	ldmia	r5!, {r1, r3, r6}
     970:	565b      	ldrsb	r3, [r3, r1]
     972:	df69      	svc	105	@ 0x69
     974:	6078      	str	r0, [r7, #4]
     976:	e90c 721d 	stmdb	ip, {r0, r2, r3, r4, r9, ip, sp, lr}
     97a:	fb2f 8d3e 			@ <UNDEFINED> instruction: 0xfb2f8d3e
     97e:	04d6      	lsls	r6, r2, #19
     980:	9fc7      	ldr	r7, [sp, #796]	@ 0x31c
     982:	16f5      	asrs	r5, r6, #27
     984:	a9e4      	add	r1, sp, #912	@ 0x390
     986:	2090      	movs	r0, #144	@ 0x90
     988:	bb81      	cbnz	r1, 0x9ec
     98a:	32b3      	adds	r2, #179	@ 0xb3
     98c:	c5a2      	stmia	r5!, {r1, r5, r7}
     98e:	4c5a      	ldr	r4, [pc, #360]	@ (0xaf8)
     990:	d74b      	bvc.n	0xa2a
     992:	5e79      	ldrsh	r1, [r7, r1]
     994:	e168      	b.n	0xc68
     996:	681c      	ldr	r4, [r3, #0]
     998:	f30d 7a3f 			@ <UNDEFINED> instruction: 0xf30d7a3f
     99c:	0e2e      	lsrs	r6, r5, #24
     99e:	87e7      	strh	r7, [r4, #62]	@ 0x3e
     9a0:	1cf6      	adds	r6, r6, #3
     9a2:	95c4      	str	r5, [sp, #784]	@ 0x310
     9a4:	2ad5      	cmp	r2, #213	@ 0xd5
     9a6:	a3a1      	add	r3, pc, #644	@ (adr r3, 0xc2c)
     9a8:	38b0      	subs	r0, #176	@ 0xb0
     9aa:	b182      	cbz	r2, 0x9ce
     9ac:	4693      	mov	fp, r2
     9ae:	cf6b      	ldmia	r7!, {r0, r1, r3, r5, r6}
     9b0:	547a      	strb	r2, [r7, r1]
     9b2:	dd48      	ble.n	0xa46
     9b4:	6259      	str	r1, [r3, #36]	@ 0x24
     9b6:	eb2d 703c 			@ <UNDEFINED> instruction: 0xeb2d703c
     9ba:	f90e 8f1f 			@ <UNDEFINED> instruction: 0xf90e8f1f
     9be:	06f7      	lsls	r7, r6, #27
     9c0:	9de6      	ldr	r5, [sp, #920]	@ 0x398
     9c2:	14d4      	asrs	r4, r2, #19
     9c4:	abc5      	add	r3, sp, #788	@ 0x314
     9c6:	22b1      	movs	r2, #177	@ 0xb1
     9c8:	b9a0      	cbnz	r0, 0x9f4
     9ca:	3092      	adds	r0, #146	@ 0x92
     9cc:	c783      	stmia	r7!, {r0, r1, r7}
     9ce:	4e7b      	ldr	r6, [pc, #492]	@ (0xbbc)
     9d0:	d56a      	bpl.n	0xaa8
     9d2:	5c58      	ldrb	r0, [r3, r1]
     9d4:	e349      	b.n	0x106a
     9d6:	6a3d      	ldr	r5, [r7, #32]
     9d8:	f12c 781e 			@ <UNDEFINED> instruction: 0xf12c781e
     9dc:	020f      	lsls	r7, r1, #8
     9de:	0003      	movs	r3, r0
     9e0:	0201      	lsls	r1, r0, #8
     9e2:	0003      	movs	r3, r0
     9e4:	0701      	lsls	r1, r0, #28
     9e6:	0000      	movs	r0, r0
     9e8:	0000      	movs	r0, r0
     9ea:	1f09      	subs	r1, r1, #4
	...
     9f4:	0000      	movs	r0, r0
     9f6:	0100      	lsls	r0, r0, #4
     9f8:	000f      	movs	r7, r1
     9fa:	0000      	movs	r0, r0
     9fc:	0040      	lsls	r0, r0, #1
     9fe:	0000      	movs	r0, r0
     a00:	0000      	movs	r0, r0
     a02:	0000      	movs	r0, r0
     a04:	1804      	adds	r4, r0, r0
     a06:	0000      	movs	r0, r0
     a08:	0800      	lsrs	r0, r0, #32
     a0a:	0000      	movs	r0, r0
     a0c:	0000      	movs	r0, r0
     a0e:	0001      	movs	r1, r0
     a10:	0100      	lsls	r0, r0, #4
     a12:	001f      	movs	r7, r3
	...
     a1c:	0000      	movs	r0, r0
     a1e:	1002      	asrs	r2, r0, #32
     a20:	0000      	movs	r0, r0
     a22:	2100      	movs	r1, #0
     a24:	0022      	movs	r2, r4
     a26:	0000      	movs	r0, r0
     a28:	0000      	movs	r0, r0
     a2a:	0100      	lsls	r0, r0, #4
     a2c:	0206      	lsls	r6, r0, #8
     a2e:	0301      	lsls	r1, r0, #12
     a30:	0401      	lsls	r1, r0, #16
     a32:	0901      	lsrs	r1, r0, #4
     a34:	0101      	lsls	r1, r0, #4
     a36:	0402      	lsls	r2, r0, #16
     a38:	1008      	asrs	r0, r1, #32
     a3a:	4020      	ands	r0, r4
     a3c:	0180      	lsls	r0, r0, #6
     a3e:	0200      	lsls	r0, r0, #8
     a40:	0400      	lsls	r0, r0, #16
     a42:	0800      	lsrs	r0, r0, #32
     a44:	1000      	asrs	r0, r0, #32
     a46:	2000      	movs	r0, #0
     a48:	4000      	ands	r0, r0
     a4a:	8000      	strh	r0, [r0, #0]
     a4c:	0000      	movs	r0, r0
     a4e:	0001      	movs	r1, r0
     a50:	0002      	movs	r2, r0
     a52:	0004      	movs	r4, r0
     a54:	0008      	movs	r0, r1
     a56:	0010      	movs	r0, r2
     a58:	0020      	movs	r0, r4
     a5a:	0040      	lsls	r0, r0, #1
     a5c:	0080      	lsls	r0, r0, #2
     a5e:	ff00 0305 	vcgt.u8	d0, d0, d5
     a62:	084a      	lsrs	r2, r1, #1
     a64:	0000      	movs	r0, r0
     a66:	7f06      	ldrb	r6, [r0, #28]
     a68:	0307      	lsls	r7, r0, #12
     a6a:	084d      	lsrs	r5, r1, #1
     a6c:	8000      	strh	r0, [r0, #0]
     a6e:	9f07      	ldr	r7, [sp, #28]
     a70:	0207      	lsls	r7, r0, #8
     a72:	0850      	lsrs	r0, r2, #1
     a74:	a000      	add	r0, pc, #0	@ (adr r0, 0xa78)
     a76:	ff07 0307 	vcgt.u8	d0, d7, d7
     a7a:	0863      	lsrs	r3, r4, #1
     a7c:	0000      	movs	r0, r0
     a7e:	1f08      	subs	r0, r1, #4
     a80:	0208      	lsls	r0, r1, #8
     a82:	0866      	lsrs	r6, r4, #1
     a84:	2000      	movs	r0, #0
     a86:	7f08      	ldrb	r0, [r1, #28]
     a88:	0308      	lsls	r0, r1, #12
     a8a:	0868      	lsrs	r0, r5, #1
     a8c:	8000      	strh	r0, [r0, #0]
     a8e:	df08      	svc	8
     a90:	0308      	lsls	r0, r1, #12
     a92:	086b      	lsrs	r3, r5, #1
     a94:	e000      	b.n	0xa98
     a96:	ff08 0208 	vhsub.u8	d0, d8, d8
     a9a:	0861      	lsrs	r1, r4, #1
     a9c:	0000      	movs	r0, r0
     a9e:	ff09 030b 	vcgt.u8	d0, d9, d11
     aa2:	085b      	lsrs	r3, r3, #1
     aa4:	0007      	movs	r7, r0
     aa6:	1f0c      	subs	r4, r1, #4
     aa8:	090d      	lsrs	r5, r1, #4
     aaa:	0852      	lsrs	r2, r2, #1
     aac:	1007      	asrs	r7, r0, #32
     aae:	8f0e      	ldrh	r6, [r1, #56]	@ 0x38
     ab0:	020e      	lsls	r6, r1, #8
     ab2:	086e      	lsrs	r6, r5, #1
     ab4:	9000      	str	r0, [sp, #0]
     ab6:	a70e      	add	r7, pc, #56	@ (adr r7, 0xaf0)
     ab8:	030e      	lsls	r6, r1, #12
     aba:	0870      	lsrs	r0, r6, #1
     abc:	a800      	add	r0, sp, #0
     abe:	e70e      	b.n	0x8de
     ac0:	020e      	lsls	r6, r1, #8
     ac2:	0873      	lsrs	r3, r6, #1
     ac4:	e800 ef0e 			@ <UNDEFINED> instruction: 0xe800ef0e
     ac8:	020e      	lsls	r6, r1, #8
     aca:	0875      	lsrs	r5, r6, #1
     acc:	f000 ff0e 	bl	0x18ec
     ad0:	080e      	lsrs	r6, r1, #32
     ad2:	0877      	lsrs	r7, r6, #1
     ad4:	0000      	movs	r0, r0
     ad6:	0f0f      	lsrs	r7, r1, #28
     ad8:	020f      	lsls	r7, r1, #8
     ada:	087f      	lsrs	r7, r7, #1
     adc:	1000      	asrs	r0, r0, #32
     ade:	2f0f      	cmp	r7, #15
     ae0:	020f      	lsls	r7, r1, #8
     ae2:	0881      	lsrs	r1, r0, #2
     ae4:	3000      	adds	r0, #0
     ae6:	470f      	bx	r1
     ae8:	030f      	lsls	r7, r1, #12
     aea:	0883      	lsrs	r3, r0, #2
     aec:	4800      	ldr	r0, [pc, #0]	@ (0xaf0)
     aee:	5f0f      	ldrsh	r7, [r1, r4]
     af0:	030f      	lsls	r7, r1, #12
     af2:	0886      	lsrs	r6, r0, #2
     af4:	6000      	str	r0, [r0, #0]
     af6:	770f      	strb	r7, [r1, #28]
     af8:	030f      	lsls	r7, r1, #12
     afa:	0889      	lsrs	r1, r1, #2
     afc:	7800      	ldrb	r0, [r0, #0]
     afe:	8f0f      	ldrh	r7, [r1, #56]	@ 0x38
     b00:	030f      	lsls	r7, r1, #12
     b02:	088c      	lsrs	r4, r1, #2
     b04:	9000      	str	r0, [sp, #0]
     b06:	9f0f      	ldr	r7, [sp, #60]	@ 0x3c
     b08:	020f      	lsls	r7, r1, #8
     b0a:	088f      	lsrs	r7, r1, #2
     b0c:	a000      	add	r0, pc, #0	@ (adr r0, 0xb10)
     b0e:	af0f      	add	r7, sp, #60	@ 0x3c
     b10:	020f      	lsls	r7, r1, #8
     b12:	0891      	lsrs	r1, r2, #2
     b14:	b000      	add	sp, #0
     b16:	bf0f      	iteee	eq
     b18:	020f      	lsleq	r7, r1, #8
     b1a:	0893      	lsrne	r3, r2, #2
     b1c:	c000      	stmiane	r0!, {}
     b1e:	ef0f 030f 	vcgtne.s8	d0, d15, d15
     b22:	085e      	lsrs	r6, r3, #1
     b24:	0000      	movs	r0, r0
     b26:	0101      	lsls	r1, r0, #4
     b28:	0a01      	lsrs	r1, r0, #8
     b2a:	0201      	lsls	r1, r0, #8
     b2c:	0001      	movs	r1, r0
     b2e:	0103      	lsls	r3, r0, #4
     b30:	0401      	lsls	r1, r0, #16
     b32:	0001      	movs	r1, r0
     b34:	0105      	lsls	r5, r0, #4
     b36:	0601      	lsls	r1, r0, #24
     b38:	0101      	lsls	r1, r0, #4
     b3a:	0107      	lsls	r7, r0, #4
     b3c:	ea00 0149 	and.w	r1, r0, r9, lsl #1
     b40:	f701 0649 			@ <UNDEFINED> instruction: 0xf7010649
     b44:	1102      	asrs	r2, r0, #4
     b46:	084a      	lsrs	r2, r1, #1
     b48:	0002      	movs	r2, r0
	...
     b5e:	0001      	movs	r1, r0
	...
     b8c:	0001      	movs	r1, r0
     b8e:	0200      	lsls	r0, r0, #8
     b90:	0000      	movs	r0, r0
     b92:	ffed 020f 	vsubl.u32	q8, d13, d15
     b96:	aeda      	add	r6, sp, #872	@ 0x368
     b98:	8004      	strh	r4, [r0, #0]
     b9a:	e854 cd1c 			@ <UNDEFINED> instruction: 0xe854cd1c
     b9e:	0ed2      	lsrs	r2, r2, #27
     ba0:	f0e9 9edf 	b.w	0x8ea962
     ba4:	d4b4      	bmi.n	0xb10
     ba6:	001f      	movs	r7, r3
     ba8:	fcd0 94b8 	ldc2l	4, cr9, [r0], {184}	@ 0xb8
     bac:	015a      	lsls	r2, r3, #5
     bae:	c584      	stmia	r5!, {r2, r7}
     bb0:	e1ce      	b.n	0xf50
     bb2:	cd1d      	ldmia	r5!, {r0, r2, r3, r4}
     bb4:	4b8f      	ldr	r3, [pc, #572]	@ (0xdf4)
     bb6:	ebb9 fedf 			@ <UNDEFINED> instruction: 0xebb9fedf
     bba:	d4b8      	bmi.n	0xb2e
     bbc:	047f      	lsls	r7, r7, #17
     bbe:	2cd0      	cmp	r4, #208	@ 0xd0
     bc0:	94b9      	str	r4, [sp, #740]	@ 0x2e4
     bc2:	015a      	lsls	r2, r3, #5
     bc4:	c584      	stmia	r5!, {r2, r7}
     bc6:	e1ce      	b.n	0xf66
     bc8:	cd1d      	ldmia	r5!, {r0, r2, r3, r4}
     bca:	4b92      	ldr	r3, [pc, #584]	@ (0xe14)
     bcc:	ebb9 042f 	subs.w	r4, r9, pc, asr #32
     bd0:	2182      	movs	r1, #130	@ 0x82
     bd2:	42c4      	cmn	r4, r0
     bd4:	bd3d      	pop	{r0, r2, r3, r4, r5, pc}
     bd6:	0900      	lsrs	r0, r0, #4
     bd8:	ff4d 3010 	vqadd.u8	d19, d13, d0
     bdc:	7fdf      	ldrb	r7, [r3, #31]
     bde:	5604      	ldrsb	r4, [r0, r0]
     be0:	2920      	cmp	r1, #32
     be2:	40bf      	lsls	r7, r7
     be4:	0000      	movs	r0, r0
     be6:	29b8      	cmp	r1, #184	@ 0xb8
     be8:	0006      	movs	r6, r0
     bea:	f3c1 2463 			@ <UNDEFINED> instruction: 0xf3c12463
     bee:	4039      	ands	r1, r7
     bf0:	0007      	movs	r7, r0
     bf2:	0000      	movs	r0, r0
     bf4:	9200      	str	r2, [sp, #0]
     bf6:	0bf2      	lsrs	r2, r6, #15
     bf8:	0004      	movs	r4, r0
     bfa:	7a80      	ldrb	r0, [r0, #10]
     bfc:	041d      	lsls	r5, r3, #16
     bfe:	2000      	movs	r0, #0
     c00:	4039      	ands	r1, r7
     c02:	01df      	lsls	r7, r3, #7
     c04:	92f1      	str	r2, [sp, #964]	@ 0x3c4
     c06:	6bf2      	ldr	r2, [r6, #60]	@ 0x3c
     c08:	1000      	asrs	r0, r0, #32
     c0a:	1f3c      	subs	r4, r7, #4
     c0c:	7088      	strb	r0, [r1, #2]
     c0e:	0000      	movs	r0, r0
     c10:	0000      	movs	r0, r0
     c12:	9fe0      	ldr	r7, [sp, #896]	@ 0x380
     c14:	3010      	adds	r0, #16
     c16:	df30      	svc	48	@ 0x30
     c18:	24fc      	movs	r4, #252	@ 0xfc
     c1a:	306f      	adds	r0, #111	@ 0x6f
     c1c:	6289      	str	r1, [r1, #40]	@ 0x28
     c1e:	6ee1      	ldr	r1, [r4, #108]	@ 0x6c
     c20:	24e0      	movs	r4, #224	@ 0xe0
     c22:	04df      	lsls	r7, r3, #19
     c24:	f103 3030 	add.w	r0, r3, #808464432	@ 0x30303030
     c28:	fcdf 6f24 	ldc2l	15, cr6, [pc], {36}	@ 0x24
     c2c:	2920      	cmp	r1, #32
     c2e:	41bf      	sbcs	r7, r7
     c30:	0100      	lsls	r0, r0, #4
     c32:	1746      	asrs	r6, r0, #29
     c34:	c0fc      	stmia	r0!, {r2, r3, r4, r5, r6, r7}
     c36:	8000      	strh	r0, [r0, #0]
     c38:	e16b      	b.n	0xf12
     c3a:	cc56      	ldmia	r4, {r1, r2, r4, r6}
     c3c:	4bf0      	ldr	r3, [pc, #960]	@ (0x1000)
     c3e:	2529      	movs	r5, #41	@ 0x29
     c40:	0245      	lsls	r5, r0, #9
     c42:	6f00      	ldr	r0, [r0, #112]	@ 0x70
     c44:	3925      	subs	r1, #37	@ 0x25
     c46:	d240      	bcs.n	0xcca
     c48:	001c      	movs	r4, r3
     c4a:	1050      	asrs	r0, r2, #1
     c4c:	3940      	subs	r1, #64	@ 0x40
     c4e:	e06e      	b.n	0xd2e
     c50:	df24      	svc	36	@ 0x24
     c52:	0304      	lsls	r4, r0, #12
     c54:	10f1      	asrs	r1, r6, #3
     c56:	fcdf 6f24 	ldc2l	15, cr6, [pc], {36}	@ 0x24
     c5a:	06e0      	lsls	r0, r4, #27
     c5c:	f24e 304d 	movw	r0, #58189	@ 0xe34d
     c60:	3010      	adds	r0, #16
     c62:	fcdf 6f24 	ldc2l	15, cr6, [pc], {36}	@ 0x24
     c66:	2920      	cmp	r1, #32
     c68:	44bf      	add	pc, r7
     c6a:	0847      	lsrs	r7, r0, #1
     c6c:	745f      	strb	r7, [r3, #17]
     c6e:	00c4      	lsls	r4, r0, #3
     c70:	5b80      	ldrh	r0, [r0, r6]
     c72:	7413      	strb	r3, [r2, #16]
     c74:	1024      	asrs	r4, r4, #32
     c76:	1484      	asrs	r4, r0, #18
     c78:	01b0      	lsls	r0, r6, #6
     c7a:	7460      	strb	r0, [r4, #17]
     c7c:	0fc1      	lsrs	r1, r0, #31
     c7e:	000c      	movs	r4, r1
     c80:	16b8      	asrs	r0, r7, #26
     c82:	c56e      	stmia	r5!, {r1, r2, r3, r5, r6}
     c84:	bf0c      	ite	eq
     c86:	5294      	strheq	r4, [r2, r2]
     c88:	2452      	movne	r4, #82	@ 0x52
     c8a:	f000 9256 	b.w	0xc0113a
     c8e:	1403      	asrs	r3, r0, #16
     c90:	fe13 06e1 	cdp2	6, 1, cr0, cr3, cr1, {7}
     c94:	f24e 304d 	movw	r0, #58189	@ 0xe34d
     c98:	3010      	adds	r0, #16
     c9a:	3030      	adds	r0, #48	@ 0x30
     c9c:	3030      	adds	r0, #48	@ 0x30
     c9e:	df30      	svc	48	@ 0x30
     ca0:	24fc      	movs	r4, #252	@ 0xfc
     ca2:	106f      	asrs	r7, r5, #1
     ca4:	f673 06e1 			@ <UNDEFINED> instruction: 0xf67306e1
     ca8:	f24e 304d 	movw	r0, #58189	@ 0xe34d
     cac:	df10      	svc	16
     cae:	24fc      	movs	r4, #252	@ 0xfc
     cb0:	106f      	asrs	r7, r5, #1
     cb2:	f3c3 06e1 			@ <UNDEFINED> instruction: 0xf3c306e1
     cb6:	f24e 304d 	movw	r0, #58189	@ 0xe34d
     cba:	df10      	svc	16
     cbc:	24fc      	movs	r4, #252	@ 0xfc
     cbe:	106f      	asrs	r7, r5, #1
     cc0:	f6c3 06e1 	movt	r6, #14561	@ 0x38e1
     cc4:	f24e 304d 	movw	r0, #58189	@ 0xe34d
     cc8:	df10      	svc	16
     cca:	24fc      	movs	r4, #252	@ 0xfc
     ccc:	106f      	asrs	r7, r5, #1
     cce:	5e03      	ldrsh	r3, [r0, r0]
     cd0:	06e3      	lsls	r3, r4, #27
     cd2:	f24e 304d 	movw	r0, #58189	@ 0xe34d
     cd6:	df10      	svc	16
     cd8:	24fc      	movs	r4, #252	@ 0xfc
     cda:	106f      	asrs	r7, r5, #1
     cdc:	60a3      	str	r3, [r4, #8]
     cde:	06e3      	lsls	r3, r4, #27
     ce0:	f24e 304d 	movw	r0, #58189	@ 0xe34d
     ce4:	3010      	adds	r0, #16
     ce6:	fcdf 6f24 	ldc2l	15, cr6, [pc], {36}	@ 0x24
     cea:	6310      	str	r0, [r2, #48]	@ 0x30
     cec:	e36f      	b.n	0x13ce
     cee:	4e06      	ldr	r6, [pc, #24]	@ (0xd08)
     cf0:	4df2      	ldr	r5, [pc, #968]	@ (0x10bc)
     cf2:	1030      	asrs	r0, r6, #32
     cf4:	3010      	adds	r0, #16
     cf6:	7fdf      	ldrb	r7, [r3, #31]
     cf8:	4604      	mov	r4, r0
     cfa:	1450      	asrs	r0, r2, #17
     cfc:	1df0      	adds	r0, r6, #7
     cfe:	df10      	svc	16
     d00:	047f      	lsls	r7, r7, #17
     d02:	1046      	asrs	r6, r0, #1
     d04:	ed13 1df1 	ldc	13, cr1, [r3, #-964]	@ 0xfffffc3c
     d08:	1110      	asrs	r0, r2, #4
     d0a:	1058      	asrs	r0, r3, #1
     d0c:	bd53      	pop	{r0, r1, r4, r6, pc}
     d0e:	9d31      	ldr	r5, [sp, #196]	@ 0xc4
     d10:	3385      	adds	r3, #133	@ 0x85
     d12:	1153      	asrs	r3, r2, #5
     d14:	1169      	asrs	r1, r5, #5
     d16:	bcb3      	pop	{r0, r1, r4, r5, r7}
     d18:	cd21      	ldmia	r5, {r0, r5}
     d1a:	0006      	movs	r6, r0
     d1c:	9210      	str	r2, [sp, #64]	@ 0x40
     d1e:	1403      	asrs	r3, r0, #16
     d20:	0680      	lsls	r0, r0, #26
     d22:	bf21      	itttt	cs
     d24:	d21b      	bcs.n	0xd5e	@ unpredictable <IT:cs>
     d26:	006e      	lslcs	r6, r5, #1
     d28:	1160      	asrcs	r0, r4, #5
     d2a:	0680      	lslcs	r0, r0, #26
     d2c:	b521      	push	{r0, r5, lr}
     d2e:	111b      	asrs	r3, r3, #4
     d30:	1058      	asrs	r0, r3, #1
     d32:	baf3      	revsh	r3, r6
     d34:	f011 212a 	ands.w	r1, r1, #704653824	@ 0x2a002a00
     d38:	1baa      	subs	r2, r5, r6
     d3a:	6511      	str	r1, [r2, #80]	@ 0x50
     d3c:	4311      	orrs	r1, r2
     d3e:	81ba      	strh	r2, [r7, #12]
     d40:	0c79      	lsrs	r1, r7, #17
     d42:	dff1      	svc	241	@ 0xf1
     d44:	047f      	lsls	r7, r7, #17
     d46:	5046      	str	r6, [r0, r1]
     d48:	f044 101d 	orr.w	r0, r4, #1900573	@ 0x1d001d
     d4c:	7fdf      	ldrb	r7, [r3, #31]
     d4e:	4604      	mov	r4, r0
     d50:	a450      	add	r4, pc, #320	@ (adr r4, 0xe94)
     d52:	1df0      	adds	r0, r6, #7
     d54:	6c10      	ldr	r0, [r2, #64]	@ 0x40
     d56:	100b      	asrs	r3, r1, #32
     d58:	0541      	lsls	r1, r0, #21
     d5a:	1001      	asrs	r1, r0, #32
     d5c:	0541      	lsls	r1, r0, #21
     d5e:	1000      	asrs	r0, r0, #32
     d60:	0641      	lsls	r1, r0, #25
     d62:	1001      	asrs	r1, r0, #32
     d64:	f292 120b 			@ <UNDEFINED> instruction: 0xf292120b
     d68:	00b0      	lsls	r0, r6, #2
     d6a:	4032      	ands	r2, r6
     d6c:	4310      	orrs	r0, r2
     d6e:	11ad      	asrs	r5, r5, #6
     d70:	b553      	push	{r0, r1, r4, r6, lr}
     d72:	d311      	bcc.n	0xd98
     d74:	1322      	asrs	r2, r4, #12
     d76:	3cc3      	subs	r4, #195	@ 0xc3
     d78:	d313      	bcc.n	0xda2
     d7a:	134f      	asrs	r7, r1, #13
     d7c:	6243      	str	r3, [r0, #36]	@ 0x24
     d7e:	5313      	strh	r3, [r2, r4]
     d80:	2385      	movs	r3, #133	@ 0x85
     d82:	cf29      	ldmia	r7!, {r0, r3, r5}
     d84:	0392      	lsls	r2, r2, #14
     d86:	a013      	add	r0, pc, #76	@ (adr r0, 0xdd4)
     d88:	1038      	asrs	r0, r7, #32
     d8a:	cb83      	ldmia	r3!, {r0, r1, r7}
     d8c:	e316      	b.n	0x13bc
     d8e:	137f      	asrs	r7, r7, #13
     d90:	98f3      	ldr	r0, [sp, #972]	@ 0x3cc
     d92:	f103 0a0a 	add.w	sl, r3, #10
     d96:	645a      	str	r2, [r3, #68]	@ 0x44
     d98:	d721      	bvc.n	0xdde
     d9a:	4519      	cmp	r1, r3
     d9c:	4107      	asrs	r7, r0
     d9e:	0006      	movs	r6, r0
     da0:	0841      	lsrs	r1, r0, #1
     da2:	0a00      	lsrs	r0, r0, #8
     da4:	5a08      	ldrh	r0, [r1, r0]
     da6:	2100      	movs	r1, #0
     da8:	1c98      	adds	r0, r3, #2
     daa:	5721      	ldrsb	r1, [r4, r4]
     dac:	211b      	movs	r1, #27
     dae:	09b9      	lsrs	r1, r7, #6
     db0:	6521      	str	r1, [r4, #80]	@ 0x50
     db2:	2037      	movs	r0, #55	@ 0x37
     db4:	7c6a      	ldrb	r2, [r5, #17]
     db6:	6c20      	ldr	r0, [r4, #64]	@ 0x40
     db8:	2001      	movs	r0, #1
     dba:	026e      	lsls	r6, r5, #9
     dbc:	eb20 8342 			@ <UNDEFINED> instruction: 0xeb208342
     dc0:	26c3      	movs	r6, #195	@ 0xc3
     dc2:	4039      	ands	r1, r7
     dc4:	a721      	add	r7, pc, #132	@ (adr r7, 0xe4c)
     dc6:	211b      	movs	r1, #27
     dc8:	1b1a      	subs	r2, r3, r4
     dca:	0244      	lsls	r4, r0, #9
     dcc:	0345      	lsls	r5, r0, #13
     dce:	8cd2      	ldrh	r2, [r2, #38]	@ 0x26
     dd0:	b004      	add	sp, #16
     dd2:	8414      	strh	r4, [r2, #32]
     dd4:	4004      	ands	r4, r0
     dd6:	8024      	strh	r4, [r4, #0]
     dd8:	0d10      	lsrs	r0, r2, #20
     dda:	0b6c      	lsrs	r4, r5, #13
     ddc:	00cc      	lsls	r4, r1, #3
     dde:	2200      	movs	r2, #0
     de0:	c2d3      	stmia	r2!, {r0, r1, r4, r6, r7}
     de2:	20b6      	movs	r0, #182	@ 0xb6
     de4:	0144      	lsls	r4, r0, #5
     de6:	4900      	ldr	r1, [pc, #0]	@ (0xde8)
     de8:	0b6c      	lsrs	r4, r5, #13
     dea:	00cc      	lsls	r4, r1, #3
     dec:	b800      			@ <UNDEFINED> instruction: 0xb800
     dee:	0a12      	lsrs	r2, r2, #8
     df0:	5a0a      	ldrh	r2, [r1, r0]
     df2:	2164      	movs	r1, #100	@ 0x64
     df4:	197c      	adds	r4, r7, r5
     df6:	0745      	lsls	r5, r0, #29
     df8:	6dd2      	ldr	r2, [r2, #92]	@ 0x5c
     dfa:	f000 d209 	bl	0xc01210
     dfe:	008e      	lsls	r6, r1, #2
     e00:	1470      	asrs	r0, r6, #17
     e02:	1084      	asrs	r4, r0, #2
     e04:	7440      	strb	r0, [r0, #17]
     e06:	0a20      	lsrs	r0, r4, #8
     e08:	0d01      	lsrs	r1, r0, #20
     e0a:	7dd2      	ldrb	r2, [r2, #23]
     e0c:	e000      	b.n	0xe10
     e0e:	ec0d 09c4 			@ <UNDEFINED> instruction: 0xec0d09c4
     e12:	0b6d      	lsrs	r5, r5, #13
     e14:	050a      	lsls	r2, r1, #20
     e16:	325a      	adds	r2, #90	@ 0x5a
     e18:	5721      	ldrsb	r1, [r4, r4]
     e1a:	4519      	cmp	r1, r3
     e1c:	4109      	asrs	r1, r1
     e1e:	0005      	movs	r5, r0
     e20:	7121      	strb	r1, [r4, #4]
     e22:	981c      	ldr	r0, [sp, #112]	@ 0x70
     e24:	d24f      	bcs.n	0xec6
     e26:	005c      	lsls	r4, r3, #1
     e28:	10b0      	asrs	r0, r6, #2
     e2a:	cb93      	ldmia	r3!, {r0, r1, r4, r7}
     e2c:	e991 4409 			@ <UNDEFINED> instruction: 0xe9914409
     e30:	5403      	strb	r3, [r0, r0]
     e32:	2302      	movs	r3, #2
     e34:	ca84      	ldmia	r2, {r2, r7}
     e36:	9442      	str	r4, [sp, #264]	@ 0x108
     e38:	0a20      	lsrs	r0, r4, #8
     e3a:	0d01      	lsrs	r1, r0, #20
     e3c:	9ed2      	ldr	r6, [sp, #840]	@ 0x348
     e3e:	8000      	strh	r0, [r0, #0]
     e40:	2311      	movs	r3, #17
     e42:	11ca      	asrs	r2, r1, #7
     e44:	0064      	lsls	r4, r4, #1
     e46:	8410      	strh	r0, [r2, #32]
     e48:	1000      	asrs	r0, r0, #32
     e4a:	b213      	sxth	r3, r2
     e4c:	ed21 0006 	stc	0, cr0, [r1, #-24]!	@ 0xffffffe8
     e50:	4412      	add	r2, r2
     e52:	1102      	asrs	r2, r0, #4
     e54:	40a3      	lsls	r3, r4
     e56:	1024      	asrs	r4, r4, #32
     e58:	3080      	adds	r0, #128	@ 0x80
     e5a:	0244      	lsls	r4, r0, #9
     e5c:	5311      	strh	r1, [r2, r4]
     e5e:	c010      	stmia	r0!, {r4}
     e60:	d215      	bcs.n	0xe8e
     e62:	048e      	lsls	r6, r1, #18
     e64:	2260      	movs	r2, #96	@ 0x60
     e66:	0aed      	lsrs	r5, r5, #11
     e68:	0c01      	lsrs	r1, r0, #16
     e6a:	7721      	strb	r1, [r4, #28]
     e6c:	211a      	movs	r1, #26
     e6e:	37d9      	adds	r7, #217	@ 0xd9
     e70:	7121      	strb	r1, [r4, #4]
     e72:	411a      	asrs	r2, r3
     e74:	0000      	movs	r0, r0
     e76:	9d99      	ldr	r5, [sp, #612]	@ 0x264
     e78:	041e      	lsls	r6, r3, #16
     e7a:	9000      	str	r0, [sp, #0]
     e7c:	e929 4110 	stmdb	r9!, {r4, r8, lr}
     e80:	0006      	movs	r6, r0
     e82:	08c0      	lsrs	r0, r0, #3
     e84:	a021      	add	r0, pc, #132	@ (adr r0, 0xf0c)
     e86:	8c1c      	ldrh	r4, [r3, #32]
     e88:	0a00      	lsrs	r0, r0, #8
     e8a:	0641      	lsls	r1, r0, #25
     e8c:	9801      	ldr	r0, [sp, #4]
     e8e:	0a24      	lsrs	r4, r4, #8
     e90:	5a08      	ldrh	r0, [r1, r0]
     e92:	2100      	movs	r1, #0
     e94:	1bac      	subs	r4, r5, r6
     e96:	08c0      	lsrs	r0, r0, #3
     e98:	8c21      	ldrh	r1, [r4, #32]
     e9a:	8c1c      	ldrh	r4, [r3, #32]
     e9c:	0600      	lsls	r0, r0, #24
     e9e:	0641      	lsls	r1, r0, #25
     ea0:	1001      	asrs	r1, r0, #32
     ea2:	0641      	lsls	r1, r0, #25
     ea4:	ec00 03e8 	stc	3, cr0, [r0], {232}	@ 0xe8
     ea8:	7c21      	ldrb	r1, [r4, #16]
     eaa:	8c1c      	ldrh	r4, [r3, #32]
     eac:	0600      	lsls	r0, r0, #24
     eae:	0641      	lsls	r1, r0, #25
     eb0:	1001      	asrs	r1, r0, #32
     eb2:	7fdf      	ldrb	r7, [r3, #31]
     eb4:	4604      	mov	r4, r0
     eb6:	d540      	bpl.n	0xf3a
     eb8:	4230      	tst	r0, r6
     eba:	11a8      	asrs	r0, r5, #6
     ebc:	94c2      	str	r4, [sp, #776]	@ 0x308
     ebe:	240d      	movs	r4, #13
     ec0:	4611      	mov	r1, r2
     ec2:	d450      	bmi.n	0xf66
     ec4:	1df0      	adds	r0, r6, #7
     ec6:	1010      	asrs	r0, r2, #32
     ec8:	3ed2      	subs	r6, #210	@ 0xd2
     eca:	b001      	add	sp, #4
     ecc:	4010      	ands	r0, r2
     ece:	4177      	adcs	r7, r6
     ed0:	0113      	lsls	r3, r2, #4
     ed2:	1110      	asrs	r0, r2, #4
     ed4:	1774      	asrs	r4, r6, #29
     ed6:	0134      	lsls	r4, r6, #4
     ed8:	f100 fddf 	bl	0x101a9a
     edc:	4714      	bxns	r2
     ede:	0460      	lsls	r0, r4, #17
     ee0:	0f45      	lsrs	r5, r0, #29
     ee2:	d16e      	bne.n	0xfc2
     ee4:	1106      	asrs	r6, r0, #4
     ee6:	10e4      	asrs	r4, r4, #3
     ee8:	10a0      	asrs	r0, r4, #2
     eea:	6010      	str	r0, [r2, #0]
     eec:	dfe5      	svc	229	@ 0xe5
     eee:	f103 0e41 	add.w	lr, r3, #65	@ 0x41
     ef2:	0a00      	lsrs	r0, r0, #8
     ef4:	1100      	asrs	r0, r0, #4
     ef6:	0e4b      	lsrs	r3, r1, #25
     ef8:	dff1      	svc	241	@ 0xf1
     efa:	047e      	lsls	r6, r7, #17
     efc:	000a      	movs	r2, r1
     efe:	2147      	movs	r1, #71	@ 0x47
     f00:	15dd      	asrs	r5, r3, #23
     f02:	6b00      	ldr	r0, [r0, #48]	@ 0x30
     f04:	0461      	lsls	r1, r4, #17
     f06:	1254      	asrs	r4, r2, #9
     f08:	8423      	strh	r3, [r4, #32]
     f0a:	01da      	lsls	r2, r3, #7
     f0c:	0144      	lsls	r4, r0, #5
     f0e:	3220      	adds	r2, #32
     f10:	440b      	add	r3, r1
     f12:	a214      	add	r2, pc, #80	@ (adr r2, 0xf64)
     f14:	d010      	beq.n	0xf38
     f16:	0460      	lsls	r0, r4, #17
     f18:	1245      	asrs	r5, r0, #9
     f1a:	1440      	asrs	r0, r0, #17
     f1c:	3200      	adds	r2, #0
     f1e:	1342      	asrs	r2, r0, #13
     f20:	3dd2      	subs	r5, #210	@ 0xd2
     f22:	b001      	add	sp, #4
     f24:	d20d      	bcs.n	0xf42
     f26:	049f      	lsls	r7, r3, #18
     f28:	0d10      	lsrs	r0, r2, #20
     f2a:	edd2 6000 	ldcl	0, cr6, [r2]
     f2e:	2111      	movs	r1, #17
     f30:	3745      	adds	r7, #69	@ 0x45
     f32:	08d2      	lsrs	r2, r2, #3
     f34:	1080      	asrs	r0, r0, #2
     f36:	cb83      	ldmia	r3!, {r0, r1, r7}
     f38:	09b6      	lsrs	r6, r6, #6
     f3a:	2310      	movs	r3, #16
     f3c:	230f      	movs	r3, #15
     f3e:	0ecd      	lsrs	r5, r1, #27
     f40:	1500      	asrs	r0, r0, #20
     f42:	3221      	adds	r2, #33	@ 0x21
     f44:	0a19      	lsrs	r1, r3, #8
     f46:	1108      	asrs	r0, r1, #4
     f48:	1c92      	adds	r2, r2, #2
     f4a:	9643      	str	r6, [sp, #268]	@ 0x10c
     f4c:	9441      	str	r4, [sp, #260]	@ 0x104
     f4e:	8024      	strh	r4, [r4, #0]
     f50:	11ce      	asrs	r6, r1, #7
     f52:	93e3      	str	r3, [sp, #908]	@ 0x38c
     f54:	08c4      	lsrs	r4, r0, #3
     f56:	11c0      	asrs	r0, r0, #7
     f58:	0d80      	lsrs	r0, r0, #22
     f5a:	080a      	lsrs	r2, r1, #32
     f5c:	1156      	asrs	r6, r2, #5
     f5e:	ae13      	add	r6, sp, #76	@ 0x4c
     f60:	c311      	stmia	r3!, {r0, r4}
     f62:	8193      	strh	r3, [r2, #12]
     f64:	2209      	movs	r2, #9
     f66:	49cd      	ldr	r1, [pc, #820]	@ (0x129c)
     f68:	0500      	lsls	r0, r0, #20
     f6a:	c511      	stmia	r5!, {r0, r4}
     f6c:	0ec0      	lsrs	r0, r0, #27
     f6e:	10fa      	asrs	r2, r7, #3
     f70:	7003      	strb	r3, [r0, #0]
     f72:	a311      	add	r3, pc, #68	@ (adr r3, 0xfb8)
     f74:	1192      	asrs	r2, r2, #6
     f76:	1233      	asrs	r3, r6, #8
     f78:	3833      	subs	r0, #51	@ 0x33
     f7a:	d26c      	bcs.n	0x1056
     f7c:	015e      	lsls	r6, r3, #5
     f7e:	2750      	movs	r7, #80	@ 0x50
     f80:	49cd      	ldr	r1, [pc, #820]	@ (0x12b8)
     f82:	0800      	lsrs	r0, r0, #32
     f84:	e211      	b.n	0x13aa
     f86:	2fe7      	cmp	r7, #231	@ 0xe7
     f88:	c611      	stmia	r6!, {r0, r4}
     f8a:	8316      	strh	r6, [r2, #24]
     f8c:	1471      	asrs	r1, r6, #17
     f8e:	9dd3      	ldr	r5, [sp, #844]	@ 0x34c
     f90:	f981 d014 	vst1.8			@ <UNDEFINED> instruction: 0xf981d014
     f94:	4409      	add	r1, r1
     f96:	0249      	lsls	r1, r1, #9
     f98:	1ce8      	adds	r0, r5, #3
     f9a:	f621 8c48 	bhi.w	0xfffa282e
     f9e:	0d00      	lsrs	r0, r0, #20
     fa0:	080a      	lsrs	r2, r1, #32
     fa2:	1156      	asrs	r6, r2, #5
     fa4:	a9b3      	add	r1, sp, #716	@ 0x2cc
     fa6:	c311      	stmia	r3!, {r0, r4}
     fa8:	246f      	movs	r4, #111	@ 0x6f
     faa:	49cd      	ldr	r1, [pc, #820]	@ (0x12e0)
     fac:	0800      	lsrs	r0, r0, #32
     fae:	b811      			@ <UNDEFINED> instruction: 0xb811
     fb0:	2fe7      	cmp	r7, #231	@ 0xe7
     fb2:	9c11      	ldr	r4, [sp, #68]	@ 0x44
     fb4:	3836      	subs	r0, #54	@ 0x36
     fb6:	216c      	movs	r1, #108	@ 0x6c
     fb8:	19b4      	adds	r4, r6, r6
     fba:	02df      	lsls	r7, r3, #11
     fbc:	d2f1      	bcs.n	0xfa2
     fbe:	013c      	lsls	r4, r7, #4
     fc0:	13f0      	asrs	r0, r6, #15
     fc2:	d910      	bls.n	0xfe6
     fc4:	00cc      	lsls	r4, r1, #3
     fc6:	b800      			@ <UNDEFINED> instruction: 0xb800
     fc8:	1130      	asrs	r0, r6, #4
     fca:	d622      	bvs.n	0x1012
     fcc:	5008      	str	r0, [r1, r0]
     fce:	ed22 0015 	stc	0, cr0, [r2, #-84]!	@ 0xffffffac
     fd2:	211c      	movs	r1, #28
     fd4:	19ca      	adds	r2, r1, r7
     fd6:	3211      	adds	r2, #17
     fd8:	c010      	stmia	r0!, {r4}
     fda:	4160      	adcs	r0, r4
     fdc:	0414      	lsls	r4, r2, #16
     fde:	b721      			@ <UNDEFINED> instruction: 0xb721
     fe0:	1046      	asrs	r6, r0, #1
     fe2:	4941      	ldr	r1, [pc, #260]	@ (0x10e8)
     fe4:	1001      	asrs	r1, r0, #32
     fe6:	b721      			@ <UNDEFINED> instruction: 0xb721
     fe8:	1119      	asrs	r1, r3, #4
     fea:	35fb      	adds	r5, #251	@ 0xfb
     fec:	6cb8      	ldr	r0, [r7, #72]	@ 0x48
     fee:	009b      	lsls	r3, r3, #2
     ff0:	6f21      	ldr	r1, [r4, #112]	@ 0x70
     ff2:	2130      	movs	r1, #48	@ 0x30
     ff4:	1881      	adds	r1, r0, r2
     ff6:	080a      	lsrs	r2, r1, #32
     ff8:	e111      	b.n	0x121e
     ffa:	331b      	adds	r3, #27
     ffc:	c18b      	stmia	r1!, {r0, r1, r3, r7}
     ffe:	fa0e f310 			@ <UNDEFINED> instruction: 0xfa0ef310
    1002:	1166      	asrs	r6, r4, #5
    1004:	8993      	ldrh	r3, [r2, #12]
    1006:	2311      	movs	r3, #17
    1008:	0309      	lsls	r1, r1, #12
    100a:	dff1      	svc	241	@ 0xf1
    100c:	10af      	asrs	r7, r5, #2
    100e:	5010      	str	r0, [r2, r0]
    1010:	ecce 03e8 	stcl	3, cr0, [lr], {232}	@ 0xe8
    1014:	5c21      	ldrb	r1, [r4, r0]
    1016:	1216      	asrs	r6, r2, #8
    1018:	2924      	cmp	r1, #36	@ 0x24
    101a:	47bf      			@ <UNDEFINED> instruction: 0x47bf
    101c:	e310      	b.n	0x1640
    101e:	130a      	asrs	r2, r1, #12
    1020:	0494      	lsls	r4, r2, #18
    1022:	0560      	lsls	r0, r4, #21
    1024:	40d1      	lsrs	r1, r2
    1026:	1412      	asrs	r2, r2, #16
    1028:	3bfc      	subs	r3, #252	@ 0xfc
    102a:	9246      	str	r2, [sp, #280]	@ 0x118
    102c:	5414      	strb	r4, [r2, r0]
    102e:	f011 101d 	ands.w	r0, r1, #1900573	@ 0x1d001d
    1032:	2fdf      	cmp	r7, #223	@ 0xdf
    1034:	9241      	str	r2, [sp, #260]	@ 0x104
    1036:	7bf2      	ldrb	r2, [r6, #15]
    1038:	2104      	movs	r1, #4
    103a:	30cc      	adds	r0, #204	@ 0xcc
    103c:	1056      	asrs	r6, r2, #1
    103e:	240d      	movs	r4, #13
    1040:	c141      	stmia	r1!, {r0, r6}
    1042:	63bf      	str	r7, [r7, #56]	@ 0x38
    1044:	4924      	ldr	r1, [pc, #144]	@ (0x10d8)
    1046:	000a      	movs	r2, r1
    1048:	ab11      	add	r3, sp, #68	@ 0x44
    104a:	541c      	strb	r4, [r3, r0]
    104c:	f001 101d 	and.w	r0, r1, #1900573	@ 0x1d001d
    1050:	fddf 4714 	ldc2l	7, cr4, [pc, #80]	@ 0x10a4
    1054:	0460      	lsls	r0, r4, #17
    1056:	114e      	asrs	r6, r1, #5
    1058:	9953      	ldr	r1, [sp, #332]	@ 0x14c
    105a:	3df1      	subs	r5, #241	@ 0xf1
    105c:	df10      	svc	16
    105e:	047e      	lsls	r6, r7, #17
    1060:	4ae0      	ldr	r2, [pc, #896]	@ (0x13e4)
    1062:	2046      	movs	r0, #70	@ 0x46
    1064:	8488      	strh	r0, [r1, #36]	@ 0x24
    1066:	1147      	asrs	r7, r0, #5
    1068:	1194      	asrs	r4, r2, #6
    106a:	10a0      	asrs	r0, r4, #2
    106c:	ae00      	add	r6, sp, #0
    106e:	0564      	lsls	r4, r4, #21
    1070:	5982      	ldr	r2, [r0, r6]
    1072:	00a8      	lsls	r0, r5, #2
    1074:	aed0      	add	r6, sp, #832	@ 0x340
    1076:	6024      	str	r4, [r4, #0]
    1078:	8205      	strh	r5, [r0, #16]
    107a:	6859      	ldr	r1, [r3, #4]
    107c:	2104      	movs	r1, #4
    107e:	194d      	adds	r5, r1, r5
    1080:	d146      	bne.n	0x1110
    1082:	f0a8 0310 			@ <UNDEFINED> instruction: 0xf0a80310
    1086:	6121      	str	r1, [r4, #16]
    1088:	2104      	movs	r1, #4
    108a:	4919      	ldr	r1, [pc, #100]	@ (0x10f0)
    108c:	02df      	lsls	r7, r3, #11
    108e:	44f1      	add	r9, lr
    1090:	1037      	asrs	r7, r6, #32
    1092:	64c0      	str	r0, [r0, #76]	@ 0x4c
    1094:	0111      	lsls	r1, r2, #4
    1096:	f100 f2cf 	bl	0x501638
    109a:	206f      	movs	r0, #111	@ 0x6f
    109c:	37fd      	adds	r7, #253	@ 0xfd
    109e:	b500      	push	{lr}
    10a0:	fd20 0023 	stc2	0, cr0, [r0, #-140]!	@ 0xffffff74
    10a4:	a0a4      	add	r0, pc, #656	@ (adr r0, 0x1338)
    10a6:	7000      	strb	r0, [r0, #0]
    10a8:	9824      	ldr	r0, [sp, #144]	@ 0x90
    10aa:	e05c      	b.n	0x1166
    10ac:	464a      	mov	r2, r9
    10ae:	8822      	ldrh	r2, [r4, #0]
    10b0:	0c84      	lsrs	r4, r0, #18
    10b2:	d802      	bhi.n	0x10ba
    10b4:	ed20 024a 	sfm	f0, 4, [r0, #-296]!	@ 0xfffffed8
    10b8:	2246      	movs	r2, #70	@ 0x46
    10ba:	8488      	strh	r0, [r1, #36]	@ 0x24
    10bc:	0281      	lsls	r1, r0, #10
    10be:	4aed      	ldr	r2, [pc, #948]	@ (0x1474)
    10c0:	5602      	ldrsb	r2, [r0, r0]
    10c2:	9822      	ldr	r0, [sp, #136]	@ 0x88
    10c4:	ed85 024a 	sfm	f0, 4, [r5, #296]	@ 0x128
    10c8:	2246      	movs	r2, #70	@ 0x46
    10ca:	8488      	strh	r0, [r1, #36]	@ 0x24
    10cc:	fec1 4aed 	vminnm.f32	s9, s3, s27
    10d0:	5602      	ldrsb	r2, [r0, r0]
    10d2:	9822      	ldr	r0, [sp, #136]	@ 0x88
    10d4:	4685      	mov	sp, r0
    10d6:	1082      	asrs	r2, r0, #2
    10d8:	460d      	mov	r5, r1
    10da:	00c2      	lsls	r2, r0, #3
    10dc:	9d82      	ldr	r5, [sp, #520]	@ 0x208
    10de:	06e9      	lsls	r1, r5, #27
    10e0:	246d      	movs	r4, #109	@ 0x6d
    10e2:	d06e      	beq.n	0x11c2
    10e4:	1266      	asrs	r6, r4, #9
    10e6:	1234      	asrs	r4, r6, #8
    10e8:	30a0      	adds	r0, #160	@ 0xa0
    10ea:	3470      	adds	r4, #112	@ 0x70
    10ec:	01c0      	lsls	r0, r0, #7
    10ee:	a56f      	add	r5, pc, #444	@ (adr r5, 0x12ac)
    10f0:	23f0      	movs	r3, #240	@ 0xf0
    10f2:	ce80      	ldmia	r6!, {r7}
    10f4:	3ef3      	subs	r6, #243	@ 0xf3
    10f6:	e3fe      	b.n	0x18f6
    10f8:	6d06      	ldr	r6, [r0, #80]	@ 0x50
    10fa:	cf26      	ldmia	r7!, {r1, r2, r5}
    10fc:	100e      	asrs	r6, r1, #32
    10fe:	c34e      	stmia	r3!, {r1, r2, r3, r6}
    1100:	f1a6 c6c0 	blx	0xda7e84
    1104:	2ce1      	cmp	r4, #225	@ 0xe1
    1106:	100f      	asrs	r7, r1, #32
    1108:	6ed2      	ldr	r2, [r2, #108]	@ 0x6c
    110a:	7011      	strb	r1, [r2, #0]
    110c:	10a0      	asrs	r0, r4, #2
    110e:	2ee0      	cmp	r6, #224	@ 0xe0
    1110:	000a      	movs	r2, r1
    1112:	df10      	svc	16
    1114:	231e      	movs	r3, #30
    1116:	f36f 6e04 	bfc	lr, #24, #4294967277
    111a:	0cc0      	lsrs	r0, r0, #19
    111c:	8000      	strh	r0, [r0, #0]
    111e:	e4aa      	b.n	0xa76
    1120:	8404      	strh	r4, [r0, #32]
    1122:	ac05      	add	r4, sp, #20
    1124:	04e2      	lsls	r2, r4, #19
    1126:	0186      	lsls	r6, r0, #6
    1128:	ad05      	add	r5, sp, #20
    112a:	04e2      	lsls	r2, r4, #19
    112c:	0286      	lsls	r6, r0, #10
    112e:	ae05      	add	r6, sp, #20
    1130:	04e2      	lsls	r2, r4, #19
    1132:	0386      	lsls	r6, r0, #14
    1134:	af05      	add	r7, sp, #20
    1136:	04e2      	lsls	r2, r4, #19
    1138:	0486      	lsls	r6, r0, #18
    113a:	b005      	add	sp, #20
    113c:	04e2      	lsls	r2, r4, #19
    113e:	0586      	lsls	r6, r0, #22
    1140:	b105      	cbz	r5, 0x1144
    1142:	a982      	add	r1, sp, #520	@ 0x208
    1144:	c512      	stmia	r5!, {r1, r4}
    1146:	ff2a ad51 			@ <UNDEFINED> instruction: 0xff2aad51
    114a:	1ff2      	subs	r2, r6, #7
    114c:	2ae5      	cmp	r2, #229	@ 0xe5
    114e:	51ff      	str	r7, [r7, r7]
    1150:	f2af 051f 	subw	r5, pc, #31
    1154:	ff2b b151 	vbit	<illegal reg q5.5>, <illegal reg q5.5>, <illegal reg q0.5>
    1158:	dff2      	svc	242	@ 0xf2
    115a:	2ace      	cmp	r2, #206	@ 0xce
    115c:	9310      	str	r3, [sp, #64]	@ 0x40
    115e:	f152 102d 	adcs.w	r0, r2, #2949165	@ 0x2d002d
    1162:	dccf      	bgt.n	0x1104
    1164:	07f2      	lsls	r2, r6, #31
    1166:	5f22      	ldrsh	r2, [r4, r4]
    1168:	4722      	bx	r4
    116a:	0460      	lsls	r0, r4, #17
    116c:	3554      	adds	r5, #84	@ 0x54
    116e:	9423      	str	r4, [sp, #140]	@ 0x8c
    1170:	359a      	adds	r5, #154	@ 0x9a
    1172:	246c      	movs	r4, #108	@ 0x6c
    1174:	00cc      	lsls	r4, r1, #3
    1176:	2200      	movs	r2, #0
    1178:	c0d3      	stmia	r0!, {r0, r1, r4, r6, r7}
    117a:	2246      	movs	r2, #70	@ 0x46
    117c:	0144      	lsls	r4, r0, #5
    117e:	4900      	ldr	r1, [pc, #0]	@ (0x1180)
    1180:	2b6c      	cmp	r3, #108	@ 0x6c
    1182:	00cc      	lsls	r4, r1, #3
    1184:	2200      	movs	r2, #0
    1186:	c0d3      	stmia	r0!, {r0, r1, r4, r6, r7}
    1188:	22b6      	movs	r2, #182	@ 0xb6
    118a:	0144      	lsls	r4, r0, #5
    118c:	4900      	ldr	r1, [pc, #0]	@ (0x1190)
    118e:	2d6c      	cmp	r5, #108	@ 0x6c
    1190:	00cc      	lsls	r4, r1, #3
    1192:	2200      	movs	r2, #0
    1194:	c0d3      	stmia	r0!, {r0, r1, r4, r6, r7}
    1196:	22d6      	movs	r2, #214	@ 0xd6
    1198:	0144      	lsls	r4, r0, #5
    119a:	4900      	ldr	r1, [pc, #0]	@ (0x119c)
    119c:	2f6c      	cmp	r7, #108	@ 0x6c
    119e:	00cc      	lsls	r4, r1, #3
    11a0:	2200      	movs	r2, #0
    11a2:	c0d3      	stmia	r0!, {r0, r1, r4, r6, r7}
    11a4:	22f6      	movs	r2, #246	@ 0xf6
    11a6:	0144      	lsls	r4, r0, #5
    11a8:	4900      	ldr	r1, [pc, #0]	@ (0x11ac)
    11aa:	3b40      	subs	r3, #64	@ 0x40
    11ac:	2200      	movs	r2, #0
    11ae:	40b3      	lsls	r3, r6
    11b0:	23b4      	movs	r3, #180	@ 0xb4
    11b2:	010a      	lsls	r2, r1, #4
    11b4:	0a0d      	lsrs	r5, r1, #8
    11b6:	4700      	bx	r0
    11b8:	5991      	ldr	r1, [r2, r6]
    11ba:	ed1f 028a 	lfm	f0, 4, [pc, #-552]	@ 0xf94
    11be:	2146      	movs	r1, #70	@ 0x46
    11c0:	8488      	strh	r0, [r1, #36]	@ 0x24
    11c2:	000c      	movs	r4, r1
    11c4:	7322      	strb	r2, [r4, #12]
    11c6:	10a0      	asrs	r0, r4, #2
    11c8:	2ee0      	cmp	r6, #224	@ 0xe0
    11ca:	000a      	movs	r2, r1
    11cc:	018d      	lsls	r5, r1, #6
    11ce:	ed26 028a 	sfm	f0, 4, [r6, #-552]!	@ 0xfffffdd8
    11d2:	2146      	movs	r1, #70	@ 0x46
    11d4:	8488      	strh	r0, [r1, #36]	@ 0x24
    11d6:	10a2      	asrs	r2, r4, #2
    11d8:	aed0      	add	r6, sp, #832	@ 0x340
    11da:	6028      	str	r0, [r5, #0]
    11dc:	8215      	strh	r5, [r2, #16]
    11de:	9859      	ldr	r0, [sp, #356]	@ 0x164
    11e0:	19f9      	adds	r1, r7, r7
    11e2:	6aed      	ldr	r5, [r5, #44]	@ 0x2c
    11e4:	4602      	mov	r2, r0
    11e6:	8821      	ldrh	r1, [r4, #0]
    11e8:	0c84      	lsrs	r4, r0, #18
    11ea:	2200      	movs	r2, #0
    11ec:	a073      	add	r0, pc, #460	@ (adr r0, 0x13bc)
    11ee:	e010      	b.n	0x1212
    11f0:	0a2e      	lsrs	r6, r5, #8
    11f2:	d200      	bcs.n	0x11f6
    11f4:	5018      	str	r0, [r3, r0]
    11f6:	ed17 026a 	lfm	f0, 4, [r7, #-424]	@ 0xfffffe58
    11fa:	2146      	movs	r1, #70	@ 0x46
    11fc:	8488      	strh	r0, [r1, #36]	@ 0x24
    11fe:	10a2      	asrs	r2, r4, #2
    1200:	aed0      	add	r6, sp, #832	@ 0x340
    1202:	6026      	str	r6, [r4, #0]
    1204:	8215      	strh	r5, [r2, #16]
    1206:	d859      	bhi.n	0x12bc
    1208:	26ae      	movs	r6, #174	@ 0xae
    120a:	1460      	asrs	r0, r4, #17
    120c:	4882      	ldr	r0, [pc, #520]	@ (0x1418)
    120e:	00c8      	lsls	r0, r1, #3
    1210:	3220      	adds	r2, #32
    1212:	0a07      	lsrs	r7, r0, #8
    1214:	ee01 00a2 	cdp	0, 0, cr0, cr1, cr2, {5}
    1218:	8d20      	ldrh	r0, [r4, #40]	@ 0x28
    121a:	ee01 c0a0 	cdp	0, 0, cr12, cr1, cr0, {5}
    121e:	aed0      	add	r6, sp, #832	@ 0x340
    1220:	6028      	str	r0, [r5, #0]
    1222:	8215      	strh	r5, [r2, #16]
    1224:	0859      	lsrs	r1, r3, #1
    1226:	64ae      	str	r6, [r5, #72]	@ 0x48
    1228:	8214      	strh	r4, [r2, #16]
    122a:	c848      	ldmia	r0!, {r3, r6}
    122c:	7038      	strb	r0, [r7, #0]
    122e:	48c1      	ldr	r0, [pc, #772]	@ (0x1534)
    1230:	c340      	stmia	r3!, {r6}
    1232:	1058      	asrs	r0, r3, #1
    1234:	68c5      	ldr	r5, [r0, #12]
    1236:	96e0      	str	r6, [sp, #896]	@ 0x380
    1238:	08b9      	lsrs	r1, r7, #2
    123a:	030a      	lsls	r2, r1, #12
    123c:	ca47      	ldmia	r2, {r0, r1, r2, r6}
    123e:	c01e      	stmia	r0!, {r1, r2, r3, r4}
    1240:	c6f2      	stmia	r6!, {r1, r4, r5, r6, r7}
    1242:	2146      	movs	r1, #70	@ 0x46
    1244:	e280      	b.n	0x1748
    1246:	f0ac 993e 	b.w	0x8ad4c6
    124a:	a0cc      	add	r0, pc, #816	@ (adr r0, 0x157c)
    124c:	7030      	strb	r0, [r6, #0]
    124e:	eca4 0c01 	stc	12, cr0, [r4], #4
    1252:	6c6f      	ldr	r7, [r5, #68]	@ 0x44
    1254:	0214      	lsls	r4, r2, #8
    1256:	ce28      	ldmia	r6!, {r3, r5}
    1258:	ef0a 9993 	vmul.i8	d9, d26, d3
    125c:	0a0a      	lsrs	r2, r1, #8
    125e:	4703      	bx	r0
    1260:	1eca      	subs	r2, r1, #3
    1262:	f5c0 46c6 	rsb	r6, r0, #25344	@ 0x6300
    1266:	8021      	strh	r1, [r4, #0]
    1268:	ace2      	add	r4, sp, #904	@ 0x388
    126a:	3ef0      	subs	r6, #240	@ 0xf0
    126c:	8699      	strh	r1, [r3, #52]	@ 0x34
    126e:	30a0      	adds	r0, #160	@ 0xa0
    1270:	a470      	add	r4, pc, #448	@ (adr r4, 0x1434)
    1272:	01ec      	lsls	r4, r5, #7
    1274:	6f24      	ldr	r4, [r4, #112]	@ 0x70
    1276:	146c      	asrs	r4, r5, #17
    1278:	2802      	cmp	r0, #2
    127a:	0ace      	lsrs	r6, r1, #11
    127c:	83ef      	strh	r7, [r5, #30]
    127e:	a649      	add	r6, pc, #292	@ (adr r6, 0x13a4)
    1280:	d000      	beq.n	0x1284
    1282:	26ae      	movs	r6, #174	@ 0xae
    1284:	1560      	asrs	r0, r4, #21
    1286:	5982      	ldr	r2, [r0, r6]
    1288:	00a8      	lsls	r0, r5, #2
    128a:	aed0      	add	r6, sp, #832	@ 0x340
    128c:	6028      	str	r0, [r5, #0]
    128e:	8215      	strh	r5, [r2, #16]
    1290:	8859      	ldrh	r1, [r3, #2]
    1292:	23c9      	movs	r3, #201	@ 0xc9
    1294:	9241      	str	r2, [sp, #260]	@ 0x104
    1296:	7bf2      	ldrb	r2, [r6, #15]
    1298:	e024      	b.n	0x12e4
    129a:	464a      	mov	r2, r9
    129c:	8821      	ldrh	r1, [r4, #0]
    129e:	0c84      	lsrs	r4, r0, #18
    12a0:	d803      	bhi.n	0x12aa
    12a2:	4609      	mov	r1, r1
    12a4:	d311      	bcc.n	0x12ca
    12a6:	6112      	str	r2, [r2, #16]
    12a8:	d125      	bne.n	0x12f6
    12aa:	1240      	asrs	r0, r0, #9
    12ac:	fc14 463b 	ldc2	6, cr4, [r4], {59}	@ 0x3b
    12b0:	6492      	str	r2, [r2, #72]	@ 0x48
    12b2:	0814      	lsrs	r4, r2, #32
    12b4:	60d1      	str	r1, [r2, #12]
    12b6:	0c14      	lsrs	r4, r2, #16
    12b8:	d920      	bls.n	0x12fc
    12ba:	2dff      	cmp	r5, #255	@ 0xff
    12bc:	37fd      	adds	r7, #253	@ 0xfd
    12be:	b500      	push	{lr}
    12c0:	fd20 0023 	stc2	0, cr0, [r0, #-140]!	@ 0xffffff74
    12c4:	00ab      	lsls	r3, r5, #2
    12c6:	0184      	lsls	r4, r0, #6
    12c8:	3220      	adds	r2, #32
    12ca:	4410      	add	r0, r2
    12cc:	a218      	add	r2, pc, #96	@ (adr r2, 0x1330)
    12ce:	d010      	beq.n	0x12f2
    12d0:	0990      	lsrs	r0, r2, #6
    12d2:	4009      	ands	r1, r1
    12d4:	0017      	movs	r7, r2
    12d6:	4332      	orrs	r2, r6
    12d8:	4408      	add	r0, r1
    12da:	a217      	add	r2, pc, #92	@ (adr r2, 0x1338)
    12dc:	d010      	beq.n	0x1300
    12de:	ed20 0116 	stfs	f0, [r0, #-88]!	@ 0xffffffa8
    12e2:	0a2a      	lsrs	r2, r5, #8
    12e4:	4703      	bx	r0
    12e6:	2eca      	cmp	r6, #202	@ 0xca
    12e8:	f080 0ac6 	eor.w	sl, r0, #198	@ 0xc6
    12ec:	4701      	bx	r0
    12ee:	f0ae 8023 	bcs.w	0x2f338
    12f2:	ace2      	add	r4, sp, #904	@ 0x388
    12f4:	3ef0      	subs	r6, #240	@ 0xf0
    12f6:	2698      	movs	r6, #152	@ 0x98
    12f8:	030a      	lsls	r2, r1, #12
    12fa:	ca47      	ldmia	r2, {r0, r1, r2, r6}
    12fc:	802e      	strh	r6, [r5, #0]
    12fe:	c6f0      	stmia	r6!, {r4, r5, r6, r7}
    1300:	000a      	movs	r2, r1
    1302:	ae47      	add	r6, sp, #284	@ 0x11c
    1304:	23f0      	movs	r3, #240	@ 0xf0
    1306:	e280      	b.n	0x180a
    1308:	f0ac 403e 			@ <UNDEFINED> instruction: 0xf0ac403e
    130c:	0117      	lsls	r7, r2, #4
    130e:	f222 7410 			@ <UNDEFINED> instruction: 0xf2227410
    1312:	1001      	asrs	r1, r0, #32
    1314:	f923 3ee0 			@ <UNDEFINED> instruction: 0xf9233ee0
    1318:	1841      	adds	r1, r0, r1
    131a:	460c      	mov	r4, r1
    131c:	5450      	strb	r0, [r2, r1]
    131e:	cd23      	ldmia	r5, {r0, r1, r5}
    1320:	0029      	movs	r1, r5
    1322:	6c1c      	ldr	r4, [r3, #64]	@ 0x40
    1324:	cc2f      	ldmia	r4!, {r0, r1, r2, r3, r5}
    1326:	0000      	movs	r0, r0
    1328:	2739      	movs	r7, #57	@ 0x39
    132a:	28ed      	cmp	r0, #237	@ 0xed
    132c:	0600      	lsls	r0, r0, #24
    132e:	5221      	strh	r1, [r4, r0]
    1330:	d211      	bcs.n	0x1356
    1332:	128f      	asrs	r7, r1, #10
    1334:	0fe0      	lsrs	r0, r4, #31
    1336:	2b6c      	cmp	r3, #108	@ 0x6c
    1338:	00cc      	lsls	r4, r1, #3
    133a:	b900      	cbnz	r0, 0x133e
    133c:	a0ef      	add	r0, pc, #956	@ (adr r0, 0x16fc)
    133e:	7000      	strb	r0, [r0, #0]
    1340:	9814      	ldr	r0, [sp, #80]	@ 0x50
    1342:	ed1e 024a 	lfm	f0, 4, [lr, #-296]	@ 0xfffffed8
    1346:	2146      	movs	r1, #70	@ 0x46
    1348:	8488      	strh	r0, [r1, #36]	@ 0x24
    134a:	02c1      	lsls	r1, r0, #11
    134c:	13b8      	asrs	r0, r7, #14
    134e:	8146      	strh	r6, [r0, #10]
    1350:	0d10      	lsrs	r0, r2, #20
    1352:	c146      	stmia	r1!, {r1, r2, r6}
    1354:	8200      	strh	r0, [r0, #16]
    1356:	6d7d      	ldr	r5, [r7, #84]	@ 0x54
    1358:	0c14      	lsrs	r4, r2, #16
    135a:	d820      	bhi.n	0x139e
    135c:	4119      	asrs	r1, r3
    135e:	002a      	movs	r2, r5
    1360:	00c0      	lsls	r0, r0, #3
    1362:	2d6d      	cmp	r5, #109	@ 0x6d
    1364:	2841      	cmp	r0, #65	@ 0x41
    1366:	9903      	ldr	r1, [sp, #12]
    1368:	a097      	add	r0, pc, #604	@ (adr r0, 0x15c8)
    136a:	7000      	strb	r0, [r0, #0]
    136c:	9814      	ldr	r0, [sp, #80]	@ 0x50
    136e:	ed28 024a 	sfm	f0, 4, [r8, #-296]!	@ 0xfffffed8
    1372:	2146      	movs	r1, #70	@ 0x46
    1374:	8488      	strh	r0, [r1, #36]	@ 0x24
    1376:	fec1 4aed 	vminnm.f32	s9, s3, s27
    137a:	5602      	ldrsb	r2, [r0, r0]
    137c:	9821      	ldr	r0, [sp, #132]	@ 0x84
    137e:	4685      	mov	sp, r0
    1380:	1081      	asrs	r1, r0, #2
    1382:	460d      	mov	r5, r1
    1384:	00c1      	lsls	r1, r0, #3
    1386:	dd82      	ble.n	0x128e
    1388:	30ac      	adds	r0, #172	@ 0xac
    138a:	a470      	add	r4, pc, #448	@ (adr r4, 0x154c)
    138c:	02c0      	lsls	r0, r0, #11
    138e:	ac6f      	add	r4, sp, #444	@ 0x1bc
    1390:	7400      	strb	r0, [r0, #16]
    1392:	0ae4      	lsrs	r4, r4, #11
    1394:	023f      	lsls	r7, r7, #8
    1396:	ce28      	ldmia	r6!, {r3, r5}
    1398:	ef0a a403 	vshl.s8	d10, d3, d10
    139c:	2002      	movs	r0, #2
    139e:	0b32      	lsrs	r2, r6, #12
    13a0:	2a44      	cmp	r2, #68	@ 0x44
    13a2:	10a2      	asrs	r2, r4, #2
    13a4:	00d0      	lsls	r0, r2, #3
    13a6:	d64c      	bvs.n	0x1442
    13a8:	22b6      	movs	r2, #182	@ 0xb6
    13aa:	2aed      	cmp	r2, #237	@ 0xed
    13ac:	0e00      	lsrs	r0, r0, #24
    13ae:	64c0      	str	r0, [r0, #76]	@ 0x4c
    13b0:	2d6d      	cmp	r5, #109	@ 0x6d
    13b2:	2841      	cmp	r0, #65	@ 0x41
    13b4:	7c02      	ldrb	r2, [r0, #16]
    13b6:	6c31      	ldr	r1, [r6, #64]	@ 0x40
    13b8:	6333      	str	r3, [r6, #48]	@ 0x30
    13ba:	d638      	bvs.n	0x142e
    13bc:	00cc      	lsls	r4, r1, #3
    13be:	a900      	add	r1, sp, #0
    13c0:	a26d      	add	r2, pc, #436	@ (adr r2, 0x1578)
    13c2:	7000      	strb	r0, [r0, #0]
    13c4:	9914      	ldr	r1, [sp, #80]	@ 0x50
    13c6:	6255      	str	r5, [r2, #36]	@ 0x24
    13c8:	0c14      	lsrs	r4, r2, #16
    13ca:	2210      	movs	r2, #16
    13cc:	c253      	stmia	r2!, {r0, r1, r4, r6}
    13ce:	6337      	str	r7, [r6, #48]	@ 0x30
    13d0:	c114      	stmia	r1!, {r2, r4}
    13d2:	580f      	ldr	r7, [r1, r0]
    13d4:	d052      	beq.n	0x147c
    13d6:	a3de      	add	r3, pc, #888	@ (adr r3, 0x1750)
    13d8:	8524      	strh	r4, [r4, #40]	@ 0x28
    13da:	730e      	strb	r6, [r1, #12]
    13dc:	d738      	bvc.n	0x1450
    13de:	1d98      	adds	r0, r3, #6
    13e0:	317c      	adds	r1, #124	@ 0x7c
    13e2:	8146      	strh	r6, [r0, #10]
    13e4:	0525      	lsls	r5, r4, #20
    13e6:	3ded      	subs	r5, #237	@ 0xed
    13e8:	524a      	strh	r2, [r1, r1]
    13ea:	30e8      	adds	r0, #232	@ 0xe8
    13ec:	7387      	strb	r7, [r0, #14]
    13ee:	0ccd      	lsrs	r5, r1, #19
    13f0:	9000      	str	r0, [sp, #0]
    13f2:	1f4a      	subs	r2, r1, #5
    13f4:	2412      	movs	r4, #18
    13f6:	bf29      	itett	cs
    13f8:	6347      	strcs	r7, [r0, #52]	@ 0x34
    13fa:	0c14      	lsrcc	r4, r2, #16
    13fc:	2210      	movcs	r2, #16
    13fe:	c2f3      	stmiacs	r2!, {r0, r1, r4, r5, r6, r7}
    1400:	6337      	str	r7, [r6, #48]	@ 0x30
    1402:	c114      	stmia	r1!, {r2, r4}
    1404:	580f      	ldr	r7, [r1, r0]
    1406:	d052      	beq.n	0x14ae
    1408:	a3de      	add	r3, pc, #888	@ (adr r3, 0x1784)
    140a:	8524      	strh	r4, [r4, #40]	@ 0x28
    140c:	220e      	movs	r2, #14
    140e:	9228      	str	r2, [sp, #160]	@ 0xa0
    1410:	3873      	subs	r0, #115	@ 0x73
    1412:	6dd7      	ldr	r7, [r2, #92]	@ 0x5c
    1414:	9833      	ldr	r0, [sp, #204]	@ 0xcc
    1416:	7c27      	ldrb	r7, [r4, #16]
    1418:	4631      	mov	r1, r6
    141a:	2581      	movs	r5, #129	@ 0x81
    141c:	ed05 4a3d 	vstr	s8, [r5, #-244]	@ 0xffffff0c
    1420:	e852 8220 			@ <UNDEFINED> instruction: 0xe8528220
    1424:	3922      	subs	r1, #34	@ 0x22
    1426:	7387      	strb	r7, [r0, #14]
    1428:	16dd      	asrs	r5, r3, #27
    142a:	3563      	adds	r5, #99	@ 0x63
    142c:	40d1      	lsrs	r1, r2
    142e:	1412      	asrs	r2, r2, #16
    1430:	3bfc      	subs	r3, #252	@ 0xfc
    1432:	9246      	str	r2, [sp, #280]	@ 0x118
    1434:	5994      	ldr	r4, [r2, r6]
    1436:	6215      	str	r5, [r2, #32]
    1438:	7174      	strb	r4, [r6, #5]
    143a:	6244      	str	r4, [r0, #36]	@ 0x24
    143c:	7184      	strb	r4, [r0, #6]
    143e:	4654      	mov	r4, sl
    1440:	c325      	stmia	r3!, {r0, r2, r5}
    1442:	6647      	str	r7, [r0, #100]	@ 0x64
    1444:	d244      	bcs.n	0x14d0
    1446:	5018      	str	r0, [r3, r0]
    1448:	e208      	b.n	0x185c
    144a:	1176      	asrs	r6, r6, #5
    144c:	1ffc      	subs	r4, r7, #7
    144e:	ffed 6286 	vsubl.u32	q11, d29, d6
    1452:	1184      	asrs	r4, r0, #6
    1454:	701c      	strb	r4, [r3, #0]
    1456:	4674      	mov	r4, lr
    1458:	00c6      	lsls	r6, r0, #3
    145a:	7c83      	ldrb	r3, [r0, #18]
    145c:	6462      	str	r2, [r4, #68]	@ 0x44
    145e:	5258      	strh	r0, [r3, r1]
    1460:	9ed0      	ldr	r6, [sp, #832]	@ 0x340
    1462:	240e      	movs	r4, #14
    1464:	e285      	b.n	0x1972
    1466:	1469      	asrs	r1, r5, #17
    1468:	2802      	cmp	r0, #2
    146a:	15ce      	asrs	r6, r1, #23
    146c:	9312      	str	r3, [sp, #72]	@ 0x48
    146e:	0e39      	lsrs	r1, r7, #24
    1470:	c86e      	ldmia	r0!, {r1, r2, r3, r5, r6}
    1472:	401c      	ands	r4, r3
    1474:	5b88      	ldrh	r0, [r1, r6]
    1476:	1461      	asrs	r1, r4, #17
    1478:	2802      	cmp	r0, #2
    147a:	15ce      	asrs	r6, r1, #23
    147c:	3e11      	subs	r6, #17
    147e:	1996      	adds	r6, r2, r6
    1480:	460c      	mov	r4, r1
    1482:	8021      	strh	r1, [r4, #0]
    1484:	5ce2      	ldrb	r2, [r4, r3]
    1486:	e011      	b.n	0x14ac
    1488:	992e      	ldr	r1, [sp, #184]	@ 0xb8
    148a:	60ac      	str	r4, [r5, #8]
    148c:	8d44      	ldrh	r4, [r0, #42]	@ 0x2a
    148e:	4502      	cmp	r2, r0
    1490:	c646      	stmia	r6!, {r1, r2, r6}
    1492:	80c0      	strh	r0, [r0, #6]
    1494:	626c      	str	r4, [r5, #36]	@ 0x24
    1496:	5864      	ldr	r4, [r4, r1]
    1498:	d052      	beq.n	0x1540
    149a:	149e      	asrs	r6, r3, #18
    149c:	8524      	strh	r4, [r4, #40]	@ 0x28
    149e:	69e2      	ldr	r2, [r4, #28]
    14a0:	0214      	lsls	r4, r2, #8
    14a2:	ce28      	ldmia	r6!, {r3, r5}
    14a4:	1215      	asrs	r5, r2, #8
    14a6:	2983      	cmp	r1, #131	@ 0x83
    14a8:	1467      	asrs	r7, r4, #17
    14aa:	2802      	cmp	r0, #2
    14ac:	15ce      	asrs	r6, r1, #23
    14ae:	c611      	stmia	r6!, {r0, r4}
    14b0:	e982 4465 			@ <UNDEFINED> instruction: 0xe9824465
    14b4:	328d      	adds	r2, #141	@ 0x8d
    14b6:	4645      	mov	r5, r8
    14b8:	c0c6      	stmia	r0!, {r1, r2, r6, r7}
    14ba:	6c85      	ldr	r5, [r0, #72]	@ 0x48
    14bc:	6462      	str	r2, [r4, #68]	@ 0x44
    14be:	5258      	strh	r0, [r3, r1]
    14c0:	1ed0      	subs	r0, r2, #3
    14c2:	2416      	movs	r4, #22
    14c4:	e285      	b.n	0x19d2
    14c6:	1469      	asrs	r1, r5, #17
    14c8:	2802      	cmp	r0, #2
    14ca:	15ce      	asrs	r6, r1, #23
    14cc:	8312      	strh	r2, [r2, #24]
    14ce:	6249      	str	r1, [r1, #36]	@ 0x24
    14d0:	0214      	lsls	r4, r2, #8
    14d2:	ce28      	ldmia	r6!, {r3, r5}
    14d4:	1115      	asrs	r5, r2, #4
    14d6:	829f      	strh	r7, [r3, #20]
    14d8:	6109      	str	r1, [r1, #16]
    14da:	0214      	lsls	r4, r2, #8
    14dc:	ce28      	ldmia	r6!, {r3, r5}
    14de:	1115      	asrs	r5, r2, #4
    14e0:	6295      	str	r5, [r2, #40]	@ 0x28
    14e2:	0214      	lsls	r4, r2, #8
    14e4:	ce28      	ldmia	r6!, {r3, r5}
    14e6:	2115      	movs	r1, #21
    14e8:	1534      	asrs	r4, r6, #20
    14ea:	08d2      	lsrs	r2, r2, #3
    14ec:	e920 8146 	stmdb	r0!, {r1, r2, r6, r8, pc}
    14f0:	0d10      	lsrs	r0, r2, #20
    14f2:	c146      	stmia	r1!, {r1, r2, r6}
    14f4:	9200      	str	r2, [sp, #0]
    14f6:	d9fd      	bls.n	0x14f4
    14f8:	acd2      	add	r4, sp, #840	@ 0x348
    14fa:	5003      	str	r3, [r0, r0]
    14fc:	ed21 003b 	stc	0, cr0, [r1, #-236]!	@ 0xffffff14
    1500:	210c      	movs	r1, #12
    1502:	0fcf      	lsrs	r7, r1, #31
    1504:	3b41      	subs	r3, #65	@ 0x41
    1506:	d205      	bcs.n	0x1514
    1508:	228e      	movs	r2, #142	@ 0x8e
    150a:	c4f0      	stmia	r4!, {r4, r5, r6, r7}
    150c:	c2d6      	stmia	r2!, {r1, r2, r4, r6, r7}
    150e:	000c      	movs	r4, r1
    1510:	1b80      	subs	r0, r0, r6
    1512:	00a4      	lsls	r4, r4, #2
    1514:	1470      	asrs	r0, r6, #17
    1516:	2598      	movs	r5, #152	@ 0x98
    1518:	4aed      	ldr	r2, [pc, #948]	@ (0x18d0)
    151a:	4602      	mov	r2, r0
    151c:	8821      	ldrh	r1, [r4, #0]
    151e:	c184      	stmia	r1!, {r2, r7}
    1520:	0902      	lsrs	r2, r0, #4
    1522:	1464      	asrs	r4, r4, #17
    1524:	3611      	adds	r6, #17
    1526:	146b      	asrs	r3, r5, #17
    1528:	d108      	bne.n	0x153c
    152a:	1460      	asrs	r0, r4, #17
    152c:	200c      	movs	r0, #12
    152e:	d0d8      	beq.n	0x14e2
    1530:	2841      	cmp	r0, #65	@ 0x41
    1532:	4003      	ands	r3, r0
    1534:	0023      	movs	r3, r4
    1536:	1332      	asrs	r2, r6, #12
    1538:	6c13      	ldr	r3, [r2, #64]	@ 0x40
    153a:	cc24      	ldmia	r4!, {r2, r5}
    153c:	0000      	movs	r0, r0
    153e:	22b9      	movs	r2, #185	@ 0xb9
    1540:	3401      	adds	r4, #1
    1542:	9032      	str	r0, [sp, #200]	@ 0xc8
    1544:	0c8c      	lsrs	r4, r1, #18
    1546:	000a      	movs	r2, r1
    1548:	8147      	strh	r7, [r0, #10]
    154a:	d1e9      	bne.n	0x1520
    154c:	24ae      	movs	r4, #174	@ 0xae
    154e:	1460      	asrs	r0, r4, #17
    1550:	4882      	ldr	r0, [pc, #520]	@ (0x175c)
    1552:	2c18      	cmp	r4, #24
    1554:	3b80      	subs	r3, #128	@ 0x80
    1556:	1461      	asrs	r1, r4, #17
    1558:	d108      	bne.n	0x156c
    155a:	1460      	asrs	r0, r4, #17
    155c:	200c      	movs	r0, #12
    155e:	d7d8      	bvc.n	0x1512
    1560:	c146      	stmia	r1!, {r1, r2, r6}
    1562:	8200      	strh	r0, [r0, #16]
    1564:	019d      	lsls	r5, r3, #6
    1566:	d00c      	beq.n	0x1582
    1568:	1246      	asrs	r6, r0, #9
    156a:	0234      	lsls	r4, r6, #8
    156c:	9410      	str	r4, [sp, #64]	@ 0x40
    156e:	9011      	str	r0, [sp, #68]	@ 0x44
    1570:	0bf9      	lsrs	r1, r7, #15
    1572:	266c      	movs	r6, #108	@ 0x6c
    1574:	246d      	movs	r4, #109	@ 0x6d
    1576:	2344      	movs	r3, #68	@ 0x44
    1578:	d108      	bne.n	0x158c
    157a:	00a0      	lsls	r0, r4, #2
    157c:	1470      	asrs	r0, r6, #17
    157e:	2898      	cmp	r0, #152	@ 0x98
    1580:	4aed      	ldr	r2, [pc, #948]	@ (0x1938)
    1582:	4602      	mov	r2, r0
    1584:	8821      	ldrh	r1, [r4, #0]
    1586:	c184      	stmia	r1!, {r2, r7}
    1588:	edfe 024a 	lfm	f0, 2, [lr, #296]!	@ 0x128
    158c:	2156      	movs	r1, #86	@ 0x56
    158e:	8598      	strh	r0, [r3, #44]	@ 0x2c
    1590:	8146      	strh	r6, [r0, #10]
    1592:	0d10      	lsrs	r0, r2, #20
    1594:	c146      	stmia	r1!, {r1, r2, r6}
    1596:	8200      	strh	r0, [r0, #16]
    1598:	acdd      	add	r4, sp, #884	@ 0x374
    159a:	7030      	strb	r0, [r6, #0]
    159c:	c0a4      	stmia	r0!, {r2, r5, r7}
    159e:	6f01      	ldr	r1, [r0, #112]	@ 0x70
    15a0:	f0ac 8023 	bcs.w	0x2d5ea
    15a4:	ace2      	add	r4, sp, #904	@ 0x388
    15a6:	3ef0      	subs	r6, #240	@ 0xf0
    15a8:	4f98      	ldr	r7, [pc, #608]	@ (0x180c)
    15aa:	00c0      	lsls	r0, r0, #3
    15ac:	246d      	movs	r4, #109	@ 0x6d
    15ae:	2341      	movs	r3, #65	@ 0x41
    15b0:	0a00      	lsrs	r0, r0, #8
    15b2:	4700      	bx	r0
    15b4:	5981      	ldr	r1, [r0, r6]
    15b6:	aed2      	add	r6, sp, #840	@ 0x348
    15b8:	6024      	str	r4, [r4, #0]
    15ba:	8214      	strh	r4, [r2, #16]
    15bc:	1848      	adds	r0, r1, r1
    15be:	902c      	str	r0, [sp, #176]	@ 0xb0
    15c0:	4640      	mov	r0, r8
    15c2:	8011      	strh	r1, [r2, #0]
    15c4:	46a9      	mov	r9, r5
    15c6:	1081      	asrs	r1, r0, #2
    15c8:	460d      	mov	r5, r1
    15ca:	00c1      	lsls	r1, r0, #3
    15cc:	0d82      	lsrs	r2, r0, #22
    15ce:	941d      	str	r4, [sp, #116]	@ 0x74
    15d0:	2011      	movs	r0, #17
    15d2:	19ed      	adds	r5, r5, r7
    15d4:	1201      	asrs	r1, r0, #8
    15d6:	1941      	adds	r1, r0, r5
    15d8:	2100      	movs	r1, #0
    15da:	0cbc      	lsrs	r4, r7, #18
    15dc:	b221      	sxth	r1, r4
    15de:	e20d      	b.n	0x19fc
    15e0:	2207      	movs	r2, #7
    15e2:	225e      	movs	r2, #94	@ 0x5e
    15e4:	24cf      	movs	r4, #207	@ 0xcf
    15e6:	c010      	stmia	r0!, {r4}
    15e8:	d200      	bcs.n	0x15ec
    15ea:	2aa6      	cmp	r2, #166	@ 0xa6
    15ec:	f100 0ddf 	add.w	sp, r0, #223	@ 0xdf
    15f0:	f00c c216 	blx	0xc0da20
    15f4:	2aa6      	cmp	r2, #166	@ 0xa6
    15f6:	16f0      	asrs	r0, r6, #27
    15f8:	8cd2      	ldrh	r2, [r2, #38]	@ 0x26
    15fa:	7032      	strb	r2, [r6, #0]
    15fc:	1c00      	adds	r0, r0, #0
    15fe:	16f0      	asrs	r0, r6, #27
    1600:	1740      	asrs	r0, r0, #29
    1602:	2200      	movs	r2, #0
    1604:	0073      	lsls	r3, r6, #1
    1606:	f01c 6e16 	ands.w	lr, ip, #157286400	@ 0x9600000
    160a:	0cc1      	lsrs	r1, r0, #19
    160c:	8000      	strh	r0, [r0, #0]
    160e:	243b      	movs	r4, #59	@ 0x3b
    1610:	23ed      	movs	r3, #237	@ 0xed
    1612:	3a00      	subs	r2, #0
    1614:	000a      	movs	r2, r1
    1616:	8047      	strh	r7, [r0, #2]
    1618:	0219      	lsls	r1, r3, #8
    161a:	64ae      	str	r6, [r5, #72]	@ 0x48
    161c:	8204      	strh	r4, [r0, #16]
    161e:	d848      	bhi.n	0x16b2
    1620:	7018      	strb	r0, [r3, #0]
    1622:	1c00      	adds	r0, r0, #0
    1624:	16f0      	asrs	r0, r6, #27
    1626:	8046      	strh	r6, [r0, #2]
    1628:	0d10      	lsrs	r0, r2, #20
    162a:	c046      	stmia	r0!, {r1, r2, r6}
    162c:	8200      	strh	r0, [r0, #16]
    162e:	ed4d c03f 	stcl	0, cr12, [sp, #-252]	@ 0xffffff04
    1632:	6f01      	ldr	r1, [r0, #112]	@ 0x70
    1634:	16e1      	asrs	r1, r4, #27
    1636:	00cc      	lsls	r4, r1, #3
    1638:	3900      	subs	r1, #0
    163a:	00a3      	lsls	r3, r4, #2
    163c:	2ee0      	cmp	r6, #224	@ 0xe0
    163e:	010a      	lsls	r2, r1, #4
    1640:	03df      	lsls	r7, r3, #15
    1642:	41f1      	rors	r1, r6
    1644:	0129      	lsls	r1, r5, #4
    1646:	2841      	cmp	r0, #65	@ 0x41
    1648:	1000      	asrs	r0, r0, #32
    164a:	2941      	cmp	r1, #65	@ 0x41
    164c:	4100      	asrs	r0, r0
    164e:	0028      	movs	r0, r5
    1650:	c010      	stmia	r0!, {r4}
    1652:	6d10      	ldr	r0, [r2, #80]	@ 0x50
    1654:	412f      	asrs	r7, r5
    1656:	0028      	movs	r0, r5
    1658:	df10      	svc	16
    165a:	047e      	lsls	r6, r7, #17
    165c:	4ae0      	ldr	r2, [pc, #896]	@ (0x19e0)
    165e:	2046      	movs	r0, #70	@ 0x46
    1660:	8488      	strh	r0, [r1, #36]	@ 0x24
    1662:	6147      	str	r7, [r0, #20]
    1664:	0c14      	lsrs	r4, r2, #16
    1666:	d807      	bhi.n	0x1678
    1668:	411e      	asrs	r6, r3
    166a:	0119      	lsls	r1, r3, #4
    166c:	d146      	bne.n	0x16fc
    166e:	f0a8 4310 			@ <UNDEFINED> instruction: 0xf0a84310
    1672:	60c2      	str	r2, [r0, #12]
    1674:	2104      	movs	r1, #4
    1676:	432d      	orrs	r5, r5
    1678:	020a      	lsls	r2, r1, #8
    167a:	4ae0      	ldr	r2, [pc, #896]	@ (0x19fc)
    167c:	2056      	movs	r0, #86	@ 0x56
    167e:	8598      	strh	r0, [r3, #44]	@ 0x2c
    1680:	000a      	movs	r2, r1
    1682:	4aed      	ldr	r2, [pc, #948]	@ (0x1a38)
    1684:	5602      	ldrsb	r2, [r0, r0]
    1686:	9820      	ldr	r0, [sp, #128]	@ 0x80
    1688:	df85      	svc	133	@ 0x85
    168a:	f102 7edf 	add.w	lr, r2, #29229056	@ 0x1be0000
    168e:	e004      	b.n	0x169a
    1690:	464a      	mov	r2, r9
    1692:	8820      	ldrh	r0, [r4, #0]
    1694:	4784      	blxns	r0
    1696:	1461      	asrs	r1, r4, #17
    1698:	070c      	lsls	r4, r1, #28
    169a:	1ed8      	subs	r0, r3, #3
    169c:	1941      	adds	r1, r0, r5
    169e:	4601      	mov	r1, r0
    16a0:	a8d1      	add	r0, sp, #836	@ 0x344
    16a2:	10f0      	asrs	r0, r6, #3
    16a4:	bf13      	iteet	ne
    16a6:	0460      	lslne	r0, r4, #17
    16a8:	fa21 0a42 			@ <UNDEFINED> instruction: 0xfa210a42
    16ac:	e000      	beq.n	0x16b0	@ unpredictable branch in IT block

    16ae:	564a      	ldrsbne	r2, [r1, r1]
    16b0:	9820      	ldr	r0, [sp, #128]	@ 0x80
    16b2:	0a85      	lsrs	r5, r0, #10
    16b4:	ed00 024a 	sfm	f0, 4, [r0, #-296]	@ 0xfffffed8
    16b8:	2056      	movs	r0, #86	@ 0x56
    16ba:	8598      	strh	r0, [r3, #44]	@ 0x2c
    16bc:	02df      	lsls	r7, r3, #11
    16be:	dff1      	svc	241	@ 0xf1
    16c0:	27fc      	movs	r7, #252	@ 0xfc
    16c2:	6047      	str	r7, [r0, #4]
    16c4:	a204      	add	r2, pc, #16	@ (adr r2, 0x16d8)
    16c6:	7010      	strb	r0, [r2, #0]
    16c8:	4614      	mov	r4, r2
    16ca:	fc11 2580 	ldc2	5, cr2, [r1], {128}	@ 0x80
    16ce:	ed05 4a3d 	vstr	s8, [r5, #-244]	@ 0xffffff0c
    16d2:	e852 7c20 			@ <UNDEFINED> instruction: 0xe8527c20
    16d6:	02aa      	lsls	r2, r5, #10
    16d8:	3873      	subs	r0, #115	@ 0x73
    16da:	ccd7      	ldmia	r4, {r0, r1, r2, r4, r6, r7}
    16dc:	0000      	movs	r0, r0
    16de:	2ca8      	cmp	r4, #168	@ 0xa8
    16e0:	1146      	asrs	r6, r0, #5
    16e2:	80fc      	strh	r4, [r7, #6]
    16e4:	0525      	lsls	r5, r4, #20
    16e6:	3ded      	subs	r5, #237	@ 0xed
    16e8:	524a      	strh	r2, [r1, r1]
    16ea:	20e8      	movs	r0, #232	@ 0xe8
    16ec:	2282      	movs	r2, #130	@ 0x82
    16ee:	7c29      	ldrb	r1, [r5, #16]
    16f0:	02aa      	lsls	r2, r5, #10
    16f2:	3273      	adds	r2, #115	@ 0x73
    16f4:	5977      	ldr	r7, [r6, r5]
    16f6:	f27e 104d 			@ <UNDEFINED> instruction: 0xf27e104d
    16fa:	fcdf 4727 	ldc2l	7, cr4, [pc], {39}	@ 0x27
    16fe:	0460      	lsls	r0, r4, #17
    1700:	10a2      	asrs	r2, r4, #2
    1702:	1470      	asrs	r0, r6, #17
    1704:	1146      	asrs	r6, r0, #5
    1706:	80fc      	strh	r4, [r7, #6]
    1708:	0525      	lsls	r5, r4, #20
    170a:	3ded      	subs	r5, #237	@ 0xed
    170c:	524a      	strh	r2, [r1, r1]
    170e:	20e8      	movs	r0, #232	@ 0xe8
    1710:	aa7c      	add	r2, sp, #496	@ 0x1f0
    1712:	7302      	strb	r2, [r0, #12]
    1714:	d738      	bvc.n	0x1788
    1716:	00cc      	lsls	r4, r1, #3
    1718:	a800      	add	r0, sp, #0
    171a:	462c      	mov	r4, r5
    171c:	fc11 2580 	ldc2	5, cr2, [r1], {128}	@ 0x80
    1720:	ed05 4a3d 	vstr	s8, [r5, #-244]	@ 0xffffff0c
    1724:	e852 8220 			@ <UNDEFINED> instruction: 0xe8528220
    1728:	2922      	cmp	r1, #34	@ 0x22
    172a:	aa7c      	add	r2, sp, #496	@ 0x1f0
    172c:	7302      	strb	r2, [r0, #12]
    172e:	7732      	strb	r2, [r6, #28]
    1730:	7e59      	ldrb	r1, [r3, #25]
    1732:	4df2      	ldr	r5, [pc, #968]	@ (0x1afc)
    1734:	df10      	svc	16
    1736:	17fd      	asrs	r5, r7, #31
    1738:	6047      	str	r7, [r0, #4]
    173a:	0c04      	lsrs	r4, r0, #16
    173c:	2210      	movs	r2, #16
    173e:	c293      	stmia	r2!, {r0, r1, r4, r7}
    1740:	6337      	str	r7, [r6, #48]	@ 0x30
    1742:	c104      	stmia	r1!, {r2}
    1744:	580f      	ldr	r7, [r1, r0]
    1746:	d052      	beq.n	0x17ee
    1748:	a3de      	add	r3, pc, #888	@ (adr r3, 0x1ac4)
    174a:	8524      	strh	r4, [r4, #40]	@ 0x28
    174c:	630e      	str	r6, [r1, #48]	@ 0x30
    174e:	d638      	bvs.n	0x17c2
    1750:	336d      	adds	r3, #109	@ 0x6d
    1752:	2198      	movs	r1, #152	@ 0x98
    1754:	317c      	adds	r1, #124	@ 0x7c
    1756:	8046      	strh	r6, [r0, #2]
    1758:	0525      	lsls	r5, r4, #20
    175a:	3ded      	subs	r5, #237	@ 0xed
    175c:	524a      	strh	r2, [r1, r1]
    175e:	30e8      	adds	r0, #232	@ 0xe8
    1760:	6386      	str	r6, [r0, #56]	@ 0x38
    1762:	16dd      	asrs	r5, r3, #27
    1764:	17e3      	asrs	r3, r4, #31
    1766:	03df      	lsls	r7, r3, #15
    1768:	ecf1 015e 	ldfe	f0, [r1], #376	@ 0x178
    176c:	2f6d      	cmp	r7, #109	@ 0x6d
    176e:	2841      	cmp	r0, #65	@ 0x41
    1770:	1000      	asrs	r0, r0, #32
    1772:	ad21      	add	r5, sp, #132	@ 0x84
    1774:	102f      	asrs	r7, r5, #32
    1776:	df10      	svc	16
    1778:	14fd      	asrs	r5, r7, #19
    177a:	2047      	movs	r0, #71	@ 0x47
    177c:	16cd      	asrs	r5, r1, #27
    177e:	1b01      	subs	r1, r0, r4
    1780:	7ed2      	ldrb	r2, [r2, #27]
    1782:	2003      	movs	r0, #3
    1784:	ae01      	add	r6, sp, #4
    1786:	0468      	lsls	r0, r5, #17
    1788:	4882      	ldr	r0, [pc, #520]	@ (0x1994)
    178a:	98d8      	ldr	r0, [sp, #864]	@ 0x360
    178c:	60c0      	str	r0, [r0, #12]
    178e:	4e04      	ldr	r6, [pc, #16]	@ (0x17a0)
    1790:	f311 f405 	bl	0x712f9e
    1794:	103d      	asrs	r5, r7, #32
    1796:	f4cf a047 	bcc.w	0xfff50828
    179a:	7030      	strb	r0, [r6, #0]
    179c:	ec14 0201 	lfm	f0, 4, [r4], {1}
    17a0:	636f      	str	r7, [r5, #52]	@ 0x34
    17a2:	0204      	lsls	r4, r0, #8
    17a4:	1ce8      	adds	r0, r5, #3
    17a6:	f3ef 00cc 			@ <UNDEFINED> instruction: 0xf3ef00cc
    17aa:	dff1      	svc	241	@ 0xf1
    17ac:	14fd      	asrs	r5, r7, #19
    17ae:	d047      	beq.n	0x1840
    17b0:	24ae      	movs	r4, #174	@ 0xae
    17b2:	0460      	lsls	r0, r4, #17
    17b4:	4882      	ldr	r0, [pc, #520]	@ (0x19c0)
    17b6:	1c18      	adds	r0, r3, #0
    17b8:	6090      	str	r0, [r2, #8]
    17ba:	1046      	asrs	r6, r0, #1
    17bc:	89f0      	ldrh	r0, [r6, #14]
    17be:	2498      	movs	r4, #152	@ 0x98
    17c0:	4aed      	ldr	r2, [pc, #948]	@ (0x1b78)
    17c2:	4602      	mov	r2, r0
    17c4:	8820      	ldrh	r0, [r4, #0]
    17c6:	c184      	stmia	r1!, {r2, r7}
    17c8:	81fd      	strh	r5, [r7, #14]
    17ca:	ed01 024a 	sfm	f0, 4, [r1, #-296]	@ 0xfffffed8
    17ce:	2056      	movs	r0, #86	@ 0x56
    17d0:	8598      	strh	r0, [r3, #44]	@ 0x2c
    17d2:	6cd2      	ldr	r2, [r2, #76]	@ 0x4c
    17d4:	9011      	str	r0, [sp, #68]	@ 0x44
    17d6:	cd20      	ldmia	r5, {r5}
    17d8:	0037      	movs	r7, r6
    17da:	460c      	mov	r4, r1
    17dc:	14e0      	asrs	r0, r4, #19
    17de:	1221      	asrs	r1, r4, #8
    17e0:	df40      	svc	64	@ 0x40
    17e2:	f103 f4cf 	bl	0x505184
    17e6:	a047      	add	r0, pc, #284	@ (adr r0, 0x1904)
    17e8:	7060      	strb	r0, [r4, #1]
    17ea:	ec14 0e01 	ldc	14, cr0, [r4], {1}
    17ee:	036f      	lsls	r7, r5, #13
    17f0:	f10c c056 	blx	0xd0d8a0
    17f4:	6f00      	ldr	r0, [r0, #112]	@ 0x70
    17f6:	0467      	lsls	r7, r4, #17
    17f8:	e802 ef1c 			@ <UNDEFINED> instruction: 0xe802ef1c
    17fc:	ccf3      	ldmia	r4, {r0, r1, r4, r5, r6, r7}
    17fe:	f100 e8cf 	bfcsel	4, 0x19a0, 6, eq
    1802:	67f2      	str	r2, [r6, #124]	@ 0x7c
    1804:	0471      	lsls	r1, r6, #17
    1806:	e14f      	b.n	0x1aa8
    1808:	ce14      	ldmia	r6!, {r2, r4}
    180a:	10e2      	asrs	r2, r4, #3
    180c:	1ffc      	subs	r4, r7, #7
    180e:	ffed 4e56 	vcvt.f32.u32	q10, q3, #19
    1812:	3861      	subs	r0, #97	@ 0x61
    1814:	1c10      	adds	r0, r2, #0
    1816:	3470      	adds	r4, #112	@ 0x70
    1818:	2412      	movs	r4, #18
    181a:	bf29      	itett	cs
    181c:	0447      	lslcs	r7, r0, #17
    181e:	64ae      	strcc	r6, [r5, #72]	@ 0x48
    1820:	8204      	strhcs	r4, [r0, #16]
    1822:	2848      	cmpcs	r0, #72	@ 0x48
    1824:	048d      	lsls	r5, r1, #18
    1826:	60c9      	str	r1, [r1, #12]
    1828:	d234      	bcs.n	0x1894
    182a:	1008      	asrs	r0, r1, #32
    182c:	0a09      	lsrs	r1, r1, #8
    182e:	e005      	b.n	0x183c
    1830:	564a      	ldrsb	r2, [r1, r1]
    1832:	9820      	ldr	r0, [sp, #128]	@ 0x80
    1834:	4e85      	ldr	r6, [pc, #532]	@ (0x1a4c)
    1836:	4861      	ldr	r0, [pc, #388]	@ (0x19bc)
    1838:	5960      	ldr	r0, [r4, r5]
    183a:	76f0      	strb	r0, [r6, #27]
    183c:	0686      	lsls	r6, r0, #26
    183e:	0796      	lsls	r6, r2, #30
    1840:	696f      	ldr	r7, [r5, #20]
    1842:	5804      	ldr	r4, [r0, r0]
    1844:	2912      	cmp	r1, #18
    1846:	e005      	b.n	0x1854
    1848:	52ca      	strh	r2, [r1, r3]
    184a:	77e8      	strb	r0, [r5, #31]
    184c:	7e1f      	ldrb	r7, [r3, #24]
    184e:	2a79      	cmp	r2, #121	@ 0x79
    1850:	3b70      	subs	r3, #112	@ 0x70
    1852:	30a0      	adds	r0, #160	@ 0xa0
    1854:	aed0      	add	r6, sp, #832	@ 0x340
    1856:	6026      	str	r6, [r4, #0]
    1858:	8205      	strh	r5, [r0, #16]
    185a:	a859      	add	r0, sp, #356	@ 0x164
    185c:	d0c0      	beq.n	0x17e0
    185e:	28ae      	cmp	r0, #174	@ 0xae
    1860:	0560      	lsls	r0, r4, #21
    1862:	5982      	ldr	r2, [r0, r6]
    1864:	30a8      	adds	r0, #168	@ 0xa8
    1866:	b470      	push	{r4, r5, r6}
    1868:	01ec      	lsls	r4, r5, #7
    186a:	6f5c      	ldr	r4, [r3, #116]	@ 0x74
    186c:	046d      	lsls	r5, r5, #17
    186e:	2802      	cmp	r0, #2
    1870:	0bce      	lsrs	r6, r1, #15
    1872:	83ef      	strh	r7, [r5, #30]
    1874:	62d9      	str	r1, [r3, #44]	@ 0x2c
    1876:	2104      	movs	r1, #4
    1878:	0b5b      	lsrs	r3, r3, #13
    187a:	000a      	movs	r2, r1
    187c:	6aed      	ldr	r5, [r5, #44]	@ 0x2c
    187e:	5602      	ldrsb	r2, [r0, r0]
    1880:	9820      	ldr	r0, [sp, #128]	@ 0x80
    1882:	0a85      	lsrs	r5, r0, #10
    1884:	ed00 028a 	sfm	f0, 4, [r0, #-552]	@ 0xfffffdd8
    1888:	2056      	movs	r0, #86	@ 0x56
    188a:	8598      	strh	r0, [r3, #44]	@ 0x2c
    188c:	1456      	asrs	r6, r2, #17
    188e:	240d      	movs	r4, #13
    1890:	c141      	stmia	r1!, {r0, r6}
    1892:	63bf      	str	r7, [r7, #56]	@ 0x38
    1894:	4924      	ldr	r1, [pc, #144]	@ (0x1928)
    1896:	67e2      	str	r2, [r4, #124]	@ 0x7c
    1898:	8cf1      	ldrh	r1, [r6, #38]	@ 0x26
    189a:	f101 e6cf 	bfcsel	4, 0x163a, 6, eq
    189e:	67f2      	str	r2, [r6, #124]	@ 0x7c
    18a0:	5f21      	ldrsh	r1, [r4, r4]
    18a2:	4718      	bx	r3
    18a4:	ded0      	udf	#208	@ 0xd0
    18a6:	2423      	movs	r4, #35	@ 0x23
    18a8:	de90      	udf	#144	@ 0x90
    18aa:	f0e7 2ce2 			@ <UNDEFINED> instruction: 0xf0e72ce2
    18ae:	de0e      	udf	#14
    18b0:	a2f2      	add	r2, pc, #968	@ (adr r2, 0x1c7c)
    18b2:	7000      	strb	r0, [r0, #0]
    18b4:	9814      	ldr	r0, [sp, #80]	@ 0x50
    18b6:	e07b      	b.n	0x19b0
    18b8:	464a      	mov	r2, r9
    18ba:	8821      	ldrh	r1, [r4, #0]
    18bc:	0c84      	lsrs	r4, r0, #18
    18be:	d802      	bhi.n	0x18c6
    18c0:	465f      	mov	r7, fp
    18c2:	00c1      	lsls	r1, r0, #3
    18c4:	ad81      	add	r5, sp, #516	@ 0x204
    18c6:	10a0      	asrs	r0, r4, #2
    18c8:	2470      	movs	r4, #112	@ 0x70
    18ca:	a3fe      	add	r3, pc, #1016	@ (adr r3, 0x1cc4)
    18cc:	7000      	strb	r0, [r0, #0]
    18ce:	4624      	mov	r4, r4
    18d0:	2582      	movs	r5, #130	@ 0x82
    18d2:	0205      	lsls	r5, r0, #8
    18d4:	7ce8      	ldrb	r0, [r5, #19]
    18d6:	e852 1461 			@ <UNDEFINED> instruction: 0xe8521461
    18da:	0fc1      	lsrs	r1, r0, #31
    18dc:	5258      	strh	r0, [r3, r1]
    18de:	ded0      	udf	#208	@ 0xd0
    18e0:	24a3      	movs	r4, #163	@ 0xa3
    18e2:	0e85      	lsrs	r5, r0, #26
    18e4:	3263      	adds	r2, #99	@ 0x63
    18e6:	4676      	mov	r6, lr
    18e8:	2582      	movs	r5, #130	@ 0x82
    18ea:	0205      	lsls	r5, r0, #8
    18ec:	7ce8      	ldrb	r0, [r5, #19]
    18ee:	f852 1461 	ldr.w	r1, [r2, <undefined>]
    18f2:	d108      	bne.n	0x1906
    18f4:	1460      	asrs	r0, r4, #17
    18f6:	200c      	movs	r0, #12
    18f8:	79d9      	ldrb	r1, [r3, #7]
    18fa:	80af      	strh	r7, [r5, #4]
    18fc:	b470      	push	{r4, r5, r6}
    18fe:	01ec      	lsls	r4, r5, #7
    1900:	6f16      	ldr	r6, [r2, #112]	@ 0x70
    1902:	00ad      	lsls	r5, r5, #2
    1904:	f470 f76e 	bl	0xff8727e4
    1908:	6e36      	ldr	r6, [r6, #96]	@ 0x60
    190a:	56f9      	ldrsb	r1, [r7, r3]
    190c:	236e      	movs	r3, #110	@ 0x6e
    190e:	116f      	asrs	r7, r5, #5
    1910:	256e      	movs	r5, #110	@ 0x6e
    1912:	136f      	asrs	r7, r5, #13
    1914:	2046      	movs	r0, #70	@ 0x46
    1916:	e280      	b.n	0x1e1a
    1918:	f0bc e23e 	blx	0x4bdd98
    191c:	2167      	movs	r1, #103	@ 0x67
    191e:	185e      	adds	r6, r3, r1
    1920:	1acf      	subs	r7, r1, r3
    1922:	cf10      	ldmia	r7!, {r4}
    1924:	47ec      	blxns	sp
    1926:	24f1      	movs	r4, #241	@ 0xf1
    1928:	624e      	str	r6, [r1, #36]	@ 0x24
    192a:	7048      	strb	r0, [r1, #1]
    192c:	4e44      	ldr	r6, [pc, #272]	@ (0x1a40)
    192e:	5862      	ldr	r2, [r4, r1]
    1930:	5470      	strb	r0, [r6, r1]
    1932:	2412      	movs	r4, #18
    1934:	bf29      	itett	cs
    1936:	0647      	lslcs	r7, r0, #25
    1938:	64ae      	strcc	r6, [r5, #72]	@ 0x48
    193a:	8214      	strhcs	r4, [r2, #16]
    193c:	7848      	ldrbcs	r0, [r1, #1]
    193e:	0a74      	lsrs	r4, r6, #9
    1940:	e003      	b.n	0x194a
    1942:	564a      	ldrsb	r2, [r1, r1]
    1944:	9821      	ldr	r0, [sp, #132]	@ 0x84
    1946:	5685      	ldrsb	r5, [r0, r2]
    1948:	0d16      	lsrs	r6, r2, #20
    194a:	4124      	asrs	r4, r4
    194c:	bfc1      	itttt	gt
    194e:	2463      	movgt	r4, #99	@ 0x63
    1950:	4649      	movgt	r1, r9
    1952:	70c7      	strbgt	r7, [r0, #3]
    1954:	ed80 9411 	cfstrsgt	mvf9, [r0, #68]	@ 0x44
    1958:	6011      	str	r1, [r2, #0]
    195a:	8d74      	ldrh	r4, [r6, #42]	@ 0x2a
    195c:	0f0a      	lsrs	r2, r1, #28
    195e:	3721      	adds	r7, #33	@ 0x21
    1960:	4609      	mov	r1, r1
    1962:	f311 a403 	bgt.w	0x5316c
    1966:	7000      	strb	r0, [r0, #0]
    1968:	9884      	ldr	r0, [sp, #528]	@ 0x210
    196a:	4625      	mov	r5, r4
    196c:	2588      	movs	r5, #136	@ 0x88
    196e:	ed05 4a2b 	vstr	s8, [r5, #-172]	@ 0xffffff54
    1972:	4852      	ldr	r0, [pc, #328]	@ (0x1abc)
    1974:	5568      	strb	r0, [r5, r5]
    1976:	8123      	strh	r3, [r4, #8]
    1978:	613a      	str	r2, [r7, #16]
    197a:	0884      	lsrs	r4, r0, #2
    197c:	60d1      	str	r1, [r2, #12]
    197e:	0c84      	lsrs	r4, r0, #18
    1980:	d805      	bhi.n	0x198e
    1982:	46d0      	mov	r8, sl
    1984:	ae08      	add	r6, sp, #32
    1986:	156a      	asrs	r2, r5, #21
    1988:	5982      	ldr	r2, [r0, r6]
    198a:	4468      	add	r0, sp
    198c:	6ae0      	ldr	r0, [r4, #44]	@ 0x2c
    198e:	2156      	movs	r1, #86	@ 0x56
    1990:	8598      	strh	r0, [r3, #44]	@ 0x2c
    1992:	0546      	lsls	r6, r0, #21
    1994:	68ae      	ldr	r6, [r5, #8]
    1996:	8215      	strh	r5, [r2, #16]
    1998:	a859      	add	r0, sp, #356	@ 0x164
    199a:	7060      	strb	r0, [r4, #1]
    199c:	ec94 1a01 	vldmia	r4, {s2}
    19a0:	6b6f      	ldr	r7, [r5, #52]	@ 0x34
    19a2:	4744      	bxns	r8
    19a4:	546d      	strb	r5, [r5, r1]
    19a6:	6e47      	ldr	r7, [r0, #100]	@ 0x64
    19a8:	0214      	lsls	r4, r2, #8
    19aa:	ce28      	ldmia	r6!, {r3, r5}
    19ac:	ef09 30a3 	vhadd.s8	d3, d25, d19
    19b0:	aed0      	add	r6, sp, #832	@ 0x340
    19b2:	6026      	str	r6, [r4, #0]
    19b4:	8215      	strh	r5, [r2, #16]
    19b6:	a859      	add	r0, sp, #356	@ 0x164
    19b8:	d0c0      	beq.n	0x193c
    19ba:	28ae      	cmp	r0, #174	@ 0xae
    19bc:	1560      	asrs	r0, r4, #21
    19be:	5982      	ldr	r2, [r0, r6]
    19c0:	30a8      	adds	r0, #168	@ 0xa8
    19c2:	9470      	str	r4, [sp, #448]	@ 0x1c0
    19c4:	01ec      	lsls	r4, r5, #7
    19c6:	6f2c      	ldr	r4, [r5, #112]	@ 0x70
    19c8:	146b      	asrs	r3, r5, #17
    19ca:	2802      	cmp	r0, #2
    19cc:	09ce      	lsrs	r6, r1, #7
    19ce:	03ef      	lsls	r7, r5, #15
    19d0:	68ae      	ldr	r6, [r5, #8]
    19d2:	8214      	strh	r4, [r2, #16]
    19d4:	d848      	bhi.n	0x1a68
    19d6:	4098      	lsls	r0, r3
    19d8:	ae02      	add	r6, sp, #8
    19da:	1466      	asrs	r6, r4, #17
    19dc:	4882      	ldr	r0, [pc, #520]	@ (0x1be8)
    19de:	ae09      	add	r6, sp, #36	@ 0x24
    19e0:	1468      	asrs	r0, r5, #17
    19e2:	4882      	ldr	r0, [pc, #520]	@ (0x1bec)
    19e4:	0478      	lsls	r0, r7, #17
    19e6:	1146      	asrs	r6, r0, #5
    19e8:	eb83 4cf3 			@ <UNDEFINED> instruction: 0xeb834cf3
    19ec:	f101 f4cf 	bl	0x50338e
    19f0:	a047      	add	r0, pc, #284	@ (adr r0, 0x1b10)
    19f2:	7060      	strb	r0, [r4, #1]
    19f4:	ec14 1e01 	ldc	14, cr1, [r4], {1}
    19f8:	a36f      	add	r3, pc, #444	@ (adr r3, 0x1bb8)
    19fa:	70c0      	strb	r0, [r0, #3]
    19fc:	0a54      	lsrs	r4, r2, #9
    19fe:	4700      	bx	r0
    1a00:	0466      	lsls	r6, r4, #17
    1a02:	e802 ef1c 			@ <UNDEFINED> instruction: 0xe802ef1c
    1a06:	ccf3      	ldmia	r4, {r0, r1, r4, r5, r6, r7}
    1a08:	f100 f4cf 	bl	0x5023aa
    1a0c:	a047      	add	r0, pc, #284	@ (adr r0, 0x1b2c)
    1a0e:	7060      	strb	r0, [r4, #1]
    1a10:	ec14 2601 	ldc	6, cr2, [r4], {1}
    1a14:	c36f      	stmia	r3!, {r0, r1, r2, r3, r5, r6}
    1a16:	269e      	movs	r6, #158	@ 0x9e
    1a18:	56f7      	ldrsb	r7, [r6, r3]
    1a1a:	00c0      	lsls	r0, r0, #3
    1a1c:	676f      	str	r7, [r5, #116]	@ 0x74
    1a1e:	0204      	lsls	r4, r0, #8
    1a20:	1ce8      	adds	r0, r5, #3
    1a22:	f3ef 00cc 			@ <UNDEFINED> instruction: 0xf3ef00cc
    1a26:	cff1      	ldmia	r7, {r0, r4, r5, r6, r7}
    1a28:	7ff3      	ldrb	r3, [r6, #31]
    1a2a:	047b      	lsls	r3, r7, #17
    1a2c:	e14f      	b.n	0x1cce
    1a2e:	ce14      	ldmia	r6!, {r2, r4}
    1a30:	10e2      	asrs	r2, r4, #3
    1a32:	1ffc      	subs	r4, r7, #7
    1a34:	ffed 4e56 	vcvt.f32.u32	q10, q3, #19
    1a38:	3861      	subs	r0, #97	@ 0x61
    1a3a:	1c10      	adds	r0, r2, #0
    1a3c:	3470      	adds	r4, #112	@ 0x70
    1a3e:	2412      	movs	r4, #18
    1a40:	bf29      	itett	cs
    1a42:	0447      	lslcs	r7, r0, #17
    1a44:	64ae      	strcc	r6, [r5, #72]	@ 0x48
    1a46:	8204      	strhcs	r4, [r0, #16]
    1a48:	2848      	cmpcs	r0, #72	@ 0x48
    1a4a:	068d      	lsls	r5, r1, #26
    1a4c:	60c2      	str	r2, [r0, #12]
    1a4e:	d234      	bcs.n	0x1aba
    1a50:	a008      	add	r0, pc, #32	@ (adr r0, 0x1a74)
    1a52:	0a08      	lsrs	r0, r1, #8
    1a54:	e007      	b.n	0x1a66
    1a56:	564a      	ldrsb	r2, [r1, r1]
    1a58:	9820      	ldr	r0, [sp, #128]	@ 0x80
    1a5a:	4e85      	ldr	r6, [pc, #532]	@ (0x1c70)
    1a5c:	4861      	ldr	r0, [pc, #388]	@ (0x1be4)
    1a5e:	5960      	ldr	r0, [r4, r5]
    1a60:	76f0      	strb	r0, [r6, #27]
    1a62:	0686      	lsls	r6, r0, #26
    1a64:	0796      	lsls	r6, r2, #30
    1a66:	696f      	ldr	r7, [r5, #20]
    1a68:	5804      	ldr	r4, [r0, r0]
    1a6a:	2912      	cmp	r1, #18
    1a6c:	ed05 014a 	stfs	f0, [r5, #-296]	@ 0xfffffed8
    1a70:	e852 1f77 	ldrex	r1, [r2, #476]	@ 0x1dc
    1a74:	797e      	ldrb	r6, [r7, #5]
    1a76:	702a      	strb	r2, [r5, #0]
    1a78:	103b      	asrs	r3, r7, #32
    1a7a:	6360      	str	r0, [r4, #52]	@ 0x34
    1a7c:	018d      	lsls	r5, r1, #6
    1a7e:	d225      	bcs.n	0x1acc
    1a80:	122e      	asrs	r6, r5, #8
    1a82:	a0e0      	add	r0, pc, #896	@ (adr r0, 0x1e04)
    1a84:	1010      	asrs	r0, r2, #32
    1a86:	9083      	str	r0, [sp, #524]	@ 0x20c
    1a88:	4980      	ldr	r1, [pc, #512]	@ (0x1c8c)
    1a8a:	00a2      	lsls	r2, r4, #2
    1a8c:	1310      	asrs	r0, r2, #12
    1a8e:	8090      	strh	r0, [r2, #4]
    1a90:	0169      	lsls	r1, r5, #5
    1a92:	10cc      	asrs	r4, r1, #3
    1a94:	6013      	str	r3, [r2, #0]
    1a96:	4fef      	ldr	r7, [pc, #956]	@ (0x1e54)
    1a98:	1046      	asrs	r6, r0, #1
    1a9a:	9383      	str	r3, [sp, #524]	@ 0x20c
    1a9c:	00a0      	lsls	r0, r4, #2
    1a9e:	aed0      	add	r6, sp, #832	@ 0x340
    1aa0:	6026      	str	r6, [r4, #0]
    1aa2:	8205      	strh	r5, [r0, #16]
    1aa4:	a859      	add	r0, sp, #356	@ 0x164
    1aa6:	d000      	beq.n	0x1aaa
    1aa8:	28ae      	cmp	r0, #174	@ 0xae
    1aaa:	0560      	lsls	r0, r4, #21
    1aac:	5982      	ldr	r2, [r0, r6]
    1aae:	4568      	cmp	r0, sp
    1ab0:	40d1      	lsrs	r1, r2
    1ab2:	1412      	asrs	r2, r2, #16
    1ab4:	3bfc      	subs	r3, #252	@ 0xfc
    1ab6:	9246      	str	r2, [sp, #280]	@ 0x118
    1ab8:	b7e4      			@ <UNDEFINED> instruction: 0xb7e4
    1aba:	0dcf      	lsrs	r7, r1, #23
    1abc:	cf10      	ldmia	r7!, {r4}
    1abe:	47f1      			@ <UNDEFINED> instruction: 0x47f1
    1ac0:	14f0      	asrs	r0, r6, #19
    1ac2:	614e      	str	r6, [r1, #20]
    1ac4:	7048      	strb	r0, [r1, #1]
    1ac6:	4634      	mov	r4, r6
    1ac8:	08d3      	lsrs	r3, r2, #3
    1aca:	a390      	add	r3, pc, #576	@ (adr r3, 0x1d0c)
    1acc:	7060      	strb	r0, [r4, #1]
    1ace:	ec44 8601 	mcrr	6, 0, r8, r4, cr1
    1ad2:	266f      	movs	r6, #111	@ 0x6f
    1ad4:	c16c      	stmia	r1!, {r2, r3, r5, r6}
    1ad6:	6f40      	ldr	r0, [r0, #116]	@ 0x74
    1ad8:	0c28      	lsrs	r0, r5, #16
    1ada:	40c3      	lsrs	r3, r0
    1adc:	6a47      	ldr	r7, [r0, #36]	@ 0x24
    1ade:	4734      	bxns	r6
    1ae0:	046b      	lsls	r3, r5, #17
    1ae2:	e802 ef4c 			@ <UNDEFINED> instruction: 0xe802ef4c
    1ae6:	5fe3      	ldrsh	r3, [r4, r7]
    1ae8:	e046      	b.n	0x1b78
    1aea:	1114      	asrs	r4, r2, #4
    1aec:	fc89 00fc 	stc2	0, cr0, [r9], {252}	@ 0xfc
    1af0:	cff1      	ldmia	r7, {r0, r4, r5, r6, r7}
    1af2:	f2eb 7137 			@ <UNDEFINED> instruction: 0xf2eb7137
    1af6:	4f04      	ldr	r7, [pc, #16]	@ (0x1b08)
    1af8:	14e1      	asrs	r1, r4, #19
    1afa:	e2ce      	b.n	0x209a
    1afc:	fc10 ed1f 	ldc2	13, cr14, [r0], {31}
    1b00:	66ff      	str	r7, [r7, #108]	@ 0x6c
    1b02:	614e      	str	r6, [r1, #20]
    1b04:	1038      	asrs	r0, r7, #32
    1b06:	701c      	strb	r4, [r3, #0]
    1b08:	1234      	asrs	r4, r6, #8
    1b0a:	2924      	cmp	r1, #36	@ 0x24
    1b0c:	47bf      			@ <UNDEFINED> instruction: 0x47bf
    1b0e:	ae04      	add	r6, sp, #16
    1b10:	0464      	lsls	r4, r4, #17
    1b12:	4882      	ldr	r0, [pc, #520]	@ (0x1d1c)
    1b14:	8d28      	ldrh	r0, [r5, #40]	@ 0x28
    1b16:	2303      	movs	r3, #3
    1b18:	3461      	adds	r4, #97	@ 0x61
    1b1a:	08d2      	lsrs	r2, r2, #3
    1b1c:	0eb0      	lsrs	r0, r6, #26
    1b1e:	614e      	str	r6, [r1, #20]
    1b20:	1048      	asrs	r0, r1, #1
    1b22:	7f0c      	ldrb	r4, [r1, #28]
    1b24:	c254      	stmia	r2!, {r2, r4, r6}
    1b26:	0c16      	lsrs	r6, r2, #16
    1b28:	1824      	adds	r4, r4, r0
    1b2a:	f0e1 4678 			@ <UNDEFINED> instruction: 0xf0e14678
    1b2e:	2585      	movs	r5, #133	@ 0x85
    1b30:	b858      			@ <UNDEFINED> instruction: 0xb858
    1b32:	0a57      	lsrs	r7, r2, #9
    1b34:	e004      	b.n	0x1b40
    1b36:	564a      	ldrsb	r2, [r1, r1]
    1b38:	9820      	ldr	r0, [sp, #128]	@ 0x80
    1b3a:	0a85      	lsrs	r5, r0, #10
    1b3c:	ed03 026a 	sfm	f0, 4, [r3, #-424]	@ 0xfffffe58
    1b40:	2056      	movs	r0, #86	@ 0x56
    1b42:	8598      	strh	r0, [r3, #44]	@ 0x2c
    1b44:	0c0a      	lsrs	r2, r1, #16
    1b46:	8aed      	ldrh	r5, [r5, #22]
    1b48:	5602      	ldrsb	r2, [r0, r0]
    1b4a:	9820      	ldr	r0, [sp, #128]	@ 0x80
    1b4c:	0a85      	lsrs	r5, r0, #10
    1b4e:	4703      	bx	r0
    1b50:	1ec8      	subs	r0, r1, #3
    1b52:	f0c0 46a6 			@ <UNDEFINED> instruction: 0xf0c046a6
    1b56:	8020      	strh	r0, [r4, #0]
    1b58:	8ce2      	ldrh	r2, [r4, #38]	@ 0x26
    1b5a:	3ef0      	subs	r6, #240	@ 0xf0
    1b5c:	9799      	str	r7, [sp, #612]	@ 0x264
    1b5e:	6c20      	ldr	r0, [r4, #64]	@ 0x40
    1b60:	40c1      	lsrs	r1, r0
    1b62:	1182      	asrs	r2, r0, #6
    1b64:	8f0e      	ldrh	r6, [r1, #56]	@ 0x38
    1b66:	5467      	strb	r7, [r4, r1]
    1b68:	8258      	strh	r0, [r3, #18]
    1b6a:	dc85      	bgt.n	0x1a78
    1b6c:	80a1      	strh	r1, [r4, #4]
    1b6e:	ae00      	add	r6, sp, #0
    1b70:	0564      	lsls	r4, r4, #21
    1b72:	5982      	ldr	r2, [r0, r6]
    1b74:	00a8      	lsls	r0, r5, #2
    1b76:	7310      	strb	r0, [r2, #12]
    1b78:	e081      	b.n	0x1c7e
    1b7a:	464f      	mov	r7, r9
    1b7c:	5310      	strh	r0, [r2, r4]
    1b7e:	a085      	add	r0, pc, #532	@ (adr r0, 0x1d94)
    1b80:	d000      	beq.n	0x1b84
    1b82:	26ae      	movs	r6, #174	@ 0xae
    1b84:	0560      	lsls	r0, r4, #21
    1b86:	5982      	ldr	r2, [r0, r6]
    1b88:	00a8      	lsls	r0, r5, #2
    1b8a:	aed0      	add	r6, sp, #832	@ 0x340
    1b8c:	6028      	str	r0, [r5, #0]
    1b8e:	8205      	strh	r5, [r0, #16]
    1b90:	8859      	ldrh	r1, [r3, #2]
    1b92:	62d9      	str	r1, [r3, #44]	@ 0x2c
    1b94:	2104      	movs	r1, #4
    1b96:	083d      	lsrs	r5, r7, #32
    1b98:	000a      	movs	r2, r1
    1b9a:	6aed      	ldr	r5, [r5, #44]	@ 0x2c
    1b9c:	5602      	ldrsb	r2, [r0, r0]
    1b9e:	9820      	ldr	r0, [sp, #128]	@ 0x80
    1ba0:	0a85      	lsrs	r5, r0, #10
    1ba2:	ed00 028a 	sfm	f0, 4, [r0, #-552]	@ 0xfffffdd8
    1ba6:	2056      	movs	r0, #86	@ 0x56
    1ba8:	8598      	strh	r0, [r3, #44]	@ 0x2c
    1baa:	1456      	asrs	r6, r2, #17
    1bac:	240d      	movs	r4, #13
    1bae:	c141      	stmia	r1!, {r0, r6}
    1bb0:	63bf      	str	r7, [r7, #56]	@ 0x38
    1bb2:	4924      	ldr	r1, [pc, #144]	@ (0x1c44)
    1bb4:	37e2      	adds	r7, #226	@ 0xe2
    1bb6:	5cf1      	ldrb	r1, [r6, r3]
    1bb8:	f101 f1cf 	bl	0x502f5a
    1bbc:	7e67      	ldrb	r7, [r4, #25]
    1bbe:	d224      	bcs.n	0x1c0a
    1bc0:	037c      	lsls	r4, r7, #13
    1bc2:	a2a0      	add	r2, pc, #640	@ (adr r2, 0x1e44)
    1bc4:	7060      	strb	r0, [r4, #1]
    1bc6:	ec34 3601 	ldc	6, cr3, [r4], #-4
    1bca:	256f      	movs	r5, #111	@ 0x6f
    1bcc:	026c      	lsls	r4, r5, #9
    1bce:	6f40      	ldr	r0, [r0, #116]	@ 0x74
    1bd0:	2467      	movs	r4, #103	@ 0x67
    1bd2:	e802 ef3c 			@ <UNDEFINED> instruction: 0xe802ef3c
    1bd6:	b983      	cbnz	r3, 0x1bfa
    1bd8:	ac01      	add	r4, sp, #4
    1bda:	06f3      	lsls	r3, r6, #27
    1bdc:	c266      	stmia	r2!, {r1, r2, r5, r6}
    1bde:	601e      	str	r6, [r3, #0]
    1be0:	c423      	stmia	r4!, {r0, r1, r5}
    1be2:	218a      	movs	r1, #138	@ 0x8a
    1be4:	09cf      	lsrs	r7, r1, #7
    1be6:	fe66 00fc 	mcr2	0, 3, r0, cr6, cr12, {7}
    1bea:	cff1      	ldmia	r7, {r0, r4, r5, r6, r7}
    1bec:	47f4      	blxns	lr
    1bee:	80a0      	strh	r0, [r4, #4]
    1bf0:	1470      	asrs	r0, r6, #17
    1bf2:	01ec      	lsls	r4, r5, #7
    1bf4:	6f3e      	ldr	r6, [r7, #112]	@ 0x70
    1bf6:	6c23      	ldr	r3, [r4, #64]	@ 0x40
    1bf8:	02ac      	lsls	r4, r5, #10
    1bfa:	256f      	movs	r5, #111	@ 0x6f
    1bfc:	ae6c      	add	r6, sp, #432	@ 0x1b0
    1bfe:	6f02      	ldr	r2, [r0, #112]	@ 0x70
    1c00:	6c27      	ldr	r7, [r4, #64]	@ 0x40
    1c02:	02b0      	lsls	r0, r6, #10
    1c04:	696f      	ldr	r7, [r5, #20]
    1c06:	0204      	lsls	r4, r0, #8
    1c08:	1ce8      	adds	r0, r5, #3
    1c0a:	f3ef 00cc 			@ <UNDEFINED> instruction: 0xf3ef00cc
    1c0e:	cff1      	ldmia	r7, {r0, r4, r5, r6, r7}
    1c10:	47f4      	blxns	lr
    1c12:	60a0      	str	r0, [r4, #8]
    1c14:	1470      	asrs	r0, r6, #17
    1c16:	01ec      	lsls	r4, r5, #7
    1c18:	6f5e      	ldr	r6, [r3, #116]	@ 0x74
    1c1a:	0c03      	lsrs	r3, r0, #16
    1c1c:	56f0      	ldrsb	r0, [r6, r3]
    1c1e:	00c0      	lsls	r0, r0, #3
    1c20:	676f      	str	r7, [r5, #116]	@ 0x74
    1c22:	0204      	lsls	r4, r0, #8
    1c24:	1ce8      	adds	r0, r5, #3
    1c26:	f3ef 00cc 			@ <UNDEFINED> instruction: 0xf3ef00cc
    1c2a:	cff1      	ldmia	r7, {r0, r4, r5, r6, r7}
    1c2c:	f2e8 7167 			@ <UNDEFINED> instruction: 0xf2e87167
    1c30:	4f04      	ldr	r7, [pc, #16]	@ (0x1c44)
    1c32:	14e1      	asrs	r1, r4, #19
    1c34:	e2ce      	b.n	0x21d4
    1c36:	fc10 ed1f 	ldc2	13, cr14, [r0], {31}
    1c3a:	56ff      	ldrsb	r7, [r7, r3]
    1c3c:	614e      	str	r6, [r1, #20]
    1c3e:	1038      	asrs	r0, r7, #32
    1c40:	701c      	strb	r4, [r3, #0]
    1c42:	1234      	asrs	r4, r6, #8
    1c44:	2924      	cmp	r1, #36	@ 0x24
    1c46:	47bf      			@ <UNDEFINED> instruction: 0x47bf
    1c48:	ae04      	add	r6, sp, #16
    1c4a:	0464      	lsls	r4, r4, #17
    1c4c:	4882      	ldr	r0, [pc, #520]	@ (0x1e58)
    1c4e:	8d28      	ldrh	r0, [r5, #40]	@ 0x28
    1c50:	ca05      	ldmia	r2, {r0, r2}
    1c52:	3460      	adds	r4, #96	@ 0x60
    1c54:	08d2      	lsrs	r2, r2, #3
    1c56:	0930      	lsrs	r0, r6, #4
    1c58:	060a      	lsls	r2, r1, #24
    1c5a:	4ae0      	ldr	r2, [pc, #896]	@ (0x1fdc)
    1c5c:	2056      	movs	r0, #86	@ 0x56
    1c5e:	8598      	strh	r0, [r3, #44]	@ 0x2c
    1c60:	614e      	str	r6, [r1, #20]
    1c62:	6048      	str	r0, [r1, #4]
    1c64:	f059 8676 	bne.w	0x1b954
    1c68:	9606      	str	r6, [sp, #24]
    1c6a:	6f07      	ldr	r7, [r0, #112]	@ 0x70
    1c6c:	0469      	lsls	r1, r5, #17
    1c6e:	1258      	asrs	r0, r3, #9
    1c70:	0529      	lsls	r1, r5, #20
    1c72:	caed      	ldmia	r2, {r0, r2, r3, r5, r6, r7}
    1c74:	5201      	strh	r1, [r0, r0]
    1c76:	77e8      	strb	r0, [r5, #31]
    1c78:	7e1f      	ldrb	r7, [r3, #24]
    1c7a:	2a79      	cmp	r2, #121	@ 0x79
    1c7c:	3b70      	subs	r3, #112	@ 0x70
    1c7e:	30a0      	adds	r0, #160	@ 0xa0
    1c80:	aed0      	add	r6, sp, #832	@ 0x340
    1c82:	6026      	str	r6, [r4, #0]
    1c84:	8205      	strh	r5, [r0, #16]
    1c86:	a859      	add	r0, sp, #356	@ 0x164
    1c88:	d0c0      	beq.n	0x1c0c
    1c8a:	28ae      	cmp	r0, #174	@ 0xae
    1c8c:	0560      	lsls	r0, r4, #21
    1c8e:	5982      	ldr	r2, [r0, r6]
    1c90:	30a8      	adds	r0, #168	@ 0xa8
    1c92:	b470      	push	{r4, r5, r6}
    1c94:	01ec      	lsls	r4, r5, #7
    1c96:	6f24      	ldr	r4, [r4, #112]	@ 0x70
    1c98:	046d      	lsls	r5, r5, #17
    1c9a:	2802      	cmp	r0, #2
    1c9c:	0bce      	lsrs	r6, r1, #15
    1c9e:	83ef      	strh	r7, [r5, #30]
    1ca0:	62c9      	str	r1, [r1, #44]	@ 0x2c
    1ca2:	1104      	asrs	r4, r0, #4
    1ca4:	a72f      	add	r7, pc, #188	@ (adr r7, 0x1d64)
    1ca6:	d000      	beq.n	0x1caa
    1ca8:	26ae      	movs	r6, #174	@ 0xae
    1caa:	0560      	lsls	r0, r4, #21
    1cac:	5982      	ldr	r2, [r0, r6]
    1cae:	00a8      	lsls	r0, r5, #2
    1cb0:	aed0      	add	r6, sp, #832	@ 0x340
    1cb2:	6028      	str	r0, [r5, #0]
    1cb4:	8205      	strh	r5, [r0, #16]
    1cb6:	6859      	ldr	r1, [r3, #4]
    1cb8:	d145      	bne.n	0x1d46
    1cba:	1240      	asrs	r0, r0, #9
    1cbc:	fc14 463b 	ldc2	6, cr4, [r4], {59}	@ 0x3b
    1cc0:	2492      	movs	r4, #146	@ 0x92
    1cc2:	167e      	asrs	r6, r7, #25
    1cc4:	18cf      	adds	r7, r1, r3
    1cc6:	cf10      	ldmia	r7!, {r4}
    1cc8:	47f1      			@ <UNDEFINED> instruction: 0x47f1
    1cca:	14f0      	asrs	r0, r6, #19
    1ccc:	614e      	str	r6, [r1, #20]
    1cce:	7048      	strb	r0, [r1, #1]
    1cd0:	0a34      	lsrs	r4, r6, #8
    1cd2:	4706      	bx	r0
    1cd4:	2ec4      	cmp	r6, #196	@ 0xc4
    1cd6:	f160 4666 	sbc.w	r6, r0, #3858759680	@ 0xe6000000
    1cda:	8473      	strh	r3, [r6, #34]	@ 0x22
    1cdc:	6ae0      	ldr	r0, [r4, #44]	@ 0x2c
    1cde:	2346      	movs	r3, #70	@ 0x46
    1ce0:	8488      	strh	r0, [r1, #36]	@ 0x24
    1ce2:	0947      	lsrs	r7, r0, #5
    1ce4:	68ae      	ldr	r6, [r5, #8]
    1ce6:	8234      	strh	r4, [r6, #16]
    1ce8:	7848      	ldrb	r0, [r1, #1]
    1cea:	46a4      	mov	ip, r4
    1cec:	8020      	strh	r0, [r4, #0]
    1cee:	f4ce cf3e 	blx	0xff4d0b6c
    1cf2:	100f      	asrs	r7, r1, #32
    1cf4:	7adf      	ldrb	r7, [r3, #11]
    1cf6:	4756      	bx	sl
    1cf8:	34f2      	adds	r4, #242	@ 0xf2
    1cfa:	634e      	str	r6, [r1, #52]	@ 0x34
    1cfc:	d048      	beq.n	0x1d90
    1cfe:	c008      	stmia	r0!, {r3}
    1d00:	cd24      	ldmia	r5, {r2, r5}
    1d02:	0037      	movs	r7, r6
    1d04:	4625      	mov	r5, r4
    1d06:	2052      	movs	r0, #82	@ 0x52
    1d08:	ec2b 1000 	stc	0, cr1, [fp], #-0
    1d0c:	46d2      	mov	sl, sl
    1d0e:	102b      	asrs	r3, r5, #32
    1d10:	03b4      	lsls	r4, r6, #14
    1d12:	a410      	add	r4, pc, #64	@ (adr r4, 0x1d54)
    1d14:	8013      	strh	r3, [r2, #0]
    1d16:	0299      	lsls	r1, r3, #10
    1d18:	f3ac 6606 	usat	r6, #6, ip, asr #24
    1d1c:	2ec2      	cmp	r6, #194	@ 0xc2
    1d1e:	2063      	movs	r0, #99	@ 0x63
    1d20:	8ac4      	ldrh	r4, [r0, #22]
    1d22:	9021      	str	r0, [sp, #132]	@ 0x84
    1d24:	fe08 2465 	cdp2	4, 0, cr2, cr8, cr5, {3}
    1d28:	134e      	asrs	r6, r1, #13
    1d2a:	a4b0      	add	r4, pc, #704	@ (adr r4, 0x1fec)
    1d2c:	f566 106d 	sbc.w	r0, r6, #3883008	@ 0x3b4000
    1d30:	e9cf 6672 	strd	r6, r6, [pc, #456]	@ 0x1efc	@ 0x1c8
    1d34:	2471      	movs	r4, #113	@ 0x71
    1d36:	e34f      	b.n	0x23d8
    1d38:	8634      	strh	r4, [r6, #48]	@ 0x30
    1d3a:	d206      	bcs.n	0x1d4a
    1d3c:	4008      	ands	r0, r1
    1d3e:	d208      	bcs.n	0x1d52
    1d40:	037c      	lsls	r4, r7, #13
    1d42:	e5d0      	b.n	0x18e6
    1d44:	ce34      	ldmia	r6!, {r2, r4, r5}
    1d46:	f0e4 6e56 			@ <UNDEFINED> instruction: 0xf0e46e56
    1d4a:	06f5      	lsls	r5, r6, #27
    1d4c:	010a      	lsls	r2, r1, #4
    1d4e:	045a      	lsls	r2, r3, #17
    1d50:	e802 217c 			@ <UNDEFINED> instruction: 0xe802217c
    1d54:	2a94      	cmp	r2, #148	@ 0x94
    1d56:	080a      	lsrs	r2, r1, #32
    1d58:	cb47      	ldmia	r3!, {r0, r1, r2, r6}
    1d5a:	e32e      	b.n	0x23ba
    1d5c:	d6f0      	bvs.n	0x1d40
    1d5e:	f56e 6ef6 	sbc.w	lr, lr, #1968	@ 0x7b0
    1d62:	6f27      	ldr	r7, [r4, #112]	@ 0x70
    1d64:	6e11      	ldr	r1, [r2, #96]	@ 0x60
    1d66:	6f29      	ldr	r1, [r5, #112]	@ 0x70
    1d68:	4613      	mov	r3, r2
    1d6a:	8022      	strh	r2, [r4, #0]
    1d6c:	bce2      	pop	{r1, r5, r6, r7}
    1d6e:	3ef0      	subs	r6, #240	@ 0xf0
    1d70:	2998      	cmp	r1, #152	@ 0x98
    1d72:	3ac0      	subs	r2, #192	@ 0xc0
    1d74:	606f      	str	r7, [r5, #4]
    1d76:	ec26 0e32 	stc	14, cr0, [r6], #-200	@ 0xffffff38
    1d7a:	ac42      	add	r4, sp, #264	@ 0x108
    1d7c:	5318      	strh	r0, [r3, r4]
    1d7e:	e083      	b.n	0x1e88
    1d80:	465f      	mov	r7, fp
    1d82:	34e2      	adds	r4, #226	@ 0xe2
    1d84:	f011 6629 	ands.w	r6, r1, #177209344	@ 0xa900000
    1d88:	cf16      	ldmia	r7!, {r1, r2, r4}
    1d8a:	1017      	asrs	r7, r2, #32
    1d8c:	f1cf e04f 	bf	6, 0x10e2c
    1d90:	8604      	strh	r4, [r0, #48]	@ 0x30
    1d92:	4704      	bxns	r0
    1d94:	04e2      	lsls	r2, r4, #19
    1d96:	0586      	lsls	r6, r0, #22
    1d98:	6347      	str	r7, [r0, #52]	@ 0x34
    1d9a:	8d24      	ldrh	r4, [r4, #40]	@ 0x28
    1d9c:	4201      	tst	r1, r0
    1d9e:	5246      	strh	r6, [r0, r1]
    1da0:	6384      	str	r4, [r0, #56]	@ 0x38
    1da2:	4534      	cmp	r4, r6
    1da4:	4136      	asrs	r6, r6
    1da6:	0039      	movs	r1, r7
    1da8:	060a      	lsls	r2, r1, #24
    1daa:	c447      	stmia	r4!, {r0, r1, r2, r6}
    1dac:	032e      	lsls	r6, r5, #12
    1dae:	66f1      	str	r1, [r6, #108]	@ 0x6c
    1db0:	7246      	strb	r6, [r0, #9]
    1db2:	4684      	mov	ip, r0
    1db4:	9473      	str	r4, [sp, #460]	@ 0x1cc
    1db6:	3f0a      	subs	r7, #10
    1db8:	e802 ef4c 			@ <UNDEFINED> instruction: 0xe802ef4c
    1dbc:	0993      	lsrs	r3, r2, #6
    1dbe:	4614      	mov	r4, r2
    1dc0:	48c2      	ldr	r0, [pc, #776]	@ (0x20cc)
    1dc2:	6090      	str	r0, [r2, #8]
    1dc4:	8d24      	ldrh	r4, [r4, #40]	@ 0x28
    1dc6:	1905      	adds	r5, r0, r4
    1dc8:	5246      	strh	r6, [r0, r1]
    1dca:	6384      	str	r4, [r0, #56]	@ 0x38
    1dcc:	4534      	cmp	r4, r6
    1dce:	4136      	asrs	r6, r6
    1dd0:	0039      	movs	r1, r7
    1dd2:	1599      	asrs	r1, r3, #22
    1dd4:	2461      	movs	r4, #97	@ 0x61
    1dd6:	08d2      	lsrs	r2, r2, #3
    1dd8:	0a20      	lsrs	r0, r4, #8
    1dda:	3741      	adds	r7, #65	@ 0x41
    1ddc:	4100      	asrs	r0, r0
    1dde:	0038      	movs	r0, r7
    1de0:	060a      	lsls	r2, r1, #24
    1de2:	c447      	stmia	r4!, {r0, r1, r2, r6}
    1de4:	032e      	lsls	r6, r5, #12
    1de6:	66f1      	str	r1, [r6, #108]	@ 0x6c
    1de8:	000a      	movs	r2, r1
    1dea:	6847      	ldr	r7, [r0, #4]
    1dec:	4734      	bxns	r6
    1dee:	f0a9 8023 	bcs.w	0x2ae38
    1df2:	f4ce 0a3e 			@ <UNDEFINED> instruction: 0xf4ce0a3e
    1df6:	4706      	bx	r0
    1df8:	2ec4      	cmp	r6, #196	@ 0xc4
    1dfa:	f123 0a66 			@ <UNDEFINED> instruction: 0xf1230a66
    1dfe:	4700      	bx	r0
    1e00:	3468      	adds	r4, #104	@ 0x68
    1e02:	6947      	ldr	r7, [r0, #20]
    1e04:	0234      	lsls	r4, r6, #8
    1e06:	4ce8      	ldr	r4, [pc, #928]	@ (0x21a8)
    1e08:	13ef      	asrs	r7, r5, #15
    1e0a:	d423      	bmi.n	0x1e54
    1e0c:	3013      	adds	r0, #19
    1e0e:	8d2a      	ldrh	r2, [r5, #40]	@ 0x28
    1e10:	2401      	movs	r4, #1
    1e12:	2ed2      	cmp	r6, #210	@ 0xd2
    1e14:	e012      	b.n	0x1e3c
    1e16:	10a0      	asrs	r0, r4, #2
    1e18:	6010      	str	r0, [r2, #0]
    1e1a:	9957      	ldr	r1, [sp, #348]	@ 0x15c
    1e1c:	a083      	add	r0, pc, #524	@ (adr r0, 0x202c)
    1e1e:	1000      	asrs	r0, r0, #32
    1e20:	56f0      	ldrsb	r0, [r6, r3]
    1e22:	7698      	strb	r0, [r3, #26]
    1e24:	0cc0      	lsrs	r0, r0, #19
    1e26:	6f21      	ldr	r1, [r4, #112]	@ 0x70
    1e28:	98f2      	ldr	r0, [sp, #968]	@ 0x3c8
    1e2a:	4668      	mov	r0, sp
    1e2c:	28d2      	cmp	r0, #210	@ 0xd2
    1e2e:	a2d0      	add	r2, pc, #832	@ (adr r2, 0x2170)
    1e30:	7060      	strb	r0, [r4, #1]
    1e32:	ec44 1232 	sfm	f1, 2, [r4], {50}	@ 0x32
    1e36:	a66f      	add	r6, pc, #444	@ (adr r6, 0x1ff4)
    1e38:	7020      	strb	r0, [r4, #0]
    1e3a:	4684      	mov	ip, r0
    1e3c:	9473      	str	r4, [sp, #460]	@ 0x1cc
    1e3e:	2346      	movs	r3, #70	@ 0x46
    1e40:	ce80      	ldmia	r6!, {r7}
    1e42:	3ef4      	subs	r6, #244	@ 0xf4
    1e44:	3298      	adds	r2, #152	@ 0x98
    1e46:	d246      	bcs.n	0x1ed6
    1e48:	9038      	str	r0, [sp, #224]	@ 0xe0
    1e4a:	60a2      	str	r2, [r4, #8]
    1e4c:	4470      	add	r0, lr
    1e4e:	32ec      	adds	r2, #236	@ 0xec
    1e50:	6f12      	ldr	r2, [r2, #112]	@ 0x70
    1e52:	30a6      	adds	r0, #166	@ 0xa6
    1e54:	8470      	strh	r0, [r6, #34]	@ 0x22
    1e56:	7346      	strb	r6, [r0, #13]
    1e58:	4694      	mov	ip, r2
    1e5a:	8023      	strh	r3, [r4, #0]
    1e5c:	f4ce cf3e 	blx	0xff4d0cdc
    1e60:	100f      	asrs	r7, r1, #32
    1e62:	efcf ff7f 			@ <UNDEFINED> instruction: 0xefcfff7f
    1e66:	d204      	bcs.n	0x1e72
    1e68:	038d      	lsls	r5, r1, #14
    1e6a:	1270      	asrs	r0, r6, #9
    1e6c:	e04e      	b.n	0x1f0c
    1e6e:	0e4c      	lsrs	r4, r1, #25
    1e70:	226f      	movs	r2, #111	@ 0x6f
    1e72:	38ed      	subs	r0, #237	@ 0xed
    1e74:	2b01      	cmp	r3, #1
    1e76:	3944      	subs	r1, #68	@ 0x44
    1e78:	5258      	strh	r0, [r3, r1]
    1e7a:	9ed0      	ldr	r6, [sp, #832]	@ 0x340
    1e7c:	2421      	movs	r4, #33	@ 0x21
    1e7e:	0e85      	lsrs	r5, r0, #26
    1e80:	227e      	movs	r2, #126	@ 0x7e
    1e82:	b868      			@ <UNDEFINED> instruction: 0xb868
    1e84:	4467      	add	r7, ip
    1e86:	0839      	lsrs	r1, r7, #32
    1e88:	80d1      	strh	r1, [r2, #6]
    1e8a:	25a9      	movs	r5, #169	@ 0xa9
    1e8c:	38ed      	subs	r0, #237	@ 0xed
    1e8e:	2b04      	cmp	r3, #4
    1e90:	3944      	subs	r1, #68	@ 0x44
    1e92:	5258      	strh	r0, [r3, r1]
    1e94:	5ed0      	ldrsh	r0, [r2, r3]
    1e96:	2422      	movs	r4, #34	@ 0x22
    1e98:	0e85      	lsrs	r5, r0, #26
    1e9a:	227e      	movs	r2, #126	@ 0x7e
    1e9c:	b868      			@ <UNDEFINED> instruction: 0xb868
    1e9e:	4433      	add	r3, r6
    1ea0:	0839      	lsrs	r1, r7, #32
    1ea2:	80d1      	strh	r1, [r2, #6]
    1ea4:	4269      	negs	r1, r5
    1ea6:	8394      	strh	r4, [r2, #28]
    1ea8:	0525      	lsls	r5, r4, #20
    1eaa:	31ed      	adds	r1, #237	@ 0xed
    1eac:	5242      	strh	r2, [r0, r1]
    1eae:	e0e8      	b.n	0x2082
    1eb0:	8227      	strh	r7, [r4, #16]
    1eb2:	4396      	bics	r6, r2
    1eb4:	3944      	subs	r1, #68	@ 0x44
    1eb6:	d108      	bne.n	0x1eca
    1eb8:	9400      	str	r4, [sp, #0]
    1eba:	8053      	strh	r3, [r2, #2]
    1ebc:	458d      	cmp	sp, r1
    1ebe:	5384      	strh	r4, [r0, r6]
    1ec0:	1374      	asrs	r4, r6, #13
    1ec2:	0394      	lsls	r4, r2, #14
    1ec4:	7410      	strb	r0, [r2, #16]
    1ec6:	1001      	asrs	r1, r0, #32
    1ec8:	0184      	lsls	r4, r0, #6
    1eca:	c010      	stmia	r0!, {r4}
    1ecc:	0a3d      	lsrs	r5, r7, #8
    1ece:	4706      	bx	r0
    1ed0:	2ec4      	cmp	r6, #196	@ 0xc4
    1ed2:	f123 4466 			@ <UNDEFINED> instruction: 0xf1234466
    1ed6:	4737      	bx	r6
    1ed8:	6448      	str	r0, [r1, #68]	@ 0x44
    1eda:	9473      	str	r4, [sp, #460]	@ 0x1cc
    1edc:	3644      	adds	r6, #68	@ 0x44
    1ede:	e802 ef4c 			@ <UNDEFINED> instruction: 0xe802ef4c
    1ee2:	6443      	str	r3, [r0, #68]	@ 0x44
    1ee4:	7543      	strb	r3, [r0, #21]
    1ee6:	f313 23c2 			@ <UNDEFINED> instruction: 0xf31323c2
    1eea:	38ed      	subs	r0, #237	@ 0xed
    1eec:	2301      	movs	r3, #1
    1eee:	060a      	lsls	r2, r1, #24
    1ef0:	c447      	stmia	r4!, {r0, r1, r2, r6}
    1ef2:	032e      	lsls	r6, r5, #12
    1ef4:	66f3      	str	r3, [r6, #108]	@ 0x6c
    1ef6:	f26e 0a86 			@ <UNDEFINED> instruction: 0xf26e0a86
    1efa:	023f      	lsls	r7, r7, #8
    1efc:	4ce8      	ldr	r4, [pc, #928]	@ (0x22a0)
    1efe:	e3ef      	b.n	0x26e0
    1f00:	cff7      	ldmia	r7, {r0, r1, r2, r4, r5, r6, r7}
    1f02:	1011      	asrs	r1, r2, #32
    1f04:	f4cf a047 	bcc.w	0xfff50f96
    1f08:	7060      	strb	r0, [r4, #1]
    1f0a:	ec14 3e32 	ldc	14, cr3, [r4], {50}	@ 0x32
    1f0e:	236f      	movs	r3, #111	@ 0x6f
    1f10:	c86c      	ldmia	r0!, {r2, r3, r5, r6}
    1f12:	6f40      	ldr	r0, [r0, #116]	@ 0x74
    1f14:	0465      	lsls	r5, r4, #17
    1f16:	e802 ef1c 			@ <UNDEFINED> instruction: 0xe802ef1c
    1f1a:	ccf3      	ldmia	r4, {r0, r1, r4, r5, r6, r7}
    1f1c:	f100 cf10 	blx	0x902d40
    1f20:	f2e9 7157 			@ <UNDEFINED> instruction: 0xf2e97157
    1f24:	4f24      	ldr	r7, [pc, #144]	@ (0x1fb8)
    1f26:	dd23      	ble.n	0x1f70
    1f28:	0037      	movs	r7, r6
    1f2a:	e084      	b.n	0x2036
    1f2c:	8634      	strh	r4, [r6, #48]	@ 0x30
    1f2e:	0204      	lsls	r4, r0, #8
    1f30:	6ce8      	ldr	r0, [r5, #76]	@ 0x4c
    1f32:	fdc2 0207 	stc2l	2, cr0, [r2, #28]
    1f36:	5ce8      	ldrb	r0, [r5, r3]
    1f38:	4921      	ldr	r1, [pc, #132]	@ (0x1fc0)
    1f3a:	6f28      	ldr	r0, [r5, #112]	@ 0x70
    1f3c:	86e8      	strh	r0, [r5, #54]	@ 0x36
    1f3e:	00cc      	lsls	r4, r1, #3
    1f40:	2200      	movs	r2, #0
    1f42:	a363      	add	r3, pc, #396	@ (adr r3, 0x20d0)
    1f44:	7080      	strb	r0, [r0, #2]
    1f46:	eca4 8632 	stc	6, cr8, [r4], #200	@ 0xc8
    1f4a:	6c6f      	ldr	r7, [r5, #68]	@ 0x44
    1f4c:	4754      	bxns	sl
    1f4e:	66ee      	str	r6, [r5, #108]	@ 0x6c
    1f50:	ef6f f286 	vhsub.s32	d31, d31, d6
    1f54:	6116      	str	r6, [r2, #16]
    1f56:	0224      	lsls	r4, r4, #8
    1f58:	ce28      	ldmia	r6!, {r3, r5}
    1f5a:	ef0a 8983 	vmla.i8	d8, d26, d3
    1f5e:	ac03      	add	r4, sp, #12
    1f60:	06f3      	lsls	r3, r6, #27
    1f62:	c266      	stmia	r2!, {r1, r2, r5, r6}
    1f64:	632e      	str	r6, [r5, #48]	@ 0x30
    1f66:	c428      	stmia	r4!, {r3, r5}
    1f68:	118a      	asrs	r2, r1, #6
    1f6a:	8649      	strh	r1, [r1, #50]	@ 0x32
    1f6c:	01a9      	lsls	r1, r5, #6
    1f6e:	f3ac 6606 	usat	r6, #6, ip, asr #24
    1f72:	2ec2      	cmp	r6, #194	@ 0xc2
    1f74:	2863      	cmp	r0, #99	@ 0x63
    1f76:	8ac4      	ldrh	r4, [r0, #22]
    1f78:	3a11      	subs	r2, #17
    1f7a:	7e26      	ldrb	r6, [r4, #24]
    1f7c:	cf15      	ldmia	r7!, {r0, r2, r4}
    1f7e:	1017      	asrs	r7, r2, #32
    1f80:	7adf      	ldrb	r7, [r3, #11]
    1f82:	4f56      	ldr	r7, [pc, #344]	@ (0x20dc)
    1f84:	2473      	movs	r4, #115	@ 0x73
    1f86:	7cd2      	ldrb	r2, [r2, #19]
    1f88:	2003      	movs	r0, #3
    1f8a:	2464      	movs	r4, #100	@ 0x64
    1f8c:	b205      	sxth	r5, r0
    1f8e:	34e2      	adds	r4, #226	@ 0xe2
    1f90:	0486      	lsls	r6, r0, #18
    1f92:	b305      	cbz	r5, 0x1fd6
    1f94:	34e2      	adds	r4, #226	@ 0xe2
    1f96:	e5ce      	b.n	0x1b36
    1f98:	6d20      	ldr	r0, [r4, #80]	@ 0x50
    1f9a:	02b4      	lsls	r4, r6, #10
    1f9c:	e34e      	b.n	0x263c
    1f9e:	0e7c      	lsrs	r4, r7, #25
    1fa0:	66d2      	str	r2, [r2, #108]	@ 0x6c
    1fa2:	102b      	asrs	r3, r5, #32
    1fa4:	03b4      	lsls	r4, r6, #14
    1fa6:	a410      	add	r4, pc, #64	@ (adr r4, 0x1fe8)
    1fa8:	8023      	strh	r3, [r4, #0]
    1faa:	01a9      	lsls	r1, r5, #6
    1fac:	f3ac 6606 	usat	r6, #6, ip, asr #24
    1fb0:	2ec2      	cmp	r6, #194	@ 0xc2
    1fb2:	28e3      	cmp	r0, #227	@ 0xe3
    1fb4:	8ac4      	ldrh	r4, [r0, #22]
    1fb6:	fc11 5665 	ldc2	6, cr5, [r1], {101}	@ 0x65
    1fba:	06df      	lsls	r7, r3, #27
    1fbc:	cff1      	ldmia	r7, {r0, r4, r5, r6, r7}
    1fbe:	72ef      	strb	r7, [r5, #11]
    1fc0:	7106      	strb	r6, [r0, #4]
    1fc2:	4f04      	ldr	r7, [pc, #16]	@ (0x1fd4)
    1fc4:	14e1      	asrs	r1, r4, #19
    1fc6:	0486      	lsls	r6, r0, #18
    1fc8:	6347      	str	r7, [r0, #52]	@ 0x34
    1fca:	c134      	stmia	r1!, {r2, r4, r5}
    1fcc:	12f0      	asrs	r0, r6, #11
    1fce:	c32b      	stmia	r3!, {r0, r1, r3, r5}
    1fd0:	4258      	negs	r0, r3
    1fd2:	a62c      	add	r6, pc, #176	@ (adr r6, 0x2084)
    1fd4:	3e80      	subs	r6, #128	@ 0x80
    1fd6:	1356      	asrs	r6, r2, #13
    1fd8:	a0fd      	add	r0, pc, #1012	@ (adr r0, 0x23d0)
    1fda:	c010      	stmia	r0!, {r4}
    1fdc:	8001      	strh	r1, [r0, #0]
    1fde:	30df      	adds	r0, #223	@ 0xdf
    1fe0:	a203      	add	r2, pc, #12	@ (adr r2, 0x1ff0)
    1fe2:	2015      	movs	r0, #21
    1fe4:	f312 9273 	b.w	0xf144ce
    1fe8:	0a31      	lsrs	r1, r6, #8
    1fea:	ee01 00a2 	cdp	0, 0, cr0, cr1, cr2, {5}
    1fee:	4470      	add	r0, lr
    1ff0:	060a      	lsls	r2, r1, #24
    1ff2:	c547      	stmia	r5!, {r0, r1, r2, r6}
    1ff4:	632e      	str	r6, [r5, #48]	@ 0x30
    1ff6:	76f9      	strb	r1, [r7, #27]
    1ff8:	7346      	strb	r6, [r0, #13]
    1ffa:	4694      	mov	ip, r2
    1ffc:	a474      	add	r4, pc, #464	@ (adr r4, 0x21d0)
    1ffe:	2046      	movs	r0, #70	@ 0x46
    2000:	ce80      	ldmia	r6!, {r7}
    2002:	3ef5      	subs	r6, #245	@ 0xf5
    2004:	0662      	lsls	r2, r4, #25
    2006:	1cf1      	adds	r1, r6, #3
    2008:	f101 7cdf 	add.w	ip, r1, #29229056	@ 0x1be0000
    200c:	4736      	bx	r6
    200e:	bc02      	pop	{r1}
    2010:	06f3      	lsls	r3, r6, #27
    2012:	c266      	stmia	r2!, {r1, r2, r5, r6}
    2014:	232e      	movs	r3, #46	@ 0x2e
    2016:	c42a      	stmia	r4!, {r1, r3, r5}
    2018:	118a      	asrs	r2, r1, #6
    201a:	6599      	str	r1, [r3, #88]	@ 0x58
    201c:	df36      	svc	54	@ 0x36
    201e:	f104 f4cf 	bl	0x5069c0
    2022:	a047      	add	r0, pc, #284	@ (adr r0, 0x2140)
    2024:	7060      	strb	r0, [r4, #1]
    2026:	ec14 b632 	ldc	6, cr11, [r4], {50}	@ 0x32
    202a:	a36f      	add	r3, pc, #444	@ (adr r3, 0x21e8)
    202c:	7020      	strb	r0, [r4, #0]
    202e:	0a54      	lsrs	r4, r2, #9
    2030:	470b      	bx	r1
    2032:	00a6      	lsls	r6, r4, #2
    2034:	7470      	strb	r0, [r6, #17]
    2036:	2046      	movs	r0, #70	@ 0x46
    2038:	ce80      	ldmia	r6!, {r7}
    203a:	3ef1      	subs	r6, #241	@ 0xf1
    203c:	0ccf      	lsrs	r7, r1, #19
    203e:	df10      	svc	16
    2040:	0579      	lsls	r1, r7, #21
    2042:	0147      	lsls	r7, r0, #5
    2044:	f00c 0a56 	and.w	sl, ip, #86	@ 0x56
    2048:	4700      	bx	r0
    204a:	4992      	ldr	r1, [pc, #584]	@ (0x2294)
    204c:	460b      	mov	r3, r1
    204e:	2582      	movs	r5, #130	@ 0x82
    2050:	5291      	strh	r1, [r2, r2]
    2052:	ded0      	udf	#208	@ 0xd0
    2054:	24b3      	movs	r4, #179	@ 0xb3
    2056:	8685      	strh	r5, [r0, #52]	@ 0x34
    2058:	5602      	ldrsb	r2, [r0, r0]
    205a:	1231      	asrs	r1, r6, #8
    205c:	89b9      	ldrh	r1, [r7, #12]
    205e:	2460      	movs	r4, #96	@ 0x60
    2060:	1258      	asrs	r0, r3, #9
    2062:	0529      	lsls	r1, r5, #20
    2064:	3ded      	subs	r5, #237	@ 0xed
    2066:	524b      	strh	r3, [r1, r1]
    2068:	f0e8 4656 			@ <UNDEFINED> instruction: 0xf0e84656
    206c:	2582      	movs	r5, #130	@ 0x82
    206e:	5291      	strh	r1, [r2, r2]
    2070:	ded0      	udf	#208	@ 0xd0
    2072:	24b3      	movs	r4, #179	@ 0xb3
    2074:	8685      	strh	r5, [r0, #52]	@ 0x34
    2076:	4703      	bx	r0
    2078:	00a3      	lsls	r3, r4, #2
    207a:	4470      	add	r0, lr
    207c:	3898      	subs	r0, #152	@ 0x98
    207e:	a446      	add	r4, pc, #280	@ (adr r4, 0x2198)
    2080:	20d5      	movs	r0, #213	@ 0xd5
    2082:	4eef      	ldr	r6, [pc, #956]	@ (0x2440)
    2084:	8525      	strh	r5, [r4, #40]	@ 0x28
    2086:	5684      	ldrsb	r4, [r0, r2]
    2088:	1230      	asrs	r0, r6, #8
    208a:	14b8      	asrs	r0, r7, #18
    208c:	a446      	add	r4, pc, #280	@ (adr r4, 0x21a8)
    208e:	20d5      	movs	r0, #213	@ 0xd5
    2090:	4eef      	ldr	r6, [pc, #956]	@ (0x2450)
    2092:	8525      	strh	r5, [r4, #40]	@ 0x28
    2094:	3298      	adds	r2, #152	@ 0x98
    2096:	8446      	strh	r6, [r0, #34]	@ 0x22
    2098:	0d10      	lsrs	r0, r2, #20
    209a:	6346      	str	r6, [r0, #52]	@ 0x34
    209c:	2345      	movs	r3, #69	@ 0x45
    209e:	2224      	movs	r2, #36	@ 0x24
    20a0:	98ba      	ldr	r0, [sp, #744]	@ 0x2e8
    20a2:	4614      	mov	r4, r2
    20a4:	1082      	asrs	r2, r0, #2
    20a6:	460d      	mov	r5, r1
    20a8:	30c2      	adds	r0, #194	@ 0xc2
    20aa:	0d90      	lsrs	r0, r2, #22
    20ac:	e0f4      	b.n	0x2298
    20ae:	df00      	svc	0
    20b0:	f107 d3cf 	bl	0xd09852
    20b4:	77f2      	strb	r2, [r6, #31]
    20b6:	0c02      	lsrs	r2, r0, #16
    20b8:	d6f1      	bvs.n	0x209e
    20ba:	00c0      	lsls	r0, r0, #3
    20bc:	0f6f      	lsrs	r7, r5, #29
    20be:	200c      	movs	r0, #12
    20c0:	116f      	asrs	r7, r5, #5
    20c2:	00c0      	lsls	r0, r0, #3
    20c4:	36f2      	adds	r6, #242	@ 0xf2
    20c6:	0c01      	lsrs	r1, r0, #16
    20c8:	6f20      	ldr	r0, [r4, #112]	@ 0x70
    20ca:	c015      	stmia	r0!, {r0, r2, r4}
    20cc:	f200 a176 	bhi.w	0x423bc
    20d0:	7010      	strb	r0, [r2, #0]
    20d2:	02a4      	lsls	r4, r4, #10
    20d4:	ce28      	ldmia	r6!, {r3, r5}
    20d6:	0a21      	lsrs	r1, r4, #8
    20d8:	5a00      	ldrh	r0, [r0, r0]
    20da:	1106      	asrs	r6, r0, #4
    20dc:	a52f      	add	r5, pc, #188	@ (adr r5, 0x219c)
    20de:	7000      	strb	r0, [r0, #0]
    20e0:	99b4      	ldr	r1, [sp, #720]	@ 0x2d0
    20e2:	01bf      	lsls	r7, r7, #6
    20e4:	64ae      	str	r6, [r5, #72]	@ 0x48
    20e6:	82b4      	strh	r4, [r6, #20]
    20e8:	c848      	ldmia	r0!, {r3, r6}
    20ea:	7088      	strb	r0, [r1, #2]
    20ec:	78c1      	ldrb	r1, [r0, #3]
    20ee:	c1d0      	stmia	r1!, {r4, r6, r7}
    20f0:	7098      	strb	r0, [r3, #2]
    20f2:	a8c1      	add	r0, sp, #772	@ 0x304
    20f4:	9110      	str	r1, [sp, #64]	@ 0x40
    20f6:	18e9      	adds	r1, r5, r3
    20f8:	000a      	movs	r2, r1
    20fa:	9a47      	ldr	r2, [sp, #284]	@ 0x11c
    20fc:	1829      	adds	r1, r5, r0
    20fe:	8b46      	ldrh	r6, [r0, #26]
    2100:	9125      	str	r1, [sp, #148]	@ 0x94
    2102:	0052      	lsls	r2, r2, #1
    2104:	2cae      	cmp	r4, #174	@ 0xae
    2106:	1e85      	subs	r5, r0, #2
    2108:	97f2      	str	r7, [sp, #968]	@ 0x3c8
    210a:	2a61      	cmp	r2, #97	@ 0x61
    210c:	3b60      	subs	r3, #96	@ 0x60
    210e:	7f20      	ldrb	r0, [r4, #28]
    2110:	6e1b      	ldr	r3, [r3, #96]	@ 0x60
    2112:	26fd      	movs	r6, #253	@ 0xfd
    2114:	ff6e e246 	vhsub.u32	q15, q7, q3
    2118:	f196 e266 	blx	0x5985e8
    211c:	f1b6 0286 	subs.w	r2, r6, #134	@ 0x86
    2120:	ce28      	ldmia	r6!, {r3, r5}
    2122:	c229      	stmia	r2!, {r0, r3, r5}
    2124:	06fc      	lsls	r4, r7, #27
    2126:	db93      	blt.n	0x2050
    2128:	20c5      	movs	r0, #197	@ 0xc5
    212a:	296e      	cmp	r1, #110	@ 0x6e
    212c:	2d6f      	cmp	r5, #111	@ 0x6f
    212e:	2b6e      	cmp	r3, #110	@ 0x6e
    2130:	6f6f      	ldr	r7, [r5, #116]	@ 0x74
    2132:	58b4      	ldr	r4, [r6, r2]
    2134:	2912      	cmp	r1, #18
    2136:	ed05 014a 	stfs	f0, [r5, #-296]	@ 0xfffffed8
    213a:	e852 7f21 	ldrex	r7, [r2, #132]	@ 0x84
    213e:	a619      	add	r6, pc, #100	@ (adr r6, 0x21a4)
    2140:	b602      			@ <UNDEFINED> instruction: 0xb602
    2142:	f203 21b7 	addw	r1, r3, #695	@ 0x2b7
    2146:	116e      	asrs	r6, r5, #5
    2148:	226f      	movs	r2, #111	@ 0x6f
    214a:	136e      	asrs	r6, r5, #13
    214c:	246f      	movs	r4, #111	@ 0x6f
    214e:	196e      	adds	r6, r5, r5
    2150:	266f      	movs	r6, #111	@ 0x6f
    2152:	1b6e      	subs	r6, r5, r5
    2154:	286f      	cmp	r0, #111	@ 0x6f
    2156:	e280      	b.n	0x265a
    2158:	229c      	movs	r2, #156	@ 0x9c
    215a:	6fcc      	ldr	r4, [r1, #124]	@ 0x7c
    215c:	a930      	add	r1, sp, #192	@ 0xc0
    215e:	0c34      	lsrs	r4, r6, #16
    2160:	96e2      	str	r6, [sp, #904]	@ 0x388
    2162:	6f22      	ldr	r2, [r4, #112]	@ 0x70
    2164:	e211      	b.n	0x258a
    2166:	22b6      	movs	r2, #182	@ 0xb6
    2168:	136f      	asrs	r7, r5, #13
    216a:	8b46      	ldrh	r6, [r0, #26]
    216c:	9125      	str	r1, [sp, #148]	@ 0x94
    216e:	d052      	beq.n	0x2216
    2170:	1cae      	adds	r6, r5, #2
    2172:	8520      	strh	r0, [r4, #40]	@ 0x28
    2174:	f21e 6197 			@ <UNDEFINED> instruction: 0xf21e6197
    2178:	602a      	str	r2, [r5, #0]
    217a:	203b      	movs	r0, #59	@ 0x3b
    217c:	1b7f      	subs	r7, r7, r5
    217e:	56e2      	ldrsb	r2, [r4, r3]
    2180:	26f1      	movs	r6, #241	@ 0xf1
    2182:	76e2      	strb	r2, [r4, #27]
    2184:	46f1      	mov	r9, lr
    2186:	96e2      	str	r6, [sp, #904]	@ 0x388
    2188:	66f1      	str	r1, [r6, #108]	@ 0x6c
    218a:	b6e2      			@ <UNDEFINED> instruction: 0xb6e2
    218c:	86f1      	strh	r1, [r6, #54]	@ 0x36
    218e:	2802      	cmp	r0, #2
    2190:	29ce      	cmp	r1, #206	@ 0xce
    2192:	fcc2 9306 	stc2l	3, cr9, [r2], {6}
    2196:	c34a      	stmia	r3!, {r1, r3, r6}
    2198:	6e20      	ldr	r0, [r4, #96]	@ 0x60
    219a:	f229 2156 			@ <UNDEFINED> instruction: 0xf2292156
    219e:	2b6e      	cmp	r3, #110	@ 0x6e
    21a0:	76f2      	strb	r2, [r6, #27]
    21a2:	ae01      	add	r6, sp, #4
    21a4:	b46a      	push	{r1, r3, r5, r6}
    21a6:	4882      	ldr	r0, [pc, #520]	@ (0x23b0)
    21a8:	078a      	lsls	r2, r1, #30
    21aa:	6aae      	ldr	r6, [r5, #40]	@ 0x28
    21ac:	82b4      	strh	r4, [r6, #20]
    21ae:	8848      	ldrh	r0, [r1, #2]
    21b0:	8025      	strh	r5, [r4, #0]
    21b2:	1ce2      	adds	r2, r4, #3
    21b4:	8522      	strh	r2, [r4, #40]	@ 0x28
    21b6:	0284      	lsls	r4, r0, #10
    21b8:	ce28      	ldmia	r6!, {r3, r5}
    21ba:	0821      	lsrs	r1, r4, #32
    21bc:	a521      	add	r5, pc, #132	@ (adr r5, 0x2244)
    21be:	4685      	mov	sp, r0
    21c0:	108b      	asrs	r3, r1, #2
    21c2:	460d      	mov	r5, r1
    21c4:	00cb      	lsls	r3, r1, #3
    21c6:	5d92      	ldrb	r2, [r2, r6]
    21c8:	6ee3      	ldr	r3, [r4, #108]	@ 0x6c
    21ca:	06fd      	lsls	r5, r7, #27
    21cc:	ff6e 9326 	vcgt.u32	d25, d14, d22
    21d0:	caca      	ldmia	r2!, {r1, r3, r6, r7}
    21d2:	5390      	strh	r0, [r2, r6]
    21d4:	000a      	movs	r2, r1
    21d6:	8a47      	ldrh	r7, [r0, #18]
    21d8:	2709      	movs	r7, #9
    21da:	2646      	movs	r6, #70	@ 0x46
    21dc:	000c      	movs	r4, r1
    21de:	b322      	cbz	r2, 0x222a
    21e0:	00a0      	lsls	r0, r4, #2
    21e2:	a470      	add	r4, pc, #448	@ (adr r4, 0x23a4)
    21e4:	5798      	ldrsb	r0, [r3, r6]
    21e6:	000a      	movs	r2, r1
    21e8:	8c47      	ldrh	r7, [r0, #34]	@ 0x22
    21ea:	6419      	str	r1, [r3, #64]	@ 0x40
    21ec:	58c4      	ldr	r4, [r0, r3]
    21ee:	d052      	beq.n	0x2296
    21f0:	a2be      	add	r2, pc, #760	@ (adr r2, 0x24ec)
    21f2:	8524      	strh	r4, [r4, #40]	@ 0x28
    21f4:	01a6      	lsls	r6, r4, #6
    21f6:	8c46      	ldrh	r6, [r0, #34]	@ 0x22
    21f8:	8025      	strh	r5, [r4, #0]
    21fa:	1ce2      	adds	r2, r4, #3
    21fc:	8522      	strh	r2, [r4, #40]	@ 0x28
    21fe:	2384      	movs	r3, #132	@ 0x84
    2200:	bc82      	pop	{r1, r7}
    2202:	00a0      	lsls	r0, r4, #2
    2204:	a470      	add	r4, pc, #448	@ (adr r4, 0x23c8)
    2206:	1398      	asrs	r0, r3, #14
    2208:	8c46      	ldrh	r6, [r0, #34]	@ 0x22
    220a:	0d10      	lsrs	r0, r2, #20
    220c:	cc46      	ldmia	r4!, {r1, r2, r6}
    220e:	8050      	strh	r0, [r2, #2]
    2210:	2b4d      	cmp	r3, #77	@ 0x4d
    2212:	156e      	asrs	r6, r5, #21
    2214:	226f      	movs	r2, #111	@ 0x6f
    2216:	176e      	asrs	r6, r5, #29
    2218:	246f      	movs	r4, #111	@ 0x6f
    221a:	e280      	b.n	0x271e
    221c:	229c      	movs	r2, #156	@ 0x9c
    221e:	6fcc      	ldr	r4, [r1, #124]	@ 0x7c
    2220:	a930      	add	r1, sp, #192	@ 0xc0
    2222:	0c87      	lsrs	r7, r0, #18
    2224:	96e2      	str	r6, [sp, #904]	@ 0x388
    2226:	6f22      	ldr	r2, [r4, #112]	@ 0x70
    2228:	e21d      	b.n	0x2666
    222a:	22b6      	movs	r2, #182	@ 0xb6
    222c:	1f6f      	subs	r7, r5, #5
    222e:	16e2      	asrs	r2, r4, #27
    2230:	26f1      	movs	r6, #241	@ 0xf1
    2232:	36e2      	adds	r6, #226	@ 0xe2
    2234:	46f1      	mov	r9, lr
    2236:	d6e2      	bvs.n	0x21fe
    2238:	66f1      	str	r1, [r6, #108]	@ 0x6c
    223a:	f6e2 86f1 	blt.w	0xfff25020
    223e:	2802      	cmp	r0, #2
    2240:	29ce      	cmp	r1, #206	@ 0xce
    2242:	fcc2 9306 	stc2l	3, cr9, [r2], {6}
    2246:	c5db      	stmia	r5!, {r0, r1, r3, r4, r6, r7}
    2248:	6e20      	ldr	r0, [r4, #96]	@ 0x60
    224a:	6d29      	ldr	r1, [r5, #80]	@ 0x50
    224c:	e21e      	b.n	0x268c
    224e:	d2b6      	bcs.n	0x21be
    2250:	6206      	str	r6, [r0, #32]
    2252:	8da4      	ldrh	r4, [r4, #44]	@ 0x2c
    2254:	4901      	ldr	r1, [pc, #4]	@ (0x225c)
    2256:	1e6c      	subs	r4, r5, #1
    2258:	c26f      	stmia	r2!, {r0, r1, r2, r3, r5, r6}
    225a:	f206 ec46 	blx	0x208ae8
    225e:	7269      	strb	r1, [r5, #9]
    2260:	066f      	lsls	r7, r5, #25
    2262:	f00c 0286 	and.w	r2, ip, #134	@ 0x86
    2266:	ce28      	ldmia	r6!, {r3, r5}
    2268:	c229      	stmia	r2!, {r0, r3, r5}
    226a:	06fc      	lsls	r4, r7, #27
    226c:	db93      	blt.n	0x2196
    226e:	20c5      	movs	r0, #197	@ 0xc5
    2270:	296e      	cmp	r1, #110	@ 0x6e
    2272:	1a6d      	subs	r5, r5, r1
    2274:	b6e2      			@ <UNDEFINED> instruction: 0xb6e2
    2276:	c6d2      	stmia	r6!, {r1, r4, r6, r7}
    2278:	0981      	lsrs	r1, r0, #6
    227a:	0c01      	lsrs	r1, r0, #16
    227c:	a6d0      	add	r6, pc, #832	@ (adr r6, 0x25c0)
    227e:	0c01      	lsrs	r1, r0, #16
    2280:	c6d0      	stmia	r6!, {r4, r6, r7}
    2282:	0c01      	lsrs	r1, r0, #16
    2284:	0cc0      	lsrs	r0, r0, #19
    2286:	9000      	str	r0, [sp, #0]
    2288:	4141      	adcs	r1, r0
    228a:	0022      	movs	r2, r4
    228c:	13ee      	asrs	r6, r5, #15
    228e:	1224      	asrs	r4, r4, #8
    2290:	a460      	add	r4, pc, #384	@ (adr r4, 0x2414)
    2292:	77e2      	strb	r2, [r4, #31]
    2294:	dcf2      	bgt.n	0x227c
    2296:	f102 1711 	add.w	r7, r2, #1114129	@ 0x110011
    229a:	18de      	adds	r6, r3, r3
    229c:	2100      	movs	r1, #0
    229e:	22ed      	movs	r2, #237	@ 0xed
    22a0:	0701      	lsls	r1, r0, #28
    22a2:	010a      	lsls	r2, r1, #4
    22a4:	a2ee      	add	r2, pc, #952	@ (adr r2, 0x2660)
    22a6:	0000      	movs	r0, r0
    22a8:	dff1      	svc	241	@ 0xf1
    22aa:	fd2c 0116 	stc2	1, cr0, [ip, #-88]!	@ 0xffffffa8
    22ae:	a0b1      	add	r0, pc, #708	@ (adr r0, 0x2574)
    22b0:	7000      	strb	r0, [r0, #0]
    22b2:	9914      	ldr	r1, [sp, #80]	@ 0x50
    22b4:	2094      	movs	r0, #148	@ 0x94
    22b6:	9241      	str	r2, [sp, #260]	@ 0x104
    22b8:	7bf2      	ldrb	r2, [r6, #15]
    22ba:	e024      	b.n	0x2306
    22bc:	464a      	mov	r2, r9
    22be:	8821      	ldrh	r1, [r4, #0]
    22c0:	4784      	blxns	r0
    22c2:	3463      	adds	r4, #99	@ 0x63
    22c4:	078c      	lsls	r4, r1, #30
    22c6:	4609      	mov	r1, r1
    22c8:	98d3      	ldr	r0, [sp, #844]	@ 0x34c
    22ca:	a4c0      	add	r4, pc, #768	@ (adr r4, 0x25cc)
    22cc:	00a0      	lsls	r0, r4, #2
    22ce:	64ae      	str	r6, [r5, #72]	@ 0x48
    22d0:	8215      	strh	r5, [r2, #16]
    22d2:	6859      	ldr	r1, [r3, #4]
    22d4:	d125      	bne.n	0x2322
    22d6:	1240      	asrs	r0, r0, #9
    22d8:	fc14 463b 	ldc2	6, cr4, [r4], {59}	@ 0x3b
    22dc:	0492      	lsls	r2, r2, #18
    22de:	66ae      	str	r6, [r5, #104]	@ 0x68
    22e0:	8214      	strh	r4, [r2, #16]
    22e2:	0948      	lsrs	r0, r1, #5
    22e4:	68ae      	ldr	r6, [r5, #8]
    22e6:	8214      	strh	r4, [r2, #16]
    22e8:	7848      	ldrb	r0, [r1, #1]
    22ea:	4604      	mov	r4, r0
    22ec:	3311      	adds	r3, #17
    22ee:	835b      	strh	r3, [r3, #26]
    22f0:	6149      	str	r1, [r1, #20]
    22f2:	d125      	bne.n	0x2340
    22f4:	1240      	asrs	r0, r0, #9
    22f6:	fc14 463b 	ldc2	6, cr4, [r4], {59}	@ 0x3b
    22fa:	6492      	str	r2, [r2, #72]	@ 0x48
    22fc:	0814      	lsrs	r4, r2, #32
    22fe:	60d1      	str	r1, [r2, #12]
    2300:	0c14      	lsrs	r4, r2, #16
    2302:	d920      	bls.n	0x2346
    2304:	9f60      	ldr	r7, [sp, #384]	@ 0x180
    2306:	10c9      	asrs	r1, r1, #3
    2308:	000a      	movs	r2, r1
    230a:	9147      	str	r1, [sp, #284]	@ 0x11c
    230c:	0f49      	lsrs	r1, r1, #29
    230e:	2412      	movs	r4, #18
    2310:	bf29      	itett	cs
    2312:	0247      	lslcs	r7, r0, #9
    2314:	64ae      	strcc	r6, [r5, #72]	@ 0x48
    2316:	8214      	strhcs	r4, [r2, #16]
    2318:	7848      	ldrbcs	r0, [r1, #1]
    231a:	4634      	mov	r4, r6
    231c:	78c3      	ldrb	r3, [r0, #3]
    231e:	60b0      	str	r0, [r6, #8]
    2320:	d234      	bcs.n	0x238c
    2322:	a0a8      	add	r0, pc, #672	@ (adr r0, 0x25c4)
    2324:	e00a      	b.n	0x233c
    2326:	468a      	mov	sl, r1
    2328:	8821      	ldrh	r1, [r4, #0]
    232a:	8d84      	ldrh	r4, [r0, #44]	@ 0x2c
    232c:	5e09      	ldrsh	r1, [r1, r0]
    232e:	0a0a      	lsrs	r2, r1, #8
    2330:	4ae0      	ldr	r2, [pc, #896]	@ (0x26b4)
    2332:	2156      	movs	r1, #86	@ 0x56
    2334:	8598      	strh	r0, [r3, #44]	@ 0x2c
    2336:	1256      	asrs	r6, r2, #9
    2338:	240d      	movs	r4, #13
    233a:	c141      	stmia	r1!, {r0, r6}
    233c:	63bf      	str	r7, [r7, #56]	@ 0x38
    233e:	4924      	ldr	r1, [pc, #144]	@ (0x23d0)
    2340:	c346      	stmia	r3!, {r1, r2, r6}
    2342:	9078      	str	r0, [sp, #480]	@ 0x1e0
    2344:	3460      	adds	r4, #96	@ 0x60
    2346:	098d      	lsrs	r5, r1, #6
    2348:	e076      	b.n	0x2438
    234a:	466a      	mov	r2, sp
    234c:	8821      	ldrh	r1, [r4, #0]
    234e:	e094      	b.n	0x247a
    2350:	468a      	mov	sl, r1
    2352:	8821      	ldrh	r1, [r4, #0]
    2354:	4784      	blxns	r0
    2356:	1460      	asrs	r0, r4, #17
    2358:	4821      	ldr	r0, [pc, #132]	@ (0x23e0)
    235a:	9835      	ldr	r0, [sp, #212]	@ 0xd4
    235c:	0a4e      	lsrs	r6, r1, #9
    235e:	e009      	b.n	0x2374
    2360:	564a      	ldrsb	r2, [r1, r1]
    2362:	9821      	ldr	r0, [sp, #132]	@ 0x84
    2364:	5685      	ldrsb	r5, [r0, r2]
    2366:	0d12      	lsrs	r2, r2, #20
    2368:	4124      	asrs	r4, r4
    236a:	bfc1      	itttt	gt
    236c:	2463      	movgt	r4, #99	@ 0x63
    236e:	4649      	movgt	r1, r9
    2370:	a8d3      	addgt	r0, sp, #844	@ 0x34c
    2372:	6210      	strgt	r0, [r2, #32]
    2374:	2114      	movs	r1, #20
    2376:	362d      	adds	r6, #45	@ 0x2d
    2378:	1498      	asrs	r0, r3, #18
    237a:	1256      	asrs	r6, r2, #9
    237c:	240d      	movs	r4, #13
    237e:	c141      	stmia	r1!, {r0, r6}
    2380:	63bf      	str	r7, [r7, #56]	@ 0x38
    2382:	4924      	ldr	r1, [pc, #144]	@ (0x2414)
    2384:	8146      	strh	r6, [r0, #10]
    2386:	0d10      	lsrs	r0, r2, #20
    2388:	c146      	stmia	r1!, {r1, r2, r6}
    238a:	9200      	str	r2, [sp, #0]
    238c:	f00d 04df 	and.w	r4, sp, #223	@ 0xdf
    2390:	cff1      	ldmia	r7, {r0, r4, r5, r6, r7}
    2392:	47f4      	blxns	lr
    2394:	0460      	lsls	r0, r4, #17
    2396:	1645      	asrs	r5, r0, #25
    2398:	7ed2      	ldrb	r2, [r2, #27]
    239a:	a003      	add	r0, pc, #12	@ (adr r0, 0x23a8)
    239c:	ed26 0023 	stc	0, cr0, [r6, #-140]!	@ 0xffffff74
    23a0:	4661      	mov	r1, ip
    23a2:	18d0      	adds	r0, r2, r3
    23a4:	a280      	add	r2, pc, #512	@ (adr r2, 0x25a8)
    23a6:	7030      	strb	r0, [r6, #0]
    23a8:	ec14 0802 	ldc	8, cr0, [r4], {2}
    23ac:	a36f      	add	r3, pc, #444	@ (adr r3, 0x256c)
    23ae:	7010      	strb	r0, [r2, #0]
    23b0:	0a54      	lsrs	r4, r2, #9
    23b2:	023f      	lsls	r7, r7, #8
    23b4:	1ce8      	adds	r0, r5, #3
    23b6:	83ef      	strh	r7, [r5, #30]
    23b8:	a249      	add	r2, pc, #292	@ (adr r2, 0x24e0)
    23ba:	7030      	strb	r0, [r6, #0]
    23bc:	ec14 0802 	ldc	8, cr0, [r4], {2}
    23c0:	a36f      	add	r3, pc, #444	@ (adr r3, 0x2580)
    23c2:	7000      	strb	r0, [r0, #0]
    23c4:	0a54      	lsrs	r4, r2, #9
    23c6:	023f      	lsls	r7, r7, #8
    23c8:	1ce8      	adds	r0, r5, #3
    23ca:	13ef      	asrs	r7, r5, #15
    23cc:	3174      	adds	r1, #116	@ 0x74
    23ce:	8410      	strh	r0, [r2, #32]
    23d0:	f0c1 00cc 			@ <UNDEFINED> instruction: 0xf0c100cc
    23d4:	cff1      	ldmia	r7, {r0, r4, r5, r6, r7}
    23d6:	7ff7      	ldrb	r7, [r6, #31]
    23d8:	0477      	lsls	r7, r6, #17
    23da:	6ae0      	ldr	r0, [r4, #44]	@ 0x2c
    23dc:	2046      	movs	r0, #70	@ 0x46
    23de:	8488      	strh	r0, [r1, #36]	@ 0x24
    23e0:	8ae0      	ldrh	r0, [r4, #22]
    23e2:	2056      	movs	r0, #86	@ 0x56
    23e4:	9498      	str	r4, [sp, #608]	@ 0x260
    23e6:	5611      	ldrsb	r1, [r2, r0]
    23e8:	14fc      	asrs	r4, r7, #19
    23ea:	c16e      	stmia	r1!, {r1, r2, r3, r5, r6}
    23ec:	000c      	movs	r4, r1
    23ee:	1a90      	subs	r0, r2, r2
    23f0:	0a10      	lsrs	r0, r2, #8
    23f2:	e007      	b.n	0x2404
    23f4:	564a      	ldrsb	r2, [r1, r1]
    23f6:	9820      	ldr	r0, [sp, #128]	@ 0x80
    23f8:	4e85      	ldr	r6, [pc, #532]	@ (0x2610)
    23fa:	1861      	adds	r1, r4, r1
    23fc:	2960      	cmp	r1, #96	@ 0x60
    23fe:	36f0      	adds	r6, #240	@ 0xf0
    2400:	0386      	lsls	r6, r0, #14
    2402:	0496      	lsls	r6, r2, #18
    2404:	656f      	str	r7, [r5, #84]	@ 0x54
    2406:	5804      	ldr	r4, [r0, r0]
    2408:	2912      	cmp	r1, #18
    240a:	e005      	b.n	0x2418
    240c:	52ca      	strh	r2, [r1, r3]
    240e:	37e8      	adds	r7, #232	@ 0xe8
    2410:	7e1f      	ldrb	r7, [r3, #24]
    2412:	2a75      	cmp	r2, #117	@ 0x75
    2414:	3b70      	subs	r3, #112	@ 0x70
    2416:	14e0      	asrs	r0, r4, #19
    2418:	0586      	lsls	r6, r0, #22
    241a:	0696      	lsls	r6, r2, #26
    241c:	636f      	str	r7, [r5, #52]	@ 0x34
    241e:	6078      	str	r0, [r7, #4]
    2420:	f089 4656 	eor.w	r6, r9, #3590324224	@ 0xd6000000
    2424:	2580      	movs	r5, #128	@ 0x80
    2426:	5291      	strh	r1, [r2, r2]
    2428:	aed0      	add	r6, sp, #832	@ 0x340
    242a:	2014      	movs	r0, #20
    242c:	7e85      	ldrb	r5, [r0, #26]
    242e:	e1f3      	b.n	0x2818
    2430:	a757      	add	r7, pc, #348	@ (adr r7, 0x2590)
    2432:	b702      			@ <UNDEFINED> instruction: 0xb702
    2434:	4e03      	ldr	r6, [pc, #12]	@ (0x2444)
    2436:	9861      	ldr	r0, [sp, #388]	@ 0x184
    2438:	a960      	add	r1, sp, #384	@ 0x180
    243a:	36f0      	adds	r6, #240	@ 0xf0
    243c:	0b86      	lsrs	r6, r0, #14
    243e:	0c96      	lsrs	r6, r2, #18
    2440:	656f      	str	r7, [r5, #84]	@ 0x54
    2442:	5804      	ldr	r4, [r0, r0]
    2444:	2912      	cmp	r1, #18
    2446:	ed05 01ca 	stfs	f0, [r5, #-808]	@ 0xfffffcd8
    244a:	e852 1f37 	ldrex	r1, [r2, #220]	@ 0xdc
    244e:	757e      	strb	r6, [r7, #21]
    2450:	702a      	strb	r2, [r5, #0]
    2452:	103b      	asrs	r3, r7, #32
    2454:	c5c0      	stmia	r5!, {r6, r7}
    2456:	018d      	lsls	r5, r1, #6
    2458:	d223      	bcs.n	0x24a2
    245a:	122e      	asrs	r6, r5, #8
    245c:	a0d0      	add	r0, pc, #832	@ (adr r0, 0x27a0)
    245e:	1010      	asrs	r0, r2, #32
    2460:	f2f0 3498 			@ <UNDEFINED> instruction: 0xf2f03498
    2464:	000a      	movs	r2, r1
    2466:	2811      	cmp	r0, #17
    2468:	798f      	ldrb	r7, [r1, #6]
    246a:	cc02      	ldmia	r4!, {r1}
    246c:	8310      	strh	r0, [r2, #24]
    246e:	8ec2      	ldrh	r2, [r0, #54]	@ 0x36
    2470:	a199      	add	r1, pc, #612	@ (adr r1, 0x26d8)
    2472:	0080      	lsls	r0, r0, #2
    2474:	64ae      	str	r6, [r5, #72]	@ 0x48
    2476:	8205      	strh	r5, [r0, #16]
    2478:	a859      	add	r0, sp, #356	@ 0x164
    247a:	1000      	asrs	r0, r0, #32
    247c:	f130 f77e 	bl	0x53337c
    2480:	009c      	lsls	r4, r3, #2
    2482:	dff1      	svc	241	@ 0xf1
    2484:	00af      	lsls	r7, r5, #2
    2486:	0470      	lsls	r0, r6, #17
    2488:	3c98      	subs	r4, #152	@ 0x98
    248a:	4ae0      	ldr	r2, [pc, #896]	@ (0x280c)
    248c:	2046      	movs	r0, #70	@ 0x46
    248e:	8488      	strh	r0, [r1, #36]	@ 0x24
    2490:	020c      	lsls	r4, r1, #8
    2492:	20d8      	movs	r0, #216	@ 0xd8
    2494:	4aed      	ldr	r2, [pc, #948]	@ (0x284c)
    2496:	4602      	mov	r2, r0
    2498:	8820      	ldrh	r0, [r4, #0]
    249a:	8184      	strh	r4, [r0, #12]
    249c:	ed02 024a 	sfm	f0, 4, [r2, #-296]	@ 0xfffffed8
    24a0:	2056      	movs	r0, #86	@ 0x56
    24a2:	8598      	strh	r0, [r3, #44]	@ 0x2c
    24a4:	8046      	strh	r6, [r0, #2]
    24a6:	0d10      	lsrs	r0, r2, #20
    24a8:	c046      	stmia	r0!, {r1, r2, r6}
    24aa:	8200      	strh	r0, [r0, #16]
    24ac:	2b9d      	cmp	r3, #157	@ 0x9d
    24ae:	37cd      	adds	r7, #205	@ 0xcd
    24b0:	0904      	lsrs	r4, r0, #4
    24b2:	7ed2      	ldrb	r2, [r2, #27]
    24b4:	0053      	lsls	r3, r2, #1
    24b6:	a412      	add	r4, pc, #72	@ (adr r4, 0x2500)
    24b8:	0002      	movs	r2, r0
    24ba:	d00c      	beq.n	0x24d6
    24bc:	02b6      	lsls	r6, r6, #10
    24be:	d00c      	beq.n	0x24da
    24c0:	12d6      	asrs	r6, r2, #11
    24c2:	3284      	adds	r2, #132	@ 0x84
    24c4:	4980      	ldr	r1, [pc, #512]	@ (0x26c8)
    24c6:	a411      	add	r4, pc, #68	@ (adr r4, 0x250c)
    24c8:	0032      	movs	r2, r6
    24ca:	d04c      	beq.n	0x2566
    24cc:	12b6      	asrs	r6, r6, #10
    24ce:	1284      	asrs	r4, r0, #10
    24d0:	1df0      	adds	r0, r6, #7
    24d2:	cf10      	ldmia	r7!, {r4}
    24d4:	d2ef      	bcs.n	0x24b6
    24d6:	13af      	asrs	r7, r5, #14
    24d8:	0840      	lsrs	r0, r0, #1
    24da:	46c2      	mov	sl, r8
    24dc:	f02b 0a06 	bic.w	sl, fp, #6
    24e0:	5a01      	ldrh	r1, [r0, r0]
    24e2:	0204      	lsls	r4, r0, #8
    24e4:	2ce8      	cmp	r4, #232	@ 0xe8
    24e6:	0121      	lsls	r1, r4, #4
    24e8:	0a23      	lsrs	r3, r4, #8
    24ea:	4708      	bx	r1
    24ec:	2ec6      	cmp	r6, #198	@ 0xc6
    24ee:	f063 c286 	blx	0xc659fc
    24f2:	2b46      	cmp	r3, #70	@ 0x46
    24f4:	a6f0      	add	r6, pc, #960	@ (adr r6, 0x28b8)
    24f6:	f26e 6ec6 			@ <UNDEFINED> instruction: 0xf26e6ec6
    24fa:	e6f4      	b.n	0x22e6
    24fc:	b204      	sxth	r4, r0
    24fe:	8022      	strh	r2, [r4, #0]
    2500:	f6ce c23e 	blx	0xff2d0980
    2504:	2b46      	cmp	r3, #70	@ 0x46
    2506:	bcc0      	pop	{r6, r7}
    2508:	22ff      	movs	r2, #255	@ 0xff
    250a:	1522      	asrs	r2, r4, #20
    250c:	46c2      	mov	sl, r8
    250e:	202b      	movs	r0, #43	@ 0x2b
    2510:	0445      	lsls	r5, r0, #17
    2512:	4900      	ldr	r1, [pc, #0]	@ (0x2514)
    2514:	3699      	adds	r6, #153	@ 0x99
    2516:	a411      	add	r4, pc, #68	@ (adr r4, 0x255c)
    2518:	9003      	str	r0, [sp, #12]
    251a:	12b9      	asrs	r1, r7, #10
    251c:	afd2      	add	r7, sp, #840	@ 0x348
    251e:	1023      	asrs	r3, r4, #32
    2520:	c212      	stmia	r2!, {r1, r4}
    2522:	2b66      	cmp	r3, #102	@ 0x66
    2524:	3cc0      	subs	r4, #192	@ 0xc0
    2526:	8000      	strh	r0, [r0, #0]
    2528:	233d      	movs	r3, #61	@ 0x3d
    252a:	b46c      	push	{r2, r3, r5, r6}
    252c:	6f02      	ldr	r2, [r0, #112]	@ 0x70
    252e:	3040      	adds	r0, #64	@ 0x40
    2530:	5a2b      	ldrh	r3, [r5, r0]
    2532:	0203      	lsls	r3, r0, #8
    2534:	2ce8      	cmp	r4, #232	@ 0xe8
    2536:	b121      	cbz	r1, 0x2542
    2538:	c222      	stmia	r2!, {r1, r5}
    253a:	2b66      	cmp	r3, #102	@ 0x66
    253c:	4420      	add	r0, r4
    253e:	0003      	movs	r3, r0
    2540:	9849      	ldr	r0, [sp, #292]	@ 0x124
    2542:	c269      	stmia	r2!, {r0, r3, r5, r6}
    2544:	2b66      	cmp	r3, #102	@ 0x66
    2546:	2cc0      	cmp	r4, #192	@ 0xc0
    2548:	8000      	strh	r0, [r0, #0]
    254a:	22ed      	movs	r2, #237	@ 0xed
    254c:	b46c      	push	{r2, r3, r5, r6}
    254e:	6f02      	ldr	r2, [r0, #112]	@ 0x70
    2550:	3040      	adds	r0, #64	@ 0x40
    2552:	5a2b      	ldrh	r3, [r5, r0]
    2554:	0202      	lsls	r2, r0, #8
    2556:	2ce8      	cmp	r4, #232	@ 0xe8
    2558:	8f21      	ldrh	r1, [r4, #56]	@ 0x38
    255a:	c022      	stmia	r0!, {r1, r5}
    255c:	d200      	bcs.n	0x2560
    255e:	2b66      	cmp	r3, #102	@ 0x66
    2560:	a980      	add	r1, sp, #512	@ 0x200
    2562:	6c22      	ldr	r2, [r4, #64]	@ 0x40
    2564:	02b4      	lsls	r4, r6, #10
    2566:	406f      	eors	r7, r5
    2568:	2b30      	cmp	r3, #48	@ 0x30
    256a:	015a      	lsls	r2, r3, #5
    256c:	e802 212c 			@ <UNDEFINED> instruction: 0xe802212c
    2570:	2278      	movs	r2, #120	@ 0x78
    2572:	00c0      	lsls	r0, r0, #3
    2574:	66d2      	str	r2, [r2, #108]	@ 0x6c
    2576:	a02b      	add	r0, pc, #172	@ (adr r0, 0x2624)
    2578:	7080      	strb	r0, [r0, #2]
    257a:	ec64 8e32 	stcl	14, cr8, [r4], #-200	@ 0xffffff38
    257e:	486f      	ldr	r0, [pc, #444]	@ (0x273c)
    2580:	2b30      	cmp	r3, #48	@ 0x30
    2582:	2a47      	cmp	r2, #71	@ 0x47
    2584:	ce80      	ldmia	r6!, {r7}
    2586:	7842      	ldrb	r2, [r0, #1]
    2588:	c2d4      	stmia	r2!, {r2, r4, r6, r7}
    258a:	2b46      	cmp	r3, #70	@ 0x46
    258c:	b6f0      			@ <UNDEFINED> instruction: 0xb6f0
    258e:	e802 ce2c 			@ <UNDEFINED> instruction: 0xe802ce2c
    2592:	f0e1 04e6 			@ <UNDEFINED> instruction: 0xf0e104e6
    2596:	22b2      	movs	r2, #178	@ 0xb2
    2598:	ce80      	ldmia	r6!, {r7}
    259a:	3ef6      	subs	r6, #246	@ 0xf6
    259c:	66c2      	str	r2, [r0, #108]	@ 0x6c
    259e:	c02b      	stmia	r0!, {r0, r1, r3, r5}
    25a0:	000c      	movs	r4, r1
    25a2:	3220      	adds	r2, #32
    25a4:	c213      	stmia	r2!, {r0, r1, r4}
    25a6:	2b46      	cmp	r3, #70	@ 0x46
    25a8:	4520      	cmp	r0, r4
    25aa:	0003      	movs	r3, r0
    25ac:	ee49 a413 	mcr	4, 2, sl, cr9, cr3, {0}
    25b0:	f003 011c 	and.w	r1, r3, #28
    25b4:	cff1      	ldmia	r7, {r0, r4, r5, r6, r7}
    25b6:	47f2      			@ <UNDEFINED> instruction: 0x47f2
    25b8:	14f0      	asrs	r0, r6, #19
    25ba:	060a      	lsls	r2, r1, #24
    25bc:	e347      	b.n	0x2c4e
    25be:	6f16      	ldr	r6, [r2, #112]	@ 0x70
    25c0:	6465      	str	r5, [r4, #68]	@ 0x44
    25c2:	0181      	lsls	r1, r0, #6
    25c4:	e20d      	b.n	0x29e2
    25c6:	f116 4676 	adds.w	r6, r6, #4127195136	@ 0xf6000000
    25ca:	8020      	strh	r0, [r4, #0]
    25cc:	f3ce cf3e 	blx	0xbd144c
    25d0:	100e      	asrs	r6, r1, #32
    25d2:	f9df 4f57 	ldr??.w	r4, [pc, #3927]	@ 0x352b
    25d6:	0471      	lsls	r1, r6, #17
    25d8:	2412      	movs	r4, #18
    25da:	bf29      	itett	cs
    25dc:	6347      	strcs	r7, [r0, #52]	@ 0x34
    25de:	4e04      	ldrcc	r6, [pc, #16]	@ (0x25f0)
    25e0:	d011      	beq.n	0x2606	@ unpredictable <IT:cs>
    25e2:	4740      	bxcs	r8
    25e4:	4464      	add	r4, ip
    25e6:	008c      	lsls	r4, r1, #2
    25e8:	462b      	mov	r3, r5
    25ea:	0a24      	lsrs	r4, r4, #8
    25ec:	c101      	stmia	r1!, {r0}
    25ee:	580f      	ldr	r7, [r1, r0]
    25f0:	d052      	beq.n	0x2698
    25f2:	a3de      	add	r3, pc, #888	@ (adr r3, 0x296c)
    25f4:	8524      	strh	r4, [r4, #40]	@ 0x28
    25f6:	c20e      	stmia	r2!, {r1, r2, r3}
    25f8:	2aa7      	cmp	r2, #167	@ 0xa7
    25fa:	2630      	movs	r6, #48	@ 0x30
    25fc:	9763      	str	r7, [sp, #396]	@ 0x18c
    25fe:	3565      	adds	r5, #101	@ 0x65
    2600:	40d1      	lsrs	r1, r2
    2602:	1412      	asrs	r2, r2, #16
    2604:	3bfc      	subs	r3, #252	@ 0xfc
    2606:	9246      	str	r2, [sp, #280]	@ 0x118
    2608:	57e4      	ldrsb	r4, [r4, r7]
    260a:	07df      	lsls	r7, r3, #31
    260c:	dff1      	svc	241	@ 0xf1
    260e:	047c      	lsls	r4, r7, #17
    2610:	724f      	strb	r7, [r1, #9]
    2612:	9815      	ldr	r0, [sp, #84]	@ 0x54
    2614:	4618      	mov	r0, r3
    2616:	0a21      	lsrs	r1, r4, #8
    2618:	0d01      	lsrs	r1, r0, #20
    261a:	e046      	b.n	0x26aa
    261c:	5624      	ldrsb	r4, [r4, r0]
    261e:	9821      	ldr	r0, [sp, #132]	@ 0x84
    2620:	4685      	mov	sp, r0
    2622:	00c1      	lsls	r1, r0, #3
    2624:	2220      	movs	r2, #32
    2626:	dfdc      	svc	220	@ 0xdc
    2628:	f104 7bdf 	add.w	fp, r4, #29229056	@ 0x1be0000
    262c:	4f04      	ldr	r7, [pc, #16]	@ (0x2640)
    262e:	1572      	asrs	r2, r6, #21
    2630:	000a      	movs	r2, r1
    2632:	8447      	strh	r7, [r0, #34]	@ 0x22
    2634:	6289      	str	r1, [r1, #40]	@ 0x28
    2636:	a214      	add	r2, pc, #80	@ (adr r2, 0x2688)
    2638:	d010      	beq.n	0x265c
    263a:	24e0      	movs	r4, #224	@ 0xe0
    263c:	2146      	movs	r1, #70	@ 0x46
    263e:	8488      	strh	r0, [r1, #36]	@ 0x24
    2640:	3056      	adds	r0, #86	@ 0x56
    2642:	0942      	lsrs	r2, r0, #5
    2644:	10a5      	asrs	r5, r4, #2
    2646:	4470      	add	r0, lr
    2648:	66ee      	str	r6, [r5, #108]	@ 0x6c
    264a:	0c14      	lsrs	r4, r2, #16
    264c:	2200      	movs	r2, #0
    264e:	6cc2      	ldr	r2, [r0, #76]	@ 0x4c
    2650:	df44      	svc	68	@ 0x44
    2652:	f105 fddf 	bl	0x108214
    2656:	4714      	bxns	r2
    2658:	0980      	lsrs	r0, r0, #6
    265a:	0462      	lsls	r2, r4, #17
    265c:	10a2      	asrs	r2, r4, #2
    265e:	e0d0      	b.n	0x2802
    2660:	4664      	mov	r4, ip
    2662:	8820      	ldrh	r0, [r4, #0]
    2664:	4e84      	ldr	r6, [pc, #528]	@ (0x2878)
    2666:	0561      	lsls	r1, r4, #21
    2668:	5982      	ldr	r2, [r0, r6]
    266a:	0468      	lsls	r0, r5, #17
    266c:	000c      	movs	r4, r1
    266e:	4222      	tst	r2, r4
    2670:	3dfd      	subs	r5, #253	@ 0xfd
    2672:	df10      	svc	16
    2674:	06fe      	lsls	r6, r7, #27
    2676:	006e      	lsls	r6, r5, #1
    2678:	0000      	movs	r0, r0
    267a:	0000      	movs	r0, r0
    267c:	0000      	movs	r0, r0
    267e:	2000      	movs	r0, #0
    2680:	ff45 b8ff 	vceq.i8	<illegal reg q13.5>, <illegal reg q10.5>, <illegal reg q15.5>
    2684:	00e5      	lsls	r5, r4, #3
    2686:	02df      	lsls	r7, r3, #11
    2688:	cff1      	ldmia	r7, {r0, r4, r5, r6, r7}
    268a:	f2ea 2127 			@ <UNDEFINED> instruction: 0xf2ea2127
    268e:	145f      	asrs	r7, r3, #17
    2690:	e04f      	b.n	0x2732
    2692:	a404      	add	r4, pc, #16	@ (adr r4, 0x26a4)
    2694:	4e78      	ldr	r6, [pc, #480]	@ (0x2878)
    2696:	1860      	adds	r0, r4, r1
    2698:	e580      	b.n	0x219c
    269a:	6f04      	ldr	r4, [r0, #112]	@ 0x70
    269c:	2868      	cmp	r0, #104	@ 0x68
    269e:	2580      	movs	r5, #128	@ 0x80
    26a0:	5ec4      	ldrsh	r4, [r0, r3]
    26a2:	3c60      	subs	r4, #96	@ 0x60
    26a4:	2580      	movs	r5, #128	@ 0x80
    26a6:	5fd4      	ldrsh	r4, [r2, r7]
    26a8:	05ea      	lsls	r2, r5, #23
    26aa:	04c6      	lsls	r6, r0, #19
    26ac:	6f58      	ldr	r0, [r3, #116]	@ 0x74
    26ae:	05e2      	lsls	r2, r4, #23
    26b0:	05c6      	lsls	r6, r0, #23
    26b2:	5e58      	ldrsh	r0, [r3, r1]
    26b4:	46fa      	mov	sl, pc
    26b6:	a86e      	add	r0, sp, #440	@ 0x1b8
    26b8:	268b      	movs	r6, #139	@ 0x8b
    26ba:	2282      	movs	r2, #130	@ 0x82
    26bc:	1529      	asrs	r1, r5, #20
    26be:	acc2      	add	r4, sp, #776	@ 0x308
    26c0:	2481      	movs	r4, #129	@ 0x81
    26c2:	c215      	stmia	r2!, {r0, r2, r4}
    26c4:	822e      	strh	r6, [r5, #16]
    26c6:	2922      	cmp	r1, #34	@ 0x22
    26c8:	6e15      	ldr	r5, [r2, #96]	@ 0x60
    26ca:	81a2      	strh	r2, [r4, #12]
    26cc:	1524      	asrs	r4, r4, #20
    26ce:	246e      	movs	r4, #110	@ 0x6e
    26d0:	2282      	movs	r2, #130	@ 0x82
    26d2:	2529      	movs	r5, #41	@ 0x29
    26d4:	3d7c      	subs	r5, #124	@ 0x7c
    26d6:	9252      	str	r2, [sp, #328]	@ 0x148
    26d8:	04e4      	lsls	r4, r4, #19
    26da:	5884      	ldr	r4, [r0, r2]
    26dc:	604e      	str	r6, [r1, #4]
    26de:	801a      	strh	r2, [r3, #0]
    26e0:	e427      	b.n	0x1f32
    26e2:	605e      	str	r6, [r3, #4]
    26e4:	802e      	strh	r6, [r5, #0]
    26e6:	f427 ec5f 	bfcsel	10, 0x1fa8, 14, ls
    26ea:	e605      	b.n	0x22f8
    26ec:	7803      	ldrb	r3, [r0, #0]
    26ee:	e47f      	b.n	0x1ff0
    26f0:	e605      	b.n	0x22fe
    26f2:	7804      	ldrb	r4, [r0, #0]
    26f4:	e27f      	b.n	0x2bf6
    26f6:	e605      	b.n	0x2304
    26f8:	7805      	ldrb	r5, [r0, #0]
    26fa:	fc5e 1a67 	mrrc2	10, 6, r1, lr, cr7
    26fe:	8248      	strh	r0, [r1, #18]
    2700:	a221      	add	r2, pc, #132	@ (adr r2, 0x2788)
    2702:	2b22      	cmp	r3, #34	@ 0x22
    2704:	22cc      	movs	r2, #204	@ 0xcc
    2706:	9228      	str	r2, [sp, #160]	@ 0xa0
    2708:	2152      	movs	r1, #82	@ 0x52
    270a:	1aec      	subs	r4, r5, r3
    270c:	2248      	movs	r2, #72	@ 0x48
    270e:	9228      	str	r2, [sp, #160]	@ 0xa0
    2710:	e252      	b.n	0x2bb8
    2712:	5247      	strh	r7, [r0, r1]
    2714:	26e1      	movs	r6, #225	@ 0xe1
    2716:	481a      	ldr	r0, [pc, #104]	@ (0x2780)
    2718:	e252      	b.n	0x2bc0
    271a:	5267      	strh	r7, [r4, r1]
    271c:	f7c2 2523 			@ <UNDEFINED> instruction: 0xf7c22523
    2720:	4e49      	ldr	r6, [pc, #292]	@ (0x2848)
    2722:	8840      	ldrh	r0, [r0, #2]
    2724:	04e5      	lsls	r5, r4, #19
    2726:	01a6      	lsls	r6, r4, #6
    2728:	4e78      	ldr	r6, [pc, #480]	@ (0x290c)
    272a:	e7f0      	b.n	0x270e
    272c:	02a6      	lsls	r6, r4, #10
    272e:	4278      	negs	r0, r7
    2730:	05ee      	lsls	r6, r5, #23
    2732:	03e6      	lsls	r6, r4, #15
    2734:	4278      	negs	r0, r7
    2736:	5f2f      	ldrsh	r7, [r5, r4]
    2738:	5e10      	ldrsh	r0, [r2, r0]
    273a:	4e60      	ldr	r6, [pc, #384]	@ (0x28bc)
    273c:	f780 5e27 			@ <UNDEFINED> instruction: 0xf7805e27
    2740:	5e60      	ldrsh	r0, [r4, r1]
    2742:	2780      	movs	r7, #128	@ 0x80
    2744:	105e      	asrs	r6, r3, #1
    2746:	e07f      	b.n	0x2848
    2748:	1ae7      	subs	r7, r4, r3
    274a:	5248      	strh	r0, [r1, r1]
    274c:	cc21      	ldmia	r4!, {r0, r5}
    274e:	481a      	ldr	r0, [pc, #104]	@ (0x27b8)
    2750:	2822      	cmp	r0, #34	@ 0x22
    2752:	5292      	strh	r2, [r2, r2]
    2754:	ec21 2822 	stc	8, cr2, [r1], #-136	@ 0xffffff78
    2758:	5292      	strh	r2, [r2, r2]
    275a:	26e1      	movs	r6, #225	@ 0xe1
    275c:	481a      	ldr	r0, [pc, #104]	@ (0x27c8)
    275e:	2822      	cmp	r0, #34	@ 0x22
    2760:	5292      	strh	r2, [r2, r2]
    2762:	07e2      	lsls	r2, r4, #31
    2764:	c252      	stmia	r2!, {r1, r4, r6}
    2766:	2417      	movs	r4, #23
    2768:	4925      	ldr	r1, [pc, #148]	@ (0x2800)
    276a:	27e2      	movs	r7, #226	@ 0xe2
    276c:	5e21      	ldrsh	r1, [r4, r0]
    276e:	cf14      	ldmia	r7!, {r2, r4}
    2770:	1016      	asrs	r6, r2, #32
    2772:	f9df 4757 	ldr??.w	r4, [pc, #1879]	@ 0x2ecb
    2776:	1570      	asrs	r0, r6, #21
    2778:	ced2      	ldmia	r6, {r1, r4, r6, r7}
    277a:	6003      	str	r3, [r0, #0]
    277c:	d6c2      	bvs.n	0x2704
    277e:	dd03      	ble.n	0x2788
    2780:	7200      	strb	r0, [r0, #8]
    2782:	2010      	movs	r0, #16
    2784:	1345      	asrs	r5, r0, #13
    2786:	6d00      	ldr	r0, [r0, #80]	@ 0x50
    2788:	6f3d      	ldr	r5, [r7, #112]	@ 0x70
    278a:	c413      	stmia	r4!, {r0, r1, r4}
    278c:	8013      	strh	r3, [r2, #0]
    278e:	2519      	movs	r5, #25
    2790:	3ced      	subs	r4, #237	@ 0xed
    2792:	2601      	movs	r6, #1
    2794:	3f6c      	subs	r7, #108	@ 0x6c
    2796:	17d0      	asrs	r0, r2, #31
    2798:	0720      	lsls	r0, r4, #28
    279a:	5201      	strh	r1, [r0, r0]
    279c:	01f4      	lsls	r4, r6, #7
    279e:	f6d0 36f3 			@ <UNDEFINED> instruction: 0xf6d036f3
    27a2:	3c41      	subs	r4, #65	@ 0x41
    27a4:	9802      	ldr	r0, [sp, #8]
    27a6:	6c22      	ldr	r2, [r4, #64]	@ 0x40
    27a8:	d041      	beq.n	0x282e
    27aa:	2011      	movs	r0, #17
    27ac:	0107      	lsls	r7, r0, #4
    27ae:	d452      	bmi.n	0x2856
    27b0:	d001      	beq.n	0x27b6
    27b2:	f416 4136 	ands.w	r1, r6, #46592	@ 0xb600
    27b6:	003c      	movs	r4, r7
    27b8:	6146      	str	r6, [r0, #20]
    27ba:	a205      	add	r2, pc, #20	@ (adr r2, 0x27d0)
    27bc:	1084      	asrs	r4, r0, #2
    27be:	6247      	str	r7, [r0, #36]	@ 0x24
    27c0:	8c24      	ldrh	r4, [r4, #32]
    27c2:	2000      	movs	r0, #0
    27c4:	8246      	strh	r6, [r0, #18]
    27c6:	c425      	stmia	r4!, {r0, r2, r5}
    27c8:	236e      	movs	r3, #110	@ 0x6e
    27ca:	2034      	movs	r0, #52	@ 0x34
    27cc:	0407      	lsls	r7, r0, #16
    27ce:	6282      	str	r2, [r0, #40]	@ 0x28
    27d0:	3305      	adds	r3, #5
    27d2:	1fe4      	subs	r4, r4, #7
    27d4:	e046      	b.n	0x2864
    27d6:	df57      	svc	87	@ 0x57
    27d8:	f107 f6cf 	bl	0x50a57a
    27dc:	f87f 4f06 	ldr??.w	r4, [pc, #-3846]	@ 0x18da
    27e0:	ed22 003c 	stc	0, cr0, [r2, #-240]!	@ 0xffffff10
    27e4:	6c26      	ldr	r6, [r4, #64]	@ 0x40
    27e6:	d03d      	beq.n	0x2864
    27e8:	200d      	movs	r0, #13
    27ea:	0107      	lsls	r7, r0, #4
    27ec:	3452      	adds	r4, #82	@ 0x52
    27ee:	d001      	beq.n	0x27f4
    27f0:	f3d6 4146 			@ <UNDEFINED> instruction: 0xf3d64146
    27f4:	013c      	lsls	r4, r7, #4
    27f6:	5198      	str	r0, [r3, r6]
    27f8:	ced2      	ldmia	r6, {r1, r4, r6, r7}
    27fa:	6013      	str	r3, [r2, #0]
    27fc:	f6c2 7d03 	movt	sp, #12035	@ 0x2f03
    2800:	7201      	strb	r1, [r0, #8]
    2802:	2010      	movs	r0, #16
    2804:	1f45      	subs	r5, r0, #5
    2806:	6d00      	ldr	r0, [r0, #80]	@ 0x50
    2808:	6f3f      	ldr	r7, [r7, #112]	@ 0x70
    280a:	c414      	stmia	r4!, {r2, r4}
    280c:	8023      	strh	r3, [r4, #0]
    280e:	c229      	stmia	r2!, {r0, r3, r5}
    2810:	0416      	lsls	r6, r2, #16
    2812:	011d      	lsls	r5, r3, #4
    2814:	1072      	asrs	r2, r6, #1
    2816:	4520      	cmp	r0, r4
    2818:	001d      	movs	r5, r3
    281a:	416d      	adcs	r5, r5
    281c:	146f      	asrs	r7, r5, #17
    281e:	03c4      	lsls	r4, r0, #15
    2820:	26e0      	movs	r6, #224	@ 0xe0
    2822:	207e      	movs	r0, #126	@ 0x7e
    2824:	5224      	strh	r4, [r4, r0]
    2826:	0014      	movs	r4, r2
    2828:	66f0      	str	r0, [r6, #108]	@ 0x6c
    282a:	c66e      	stmia	r6!, {r1, r2, r3, r5, r6}
    282c:	000c      	movs	r4, r1
    282e:	ba80      	hlt	0x0000
    2830:	46e1      	mov	r9, ip
    2832:	e342      	b.n	0x2eba
    2834:	2064      	movs	r0, #100	@ 0x64
    2836:	0407      	lsls	r7, r0, #16
    2838:	e282      	b.n	0x2d40
    283a:	5207      	strh	r7, [r0, r0]
    283c:	1fe2      	subs	r2, r4, #7
    283e:	e06e      	b.n	0x291e
    2840:	cf87      	ldmia	r7, {r0, r1, r2, r7}
    2842:	100a      	asrs	r2, r1, #32
    2844:	09d3      	lsrs	r3, r2, #7
    2846:	03df      	lsls	r7, r3, #15
    2848:	9d30      	ldr	r5, [sp, #192]	@ 0xc0
    284a:	3e56      	subs	r6, #86	@ 0x56
    284c:	8300      	strh	r0, [r0, #24]
    284e:	61a4      	str	r4, [r4, #24]
    2850:	1000      	asrs	r0, r0, #32
    2852:	18fc      	adds	r4, r7, r3
    2854:	d108      	bne.n	0x2868
    2856:	0830      	lsrs	r0, r6, #32
    2858:	d31a      	bcc.n	0x2890
    285a:	e569      	b.n	0x2330
    285c:	c013      	stmia	r0!, {r0, r1, r4}
    285e:	fa0e 0010 			@ <UNDEFINED> instruction: 0xfa0e0010
    2862:	11e1      	asrs	r1, r4, #7
    2864:	303a      	adds	r0, #58	@ 0x3a
    2866:	569d      	ldrsb	r5, [r3, r2]
    2868:	003e      	movs	r6, r7
    286a:	1a06      	subs	r6, r0, r0
    286c:	6081      	str	r1, [r0, #8]
    286e:	830d      	strh	r5, [r1, #24]
    2870:	31ac      	adds	r1, #172	@ 0xac
    2872:	569d      	ldrsb	r5, [r3, r2]
    2874:	013e      	lsls	r6, r7, #4
    2876:	d310      	bcc.n	0x289a
    2878:	e569      	b.n	0x234e
    287a:	3003      	adds	r0, #3
    287c:	1b88      	subs	r0, r1, r6
    287e:	69d3      	ldr	r3, [r2, #28]
    2880:	13e5      	asrs	r5, r4, #15
    2882:	ec00 c011 	stc	0, cr12, [r0], {17}
    2886:	d3de      	bcc.n	0x2846
    2888:	e569      	b.n	0x235e
    288a:	6003      	str	r3, [r0, #0]
    288c:	1000      	asrs	r0, r0, #32
    288e:	d8fc      	bhi.n	0x288a
    2890:	6200      	str	r0, [r0, #32]
    2892:	3000      	adds	r0, #0
    2894:	1a98      	subs	r0, r3, r2
    2896:	0000      	movs	r0, r0
    2898:	a883      	add	r0, sp, #524	@ 0x20c
    289a:	9d31      	ldr	r5, [sp, #196]	@ 0xc4
    289c:	3e56      	subs	r6, #86	@ 0x56
    289e:	1001      	asrs	r1, r0, #32
    28a0:	69d3      	ldr	r3, [r2, #28]
    28a2:	03e5      	lsls	r5, r4, #15
    28a4:	1830      	adds	r0, r6, r0
    28a6:	001a      	movs	r2, r3
    28a8:	8300      	strh	r0, [r0, #24]
    28aa:	31b0      	adds	r1, #176	@ 0xb0
    28ac:	569d      	ldrsb	r5, [r3, r2]
    28ae:	013e      	lsls	r6, r7, #4
    28b0:	d310      	bcc.n	0x28d4
    28b2:	e569      	b.n	0x2388
    28b4:	3003      	adds	r0, #3
    28b6:	1a08      	subs	r0, r1, r0
    28b8:	0620      	lsls	r0, r4, #24
    28ba:	0604      	lsls	r4, r0, #24
    28bc:	c100      	stmia	r1!, {}
    28be:	818f      	strh	r7, [r1, #12]
    28c0:	0d10      	lsrs	r0, r2, #20
    28c2:	69d3      	ldr	r3, [r2, #28]
    28c4:	13e5      	asrs	r5, r4, #15
    28c6:	f100 09d3 	add.w	r9, r0, #211	@ 0xd3
    28ca:	83e5      	strh	r5, [r4, #30]
    28cc:	c208      	stmia	r2!, {r3}
    28ce:	3cc4      	subs	r4, #196	@ 0xc4
    28d0:	509d      	str	r5, [r3, r2]
    28d2:	003e      	movs	r6, r7
    28d4:	0d11      	lsrs	r1, r2, #20
    28d6:	9d30      	ldr	r5, [sp, #192]	@ 0xc0
    28d8:	3e50      	subs	r6, #80	@ 0x50
    28da:	2066      	movs	r0, #102	@ 0x66
    28dc:	0b05      	lsrs	r5, r0, #12
    28de:	09d3      	lsrs	r3, r2, #7
    28e0:	03e5      	lsls	r5, r4, #15
    28e2:	f100 2fdf 	add.w	pc, r0, #3741376256	@ 0xdf00df00
    28e6:	9241      	str	r2, [sp, #260]	@ 0x104
    28e8:	7bf2      	ldrb	r2, [r6, #15]
    28ea:	d304      	bcc.n	0x28f6
    28ec:	e509      	b.n	0x2302
    28ee:	0aa3      	lsrs	r3, r4, #10
    28f0:	54d2      	strb	r2, [r2, r3]
    28f2:	9d35      	ldr	r5, [sp, #212]	@ 0xd4
    28f4:	3e50      	subs	r6, #80	@ 0x50
    28f6:	5600      	ldrsb	r0, [r0, r0]
    28f8:	0d10      	lsrs	r0, r2, #20
    28fa:	4124      	asrs	r4, r4
    28fc:	bfc1      	itttt	gt
    28fe:	2463      	movgt	r4, #99	@ 0x63
    2900:	df49      	svcgt	73	@ 0x49
    2902:	f101 2fdf 	addgt.w	pc, r1, #3741376256	@ 0xdf00df00
    2906:	1180      	asrgt	r0, r0, #6
    2908:	13ef      	asrs	r7, r5, #15
    290a:	0434      	lsls	r4, r6, #16
    290c:	9d30      	ldr	r5, [sp, #192]	@ 0xc0
    290e:	320d      	adds	r2, #13
    2910:	d301      	bcc.n	0x2916
    2912:	2379      	movs	r3, #121	@ 0x79
    2914:	3003      	adds	r0, #3
    2916:	019d      	lsls	r5, r3, #6
    2918:	0133      	lsls	r3, r6, #4
    291a:	69d3      	ldr	r3, [r2, #28]
    291c:	f311 9d31 	b.w	0xb14382
    2920:	3380      	adds	r3, #128	@ 0x80
    2922:	d330      	bcc.n	0x2986
    2924:	2379      	movs	r3, #121	@ 0x79
    2926:	1403      	asrs	r3, r0, #16
    2928:	2bc5      	cmp	r3, #197	@ 0xc5
    292a:	5100      	str	r0, [r0, r4]
    292c:	02b9      	lsls	r1, r7, #10
    292e:	ec30 3200 	lfm	f3, 4, [r0], #-0
    2932:	b851      			@ <UNDEFINED> instruction: 0xb851
    2934:	1002      	asrs	r2, r0, #32
    2936:	8523      	strh	r3, [r4, #40]	@ 0x28
    2938:	6310      	str	r0, [r2, #48]	@ 0x30
    293a:	3147      	adds	r1, #71	@ 0x47
    293c:	0c9d      	lsrs	r5, r3, #18
    293e:	c532      	stmia	r5!, {r1, r4, r5}
    2940:	19d3      	adds	r3, r2, r7
    2942:	0320      	lsls	r0, r4, #12
    2944:	9d30      	ldr	r5, [sp, #192]	@ 0xc0
    2946:	3200      	adds	r2, #0
    2948:	d380      	bcc.n	0x284c
    294a:	2049      	movs	r0, #73	@ 0x49
    294c:	3013      	adds	r0, #19
    294e:	059d      	lsls	r5, r3, #22
    2950:	0032      	movs	r2, r6
    2952:	69d3      	ldr	r3, [r2, #28]
    2954:	0320      	lsls	r0, r4, #12
    2956:	9d30      	ldr	r5, [sp, #192]	@ 0xc0
    2958:	3207      	adds	r2, #7
    295a:	d300      	bcc.n	0x295e
    295c:	1099      	asrs	r1, r3, #2
    295e:	14b3      	asrs	r3, r6, #18
    2960:	4230      	tst	r0, r6
    2962:	2c11      	cmp	r4, #17
    2964:	2314      	movs	r3, #20
    2966:	2128      	movs	r1, #40	@ 0x28
    2968:	1180      	asrs	r0, r0, #6
    296a:	f3b0 101d 			@ <UNDEFINED> instruction: 0xf3b0101d
    296e:	2fdf      	cmp	r7, #223	@ 0xdf
    2970:	1180      	asrs	r0, r0, #6
    2972:	3385      	adds	r3, #133	@ 0x85
    2974:	376f      	adds	r7, #111	@ 0x6f
    2976:	1232      	asrs	r2, r6, #8
    2978:	79d3      	ldrb	r3, [r2, #7]
    297a:	0323      	lsls	r3, r4, #12
    297c:	2c04      	cmp	r4, #4
    297e:	2013      	movs	r0, #19
    2980:	21cf      	movs	r1, #207	@ 0xcf
    2982:	1266      	asrs	r6, r4, #9
    2984:	4e21      	ldr	r6, [pc, #132]	@ (0x2a0c)
    2986:	c308      	stmia	r3!, {r3}
    2988:	20cf      	movs	r0, #207	@ 0xcf
    298a:	6c33      	ldr	r3, [r6, #64]	@ 0x40
    298c:	3200      	adds	r2, #0
    298e:	bd51      	pop	{r0, r4, r6, pc}
    2990:	1082      	asrs	r2, r0, #2
    2992:	1434      	asrs	r4, r6, #16
    2994:	9d30      	ldr	r5, [sp, #192]	@ 0xc0
    2996:	320d      	adds	r2, #13
    2998:	0200      	lsls	r0, r0, #8
    299a:	f018 df37 	bl	0x81b80c
    299e:	f101 2fdf 	add.w	pc, r1, #3741376256	@ 0xdf00df00
    29a2:	1180      	asrs	r0, r0, #6
    29a4:	1353      	asrs	r3, r2, #13
    29a6:	0434      	lsls	r4, r6, #16
    29a8:	9d30      	ldr	r5, [sp, #192]	@ 0xc0
    29aa:	320d      	adds	r2, #13
    29ac:	d301      	bcc.n	0x29b2
    29ae:	2379      	movs	r3, #121	@ 0x79
    29b0:	3003      	adds	r0, #3
    29b2:	00ec      	lsls	r4, r5, #3
    29b4:	c332      	stmia	r3!, {r1, r4, r5}
    29b6:	20c7      	movs	r0, #199	@ 0xc7
    29b8:	e313      	b.n	0x2fe2
    29ba:	1081      	asrs	r1, r0, #2
    29bc:	3f33      	subs	r7, #51	@ 0x33
    29be:	4011      	ands	r1, r2
    29c0:	113c      	asrs	r4, r7, #4
    29c2:	13cd      	asrs	r5, r1, #15
    29c4:	2233      	movs	r2, #51	@ 0x33
    29c6:	8021      	strh	r1, [r4, #0]
    29c8:	5111      	str	r1, [r2, r4]
    29ca:	1df3      	adds	r3, r6, #7
    29cc:	df10      	svc	16
    29ce:	047e      	lsls	r6, r7, #17
    29d0:	e802 111c 			@ <UNDEFINED> instruction: 0xe802111c
    29d4:	3323      	adds	r3, #35	@ 0x23
    29d6:	bced      	pop	{r0, r2, r3, r5, r6, r7}
    29d8:	0002      	movs	r2, r0
    29da:	4619      	mov	r1, r3
    29dc:	1310      	asrs	r0, r2, #12
    29de:	1084      	asrs	r4, r0, #2
    29e0:	2ef3      	cmp	r6, #243	@ 0xf3
    29e2:	2041      	movs	r0, #65	@ 0x41
    29e4:	05eb      	lsls	r3, r5, #23
    29e6:	22b8      	movs	r2, #184	@ 0xb8
    29e8:	ce80      	ldmia	r6!, {r7}
    29ea:	f011 df32 	bl	0x814852
    29ee:	f102 fbdf 	bl	0x1051b0
    29f2:	4714      	bxns	r2
    29f4:	00a0      	lsls	r0, r4, #2
    29f6:	3470      	adds	r4, #112	@ 0x70
    29f8:	e802 114c 			@ <UNDEFINED> instruction: 0xe802114c
    29fc:	32fb      	adds	r2, #251	@ 0xfb
    29fe:	bced      	pop	{r0, r2, r3, r5, r6, r7}
    2a00:	0002      	movs	r2, r0
    2a02:	4623      	mov	r3, r4
    2a04:	e310      	b.n	0x3028
    2a06:	c0f2      	stmia	r0!, {r1, r4, r5, r6, r7}
    2a08:	4008      	ands	r0, r1
    2a0a:	0461      	lsls	r1, r4, #17
    2a0c:	114e      	asrs	r6, r1, #5
    2a0e:	42c0      	cmn	r0, r0
    2a10:	1347      	asrs	r7, r0, #13
    2a12:	2bd3      	cmp	r3, #211	@ 0xd3
    2a14:	8021      	strh	r1, [r4, #0]
    2a16:	14ce      	asrs	r6, r1, #19
    2a18:	3020      	adds	r0, #32
    2a1a:	f346 105d 	sbfx	r0, r6, #5, #30
    2a1e:	fbdf 4714 			@ <UNDEFINED> instruction: 0xfbdf4714
    2a22:	00a0      	lsls	r0, r4, #2
    2a24:	3470      	adds	r4, #112	@ 0x70
    2a26:	e802 114c 			@ <UNDEFINED> instruction: 0xe802114c
    2a2a:	32cd      	adds	r2, #205	@ 0xcd
    2a2c:	bced      	pop	{r0, r2, r3, r5, r6, r7}
    2a2e:	0002      	movs	r2, r0
    2a30:	460e      	mov	r6, r1
    2a32:	14e0      	asrs	r0, r4, #19
    2a34:	2f11      	cmp	r7, #17
    2a36:	3475      	adds	r4, #117	@ 0x75
    2a38:	e802 114c 			@ <UNDEFINED> instruction: 0xe802114c
    2a3c:	62de      	str	r6, [r3, #44]	@ 0x2c
    2a3e:	df34      	svc	52	@ 0x34
    2a40:	f105 7ddf 	add.w	sp, r5, #29229056	@ 0x1be0000
    2a44:	5704      	ldrsb	r4, [r0, r4]
    2a46:	8021      	strh	r1, [r4, #0]
    2a48:	12ce      	asrs	r6, r1, #11
    2a4a:	2ad0      	cmp	r2, #208	@ 0xd0
    2a4c:	4341      	muls	r1, r0
    2a4e:	d300      	bcc.n	0x2a52
    2a50:	20d9      	movs	r0, #217	@ 0xd9
    2a52:	3013      	adds	r0, #19
    2a54:	376f      	adds	r7, #111	@ 0x6f
    2a56:	1232      	asrs	r2, r6, #8
    2a58:	79d3      	ldrb	r3, [r2, #7]
    2a5a:	0323      	lsls	r3, r4, #12
    2a5c:	2c04      	cmp	r4, #4
    2a5e:	2013      	movs	r0, #19
    2a60:	c2c1      	stmia	r2!, {r0, r6, r7}
    2a62:	20c0      	movs	r0, #192	@ 0xc0
    2a64:	f813 30df 	ldrb.w	r3, [r3, pc, lsl #1]
    2a68:	00ec      	lsls	r4, r5, #3
    2a6a:	1132      	asrs	r2, r6, #4
    2a6c:	176c      	asrs	r4, r5, #29
    2a6e:	3413      	adds	r4, #19
    2a70:	2011      	movs	r0, #17
    2a72:	1131      	asrs	r1, r6, #4
    2a74:	131b      	asrs	r3, r3, #12
    2a76:	1713      	asrs	r3, r2, #28
    2a78:	1461      	asrs	r1, r4, #17
    2a7a:	008d      	lsls	r5, r1, #2
    2a7c:	460c      	mov	r4, r1
    2a7e:	b310      	cbz	r0, 0x2ac6
    2a80:	e148      	b.n	0x2d14
    2a82:	464f      	mov	r7, r9
    2a84:	b310      	cbz	r0, 0x2acc
    2a86:	314b      	adds	r1, #75	@ 0x4b
    2a88:	0c9d      	lsrs	r5, r3, #18
    2a8a:	c532      	stmia	r5!, {r1, r4, r5}
    2a8c:	e802 112c 			@ <UNDEFINED> instruction: 0xe802112c
    2a90:	f28a 103d 			@ <UNDEFINED> instruction: 0xf28a103d
    2a94:	2fdf      	cmp	r7, #223	@ 0xdf
    2a96:	1180      	asrs	r0, r0, #6
    2a98:	125f      	asrs	r7, r3, #9
    2a9a:	2bc5      	cmp	r3, #197	@ 0xc5
    2a9c:	d301      	bcc.n	0x2aa2
    2a9e:	2009      	movs	r0, #9
    2aa0:	31f3      	adds	r1, #243	@ 0xf3
    2aa2:	049d      	lsls	r5, r3, #18
    2aa4:	0032      	movs	r2, r6
    2aa6:	59d3      	ldr	r3, [r2, r7]
    2aa8:	0320      	lsls	r0, r4, #12
    2aaa:	9d30      	ldr	r5, [sp, #192]	@ 0xc0
    2aac:	3206      	adds	r2, #6
    2aae:	d300      	bcc.n	0x2ab2
    2ab0:	2079      	movs	r0, #121	@ 0x79
    2ab2:	3803      	subs	r0, #3
    2ab4:	099d      	lsrs	r5, r3, #6
    2ab6:	4b31      	ldr	r3, [pc, #196]	@ (0x2b7c)
    2ab8:	76f3      	strb	r3, [r6, #27]
    2aba:	2323      	movs	r3, #35	@ 0x23
    2abc:	9d31      	ldr	r5, [sp, #196]	@ 0xc4
    2abe:	3237      	adds	r2, #55	@ 0x37
    2ac0:	c040      	stmia	r0!, {r6}
    2ac2:	1132      	asrs	r2, r6, #4
    2ac4:	3bad      	subs	r3, #173	@ 0xad
    2ac6:	289d      	cmp	r0, #157	@ 0x9d
    2ac8:	0232      	lsls	r2, r6, #8
    2aca:	ba51      	rev16	r1, r2
    2acc:	1002      	asrs	r2, r0, #32
    2ace:	2bb5      	cmp	r3, #181	@ 0xb5
    2ad0:	5101      	str	r1, [r0, r4]
    2ad2:	12b9      	asrs	r1, r7, #10
    2ad4:	d510      	bpl.n	0x2af8
    2ad6:	082b      	lsrs	r3, r5, #32
    2ad8:	4341      	muls	r1, r0
    2ada:	d301      	bcc.n	0x2ae0
    2adc:	20d9      	movs	r0, #217	@ 0xd9
    2ade:	2003      	movs	r0, #3
    2ae0:	1180      	asrs	r0, r0, #6
    2ae2:	f238 101d 			@ <UNDEFINED> instruction: 0xf238101d
    2ae6:	2fdf      	cmp	r7, #223	@ 0xdf
    2ae8:	1180      	asrs	r0, r0, #6
    2aea:	120d      	asrs	r5, r1, #8
    2aec:	0434      	lsls	r4, r6, #16
    2aee:	9d30      	ldr	r5, [sp, #192]	@ 0xc0
    2af0:	320d      	adds	r2, #13
    2af2:	d301      	bcc.n	0x2af8
    2af4:	2379      	movs	r3, #121	@ 0x79
    2af6:	1003      	asrs	r3, r0, #32
    2af8:	2b95      	cmp	r3, #149	@ 0x95
    2afa:	5100      	str	r0, [r0, r4]
    2afc:	02ba      	lsls	r2, r7, #10
    2afe:	b510      	push	{r4, lr}
    2b00:	012b      	lsls	r3, r5, #4
    2b02:	09d3      	lsrs	r3, r2, #7
    2b04:	0320      	lsls	r0, r4, #12
    2b06:	9d38      	ldr	r5, [sp, #224]	@ 0xe0
    2b08:	3204      	adds	r2, #4
    2b0a:	d301      	bcc.n	0x2b10
    2b0c:	2059      	movs	r0, #89	@ 0x59
    2b0e:	3003      	adds	r0, #3
    2b10:	069d      	lsls	r5, r3, #26
    2b12:	0032      	movs	r2, r6
    2b14:	79d3      	ldrb	r3, [r2, #7]
    2b16:	0320      	lsls	r0, r4, #12
    2b18:	9d30      	ldr	r5, [sp, #192]	@ 0xc0
    2b1a:	3109      	adds	r1, #9
    2b1c:	514b      	str	r3, [r1, r5]
    2b1e:	02bc      	lsls	r4, r7, #10
    2b20:	8020      	strh	r0, [r4, #0]
    2b22:	f711 1df1 			@ <UNDEFINED> instruction: 0xf7111df1
    2b26:	df10      	svc	16
    2b28:	67f8      	str	r0, [r7, #124]	@ 0x7c
    2b2a:	a06f      	add	r0, pc, #444	@ (adr r0, 0x2ce8)
    2b2c:	7000      	strb	r0, [r0, #0]
    2b2e:	0224      	lsls	r4, r4, #8
    2b30:	3ce8      	subs	r4, #232	@ 0xe8
    2b32:	c411      	stmia	r4!, {r0, r4}
    2b34:	c511      	stmia	r5!, {r0, r4}
    2b36:	012b      	lsls	r3, r5, #4
    2b38:	09d3      	lsrs	r3, r2, #7
    2b3a:	f320 9d31 	b.w	0xb235a0
    2b3e:	3204      	adds	r2, #4
    2b40:	d300      	bcc.n	0x2b44
    2b42:	2059      	movs	r0, #89	@ 0x59
    2b44:	3003      	adds	r0, #3
    2b46:	069d      	lsls	r5, r3, #26
    2b48:	0032      	movs	r2, r6
    2b4a:	79d3      	ldrb	r3, [r2, #7]
    2b4c:	0320      	lsls	r0, r4, #12
    2b4e:	9d38      	ldr	r5, [sp, #224]	@ 0xe0
    2b50:	3109      	adds	r1, #9
    2b52:	f34b 2376 			@ <UNDEFINED> instruction: 0xf34b2376
    2b56:	3123      	adds	r1, #35	@ 0x23
    2b58:	379d      	adds	r7, #157	@ 0x9d
    2b5a:	4032      	ands	r2, r6
    2b5c:	32c0      	adds	r2, #192	@ 0xc0
    2b5e:	1211      	asrs	r1, r2, #8
    2b60:	9d3b      	ldr	r5, [sp, #236]	@ 0xec
    2b62:	3228      	adds	r2, #40	@ 0x28
    2b64:	d302      	bcc.n	0x2b6c
    2b66:	20d9      	movs	r0, #217	@ 0xd9
    2b68:	3003      	adds	r0, #3
    2b6a:	281e      	cmp	r0, #30
    2b6c:	0b32      	lsrs	r2, r6, #12
    2b6e:	010a      	lsls	r2, r1, #4
    2b70:	8247      	strh	r7, [r0, #18]
    2b72:	e639      	b.n	0x27e8
    2b74:	5206      	strh	r6, [r0, r0]
    2b76:	0084      	lsls	r4, r0, #2
    2b78:	4420      	add	r0, r4
    2b7a:	0001      	movs	r1, r0
    2b7c:	0342      	lsls	r2, r0, #13
    2b7e:	008e      	lsls	r6, r1, #2
    2b80:	4072      	eors	r2, r6
    2b82:	46f0      	mov	r8, lr
    2b84:	3098      	adds	r0, #152	@ 0x98
    2b86:	5b11      	ldrh	r1, [r2, r4]
    2b88:	0ecd      	lsrs	r5, r1, #27
    2b8a:	11f4      	asrs	r4, r6, #7
    2b8c:	ae50      	add	r6, sp, #320	@ 0x140
    2b8e:	81e3      	strh	r3, [r4, #14]
    2b90:	b322      	cbz	r2, 0x2bdc
    2b92:	10a0      	asrs	r0, r4, #2
    2b94:	2470      	movs	r4, #112	@ 0x70
    2b96:	1a98      	subs	r0, r3, r2
    2b98:	246e      	movs	r4, #110	@ 0x6e
    2b9a:	0144      	lsls	r4, r0, #5
    2b9c:	4900      	ldr	r1, [pc, #0]	@ (0x2ba0)
    2b9e:	c46e      	stmia	r4!, {r1, r2, r3, r5, r6}
    2ba0:	000c      	movs	r4, r1
    2ba2:	2220      	movs	r2, #32
    2ba4:	d3c2      	bcc.n	0x2b2c
    2ba6:	20d9      	movs	r0, #217	@ 0xd9
    2ba8:	3013      	adds	r0, #19
    2baa:	379d      	adds	r7, #157	@ 0x9d
    2bac:	0032      	movs	r2, r6
    2bae:	09d3      	lsrs	r3, r2, #7
    2bb0:	0320      	lsls	r0, r4, #12
    2bb2:	9d38      	ldr	r5, [sp, #224]	@ 0xe0
    2bb4:	3204      	adds	r2, #4
    2bb6:	d301      	bcc.n	0x2bbc
    2bb8:	2059      	movs	r0, #89	@ 0x59
    2bba:	3003      	adds	r0, #3
    2bbc:	069d      	lsls	r5, r3, #26
    2bbe:	0032      	movs	r2, r6
    2bc0:	79d3      	ldrb	r3, [r2, #7]
    2bc2:	0320      	lsls	r0, r4, #12
    2bc4:	9d30      	ldr	r5, [sp, #192]	@ 0xc0
    2bc6:	3109      	adds	r1, #9
    2bc8:	514b      	str	r3, [r1, r5]
    2bca:	02bc      	lsls	r4, r7, #10
    2bcc:	8020      	strh	r0, [r4, #0]
    2bce:	13ce      	asrs	r6, r1, #15
    2bd0:	14a0      	asrs	r0, r4, #18
    2bd2:	e246      	b.n	0x3062
    2bd4:	cf67      	ldmia	r7!, {r0, r1, r2, r5, r6}
    2bd6:	1008      	asrs	r0, r1, #32
    2bd8:	7edf      	ldrb	r7, [r3, #27]
    2bda:	0204      	lsls	r4, r0, #8
    2bdc:	1ce8      	adds	r0, r5, #3
    2bde:	1811      	adds	r1, r2, r0
    2be0:	0461      	lsls	r1, r4, #17
    2be2:	4445      	add	r5, r8
    2be4:	e802 111c 			@ <UNDEFINED> instruction: 0xe802111c
    2be8:	f132 102d 			@ <UNDEFINED> instruction: 0xf132102d
    2bec:	bd51      	pop	{r0, r4, r6, pc}
    2bee:	0082      	lsls	r2, r0, #2
    2bf0:	dff1      	svc	241	@ 0xf1
    2bf2:	802f      	strh	r7, [r5, #0]
    2bf4:	4811      	ldr	r0, [pc, #68]	@ (0x2c3c)
    2bf6:	ed31 02bc 	lfm	f0, 4, [r1, #-752]!	@ 0xfffffd10
    2bfa:	1600      	asrs	r0, r0, #24
    2bfc:	1321      	asrs	r1, r4, #12
    2bfe:	2110      	movs	r1, #16
    2c00:	10d0      	asrs	r0, r2, #3
    2c02:	b204      	sxth	r4, r0
    2c04:	805e      	strh	r6, [r3, #2]
    2c06:	022b      	lsls	r3, r5, #8
    2c08:	7018      	strb	r0, [r3, #0]
    2c0a:	df15      	svc	21
    2c0c:	f101 2fdf 	add.w	pc, r1, #3741376256	@ 0xdf00df00
    2c10:	1180      	asrs	r0, r0, #6
    2c12:	312b      	adds	r1, #43	@ 0x2b
    2c14:	bced      	pop	{r0, r2, r3, r5, r6, r7}
    2c16:	0002      	movs	r2, r0
    2c18:	211f      	movs	r1, #31
    2c1a:	0dbb      	lsrs	r3, r7, #22
    2c1c:	b321      	cbz	r1, 0x2c68
    2c1e:	0410      	lsls	r0, r2, #16
    2c20:	5eb2      	ldrsh	r2, [r6, r2]
    2c22:	2b80      	cmp	r3, #128	@ 0x80
    2c24:	09d3      	lsrs	r3, r2, #7
    2c26:	8322      	strh	r2, [r4, #24]
    2c28:	8020      	strh	r0, [r4, #0]
    2c2a:	3511      	adds	r5, #17
    2c2c:	1df1      	adds	r1, r6, #7
    2c2e:	df10      	svc	16
    2c30:	802f      	strh	r7, [r5, #0]
    2c32:	0a11      	lsrs	r1, r2, #8
    2c34:	ed31 02bc 	lfm	f0, 4, [r1, #-752]!	@ 0xfffffd10
    2c38:	6600      	str	r0, [r0, #96]	@ 0x60
    2c3a:	82e3      	strh	r3, [r4, #22]
    2c3c:	d322      	bcc.n	0x2c84
    2c3e:	cd25      	ldmia	r5, {r0, r2, r5}
    2c40:	0144      	lsls	r4, r0, #5
    2c42:	d30d      	bcc.n	0x2c60
    2c44:	2289      	movs	r2, #137	@ 0x89
    2c46:	8043      	strh	r3, [r0, #2]
    2c48:	1479      	asrs	r1, r7, #17
    2c4a:	0434      	lsls	r4, r6, #16
    2c4c:	9d30      	ldr	r5, [sp, #192]	@ 0xc0
    2c4e:	320d      	adds	r2, #13
    2c50:	c301      	stmia	r3!, {r0}
    2c52:	200e      	movs	r0, #14
    2c54:	7c33      	ldrb	r3, [r6, #16]
    2c56:	320c      	adds	r2, #12
    2c58:	89d3      	ldrh	r3, [r2, #14]
    2c5a:	4322      	orrs	r2, r4
    2c5c:	b010      	add	sp, #64	@ 0x40
    2c5e:	2157      	movs	r1, #87	@ 0x57
    2c60:	1150      	asrs	r0, r2, #5
    2c62:	2011      	movs	r0, #17
    2c64:	a011      	add	r0, pc, #68	@ (adr r0, 0x2cac)
    2c66:	2112      	movs	r1, #18
    2c68:	0f80      	lsrs	r0, r0, #30
    2c6a:	f321 02e0 			@ <UNDEFINED> instruction: 0xf32102e0
    2c6e:	1018      	asrs	r0, r3, #32
    2c70:	df0f      	svc	15
    2c72:	f101 2fdf 	add.w	pc, r1, #3741376256	@ 0xdf00df00
    2c76:	1180      	asrs	r0, r0, #6
    2c78:	20c5      	movs	r0, #197	@ 0xc5
    2c7a:	43dd      	mvns	r5, r3
    2c7c:	e700      	b.n	0x2a80
    2c7e:	ed30 02bd 	lfm	f0, 4, [r0, #-756]!	@ 0xfffffd0c
    2c82:	7800      	ldrb	r0, [r0, #0]
    2c84:	9cd3      	ldr	r4, [sp, #844]	@ 0x34c
    2c86:	002b      	movs	r3, r5
    2c88:	3680      	adds	r6, #128	@ 0x80
    2c8a:	281e      	cmp	r0, #30
    2c8c:	3632      	adds	r6, #50	@ 0x32
    2c8e:	89d3      	ldrh	r3, [r2, #14]
    2c90:	2322      	movs	r3, #34	@ 0x22
    2c92:	ed30 02ba 	lfm	f0, 4, [r0, #-744]!	@ 0xfffffd18
    2c96:	1400      	asrs	r0, r0, #16
    2c98:	bb04      	cbnz	r4, 0x2cdc
    2c9a:	a052      	add	r0, pc, #328	@ (adr r0, 0x2de4)
    2c9c:	212b      	movs	r1, #43	@ 0x2b
    2c9e:	e0b8      	b.n	0x2e12
    2ca0:	3798      	adds	r7, #152	@ 0x98
    2ca2:	bb04      	cbnz	r4, 0x2ce6
    2ca4:	a052      	add	r0, pc, #328	@ (adr r0, 0x2df0)
    2ca6:	982b      	ldr	r0, [sp, #172]	@ 0xac
    2ca8:	5029      	str	r1, [r5, r0]
    2caa:	02ba      	lsls	r2, r7, #10
    2cac:	3220      	adds	r2, #32
    2cae:	041d      	lsls	r5, r3, #16
    2cb0:	22ba      	movs	r2, #186	@ 0xba
    2cb2:	010a      	lsls	r2, r1, #4
    2cb4:	d30d      	bcc.n	0x2cd2
    2cb6:	2bae      	cmp	r3, #174	@ 0xae
    2cb8:	6000      	str	r0, [r0, #0]
    2cba:	e310      	b.n	0x32de
    2cbc:	1e09      	subs	r1, r1, #0
    2cbe:	13a0      	asrs	r0, r4, #14
    2cc0:	ced3      	ldmia	r6, {r0, r1, r4, r6, r7}
    2cc2:	002b      	movs	r3, r5
    2cc4:	3370      	adds	r3, #112	@ 0x70
    2cc6:	bded      	pop	{r0, r2, r3, r5, r6, r7, pc}
    2cc8:	0002      	movs	r2, r0
    2cca:	210b      	movs	r1, #11
    2ccc:	1222      	asrs	r2, r4, #8
    2cce:	2911      	cmp	r1, #17
    2cd0:	cd31      	ldmia	r5, {r0, r4, r5}
    2cd2:	02b8      	lsls	r0, r7, #10
    2cd4:	1600      	asrs	r0, r0, #24
    2cd6:	0a21      	lsrs	r1, r4, #8
    2cd8:	210b      	movs	r1, #11
    2cda:	0ff6      	lsrs	r6, r6, #31
    2cdc:	b204      	sxth	r4, r0
    2cde:	805e      	strh	r6, [r3, #2]
    2ce0:	502b      	str	r3, [r5, r0]
    2ce2:	02bd      	lsls	r5, r7, #10
    2ce4:	2220      	movs	r2, #32
    2ce6:	510a      	str	r2, [r1, r4]
    2ce8:	82bd      	strh	r5, [r7, #20]
    2cea:	6ee0      	ldr	r0, [r4, #108]	@ 0x6c
    2cec:	bd04      	pop	{r2, pc}
    2cee:	0a22      	lsrs	r2, r4, #8
    2cf0:	0d01      	lsrs	r1, r0, #20
    2cf2:	1802      	adds	r2, r0, r0
    2cf4:	06c0      	lsls	r0, r0, #27
    2cf6:	01df      	lsls	r7, r3, #7
    2cf8:	dff1      	svc	241	@ 0xf1
    2cfa:	04fe      	lsls	r6, r7, #19
    2cfc:	2412      	movs	r4, #18
    2cfe:	bf29      	itett	cs
    2d00:	504e      	strcs	r6, [r1, r1]
    2d02:	4208      	tstcc	r0, r1
    2d04:	040f      	lslcs	r7, r1, #16
    2d06:	0f52      	lsrcs	r2, r2, #29
    2d08:	6204      	str	r4, [r0, #32]
    2d0a:	040f      	lsls	r7, r1, #16
    2d0c:	0eb2      	lsrs	r2, r6, #26
    2d0e:	04e8      	lsls	r0, r5, #19
    2d10:	d194      	bne.n	0x2c3c
    2d12:	1240      	asrs	r0, r0, #9
    2d14:	fc14 463b 	ldc2	6, cr4, [r4], {59}	@ 0x3b
    2d18:	f492 102d 	eors.w	r0, r2, #2834432	@ 0x2b4000
    2d1c:	fedf 1204 	cdp2	2, 13, cr1, cr15, cr4, {0}
    2d20:	2924      	cmp	r1, #36	@ 0x24
    2d22:	4ebf      	ldr	r6, [pc, #764]	@ (0x3020)
    2d24:	0850      	lsrs	r0, r2, #1
    2d26:	2f42      	cmp	r7, #66	@ 0x42
    2d28:	5204      	strh	r4, [r0, r0]
    2d2a:	042f      	lsls	r7, r5, #16
    2d2c:	2f62      	cmp	r7, #98	@ 0x62
    2d2e:	b204      	sxth	r4, r0
    2d30:	e82e 9404 			@ <UNDEFINED> instruction: 0xe82e9404
    2d34:	40d1      	lsrs	r1, r2
    2d36:	1412      	asrs	r2, r2, #16
    2d38:	3bfc      	subs	r3, #252	@ 0xfc
    2d3a:	9246      	str	r2, [sp, #280]	@ 0x118
    2d3c:	2df4      	cmp	r5, #244	@ 0xf4
    2d3e:	df10      	svc	16
    2d40:	04fe      	lsls	r6, r7, #19
    2d42:	2412      	movs	r4, #18
    2d44:	bf29      	itett	cs
    2d46:	504e      	strcs	r6, [r1, r1]
    2d48:	4208      	tstcc	r0, r1
    2d4a:	040f      	lslcs	r7, r1, #16
    2d4c:	0f52      	lsrcs	r2, r2, #29
    2d4e:	6204      	str	r4, [r0, #32]
    2d50:	040f      	lsls	r7, r1, #16
    2d52:	0eb2      	lsrs	r2, r6, #26
    2d54:	04e8      	lsls	r0, r5, #19
    2d56:	d194      	bne.n	0x2c82
    2d58:	1240      	asrs	r0, r0, #9
    2d5a:	fc14 463b 	ldc2	6, cr4, [r4], {59}	@ 0x3b
    2d5e:	f492 102d 	eors.w	r0, r2, #2834432	@ 0x2b4000
    2d62:	fedf 1204 	cdp2	2, 13, cr1, cr15, cr4, {0}
    2d66:	2924      	cmp	r1, #36	@ 0x24
    2d68:	4ebf      	ldr	r6, [pc, #764]	@ (0x3068)
    2d6a:	0850      	lsrs	r0, r2, #1
    2d6c:	2f42      	cmp	r7, #66	@ 0x42
    2d6e:	5204      	strh	r4, [r0, r0]
    2d70:	042f      	lsls	r7, r5, #16
    2d72:	2f62      	cmp	r7, #98	@ 0x62
    2d74:	b204      	sxth	r4, r0
    2d76:	e82e 9404 			@ <UNDEFINED> instruction: 0xe82e9404
    2d7a:	40d1      	lsrs	r1, r2
    2d7c:	1412      	asrs	r2, r2, #16
    2d7e:	3bfc      	subs	r3, #252	@ 0xfc
    2d80:	9246      	str	r2, [sp, #280]	@ 0x118
    2d82:	2df4      	cmp	r5, #244	@ 0xf4
    2d84:	5110      	str	r0, [r2, r4]
    2d86:	02be      	lsls	r6, r7, #10
    2d88:	f510 002b 	adds.w	r0, r0, #11206656	@ 0xab0000
    2d8c:	c051      	stmia	r0!, {r0, r4, r6}
    2d8e:	0002      	movs	r2, r0
    2d90:	edf1 030c 	ldcl	3, cr0, [r1, #48]!	@ 0x30
    2d94:	000a      	movs	r2, r1
    2d96:	1b5a      	subs	r2, r3, r5
    2d98:	7211      	strb	r1, [r2, #8]
    2d9a:	7ed8      	ldrb	r0, [r3, #27]
    2d9c:	a032      	add	r0, pc, #200	@ (adr r0, 0x2e68)
    2d9e:	a000      	add	r0, pc, #0	@ (adr r0, 0x2da0)
    2da0:	11b5      	asrs	r5, r6, #6
    2da2:	8690      	strh	r0, [r2, #52]	@ 0x34
    2da4:	42ed      	cmn	r5, r5
    2da6:	0a03      	lsrs	r3, r0, #8
    2da8:	5a00      	ldrh	r0, [r0, r0]
    2daa:	111b      	asrs	r3, r3, #4
    2dac:	d85f      	bhi.n	0x2e6e
    2dae:	6bde      	ldr	r6, [r3, #60]	@ 0x3c
    2db0:	f0a0 b5af 	b.w	0x4a3912
    2db4:	6011      	str	r1, [r2, #0]
    2db6:	ed85 06d8 	stc	6, cr0, [r5, #864]	@ 0x360
    2dba:	000a      	movs	r2, r1
    2dbc:	1b5a      	subs	r2, r3, r5
    2dbe:	4c11      	ldr	r4, [pc, #68]	@ (0x2e04)
    2dc0:	f108 7edf 	add.w	lr, r8, #29229056	@ 0x1be0000
    2dc4:	4604      	mov	r4, r0
    2dc6:	6010      	str	r0, [r2, #0]
    2dc8:	4739      	bx	r7
    2dca:	00a1      	lsls	r1, r4, #2
    2dcc:	ced0      	ldmia	r6, {r4, r6, r7}
    2dce:	6030      	str	r0, [r6, #0]
    2dd0:	8215      	strh	r5, [r2, #16]
    2dd2:	a859      	add	r0, sp, #356	@ 0x164
    2dd4:	d000      	beq.n	0x2dd8
    2dd6:	327e      	adds	r2, #126	@ 0x7e
    2dd8:	1560      	asrs	r0, r4, #21
    2dda:	5982      	ldr	r2, [r0, r6]
    2ddc:	00a8      	lsls	r0, r5, #2
    2dde:	2ed0      	cmp	r6, #208	@ 0xd0
    2de0:	6034      	str	r4, [r6, #0]
    2de2:	8215      	strh	r5, [r2, #16]
    2de4:	a859      	add	r0, sp, #356	@ 0x164
    2de6:	dff0      	svc	240	@ 0xf0
    2de8:	6bde      	ldr	r6, [r3, #60]	@ 0x3c
    2dea:	1560      	asrs	r0, r4, #21
    2dec:	5982      	ldr	r2, [r0, r6]
    2dee:	00a8      	lsls	r0, r5, #2
    2df0:	8ed0      	ldrh	r0, [r2, #54]	@ 0x36
    2df2:	606d      	str	r5, [r5, #4]
    2df4:	8215      	strh	r5, [r2, #16]
    2df6:	f859 102d 	ldr.w	r1, [r9, sp, lsl #2]
    2dfa:	afdf      	add	r7, sp, #892	@ 0x37c
    2dfc:	7000      	strb	r0, [r0, #0]
    2dfe:	9804      	ldr	r0, [sp, #16]
    2e00:	ed66 06d8 	stcl	6, cr0, [r6, #-864]!	@ 0xfffffca0
    2e04:	2046      	movs	r0, #70	@ 0x46
    2e06:	8488      	strh	r0, [r1, #36]	@ 0x24
    2e08:	000c      	movs	r4, r1
    2e0a:	7322      	strb	r2, [r4, #12]
    2e0c:	8ed4      	ldrh	r4, [r2, #54]	@ 0x36
    2e0e:	606d      	str	r5, [r5, #4]
    2e10:	8204      	strh	r4, [r0, #16]
    2e12:	2848      	cmp	r0, #72	@ 0x48
    2e14:	010a      	lsls	r2, r1, #4
    2e16:	d8ed      	bhi.n	0x2df4
    2e18:	5606      	ldrsb	r6, [r0, r0]
    2e1a:	9820      	ldr	r0, [sp, #128]	@ 0x80
    2e1c:	ed85 06d8 	stc	6, cr0, [r5, #864]	@ 0x360
    2e20:	2046      	movs	r0, #70	@ 0x46
    2e22:	8488      	strh	r0, [r1, #36]	@ 0x24
    2e24:	008d      	lsls	r5, r1, #2
    2e26:	0a12      	lsrs	r2, r2, #8
    2e28:	edff 06bd 	ldcl	6, cr0, [pc, #756]!	@ 0x3120
    2e2c:	2056      	movs	r0, #86	@ 0x56
    2e2e:	8598      	strh	r0, [r3, #44]	@ 0x2c
    2e30:	8046      	strh	r6, [r0, #2]
    2e32:	0d10      	lsrs	r0, r2, #20
    2e34:	c046      	stmia	r0!, {r1, r2, r6}
    2e36:	81b0      	strh	r0, [r6, #12]
    2e38:	f8fd 101d 	ldr??.w	r1, [sp, #29]
    2e3c:	7cdf      	ldrb	r7, [r3, #19]
    2e3e:	4f04      	ldr	r7, [pc, #16]	@ (0x2e50)
    2e40:	00a1      	lsls	r1, r4, #2
    2e42:	3470      	adds	r4, #112	@ 0x70
    2e44:	414e      	adcs	r6, r1
    2e46:	30c8      	adds	r0, #200	@ 0xc8
    2e48:	2220      	movs	r2, #32
    2e4a:	5027      	str	r7, [r4, r0]
    2e4c:	e2c0      	b.n	0x33d0
    2e4e:	2320      	movs	r3, #32
    2e50:	60a6      	str	r6, [r4, #8]
    2e52:	4e04      	ldr	r6, [pc, #16]	@ (0x2e64)
    2e54:	2ce1      	cmp	r4, #225	@ 0xe1
    2e56:	c05a      	stmia	r0!, {r1, r3, r4, r6}
    2e58:	7c11      	ldrb	r1, [r2, #16]
    2e5a:	3472      	adds	r4, #114	@ 0x72
    2e5c:	8c99      	ldrh	r1, [r3, #36]	@ 0x24
    2e5e:	14e0      	asrs	r0, r4, #19
    2e60:	0c84      	lsrs	r4, r0, #18
    2e62:	2206      	movs	r2, #6
    2e64:	0372      	lsls	r2, r6, #13
    2e66:	2c05      	cmp	r4, #5
    2e68:	220d      	movs	r2, #13
    2e6a:	6722      	str	r2, [r4, #112]	@ 0x70
    2e6c:	4e04      	ldr	r6, [pc, #16]	@ (0x2e80)
    2e6e:	2ce1      	cmp	r4, #225	@ 0xe1
    2e70:	805a      	strh	r2, [r3, #2]
    2e72:	6211      	str	r1, [r2, #32]
    2e74:	0462      	lsls	r2, r4, #17
    2e76:	e14e      	b.n	0x3116
    2e78:	5a5c      	ldrh	r4, [r3, r1]
    2e7a:	1140      	asrs	r0, r0, #5
    2e7c:	7259      	strb	r1, [r3, #9]
    2e7e:	9834      	ldr	r0, [sp, #208]	@ 0xd0
    2e80:	5047      	str	r7, [r0, r1]
    2e82:	c2c0      	stmia	r2!, {r6, r7}
    2e84:	2220      	movs	r2, #32
    2e86:	463b      	mov	r3, r7
    2e88:	14e0      	asrs	r0, r4, #19
    2e8a:	a2ce      	add	r2, pc, #824	@ (adr r2, 0x31c4)
    2e8c:	1805      	adds	r5, r0, r0
    2e8e:	2470      	movs	r4, #112	@ 0x70
    2e90:	e046      	b.n	0x2f20
    2e92:	ce14      	ldmia	r6!, {r2, r4}
    2e94:	05a5      	lsls	r5, r4, #22
    2e96:	e010      	b.n	0x2eba
    2e98:	4623      	mov	r3, r4
    2e9a:	14e0      	asrs	r0, r4, #19
    2e9c:	8ce2      	ldrh	r2, [r4, #38]	@ 0x26
    2e9e:	05a0      	lsls	r0, r4, #22
    2ea0:	4014      	ands	r4, r2
    2ea2:	4723      	bx	r4
    2ea4:	3463      	adds	r4, #99	@ 0x63
    2ea6:	04df      	lsls	r7, r3, #19
    2ea8:	cff1      	ldmia	r7, {r0, r4, r5, r6, r7}
    2eaa:	7ff6      	ldrb	r6, [r6, #31]
    2eac:	85f6      	strh	r6, [r6, #46]	@ 0x2e
    2eae:	714f      	strb	r7, [r1, #5]
    2eb0:	0a04      	lsrs	r4, r0, #8
    2eb2:	4700      	bx	r0
    2eb4:	0463      	lsls	r3, r4, #17
    2eb6:	a611      	add	r6, pc, #68	@ (adr r6, 0x2efc)
    2eb8:	4472      	add	r2, lr
    2eba:	27ed      	movs	r7, #237	@ 0xed
    2ebc:	4603      	mov	r3, r0
    2ebe:	8824      	ldrh	r4, [r4, #0]
    2ec0:	4784      	blxns	r0
    2ec2:	2ed5      	cmp	r6, #213	@ 0xd5
    2ec4:	6034      	str	r4, [r6, #0]
    2ec6:	8244      	strh	r4, [r0, #18]
    2ec8:	c848      	ldmia	r0!, {r3, r6}
    2eca:	9080      	str	r0, [sp, #512]	@ 0x200
    2ecc:	091c      	lsrs	r4, r3, #4
    2ece:	8546      	strh	r6, [r0, #42]	@ 0x2a
    2ed0:	4710      	bx	r2
    2ed2:	5463      	strb	r3, [r4, r1]
    2ed4:	4258      	negs	r0, r3
    2ed6:	15ec      	asrs	r4, r5, #23
    2ed8:	8446      	strh	r6, [r0, #34]	@ 0x22
    2eda:	1825      	adds	r5, r4, r0
    2edc:	2c12      	cmp	r4, #18
    2ede:	c235      	stmia	r2!, {r0, r2, r4, r5}
    2ee0:	912c      	str	r1, [sp, #176]	@ 0xb0
    2ee2:	2052      	movs	r0, #82	@ 0x52
    2ee4:	52e4      	strh	r4, [r4, r3]
    2ee6:	6528      	str	r0, [r5, #80]	@ 0x50
    2ee8:	035d      	lsls	r5, r3, #13
    2eea:	0f2e      	lsrs	r6, r5, #28
    2eec:	e2de      	b.n	0x34ac
    2eee:	2ce2      	cmp	r4, #226	@ 0xe2
    2ef0:	460f      	mov	r7, r1
    2ef2:	85a5      	strh	r5, [r4, #44]	@ 0x2c
    2ef4:	1010      	asrs	r0, r2, #32
    2ef6:	ed25 0327 	stc	3, cr0, [r5, #-156]!	@ 0xffffff64
    2efa:	2456      	movs	r4, #86	@ 0x56
    2efc:	8598      	strh	r0, [r3, #44]	@ 0x2c
    2efe:	42ed      	cmn	r5, r5
    2f00:	4603      	mov	r3, r0
    2f02:	8824      	ldrh	r4, [r4, #0]
    2f04:	0884      	lsrs	r4, r0, #2
    2f06:	2ed1      	cmp	r6, #209	@ 0xd1
    2f08:	6034      	str	r4, [r6, #0]
    2f0a:	8245      	strh	r5, [r0, #18]
    2f0c:	a859      	add	r0, sp, #356	@ 0x164
    2f0e:	d040      	beq.n	0x2f92
    2f10:	6d8e      	ldr	r6, [r1, #88]	@ 0x58
    2f12:	4560      	cmp	r0, ip
    2f14:	5982      	ldr	r2, [r0, r6]
    2f16:	3468      	adds	r4, #104	@ 0x68
    2f18:	e67e      	b.n	0x2c18
    2f1a:	cf85      	ldmia	r7, {r0, r2, r7}
    2f1c:	100a      	asrs	r2, r1, #32
    2f1e:	f9df 6f55 	ldr??.w	r6, [pc, #3925]	@ 0x3e75
    2f22:	24f0      	movs	r4, #240	@ 0xf0
    2f24:	000a      	movs	r2, r1
    2f26:	0447      	lsls	r7, r0, #17
    2f28:	2c05      	cmp	r4, #5
    2f2a:	2200      	movs	r2, #0
    2f2c:	4663      	mov	r3, ip
    2f2e:	2be0      	cmp	r3, #224	@ 0xe0
    2f30:	7108      	strb	r0, [r1, #4]
    2f32:	ed44 02c1 	sfm	f0, 2, [r4, #-772]	@ 0xfffffcfc
    2f36:	be04      	bkpt	0x0004
    2f38:	8822      	ldrh	r2, [r4, #0]
    2f3a:	4e84      	ldr	r6, [pc, #528]	@ (0x314c)
    2f3c:	4852      	ldr	r0, [pc, #328]	@ (0x3088)
    2f3e:	2be0      	cmp	r3, #224	@ 0xe0
    2f40:	1258      	asrs	r0, r3, #9
    2f42:	0529      	lsls	r1, r5, #20
    2f44:	d0ed      	beq.n	0x2f22
    2f46:	5202      	strh	r2, [r0, r0]
    2f48:	05e8      	lsls	r0, r5, #23
    2f4a:	2f0e      	cmp	r7, #14
    2f4c:	e2ce      	b.n	0x34ec
    2f4e:	2de0      	cmp	r5, #224	@ 0xe0
    2f50:	042f      	lsls	r7, r5, #16
    2f52:	a2be      	add	r2, pc, #760	@ (adr r2, 0x324c)
    2f54:	10f5      	asrs	r5, r6, #3
    2f56:	1f00      	subs	r0, r0, #4
    2f58:	be05      	bkpt	0x0005
    2f5a:	0042      	lsls	r2, r0, #1
    2f5c:	a22c      	add	r2, pc, #176	@ (adr r2, 0x3010)
    2f5e:	d010      	beq.n	0x2f82
    2f60:	4460      	add	r0, ip
    2f62:	f55e 107d 	adcs.w	r0, lr, #4145152	@ 0x3f4000
    2f66:	f1cf 734f 	rsb	r3, pc, #54263808	@ 0x33c0000
    2f6a:	0a24      	lsrs	r4, r4, #8
    2f6c:	4700      	bx	r0
    2f6e:	00a5      	lsls	r5, r4, #2
    2f70:	647c      	str	r4, [r7, #68]	@ 0x44
    2f72:	1246      	asrs	r6, r0, #9
    2f74:	1e90      	subs	r0, r2, #2
    2f76:	d747      	bvc.n	0x3008
    2f78:	6bde      	ldr	r6, [r3, #60]	@ 0x3c
    2f7a:	7460      	strb	r0, [r4, #17]
    2f7c:	4882      	ldr	r0, [pc, #520]	@ (0x3188)
    2f7e:	8478      	strh	r0, [r7, #34]	@ 0x22
    2f80:	42ed      	cmn	r5, r5
    2f82:	4603      	mov	r3, r0
    2f84:	8827      	ldrh	r7, [r4, #0]
    2f86:	4784      	blxns	r0
    2f88:	ced9      	ldmia	r6, {r0, r3, r4, r6, r7}
    2f8a:	6030      	str	r0, [r6, #0]
    2f8c:	8274      	strh	r4, [r6, #18]
    2f8e:	7848      	ldrb	r0, [r1, #1]
    2f90:	46a4      	mov	ip, r4
    2f92:	2587      	movs	r5, #135	@ 0x87
    2f94:	52c1      	strh	r1, [r0, r3]
    2f96:	4520      	cmp	r0, r4
    2f98:	035d      	lsls	r5, r3, #13
    2f9a:	9d6f      	ldr	r5, [sp, #444]	@ 0x1bc
    2f9c:	2529      	movs	r5, #41	@ 0x29
    2f9e:	8a46      	ldrh	r6, [r0, #18]
    2fa0:	9125      	str	r1, [sp, #148]	@ 0x94
    2fa2:	e052      	b.n	0x304a
    2fa4:	52d4      	strh	r4, [r2, r3]
    2fa6:	7848      	ldrb	r0, [r1, #1]
    2fa8:	46b4      	mov	ip, r6
    2faa:	fc1b c471 	ldc2	4, cr12, [fp], {113}	@ 0x71
    2fae:	1b46      	subs	r6, r0, r5
    2fb0:	dc0c      	bgt.n	0x2fcc
    2fb2:	b460      	push	{r5, r6}
    2fb4:	c08d      	stmia	r0!, {r0, r2, r3, r7}
    2fb6:	4673      	mov	r3, lr
    2fb8:	c568      	stmia	r5!, {r3, r5, r6}
    2fba:	8423      	strh	r3, [r4, #32]
    2fbc:	a20a      	add	r2, pc, #40	@ (adr r2, 0x2fe8)
    2fbe:	e030      	b.n	0x3022
    2fc0:	8534      	strh	r4, [r6, #40]	@ 0x28
    2fc2:	fd6e 4e06 	stc2l	14, cr4, [lr, #-24]!	@ 0xffffffe8
    2fc6:	2ce3      	cmp	r4, #227	@ 0xe3
    2fc8:	1a46      	subs	r6, r0, r1
    2fca:	15a0      	asrs	r0, r4, #22
    2fcc:	6547      	str	r7, [r0, #84]	@ 0x54
    2fce:	5aa4      	ldrh	r4, [r4, r2]
    2fd0:	1108      	asrs	r0, r1, #4
    2fd2:	d174      	bne.n	0x30be
    2fd4:	30ce      	adds	r0, #206	@ 0xce
    2fd6:	7560      	strb	r0, [r4, #21]
    2fd8:	5982      	ldr	r2, [r0, r6]
    2fda:	9468      	str	r4, [sp, #416]	@ 0x1a0
    2fdc:	10a2      	asrs	r2, r4, #2
    2fde:	2ed0      	cmp	r6, #208	@ 0xd0
    2fe0:	6034      	str	r4, [r6, #0]
    2fe2:	8275      	strh	r5, [r6, #18]
    2fe4:	6859      	ldr	r1, [r3, #4]
    2fe6:	edc4 06bd 	stcl	6, cr0, [r4, #756]	@ 0x2f4
    2fea:	2756      	movs	r7, #86	@ 0x56
    2fec:	8598      	strh	r0, [r3, #44]	@ 0x2c
    2fee:	8899      	ldrh	r1, [r3, #4]
    2ff0:	b461      	push	{r0, r5, r6}
    2ff2:	808d      	strh	r5, [r1, #4]
    2ff4:	6e19      	ldr	r1, [r3, #96]	@ 0x60
    2ff6:	06fd      	lsls	r5, r7, #27
    2ff8:	e34e      	b.n	0x3698
    2ffa:	462c      	mov	r4, r5
    2ffc:	701a      	strb	r2, [r3, #0]
    2ffe:	9912      	ldr	r1, [sp, #72]	@ 0x48
    3000:	6166      	str	r6, [r4, #20]
    3002:	d2b4      	bcs.n	0x2f6e
    3004:	a008      	add	r0, pc, #32	@ (adr r0, 0x3028)
    3006:	4609      	mov	r1, r1
    3008:	08d6      	lsrs	r6, r2, #3
    300a:	62d8      	str	r0, [r3, #44]	@ 0x2c
    300c:	0884      	lsrs	r4, r0, #2
    300e:	fc11 c561 	ldc2	5, cr12, [r1], {97}	@ 0x61
    3012:	8423      	strh	r3, [r4, #32]
    3014:	e19b      	b.n	0x334e
    3016:	6fd6      	ldr	r6, [r2, #124]	@ 0x7c
    3018:	34e0      	adds	r4, #224	@ 0xe0
    301a:	65ce      	str	r6, [r1, #92]	@ 0x5c
    301c:	11a4      	asrs	r4, r4, #6
    301e:	9106      	str	r1, [sp, #24]
    3020:	1259      	asrs	r1, r3, #9
    3022:	d646      	bvs.n	0x30b2
    3024:	e008      	b.n	0x3038
    3026:	8460      	strh	r0, [r4, #34]	@ 0x22
    3028:	3c56      	subs	r4, #86	@ 0x56
    302a:	a942      	add	r1, sp, #264	@ 0x108
    302c:	610e      	str	r6, [r1, #16]
    302e:	5aa4      	ldrh	r4, [r4, r2]
    3030:	1108      	asrs	r0, r1, #4
    3032:	d114      	bne.n	0x305e
    3034:	30ce      	adds	r0, #206	@ 0xce
    3036:	7560      	strb	r0, [r4, #21]
    3038:	5982      	ldr	r2, [r0, r6]
    303a:	9468      	str	r4, [sp, #416]	@ 0x1a0
    303c:	10a2      	asrs	r2, r4, #2
    303e:	2ed0      	cmp	r6, #208	@ 0xd0
    3040:	6034      	str	r4, [r6, #0]
    3042:	8275      	strh	r5, [r6, #18]
    3044:	6859      	ldr	r1, [r3, #4]
    3046:	edc4 06bd 	stcl	6, cr0, [r4, #756]	@ 0x2f4
    304a:	2756      	movs	r7, #86	@ 0x56
    304c:	8598      	strh	r0, [r3, #44]	@ 0x2c
    304e:	c00a      	stmia	r0!, {r1, r3}
    3050:	9b47      	ldr	r3, [sp, #284]	@ 0x11c
    3052:	0c19      	lsrs	r1, r3, #16
    3054:	d646      	bvs.n	0x30e4
    3056:	8808      	ldrh	r0, [r1, #0]
    3058:	8463      	strh	r3, [r4, #34]	@ 0x22
    305a:	1108      	asrs	r0, r1, #4
    305c:	61fc      	str	r4, [r7, #28]
    305e:	23c5      	movs	r3, #197	@ 0xc5
    3060:	4b84      	ldr	r3, [pc, #528]	@ (0x3274)
    3062:	60a2      	str	r2, [r4, #8]
    3064:	34e0      	adds	r4, #224	@ 0xe0
    3066:	6e85      	ldr	r5, [r0, #104]	@ 0x68
    3068:	06fd      	lsls	r5, r7, #27
    306a:	e34e      	b.n	0x370a
    306c:	465c      	mov	r4, fp
    306e:	501a      	str	r2, [r3, r0]
    3070:	470b      	bx	r1
    3072:	f985 6463 	vst1.16			@ <UNDEFINED> instruction: 0xf9856463
    3076:	008d      	lsls	r5, r1, #2
    3078:	4636      	mov	r6, r6
    307a:	1088      	asrs	r0, r1, #2
    307c:	1fc1      	subs	r1, r0, #7
    307e:	3c56      	subs	r4, #86	@ 0x56
    3080:	b842      			@ <UNDEFINED> instruction: 0xb842
    3082:	0a22      	lsrs	r2, r4, #8
    3084:	4e09      	ldr	r6, [pc, #36]	@ (0x30ac)
    3086:	e853 6fd6 	ldrex	r6, [r3, #856]	@ 0x358
    308a:	34e0      	adds	r4, #224	@ 0xe0
    308c:	8ce2      	ldrh	r2, [r4, #38]	@ 0x26
    308e:	a460      	add	r4, pc, #384	@ (adr r4, 0x3210)
    3090:	9311      	str	r3, [sp, #68]	@ 0x44
    3092:	5470      	strb	r0, [r6, r1]
    3094:	aa46      	add	r2, sp, #280	@ 0x118
    3096:	1085      	asrs	r5, r0, #2
    3098:	0ae0      	lsrs	r0, r4, #11
    309a:	0ced      	lsrs	r5, r5, #19
    309c:	5603      	ldrsb	r3, [r0, r0]
    309e:	9827      	ldr	r0, [sp, #156]	@ 0x9c
    30a0:	4685      	mov	sp, r0
    30a2:	0a29      	lsrs	r1, r5, #8
    30a4:	ed01 0342 	stc	3, cr0, [r1, #-264]	@ 0xfffffef8
    30a8:	2756      	movs	r7, #86	@ 0x56
    30aa:	8598      	strh	r0, [r3, #44]	@ 0x2c
    30ac:	dc46      	bgt.n	0x313c
    30ae:	6bde      	ldr	r6, [r3, #60]	@ 0x3c
    30b0:	7560      	strb	r0, [r4, #21]
    30b2:	5982      	ldr	r2, [r0, r6]
    30b4:	b468      	push	{r3, r5, r6}
    30b6:	6647      	str	r7, [r0, #100]	@ 0x64
    30b8:	47c4      	blxns	r8
    30ba:	a468      	add	r4, pc, #416	@ (adr r4, 0x325c)
    30bc:	085a      	lsrs	r2, r3, #1
    30be:	8711      	strh	r1, [r2, #56]	@ 0x38
    30c0:	a470      	add	r4, pc, #448	@ (adr r4, 0x3284)
    30c2:	2946      	cmp	r1, #70	@ 0x46
    30c4:	010a      	lsls	r2, r1, #4
    30c6:	460d      	mov	r5, r1
    30c8:	00c9      	lsls	r1, r1, #3
    30ca:	3220      	adds	r2, #32
    30cc:	460b      	mov	r3, r1
    30ce:	8c25      	ldrh	r5, [r4, #32]
    30d0:	9700      	str	r7, [sp, #0]
    30d2:	546d      	strb	r5, [r5, r1]
    30d4:	0fcf      	lsrs	r7, r1, #31
    30d6:	df10      	svc	16
    30d8:	24f9      	movs	r4, #249	@ 0xf9
    30da:	7057      	strb	r7, [r2, #1]
    30dc:	0414      	lsls	r4, r2, #16
    30de:	82bf      	strh	r7, [r7, #20]
    30e0:	4710      	bx	r2
    30e2:	f044 582b 	orr.w	r8, r4, #717225984	@ 0x2ac00000
    30e6:	2912      	cmp	r1, #18
    30e8:	5205      	strh	r5, [r0, r0]
    30ea:	2d04      	cmp	r5, #4
    30ec:	56f0      	ldrsb	r0, [r6, r3]
    30ee:	d146      	bne.n	0x317e
    30f0:	2c1e      	cmp	r4, #30
    30f2:	f140 822b 	bpl.w	0x354c
    30f6:	6859      	ldr	r1, [r3, #4]
    30f8:	5404      	strb	r4, [r0, r0]
    30fa:	6345      	str	r5, [r0, #52]	@ 0x34
    30fc:	54e4      	strb	r4, [r4, r3]
    30fe:	4e85      	ldr	r6, [pc, #532]	@ (0x3314)
    3100:	e0e2      	b.n	0x32c8
    3102:	ce54      	ldmia	r6, {r2, r4, r6}
    3104:	e0f1      	b.n	0x32ea
    3106:	8624      	strh	r4, [r4, #48]	@ 0x30
    3108:	4e02      	ldr	r6, [pc, #8]	@ (0x3114)
    310a:	3875      	subs	r0, #117	@ 0x75
    310c:	f040 5a2b 	orr.w	sl, r0, #717225984	@ 0x2ac00000
    3110:	110f      	asrs	r7, r1, #4
    3112:	5034      	str	r4, [r6, r0]
    3114:	2bf0      	cmp	r3, #240	@ 0xf0
    3116:	c004      	stmia	r0!, {r2}
    3118:	1082      	asrs	r2, r0, #2
    311a:	440d      	add	r5, r1
    311c:	0845      	lsrs	r5, r0, #1
    311e:	fc11 60d1 	ldc2	0, cr6, [r1], {209}	@ 0xd1
    3122:	df44      	svc	68	@ 0x44
    3124:	f107 fbdf 	bl	0x10a8e6
    3128:	4714      	bxns	r2
    312a:	0460      	lsls	r0, r4, #17
    312c:	1258      	asrs	r0, r3, #9
    312e:	0529      	lsls	r1, r5, #20
    3130:	284e      	cmp	r0, #78	@ 0x4e
    3132:	ce85      	ldmia	r6!, {r0, r2, r7}
    3134:	34f1      	adds	r4, #241	@ 0xf1
    3136:	e34e      	b.n	0x37d6
    3138:	14e0      	asrs	r0, r4, #19
    313a:	4e0f      	ldr	r6, [pc, #60]	@ (0x3178)
    313c:	2863      	cmp	r0, #99	@ 0x63
    313e:	14e0      	asrs	r0, r4, #19
    3140:	0287      	lsls	r7, r0, #10
    3142:	8046      	strh	r6, [r0, #2]
    3144:	df10      	svc	16
    3146:	f105 7edf 	add.w	lr, r5, #29229056	@ 0x1be0000
    314a:	5704      	ldrsb	r4, [r0, r4]
    314c:	1461      	asrs	r1, r4, #17
    314e:	10a2      	asrs	r2, r4, #2
    3150:	0560      	lsls	r0, r4, #21
    3152:	2423      	movs	r4, #35	@ 0x23
    3154:	0722      	lsls	r2, r4, #28
    3156:	000a      	movs	r2, r1
    3158:	63ee      	str	r6, [r5, #60]	@ 0x3c
    315a:	0804      	lsrs	r4, r0, #32
    315c:	2df1      	cmp	r5, #241	@ 0xf1
    315e:	df10      	svc	16
    3160:	047f      	lsls	r7, r7, #17
    3162:	c046      	stmia	r0!, {r1, r2, r6}
    3164:	8070      	strh	r0, [r6, #2]
    3166:	60cc      	str	r4, [r1, #12]
    3168:	a204      	add	r2, pc, #16	@ (adr r2, 0x317c)
    316a:	8010      	strh	r0, [r2, #0]
    316c:	6359      	str	r1, [r3, #52]	@ 0x34
    316e:	0c04      	lsrs	r4, r0, #16
    3170:	c80f      	ldmia	r0, {r0, r1, r2, r3}
    3172:	460c      	mov	r4, r1
    3174:	0a20      	lsrs	r0, r4, #8
    3176:	9802      	ldr	r0, [sp, #8]
    3178:	461e      	mov	r6, r3
    317a:	70c0      	strb	r0, [r0, #3]
    317c:	bc81      	pop	{r0, r7}
    317e:	0460      	lsls	r0, r4, #17
    3180:	30a2      	adds	r0, #162	@ 0xa2
    3182:	4ee0      	ldr	r6, [pc, #896]	@ (0x3504)
    3184:	2046      	movs	r0, #70	@ 0x46
    3186:	040a      	lsls	r2, r1, #16
    3188:	01df      	lsls	r7, r3, #7
    318a:	dff1      	svc	241	@ 0xf1
    318c:	051f      	lsls	r7, r3, #20
    318e:	0082      	lsls	r2, r0, #2
    3190:	1f51      	subs	r1, r2, #5
    3192:	0ff8      	lsrs	r0, r7, #31
    3194:	200c      	movs	r0, #12
    3196:	216d      	movs	r1, #109	@ 0x6d
    3198:	c008      	stmia	r0!, {r3}
    319a:	d200      	bcs.n	0x319e
    319c:	8236      	strh	r6, [r6, #16]
    319e:	2510      	movs	r5, #16
    31a0:	00eb      	lsls	r3, r5, #3
    31a2:	00c0      	lsls	r0, r0, #3
    31a4:	56d2      	ldrsb	r2, [r2, r3]
    31a6:	0082      	lsls	r2, r0, #2
    31a8:	200c      	movs	r0, #12
    31aa:	276d      	movs	r7, #109	@ 0x6d
    31ac:	5108      	str	r0, [r1, r4]
    31ae:	0829      	lsrs	r1, r5, #32
    31b0:	a510      	add	r5, pc, #64	@ (adr r5, 0x31f4)
    31b2:	0f82      	lsrs	r2, r0, #30
    31b4:	00ec      	lsls	r4, r5, #3
    31b6:	d280      	bcs.n	0x30ba
    31b8:	82b6      	strh	r6, [r6, #20]
    31ba:	00a0      	lsls	r0, r4, #2
    31bc:	0470      	lsls	r0, r6, #17
    31be:	1a98      	subs	r0, r3, r2
    31c0:	000a      	movs	r2, r1
    31c2:	f3ed 5606 			@ <UNDEFINED> instruction: 0xf3ed5606
    31c6:	9820      	ldr	r0, [sp, #128]	@ 0x80
    31c8:	4685      	mov	sp, r0
    31ca:	1080      	asrs	r0, r0, #2
    31cc:	460d      	mov	r5, r1
    31ce:	e0c0      	b.n	0x3352
    31d0:	bd81      	pop	{r0, r7, pc}
    31d2:	1dfd      	adds	r5, r7, #7
    31d4:	5110      	str	r0, [r2, r4]
    31d6:	1820      	adds	r0, r4, r0
    31d8:	f100 1fdf 	add.w	pc, r0, #14614751	@ 0xdf00df
    31dc:	8205      	strh	r5, [r0, #16]
    31de:	5100      	str	r0, [r0, r4]
    31e0:	f81f 0c0f 	ldrb.w	r0, [pc, #-3087]	@ 0x25d5
    31e4:	6d20      	ldr	r0, [r4, #80]	@ 0x50
    31e6:	0821      	lsrs	r1, r4, #32
    31e8:	00c0      	lsls	r0, r0, #3
    31ea:	36d2      	adds	r6, #210	@ 0xd2
    31ec:	1082      	asrs	r2, r0, #2
    31ee:	eb25 c000 			@ <UNDEFINED> instruction: 0xeb25c000
    31f2:	d200      	bcs.n	0x31f6
    31f4:	8256      	strh	r6, [r2, #18]
    31f6:	0c00      	lsrs	r0, r0, #16
    31f8:	6d20      	ldr	r0, [r4, #80]	@ 0x50
    31fa:	0827      	lsrs	r7, r4, #32
    31fc:	000a      	movs	r2, r1
    31fe:	8047      	strh	r7, [r0, #2]
    3200:	d2e9      	bcs.n	0x31d6
    3202:	6f3e      	ldr	r6, [r7, #112]	@ 0x70
    3204:	0460      	lsls	r0, r4, #17
    3206:	4882      	ldr	r0, [pc, #520]	@ (0x3410)
    3208:	28c8      	cmp	r0, #200	@ 0xc8
    320a:	a121      	add	r1, pc, #132	@ (adr r1, 0x3290)
    320c:	d000      	beq.n	0x3210
    320e:	6f3e      	ldr	r6, [r7, #112]	@ 0x70
    3210:	0560      	lsls	r0, r4, #21
    3212:	5982      	ldr	r2, [r0, r6]
    3214:	0468      	lsls	r0, r5, #17
    3216:	d108      	bne.n	0x322a
    3218:	0460      	lsls	r0, r4, #17
    321a:	1e0c      	subs	r4, r1, #0
    321c:	c7d8      	stmia	r7!, {r3, r4, r6, r7}
    321e:	01df      	lsls	r7, r3, #7
    3220:	dff1      	svc	241	@ 0xf1
    3222:	047e      	lsls	r6, r7, #17
    3224:	2046      	movs	r0, #70	@ 0x46
    3226:	010a      	lsls	r2, r1, #4
    3228:	6147      	str	r7, [r0, #20]
    322a:	1414      	asrs	r4, r2, #16
    322c:	381f      	subs	r0, #31
    322e:	3942      	subs	r1, #66	@ 0x42
    3230:	f513 ff81 	bl	0xffd17136
    3234:	130a      	asrs	r2, r1, #12
    3236:	f3ed 5606 			@ <UNDEFINED> instruction: 0xf3ed5606
    323a:	9821      	ldr	r0, [sp, #132]	@ 0x84
    323c:	0a85      	lsrs	r5, r0, #10
    323e:	ed00 0711 	stc	7, cr0, [r0, #-68]	@ 0xffffffbc
    3242:	2156      	movs	r1, #86	@ 0x56
    3244:	8598      	strh	r0, [r3, #44]	@ 0x2c
    3246:	030a      	lsls	r2, r1, #12
    3248:	2fed      	cmp	r7, #237	@ 0xed
    324a:	5607      	ldrsb	r7, [r0, r0]
    324c:	9821      	ldr	r0, [sp, #132]	@ 0x84
    324e:	ed85 0821 	stc	8, cr0, [r5, #132]	@ 0x84
    3252:	1146      	asrs	r6, r0, #5
    3254:	7030      	strb	r0, [r6, #0]
    3256:	b251      	sxtb	r1, r2
    3258:	d01e      	beq.n	0x3298
    325a:	825e      	strh	r6, [r3, #18]
    325c:	1460      	asrs	r0, r4, #17
    325e:	f811 2df6 	ldrb.w	r2, [r1, #-246]!
    3262:	cf10      	ldmia	r7!, {r4}
    3264:	7ff4      	ldrb	r4, [r6, #31]
    3266:	a5f8      	add	r5, pc, #992	@ (adr r5, 0x3648)
    3268:	e04f      	b.n	0x330a
    326a:	ce04      	ldmia	r6!, {r2}
    326c:	9021      	str	r0, [sp, #132]	@ 0x84
    326e:	e5de      	b.n	0x2e2e
    3270:	62f0      	str	r0, [r6, #44]	@ 0x2c
    3272:	7028      	strb	r0, [r5, #0]
    3274:	302c      	adds	r0, #44	@ 0x2c
    3276:	20dd      	movs	r0, #221	@ 0xdd
    3278:	0008      	movs	r0, r1
    327a:	e1e7      	b.n	0x364c
    327c:	b404      	push	{r2}
    327e:	6546      	str	r6, [r0, #84]	@ 0x54
    3280:	5666      	ldrsb	r6, [r4, r1]
    3282:	4777      	bx	lr
    3284:	00fa      	lsls	r2, r7, #3
    3286:	a3a2      	add	r3, pc, #648	@ (adr r3, 0x3510)
    3288:	476c      	bxns	sp
    328a:	28a2      	cmp	r0, #162	@ 0xa2
    328c:	c14a      	stmia	r1!, {r1, r3, r6}
    328e:	f11f 231f 	adds.w	r3, pc, #520101632	@ 0x1f001f00
    3292:	4b93      	ldr	r3, [pc, #588]	@ (0x34e0)
    3294:	0a1b      	lsrs	r3, r3, #8
    3296:	4701      	bx	r0
    3298:	f0a2 347f 			@ <UNDEFINED> instruction: 0xf0a2347f
    329c:	0904      	lsrs	r4, r0, #4
    329e:	08d7      	lsrs	r7, r2, #3
    32a0:	a0b0      	add	r0, pc, #704	@ (adr r0, 0x3564)
    32a2:	7160      	strb	r0, [r4, #5]
    32a4:	9834      	ldr	r0, [sp, #208]	@ 0xd0
    32a6:	7e37      	ldrb	r7, [r6, #24]
    32a8:	6c25      	ldr	r5, [r4, #64]	@ 0x40
    32aa:	07ad      	lsls	r5, r5, #30
    32ac:	8582      	strh	r2, [r0, #44]	@ 0x2c
    32ae:	615b      	str	r3, [r3, #20]
    32b0:	0475      	lsls	r5, r6, #17
    32b2:	37af      	adds	r7, #175	@ 0xaf
    32b4:	3912      	subs	r1, #18
    32b6:	10a3      	asrs	r3, r4, #2
    32b8:	2ee0      	cmp	r6, #224	@ 0xe0
    32ba:	000a      	movs	r2, r1
    32bc:	008c      	lsls	r4, r1, #2
    32be:	0a07      	lsrs	r7, r0, #8
    32c0:	4700      	bx	r0
    32c2:	2462      	movs	r4, #98	@ 0x62
    32c4:	08c2      	lsrs	r2, r0, #3
    32c6:	14e0      	asrs	r0, r4, #19
    32c8:	0104      	lsls	r4, r0, #4
    32ca:	08d7      	lsrs	r7, r2, #3
    32cc:	a0b0      	add	r0, pc, #704	@ (adr r0, 0x3590)
    32ce:	70e0      	strb	r0, [r4, #3]
    32d0:	9834      	ldr	r0, [sp, #208]	@ 0xd0
    32d2:	7e37      	ldrb	r7, [r6, #24]
    32d4:	6c25      	ldr	r5, [r4, #64]	@ 0x40
    32d6:	0795      	lsls	r5, r2, #30
    32d8:	8582      	strh	r2, [r0, #44]	@ 0x2c
    32da:	615b      	str	r3, [r3, #20]
    32dc:	0475      	lsls	r5, r6, #17
    32de:	3797      	adds	r7, #151	@ 0x97
    32e0:	3912      	subs	r1, #18
    32e2:	10a3      	asrs	r3, r4, #2
    32e4:	2ee0      	cmp	r6, #224	@ 0xe0
    32e6:	000a      	movs	r2, r1
    32e8:	008c      	lsls	r4, r1, #2
    32ea:	0a07      	lsrs	r7, r0, #8
    32ec:	4700      	bx	r0
    32ee:	2462      	movs	r4, #98	@ 0x62
    32f0:	08c2      	lsrs	r2, r0, #3
    32f2:	0f60      	lsrs	r0, r4, #29
    32f4:	f904 08d6 	vst2.<illegal width 64>	{d0-d1}, [r4 :64], r6
    32f8:	a0b0      	add	r0, pc, #704	@ (adr r0, 0x35bc)
    32fa:	7060      	strb	r0, [r4, #1]
    32fc:	9834      	ldr	r0, [sp, #208]	@ 0xd0
    32fe:	7e37      	ldrb	r7, [r6, #24]
    3300:	6c25      	ldr	r5, [r4, #64]	@ 0x40
    3302:	077d      	lsls	r5, r7, #29
    3304:	8582      	strh	r2, [r0, #44]	@ 0x2c
    3306:	615b      	str	r3, [r3, #20]
    3308:	0475      	lsls	r5, r6, #17
    330a:	377f      	adds	r7, #127	@ 0x7f
    330c:	3912      	subs	r1, #18
    330e:	10a3      	asrs	r3, r4, #2
    3310:	2ee0      	cmp	r6, #224	@ 0xe0
    3312:	000a      	movs	r2, r1
    3314:	008c      	lsls	r4, r1, #2
    3316:	0a07      	lsrs	r7, r0, #8
    3318:	4700      	bx	r0
    331a:	2462      	movs	r4, #98	@ 0x62
    331c:	08c2      	lsrs	r2, r0, #3
    331e:	09e0      	lsrs	r0, r4, #7
    3320:	2346      	movs	r3, #70	@ 0x46
    3322:	ff8c 6093 	vshr.u64	d6, d3, #52
    3326:	1434      	asrs	r4, r6, #16
    3328:	381f      	subs	r0, #31
    332a:	3942      	subs	r1, #66	@ 0x42
    332c:	f513 ff81 	bl	0xffd17232
    3330:	010a      	lsls	r2, r1, #4
    3332:	f3ed 5606 			@ <UNDEFINED> instruction: 0xf3ed5606
    3336:	9823      	ldr	r0, [sp, #140]	@ 0x8c
    3338:	0a85      	lsrs	r5, r0, #10
    333a:	ed00 0711 	stc	7, cr0, [r0, #-68]	@ 0xffffffbc
    333e:	2356      	movs	r3, #86	@ 0x56
    3340:	8598      	strh	r0, [r3, #44]	@ 0x2c
    3342:	030a      	lsls	r2, r1, #12
    3344:	2fed      	cmp	r7, #237	@ 0xed
    3346:	5607      	ldrsb	r7, [r0, r0]
    3348:	9823      	ldr	r0, [sp, #140]	@ 0x8c
    334a:	4685      	mov	sp, r0
    334c:	35a3      	adds	r5, #163	@ 0xa3
    334e:	ef20 e902 	vmla.i32	d14, d0, d2
    3352:	ed5d 076b 	ldcl	7, cr0, [sp, #-428]	@ 0xfffffe54
    3356:	e852 60f2 			@ <UNDEFINED> instruction: 0xe85260f2
    335a:	702d      	strb	r5, [r5, #0]
    335c:	d029      	beq.n	0x33b2
    335e:	821e      	strh	r6, [r3, #16]
    3360:	3460      	adds	r4, #96	@ 0x60
    3362:	f411 2515 	ands.w	r5, r1, #610304	@ 0x95000
    3366:	01eb      	lsls	r3, r5, #7
    3368:	25ed      	movs	r5, #237	@ 0xed
    336a:	4608      	mov	r0, r1
    336c:	a013      	add	r0, pc, #76	@ (adr r0, 0x33bc)
    336e:	7e5e      	ldrb	r6, [r3, #25]
    3370:	a5e8      	add	r5, pc, #928	@ (adr r5, 0x3714)
    3372:	0ccf      	lsrs	r7, r1, #19
    3374:	cf10      	ldmia	r7!, {r4}
    3376:	7ff0      	ldrb	r0, [r6, #31]
    3378:	e5fc      	b.n	0x2f74
    337a:	714f      	strb	r7, [r1, #5]
    337c:	4604      	mov	r4, r0
    337e:	0a20      	lsrs	r0, r4, #8
    3380:	4701      	bx	r0
    3382:	15e3      	asrs	r3, r4, #23
    3384:	21de      	movs	r1, #222	@ 0xde
    3386:	e280      	b.n	0x388a
    3388:	e09c      	b.n	0x34c4
    338a:	60f2      	str	r2, [r6, #12]
    338c:	702c      	strb	r4, [r5, #0]
    338e:	6028      	str	r0, [r5, #0]
    3390:	0c34      	lsrs	r4, r6, #16
    3392:	c91e      	ldmia	r1, {r1, r2, r3, r4}
    3394:	e374      	b.n	0x3a80
    3396:	b414      	push	{r2, r4}
    3398:	6946      	ldr	r6, [r0, #20]
    339a:	56a6      	ldrsb	r6, [r4, r2]
    339c:	877b      	strh	r3, [r7, #58]	@ 0x3a
    339e:	00fa      	lsls	r2, r7, #3
    33a0:	a3a2      	add	r3, pc, #648	@ (adr r3, 0x362c)
    33a2:	876c      	strh	r4, [r5, #58]	@ 0x3a
    33a4:	28a2      	cmp	r0, #162	@ 0xa2
    33a6:	c14a      	stmia	r1!, {r1, r3, r6}
    33a8:	f11f 231f 	adds.w	r3, pc, #520101632	@ 0x1f001f00
    33ac:	1b93      	subs	r3, r2, r6
    33ae:	ed34 06f3 	ldc	6, cr0, [r4, #-972]!	@ 0xfffffc34
    33b2:	2346      	movs	r3, #70	@ 0x46
    33b4:	8488      	strh	r0, [r1, #36]	@ 0x24
    33b6:	18d2      	adds	r2, r2, r3
    33b8:	32b0      	adds	r2, #176	@ 0xb0
    33ba:	010a      	lsls	r2, r1, #4
    33bc:	a447      	add	r4, pc, #284	@ (adr r4, 0x34dc)
    33be:	7ff0      	ldrb	r0, [r6, #31]
    33c0:	0a54      	lsrs	r4, r2, #9
    33c2:	4700      	bx	r0
    33c4:	4996      	ldr	r1, [pc, #600]	@ (0x3620)
    33c6:	ed21 4241 	sfm	f4, 4, [r1, #-260]!	@ 0xfffffefc
    33ca:	2646      	movs	r6, #70	@ 0x46
    33cc:	8488      	strh	r0, [r1, #36]	@ 0x24
    33ce:	10a2      	asrs	r2, r4, #2
    33d0:	7470      	strb	r0, [r6, #17]
    33d2:	d546      	bpl.n	0x3462
    33d4:	fff8 3ed1 			@ <UNDEFINED> instruction: 0xfff83ed1
    33d8:	606f      	str	r7, [r5, #4]
    33da:	8274      	strh	r4, [r6, #18]
    33dc:	d848      	bhi.n	0x3470
    33de:	b008      	add	sp, #32
    33e0:	7460      	strb	r0, [r4, #17]
    33e2:	9547      	str	r5, [sp, #284]	@ 0x11c
    33e4:	1ce9      	adds	r1, r5, #3
    33e6:	f3ed 4606 			@ <UNDEFINED> instruction: 0xf3ed4606
    33ea:	8827      	ldrh	r7, [r4, #0]
    33ec:	d284      	bcs.n	0x32f8
    33ee:	2118      	movs	r1, #24
    33f0:	460d      	mov	r5, r1
    33f2:	35a3      	adds	r5, #163	@ 0xa3
    33f4:	ef20 6bed 	vqdmulh.s32	q3, q8, <illegal reg q14.5>
    33f8:	5207      	strh	r7, [r0, r0]
    33fa:	61e8      	str	r0, [r5, #28]
    33fc:	5a74      	ldrh	r4, [r6, r1]
    33fe:	f203 bede 	b.w	0x2071be
    3402:	2076      	movs	r0, #118	@ 0x76
    3404:	0e85      	lsrs	r5, r0, #26
    3406:	8582      	strh	r2, [r0, #44]	@ 0x2c
    3408:	63bb      	str	r3, [r7, #56]	@ 0x38
    340a:	5a34      	ldrh	r4, [r6, r0]
    340c:	f203 bede 	b.w	0x2071cc
    3410:	2076      	movs	r0, #118	@ 0x76
    3412:	a685      	add	r6, pc, #532	@ (adr r6, 0x3628)
    3414:	4602      	mov	r2, r0
    3416:	35a7      	adds	r5, #167	@ 0xa7
    3418:	ef20 6bed 	vqdmulh.s32	q3, q8, <illegal reg q14.5>
    341c:	5207      	strh	r7, [r0, r0]
    341e:	2868      	cmp	r0, #104	@ 0x68
    3420:	2230      	movs	r2, #48	@ 0x30
    3422:	a339      	add	r3, pc, #228	@ (adr r3, 0x3508)
    3424:	e010      	b.n	0x3448
    3426:	0a2e      	lsrs	r6, r5, #8
    3428:	8c00      	ldrh	r0, [r0, #32]
    342a:	5c00      	ldrb	r0, [r0, r0]
    342c:	697e      	ldr	r6, [r7, #20]
    342e:	5a74      	ldrh	r4, [r6, r1]
    3430:	f203 5ede 	addw	lr, r3, #1502	@ 0x5de
    3434:	207c      	movs	r0, #124	@ 0x7c
    3436:	0e85      	lsrs	r5, r0, #26
    3438:	8582      	strh	r2, [r0, #44]	@ 0x2c
    343a:	627b      	str	r3, [r7, #36]	@ 0x24
    343c:	46b6      	mov	lr, r6
    343e:	35a7      	adds	r5, #167	@ 0xa7
    3440:	ef20 c5ed 	vrshl.s32	q6, <illegal reg q14.5>, q8
    3444:	5207      	strh	r7, [r0, r0]
    3446:	2868      	cmp	r0, #104	@ 0x68
    3448:	2230      	movs	r2, #48	@ 0x30
    344a:	a339      	add	r3, pc, #228	@ (adr r3, 0x3530)
    344c:	e010      	b.n	0x3470
    344e:	0a2e      	lsrs	r6, r5, #8
    3450:	8c00      	ldrh	r0, [r0, #32]
    3452:	0c00      	lsrs	r0, r0, #16
    3454:	000a      	movs	r2, r1
    3456:	9447      	str	r4, [sp, #284]	@ 0x11c
    3458:	0fa9      	lsrs	r1, r5, #30
    345a:	f3ed 4606 			@ <UNDEFINED> instruction: 0xf3ed4606
    345e:	8827      	ldrh	r7, [r4, #0]
    3460:	d284      	bcs.n	0x336c
    3462:	0128      	lsls	r0, r5, #4
    3464:	460d      	mov	r5, r1
    3466:	35a3      	adds	r5, #163	@ 0xa3
    3468:	ef20 6bed 	vqdmulh.s32	q3, q8, <illegal reg q14.5>
    346c:	5207      	strh	r7, [r0, r0]
    346e:	61e8      	str	r0, [r5, #28]
    3470:	5a74      	ldrh	r4, [r6, r1]
    3472:	f203 bede 	b.w	0x207232
    3476:	2076      	movs	r0, #118	@ 0x76
    3478:	0e85      	lsrs	r5, r0, #26
    347a:	8582      	strh	r2, [r0, #44]	@ 0x2c
    347c:	63bb      	str	r3, [r7, #56]	@ 0x38
    347e:	5a34      	ldrh	r4, [r6, r0]
    3480:	f203 bede 	b.w	0x207240
    3484:	2076      	movs	r0, #118	@ 0x76
    3486:	a685      	add	r6, pc, #532	@ (adr r6, 0x369c)
    3488:	4602      	mov	r2, r0
    348a:	35a7      	adds	r5, #167	@ 0xa7
    348c:	ef20 6bed 	vqdmulh.s32	q3, q8, <illegal reg q14.5>
    3490:	5207      	strh	r7, [r0, r0]
    3492:	2868      	cmp	r0, #104	@ 0x68
    3494:	2230      	movs	r2, #48	@ 0x30
    3496:	a339      	add	r3, pc, #228	@ (adr r3, 0x357c)
    3498:	e010      	b.n	0x34bc
    349a:	0a2e      	lsrs	r6, r5, #8
    349c:	8c00      	ldrh	r0, [r0, #32]
    349e:	5a00      	ldrh	r0, [r0, r0]
    34a0:	697e      	ldr	r6, [r7, #20]
    34a2:	5a74      	ldrh	r4, [r6, r1]
    34a4:	f203 5ede 	addw	lr, r3, #1502	@ 0x5de
    34a8:	207c      	movs	r0, #124	@ 0x7c
    34aa:	0e85      	lsrs	r5, r0, #26
    34ac:	8582      	strh	r2, [r0, #44]	@ 0x2c
    34ae:	627b      	str	r3, [r7, #36]	@ 0x24
    34b0:	46b6      	mov	lr, r6
    34b2:	35a7      	adds	r5, #167	@ 0xa7
    34b4:	ef20 c5ed 	vrshl.s32	q6, <illegal reg q14.5>, q8
    34b8:	5207      	strh	r7, [r0, r0]
    34ba:	2868      	cmp	r0, #104	@ 0x68
    34bc:	2230      	movs	r2, #48	@ 0x30
    34be:	a339      	add	r3, pc, #228	@ (adr r3, 0x35a4)
    34c0:	e010      	b.n	0x34e4
    34c2:	0a2e      	lsrs	r6, r5, #8
    34c4:	8c00      	ldrh	r0, [r0, #32]
    34c6:	0a00      	lsrs	r0, r0, #8
    34c8:	7746      	strb	r6, [r0, #29]
    34ca:	9854      	ldr	r0, [sp, #336]	@ 0x150
    34cc:	4614      	mov	r4, r2
    34ce:	1086      	asrs	r6, r0, #2
    34d0:	460d      	mov	r5, r1
    34d2:	b0c6      	sub	sp, #280	@ 0x118
    34d4:	0d91      	lsrs	r1, r2, #22
    34d6:	46de      	mov	lr, fp
    34d8:	8c24      	ldrh	r4, [r4, #32]
    34da:	e600      	b.n	0x30de
    34dc:	5460      	strb	r0, [r4, r1]
    34de:	f8c2 0dbf 	str.w	r0, [r2, #3519]	@ 0xdbf
    34e2:	4546      	cmp	r6, r8
    34e4:	81f1      	strh	r1, [r6, #14]
    34e6:	9423      	str	r4, [sp, #140]	@ 0x8c
    34e8:	5133      	str	r3, [r6, r4]
    34ea:	f81f 10af 	ldrb.w	r1, [pc, #-175]	@ 0x343d
    34ee:	3ed1      	subs	r6, #209	@ 0xd1
    34f0:	606f      	str	r7, [r5, #4]
    34f2:	8255      	strh	r5, [r2, #18]
    34f4:	a859      	add	r0, sp, #356	@ 0x164
    34f6:	d000      	beq.n	0x34fa
    34f8:	711e      	strb	r6, [r3, #4]
    34fa:	5560      	strb	r0, [r4, r5]
    34fc:	5982      	ldr	r2, [r0, r6]
    34fe:	30a8      	adds	r0, #168	@ 0xa8
    3500:	fed0 6072 	mrc2	0, 6, r6, cr0, cr2, {3}
    3504:	8255      	strh	r5, [r2, #18]
    3506:	6859      	ldr	r1, [r3, #4]
    3508:	ed04 074d 	stc	7, cr0, [r4, #-308]	@ 0xfffffecc
    350c:	2556      	movs	r5, #86	@ 0x56
    350e:	8598      	strh	r0, [r3, #44]	@ 0x2c
    3510:	a546      	add	r5, pc, #280	@ (adr r5, 0x362c)
    3512:	2035      	movs	r0, #53	@ 0x35
    3514:	82ef      	strh	r7, [r5, #22]
    3516:	3461      	adds	r4, #97	@ 0x61
    3518:	035a      	lsls	r2, r3, #13
    351a:	def2      	udf	#242	@ 0xf2
    351c:	76bf      	strb	r7, [r7, #26]
    351e:	9520      	str	r5, [sp, #128]	@ 0x80
    3520:	6bed      	ldr	r5, [r5, #60]	@ 0x3c
    3522:	5207      	strh	r7, [r0, r0]
    3524:	f2ea 2d60 			@ <UNDEFINED> instruction: 0xf2ea2d60
    3528:	2970      	cmp	r1, #112	@ 0x70
    352a:	5460      	strb	r0, [r4, r1]
    352c:	035a      	lsls	r2, r3, #13
    352e:	2ef2      	cmp	r6, #242	@ 0xf2
    3530:	e290      	b.n	0x3a54
    3532:	d09d      	beq.n	0x3470
    3534:	7c5e      	ldrb	r6, [r3, #17]
    3536:	8520      	strh	r0, [r4, #40]	@ 0x28
    3538:	0f2e      	lsrs	r6, r5, #28
    353a:	02d6      	lsls	r6, r2, #11
    353c:	0297      	lsls	r7, r2, #10
    353e:	21ed      	movs	r1, #237	@ 0xed
    3540:	4608      	mov	r0, r1
    3542:	4015      	ands	r5, r2
    3544:	5141      	str	r1, [r0, r5]
    3546:	1eb2      	subs	r2, r6, #2
    3548:	5ed0      	ldrsh	r0, [r2, r3]
    354a:	6082      	str	r2, [r0, #8]
    354c:	1154      	asrs	r4, r2, #5
    354e:	e409      	b.n	0x2d64
    3550:	5ec7      	ldrsh	r7, [r0, r3]
    3552:	0cfe      	lsrs	r6, r7, #19
    3554:	f101 fadf 	bl	0x104b16
    3558:	4f47      	ldr	r7, [pc, #284]	@ (0x3678)
    355a:	0471      	lsls	r1, r6, #17
    355c:	2046      	movs	r0, #70	@ 0x46
    355e:	010a      	lsls	r2, r1, #4
    3560:	6347      	str	r7, [r0, #52]	@ 0x34
    3562:	0c34      	lsrs	r4, r6, #16
    3564:	c91e      	ldmia	r1, {r1, r2, r3, r4}
    3566:	d0ab      	beq.n	0x34c0
    3568:	6f3e      	ldr	r6, [r7, #112]	@ 0x70
    356a:	3460      	adds	r4, #96	@ 0x60
    356c:	4882      	ldr	r0, [pc, #520]	@ (0x3778)
    356e:	8d28      	ldrh	r0, [r5, #40]	@ 0x28
    3570:	9511      	str	r5, [sp, #68]	@ 0x44
    3572:	14e0      	asrs	r0, r4, #19
    3574:	c184      	stmia	r1!, {r2, r7}
    3576:	561f      	ldrsb	r7, [r3, r0]
    3578:	1230      	asrs	r0, r6, #8
    357a:	81b9      	strh	r1, [r7, #12]
    357c:	3460      	adds	r4, #96	@ 0x60
    357e:	1f14      	subs	r4, r2, #4
    3580:	4238      	tst	r0, r7
    3582:	1339      	asrs	r1, r7, #12
    3584:	81f5      	strh	r5, [r6, #14]
    3586:	0aff      	lsrs	r7, r7, #11
    3588:	ed12 06f3 	ldc	6, cr0, [r2, #-972]	@ 0xfffffc34
    358c:	2356      	movs	r3, #86	@ 0x56
    358e:	8598      	strh	r0, [r3, #44]	@ 0x2c
    3590:	21ed      	movs	r1, #237	@ 0xed
    3592:	4608      	mov	r0, r1
    3594:	e013      	b.n	0x35be
    3596:	c23f      	stmia	r2!, {r0, r1, r2, r3, r4, r5}
    3598:	8217      	strh	r7, [r2, #16]
    359a:	6c20      	ldr	r0, [r4, #64]	@ 0x40
    359c:	0823      	lsrs	r3, r4, #32
    359e:	3863      	subs	r0, #99	@ 0x63
    35a0:	ccd6      	ldmia	r4, {r1, r2, r4, r6, r7}
    35a2:	0000      	movs	r0, r0
    35a4:	a319      	add	r3, pc, #100	@ (adr r3, 0x360c)
    35a6:	e010      	b.n	0x35ca
    35a8:	0a2e      	lsrs	r6, r5, #8
    35aa:	0500      	lsls	r0, r0, #20
    35ac:	deb2      	udf	#178	@ 0xb2
    35ae:	825e      	strh	r6, [r3, #18]
    35b0:	3460      	adds	r4, #96	@ 0x60
    35b2:	e011      	b.n	0x35d8
    35b4:	0463      	lsls	r3, r4, #17
    35b6:	0911      	lsrs	r1, r2, #4
    35b8:	0468      	lsls	r0, r5, #17
    35ba:	9c21      	ldr	r4, [sp, #132]	@ 0x84
    35bc:	7ee0      	ldrb	r0, [r4, #27]
    35be:	6df4      	ldr	r4, [r6, #92]	@ 0x5c
    35c0:	cf10      	ldmia	r7!, {r4}
    35c2:	7ff5      	ldrb	r5, [r6, #31]
    35c4:	06f9      	lsls	r1, r7, #27
    35c6:	a24f      	add	r2, pc, #316	@ (adr r2, 0x3704)
    35c8:	7000      	strb	r0, [r0, #0]
    35ca:	c244      	stmia	r2!, {r2, r6}
    35cc:	8257      	strh	r7, [r2, #18]
    35ce:	6c20      	ldr	r0, [r4, #64]	@ 0x40
    35d0:	0827      	lsrs	r7, r4, #32
    35d2:	3863      	subs	r0, #99	@ 0x63
    35d4:	ccd6      	ldmia	r4, {r1, r2, r4, r6, r7}
    35d6:	0000      	movs	r0, r0
    35d8:	94a9      	str	r4, [sp, #676]	@ 0x2a4
    35da:	f512 ff81 	bl	0xffd164e0
    35de:	2904      	cmp	r1, #4
    35e0:	2588      	movs	r5, #136	@ 0x88
    35e2:	ed05 0825 	stc	8, cr0, [r5, #-148]	@ 0xffffff6c
    35e6:	e852 76f0 			@ <UNDEFINED> instruction: 0xe85276f0
    35ea:	c76e      	stmia	r7!, {r1, r2, r3, r5, r6}
    35ec:	000c      	movs	r4, r1
    35ee:	aa90      	add	r2, sp, #576	@ 0x240
    35f0:	6e22      	ldr	r2, [r4, #96]	@ 0x60
    35f2:	7c27      	ldrb	r7, [r4, #16]
    35f4:	082b      	lsrs	r3, r5, #32
    35f6:	3873      	subs	r0, #115	@ 0x73
    35f8:	ccd7      	ldmia	r4, {r0, r1, r2, r4, r6, r7}
    35fa:	0000      	movs	r0, r0
    35fc:	89a9      	ldrh	r1, [r5, #12]
    35fe:	76e1      	strb	r1, [r4, #27]
    3600:	b7c2      			@ <UNDEFINED> instruction: 0xb7c2
    3602:	3082      	adds	r0, #130	@ 0x82
    3604:	a38a      	add	r3, pc, #552	@ (adr r3, 0x3830)
    3606:	76fd      	strb	r5, [r7, #27]
    3608:	9ed3      	ldr	r6, [sp, #844]	@ 0x34c
    360a:	0082      	lsls	r2, r0, #2
    360c:	4080      	lsls	r0, r0
    360e:	82a0      	strh	r0, [r4, #20]
    3610:	44fe      	add	lr, pc
    3612:	82a0      	strh	r0, [r4, #20]
    3614:	1080      	asrs	r0, r0, #2
    3616:	d547      	bpl.n	0x36a8
    3618:	6f3e      	ldr	r6, [r7, #112]	@ 0x70
    361a:	5460      	strb	r0, [r4, r1]
    361c:	4882      	ldr	r0, [pc, #520]	@ (0x3828)
    361e:	6478      	str	r0, [r7, #68]	@ 0x44
    3620:	25ed      	movs	r5, #237	@ 0xed
    3622:	4608      	mov	r0, r1
    3624:	e015      	b.n	0x3652
    3626:	4636      	mov	r6, r6
    3628:	18d6      	adds	r6, r2, r3
    362a:	d721      	bvc.n	0x3670
    362c:	74de      	strb	r6, [r3, #19]
    362e:	5460      	strb	r0, [r4, r1]
    3630:	4882      	ldr	r0, [pc, #520]	@ (0x383c)
    3632:	24e8      	movs	r4, #232	@ 0xe8
    3634:	4685      	mov	sp, r0
    3636:	1085      	asrs	r5, r0, #2
    3638:	a081      	add	r0, pc, #516	@ (adr r0, 0x3840)
    363a:	504e      	str	r6, [r1, r1]
    363c:	5468      	strb	r0, [r5, r1]
    363e:	035a      	lsls	r2, r3, #13
    3640:	def2      	udf	#242	@ 0xf2
    3642:	7c5e      	ldrb	r6, [r3, #17]
    3644:	8520      	strh	r0, [r4, #40]	@ 0x28
    3646:	4e84      	ldr	r6, [pc, #528]	@ (0x3858)
    3648:	1870      	adds	r0, r6, r1
    364a:	5460      	strb	r0, [r4, r1]
    364c:	035a      	lsls	r2, r3, #13
    364e:	def2      	udf	#242	@ 0xf2
    3650:	7c5e      	ldrb	r6, [r3, #17]
    3652:	8520      	strh	r0, [r4, #40]	@ 0x28
    3654:	e1ce      	b.n	0x39f4
    3656:	04e0      	lsls	r0, r4, #19
    3658:	f2ce 5460 	movt	r4, #58720	@ 0xe560
    365c:	1f05      	subs	r5, r0, #4
    365e:	10a8      	asrs	r0, r5, #2
    3660:	4470      	add	r0, lr
    3662:	ec99 6460 	cfldrs	mvf6, [r9], {96}	@ 0x60
    3666:	138d      	asrs	r5, r1, #14
    3668:	4644      	mov	r4, r8
    366a:	1085      	asrs	r5, r0, #2
    366c:	524e      	strh	r6, [r1, r1]
    366e:	24e8      	movs	r4, #232	@ 0xe8
    3670:	8184      	strh	r4, [r0, #12]
    3672:	4ee0      	ldr	r6, [pc, #896]	@ (0x39f4)
    3674:	a850      	add	r0, sp, #320	@ 0x140
    3676:	e000      	b.n	0x367a
    3678:	8704      	strh	r4, [r0, #56]	@ 0x38
    367a:	c001      	stmia	r0!, {r0}
    367c:	4e00      	ldr	r6, [pc, #0]	@ (0x3680)
    367e:	2ce0      	cmp	r4, #224	@ 0xe0
    3680:	460f      	mov	r7, r1
    3682:	f055 0a81 	orrs.w	sl, r5, #129	@ 0x81
    3686:	4701      	bx	r0
    3688:	f994 4609 	ldrsb.w	r4, [r4, #1545]	@ 0x609
    368c:	18d6      	adds	r6, r2, r3
    368e:	a670      	add	r6, pc, #448	@ (adr r6, 0x3850)
    3690:	e1f0      	b.n	0x3a74
    3692:	8524      	strh	r4, [r4, #40]	@ 0x28
    3694:	8546      	strh	r6, [r0, #42]	@ 0x2a
    3696:	8110      	strh	r0, [r2, #8]
    3698:	4e60      	ldr	r6, [pc, #384]	@ (0x381c)
    369a:	6850      	ldr	r0, [r2, #4]
    369c:	5a54      	ldrh	r4, [r2, r1]
    369e:	f203 bede 	b.w	0x20745e
    36a2:	2076      	movs	r0, #118	@ 0x76
    36a4:	8485      	strh	r5, [r0, #36]	@ 0x24
    36a6:	704e      	strb	r6, [r1, #1]
    36a8:	6018      	str	r0, [r3, #0]
    36aa:	5a54      	ldrh	r4, [r2, r1]
    36ac:	f203 bede 	b.w	0x20746c
    36b0:	2076      	movs	r0, #118	@ 0x76
    36b2:	ce85      	ldmia	r6!, {r0, r2, r7}
    36b4:	e0e1      	b.n	0x387a
    36b6:	ce04      	ldmia	r6!, {r2}
    36b8:	60f2      	str	r2, [r6, #12]
    36ba:	0554      	lsls	r4, r2, #21
    36bc:	a81f      	add	r0, sp, #124	@ 0x7c
    36be:	7010      	strb	r0, [r2, #0]
    36c0:	9844      	ldr	r0, [sp, #272]	@ 0x110
    36c2:	042f      	lsls	r7, r5, #16
    36c4:	882a      	ldrh	r2, [r5, #0]
    36c6:	0d10      	lsrs	r0, r2, #20
    36c8:	b6c2      			@ <UNDEFINED> instruction: 0xb6c2
    36ca:	2082      	movs	r0, #130	@ 0x82
    36cc:	2b7c      	cmp	r3, #124	@ 0x7c
    36ce:	5208      	strh	r0, [r1, r0]
    36d0:	2492      	movs	r4, #146	@ 0x92
    36d2:	2b6c      	cmp	r3, #108	@ 0x6c
    36d4:	cc08      	ldmia	r4!, {r3}
    36d6:	0000      	movs	r0, r0
    36d8:	2db9      	cmp	r5, #185	@ 0xb9
    36da:	446e      	add	r6, sp
    36dc:	008c      	lsls	r4, r1, #2
    36de:	504e      	str	r6, [r1, r1]
    36e0:	f82a 2d80 	strh.w	r2, [sl, #-128]!
    36e4:	9042      	str	r0, [sp, #264]	@ 0x108
    36e6:	a382      	add	r3, pc, #520	@ (adr r3, 0x38f0)
    36e8:	d010      	beq.n	0x370c
    36ea:	a510      	add	r5, pc, #64	@ (adr r5, 0x372c)
    36ec:	0082      	lsls	r2, r0, #2
    36ee:	01c0      	lsls	r0, r0, #7
    36f0:	b6d2      			@ <UNDEFINED> instruction: 0xb6d2
    36f2:	8082      	strh	r2, [r0, #4]
    36f4:	45e9      	cmp	r9, sp
    36f6:	82a0      	strh	r0, [r4, #20]
    36f8:	d108      	bne.n	0x370c
    36fa:	6c20      	ldr	r0, [r4, #64]	@ 0x40
    36fc:	082b      	lsrs	r3, r5, #32
    36fe:	b7c2      			@ <UNDEFINED> instruction: 0xb7c2
    3700:	2082      	movs	r0, #130	@ 0x82
    3702:	4925      	ldr	r1, [pc, #148]	@ (0x3798)
    3704:	3d98      	subs	r5, #152	@ 0x98
    3706:	2904      	cmp	r1, #4
    3708:	0a38      	lsrs	r0, r7, #8
    370a:	0d01      	lsrs	r1, r0, #20
    370c:	2a51      	cmp	r2, #81	@ 0x51
    370e:	0008      	movs	r0, r1
    3710:	201c      	movs	r0, #28
    3712:	2b6d      	cmp	r3, #109	@ 0x6d
    3714:	c208      	stmia	r2!, {r3}
    3716:	8257      	strh	r7, [r2, #18]
    3718:	6c20      	ldr	r0, [r4, #64]	@ 0x40
    371a:	0827      	lsrs	r7, r4, #32
    371c:	3863      	subs	r0, #99	@ 0x63
    371e:	ccd6      	ldmia	r4, {r1, r2, r4, r6, r7}
    3720:	0000      	movs	r0, r0
    3722:	73b9      	strb	r1, [r7, #14]
    3724:	446d      	add	r5, sp
    3726:	f97e 00bc 	ldr??.w	r0, [lr, ip, lsl #3]
    372a:	d3f1      	bcc.n	0x3710
    372c:	81fd      	strh	r5, [r7, #14]
    372e:	1ff0      	subs	r0, r6, #7
    3730:	ed16 072f 	ldc	7, cr0, [r6, #-188]	@ 0xffffff44
    3734:	1f04      	subs	r4, r0, #4
    3736:	8828      	ldrh	r0, [r5, #0]
    3738:	0c84      	lsrs	r4, r0, #18
    373a:	3200      	adds	r2, #0
    373c:	1403      	asrs	r3, r0, #16
    373e:	2fed      	cmp	r7, #237	@ 0xed
    3740:	0407      	lsls	r7, r0, #16
    3742:	281f      	cmp	r0, #31
    3744:	8488      	strh	r0, [r1, #36]	@ 0x24
    3746:	10a2      	asrs	r2, r4, #2
    3748:	fed0 4072 	mrc2	0, 6, r4, cr0, cr2, {3}
    374c:	81f1      	strh	r1, [r6, #14]
    374e:	5982      	ldr	r2, [r0, r6]
    3750:	3ed8      	subs	r6, #216	@ 0xd8
    3752:	406f      	eors	r7, r5
    3754:	81f0      	strh	r0, [r6, #14]
    3756:	4882      	ldr	r0, [pc, #520]	@ (0x3960)
    3758:	18d8      	adds	r0, r3, r3
    375a:	d4b0      	bmi.n	0x36be
    375c:	72fe      	strb	r6, [r7, #11]
    375e:	f040 8281 	bne.w	0x3c64
    3762:	c848      	ldmia	r0!, {r3, r6}
    3764:	2000      	movs	r0, #0
    3766:	1932      	adds	r2, r6, r4
    3768:	0a0a      	lsrs	r2, r1, #8
    376a:	11ed      	asrs	r5, r5, #7
    376c:	1407      	asrs	r7, r0, #16
    376e:	281f      	cmp	r0, #31
    3770:	8598      	strh	r0, [r3, #44]	@ 0x2c
    3772:	d399      	bcc.n	0x36a8
    3774:	e0a0      	b.n	0x38b8
    3776:	1ed6      	subs	r6, r2, #3
    3778:	4071      	eors	r1, r6
    377a:	81f1      	strh	r1, [r6, #14]
    377c:	5982      	ldr	r2, [r0, r6]
    377e:	a998      	add	r1, sp, #608	@ 0x260
    3780:	ed0b 06f3 	stc	6, cr0, [fp, #-972]	@ 0xfffffc34
    3784:	1f04      	subs	r4, r0, #4
    3786:	8828      	ldrh	r0, [r5, #0]
    3788:	8d84      	ldrh	r4, [r0, #44]	@ 0x2c
    378a:	4911      	ldr	r1, [pc, #68]	@ (0x37d0)
    378c:	2fed      	cmp	r7, #237	@ 0xed
    378e:	0407      	lsls	r7, r0, #16
    3790:	281f      	cmp	r0, #31
    3792:	8488      	strh	r0, [r1, #36]	@ 0x24
    3794:	000c      	movs	r4, r1
    3796:	8322      	strh	r2, [r4, #24]
    3798:	a0a1      	add	r0, pc, #644	@ (adr r0, 0x3a20)
    379a:	1ed0      	subs	r0, r2, #3
    379c:	4071      	eors	r1, r6
    379e:	81f1      	strh	r1, [r6, #14]
    37a0:	5982      	ldr	r2, [r0, r6]
    37a2:	3988      	subs	r1, #136	@ 0x88
    37a4:	40a7      	lsls	r7, r4
    37a6:	1ed1      	subs	r1, r2, #3
    37a8:	4071      	eors	r1, r6
    37aa:	81f1      	strh	r1, [r6, #14]
    37ac:	5982      	ldr	r2, [r0, r6]
    37ae:	b988      	cbnz	r0, 0x37d4
    37b0:	3ed5      	subs	r6, #213	@ 0xd5
    37b2:	406f      	eors	r7, r5
    37b4:	81f0      	strh	r0, [r6, #14]
    37b6:	4882      	ldr	r0, [pc, #520]	@ (0x39c0)
    37b8:	38d8      	subs	r0, #216	@ 0xd8
    37ba:	d451      	bmi.n	0x3860
    37bc:	72fe      	strb	r6, [r7, #11]
    37be:	f040 8281 	bne.w	0x3cc4
    37c2:	c848      	ldmia	r0!, {r3, r6}
    37c4:	2000      	movs	r0, #0
    37c6:	1832      	adds	r2, r6, r0
    37c8:	0a0a      	lsrs	r2, r1, #8
    37ca:	11ed      	asrs	r5, r5, #7
    37cc:	1407      	asrs	r7, r0, #16
    37ce:	281f      	cmp	r0, #31
    37d0:	8598      	strh	r0, [r3, #44]	@ 0x2c
    37d2:	1498      	asrs	r0, r3, #18
    37d4:	0a0a      	lsrs	r2, r1, #8
    37d6:	11ed      	asrs	r5, r5, #7
    37d8:	1407      	asrs	r7, r0, #16
    37da:	281f      	cmp	r0, #31
    37dc:	8598      	strh	r0, [r3, #44]	@ 0x2c
    37de:	1f51      	subs	r1, r2, #5
    37e0:	0ff8      	lsrs	r0, r7, #31
    37e2:	dff1      	svc	241	@ 0xf1
    37e4:	17fd      	asrs	r5, r7, #31
    37e6:	000a      	movs	r2, r1
    37e8:	9047      	str	r0, [sp, #284]	@ 0x11c
    37ea:	27f9      	movs	r7, #249	@ 0xf9
    37ec:	11ed      	asrs	r5, r5, #7
    37ee:	4607      	mov	r7, r0
    37f0:	8820      	ldrh	r0, [r4, #0]
    37f2:	0c84      	lsrs	r4, r0, #18
    37f4:	3200      	adds	r2, #0
    37f6:	25f3      	movs	r5, #243	@ 0xf3
    37f8:	11ed      	asrs	r5, r5, #7
    37fa:	4607      	mov	r7, r0
    37fc:	8820      	ldrh	r0, [r4, #0]
    37fe:	a284      	add	r2, pc, #528	@ (adr r2, 0x3a10)
    3800:	d010      	beq.n	0x3824
    3802:	711e      	strb	r6, [r3, #4]
    3804:	0560      	lsls	r0, r4, #21
    3806:	5982      	ldr	r2, [r0, r6]
    3808:	1ed8      	subs	r0, r3, #3
    380a:	6071      	str	r1, [r6, #4]
    380c:	8204      	strh	r4, [r0, #16]
    380e:	2848      	cmp	r0, #72	@ 0x48
    3810:	008d      	lsls	r5, r1, #2
    3812:	d228      	bcs.n	0x3866
    3814:	6f3e      	ldr	r6, [r7, #112]	@ 0x70
    3816:	0460      	lsls	r0, r4, #17
    3818:	4882      	ldr	r0, [pc, #520]	@ (0x3a24)
    381a:	18d8      	adds	r0, r3, r3
    381c:	d650      	bvs.n	0x38c0
    381e:	72fe      	strb	r6, [r7, #11]
    3820:	0460      	lsls	r0, r4, #17
    3822:	4882      	ldr	r0, [pc, #520]	@ (0x3a2c)
    3824:	08d8      	lsrs	r0, r3, #3
    3826:	63e0      	str	r0, [r4, #60]	@ 0x3c
    3828:	1404      	asrs	r4, r0, #16
    382a:	381f      	subs	r0, #31
    382c:	3942      	subs	r1, #66	@ 0x42
    382e:	f513 ff81 	bl	0xffd17734
    3832:	020a      	lsls	r2, r1, #8
    3834:	f3ed 5606 			@ <UNDEFINED> instruction: 0xf3ed5606
    3838:	9820      	ldr	r0, [sp, #128]	@ 0x80
    383a:	0a85      	lsrs	r5, r0, #10
    383c:	ed0a 0711 	stc	7, cr0, [sl, #-68]	@ 0xffffffbc
    3840:	2056      	movs	r0, #86	@ 0x56
    3842:	8598      	strh	r0, [r3, #44]	@ 0x2c
    3844:	c299      	stmia	r2!, {r0, r3, r4, r7}
    3846:	5ed1      	ldrsh	r1, [r2, r3]
    3848:	6082      	str	r2, [r0, #8]
    384a:	1104      	asrs	r4, r0, #4
    384c:	910b      	str	r1, [sp, #44]	@ 0x2c
    384e:	1af9      	subs	r1, r7, r3
    3850:	f3ed 4606 			@ <UNDEFINED> instruction: 0xf3ed4606
    3854:	8820      	ldrh	r0, [r4, #0]
    3856:	8d84      	ldrh	r4, [r0, #44]	@ 0x2c
    3858:	6702      	str	r2, [r0, #112]	@ 0x70
    385a:	4046      	eors	r6, r0
    385c:	81f1      	strh	r1, [r6, #14]
    385e:	9423      	str	r4, [sp, #140]	@ 0x8c
    3860:	5133      	str	r3, [r6, r4]
    3862:	f81f 00af 	ldrb.w	r0, [pc, #-175]	@ 0x37b5
    3866:	3ed0      	subs	r6, #208	@ 0xd0
    3868:	606f      	str	r7, [r5, #4]
    386a:	8205      	strh	r5, [r0, #16]
    386c:	d859      	bhi.n	0x3922
    386e:	821e      	strh	r6, [r3, #16]
    3870:	0460      	lsls	r0, r4, #17
    3872:	2011      	movs	r0, #17
    3874:	7c21      	ldrb	r1, [r4, #16]
    3876:	0821      	lsrs	r1, r4, #32
    3878:	36c2      	adds	r6, #194	@ 0xc2
    387a:	3082      	adds	r0, #130	@ 0x82
    387c:	6386      	str	r6, [r0, #56]	@ 0x38
    387e:	0ccd      	lsrs	r5, r1, #19
    3880:	9000      	str	r0, [sp, #0]
    3882:	0a31      	lsrs	r1, r6, #8
    3884:	ee01 00a2 	cdp	0, 0, cr0, cr1, cr2, {5}
    3888:	2050      	movs	r0, #80	@ 0x50
    388a:	99eb      	ldr	r1, [sp, #940]	@ 0x3ac
    388c:	d134      	bne.n	0x38f8
    388e:	6f3e      	ldr	r6, [r7, #112]	@ 0x70
    3890:	0460      	lsls	r0, r4, #17
    3892:	4882      	ldr	r0, [pc, #520]	@ (0x3a9c)
    3894:	18d8      	adds	r0, r3, r3
    3896:	d771      	bvc.n	0x397c
    3898:	72fe      	strb	r6, [r7, #11]
    389a:	0460      	lsls	r0, r4, #17
    389c:	4882      	ldr	r0, [pc, #520]	@ (0x3aa8)
    389e:	08d8      	lsrs	r0, r3, #3
    38a0:	6500      	str	r0, [r0, #80]	@ 0x50
    38a2:	1404      	asrs	r4, r0, #16
    38a4:	381f      	subs	r0, #31
    38a6:	3942      	subs	r1, #66	@ 0x42
    38a8:	f513 ff81 	bl	0xffd177ae
    38ac:	130a      	asrs	r2, r1, #12
    38ae:	f3ed 5606 			@ <UNDEFINED> instruction: 0xf3ed5606
    38b2:	9820      	ldr	r0, [sp, #128]	@ 0x80
    38b4:	0a85      	lsrs	r5, r0, #10
    38b6:	ed14 0711 	ldc	7, cr0, [r4, #-68]	@ 0xffffffbc
    38ba:	2056      	movs	r0, #86	@ 0x56
    38bc:	8598      	strh	r0, [r3, #44]	@ 0x2c
    38be:	030a      	lsls	r2, r1, #12
    38c0:	2fed      	cmp	r7, #237	@ 0xed
    38c2:	5607      	ldrsb	r7, [r0, r0]
    38c4:	9820      	ldr	r0, [sp, #128]	@ 0x80
    38c6:	9985      	ldr	r1, [sp, #532]	@ 0x214
    38c8:	d0bc      	beq.n	0x3844
    38ca:	825e      	strh	r6, [r3, #18]
    38cc:	0460      	lsls	r0, r4, #17
    38ce:	8811      	ldrh	r1, [r2, #0]
    38d0:	9990      	ldr	r1, [sp, #576]	@ 0x240
    38d2:	ed0a 06f3 	stc	6, cr0, [sl, #-972]	@ 0xfffffc34
    38d6:	2046      	movs	r0, #70	@ 0x46
    38d8:	8488      	strh	r0, [r1, #36]	@ 0x24
    38da:	38d2      	subs	r0, #210	@ 0xd2
    38dc:	0931      	lsrs	r1, r6, #4
    38de:	2fed      	cmp	r7, #237	@ 0xed
    38e0:	4607      	mov	r7, r0
    38e2:	8820      	ldrh	r0, [r4, #0]
    38e4:	8d84      	ldrh	r4, [r0, #44]	@ 0x2c
    38e6:	7100      	strb	r0, [r0, #4]
    38e8:	4046      	eors	r6, r0
    38ea:	81f1      	strh	r1, [r6, #14]
    38ec:	9423      	str	r4, [sp, #140]	@ 0x8c
    38ee:	5133      	str	r3, [r6, r4]
    38f0:	f81f 00af 	ldrb.w	r0, [pc, #-175]	@ 0x3845
    38f4:	3ed0      	subs	r6, #208	@ 0xd0
    38f6:	606f      	str	r7, [r5, #4]
    38f8:	8205      	strh	r5, [r0, #16]
    38fa:	d859      	bhi.n	0x39b0
    38fc:	821e      	strh	r6, [r3, #16]
    38fe:	0460      	lsls	r0, r4, #17
    3900:	9211      	str	r2, [sp, #68]	@ 0x44
    3902:	7c20      	ldrb	r0, [r4, #16]
    3904:	0821      	lsrs	r1, r4, #32
    3906:	36c2      	adds	r6, #194	@ 0xc2
    3908:	3082      	adds	r0, #130	@ 0x82
    390a:	6386      	str	r6, [r0, #56]	@ 0x38
    390c:	0ccd      	lsrs	r5, r1, #19
    390e:	9000      	str	r0, [sp, #0]
    3910:	0a31      	lsrs	r1, r6, #8
    3912:	ee01 00a2 	cdp	0, 0, cr0, cr1, cr2, {5}
    3916:	2050      	movs	r0, #80	@ 0x50
    3918:	46eb      	mov	fp, sp
    391a:	1080      	asrs	r0, r0, #2
    391c:	6d21      	ldr	r1, [r4, #80]	@ 0x50
    391e:	eedd 5ed7 	mrc	14, 6, r5, cr13, cr7, {6}
    3922:	6082      	str	r2, [r0, #8]
    3924:	1104      	asrs	r4, r0, #4
    3926:	6031      	str	r1, [r6, #0]
    3928:	0804      	lsrs	r4, r0, #32
    392a:	60d1      	str	r1, [r2, #12]
    392c:	0c04      	lsrs	r4, r0, #16
    392e:	d91e      	bls.n	0x396e
    3930:	ed75 df17 	ldcl	15, cr13, [r5, #-92]!	@ 0xffffffa4
    3934:	f103 7fdf 	add.w	pc, r3, #29229056	@ 0x1be0000
    3938:	4604      	mov	r4, r0
    393a:	f8c0 6273 	str.w	r6, [r0, #627]	@ 0x273
    393e:	0c04      	lsrs	r4, r0, #16
    3940:	221e      	movs	r2, #30
    3942:	6222      	str	r2, [r4, #32]
    3944:	a204      	add	r2, pc, #16	@ (adr r2, 0x3958)
    3946:	8010      	strh	r0, [r2, #0]
    3948:	3ed5      	subs	r6, #213	@ 0xd5
    394a:	206f      	movs	r0, #111	@ 0x6f
    394c:	8485      	strh	r5, [r0, #36]	@ 0x24
    394e:	128d      	asrs	r5, r1, #10
    3950:	0a07      	lsrs	r7, r0, #8
    3952:	ee01 00a2 	cdp	0, 0, cr0, cr1, cr2, {5}
    3956:	1df0      	adds	r0, r6, #7
    3958:	df10      	svc	16
    395a:	37fb      	adds	r7, #251	@ 0xfb
    395c:	714f      	strb	r7, [r1, #5]
    395e:	4604      	mov	r4, r0
    3960:	00c0      	lsls	r0, r0, #3
    3962:	bc81      	pop	{r0, r7}
    3964:	14e2      	asrs	r2, r4, #19
    3966:	461e      	mov	r6, r3
    3968:	fc10 2580 	ldc2	5, cr2, [r0], {128}	@ 0x80
    396c:	ed05 4a3d 	vstr	s8, [r5, #-244]	@ 0xffffff0c
    3970:	e852 8630 			@ <UNDEFINED> instruction: 0xe8528630
    3974:	ed63 0f14 	stcl	15, cr0, [r3, #-80]!	@ 0xffffffb0
    3978:	2d98      	cmp	r5, #152	@ 0x98
    397a:	e14e      	b.n	0x3c1a
    397c:	1e2c      	subs	r4, r5, #0
    397e:	1046      	asrs	r6, r0, #1
    3980:	80fc      	strh	r4, [r7, #6]
    3982:	0525      	lsls	r5, r4, #20
    3984:	3ded      	subs	r5, #237	@ 0xed
    3986:	524a      	strh	r2, [r1, r1]
    3988:	30e8      	adds	r0, #232	@ 0xe8
    398a:	6386      	str	r6, [r0, #56]	@ 0x38
    398c:	14ed      	asrs	r5, r5, #19
    398e:	f2ce 37e0 	movt	r7, #58336	@ 0xe3e0
    3992:	05df      	lsls	r7, r3, #23
    3994:	dff1      	svc	241	@ 0xf1
    3996:	37fb      	adds	r7, #251	@ 0xfb
    3998:	714f      	strb	r7, [r1, #5]
    399a:	4604      	mov	r4, r0
    399c:	00c0      	lsls	r0, r0, #3
    399e:	1c81      	adds	r1, r0, #2
    39a0:	14e3      	asrs	r3, r4, #19
    39a2:	461e      	mov	r6, r3
    39a4:	fc10 2580 	ldc2	5, cr2, [r0], {128}	@ 0x80
    39a8:	ed05 4a3d 	vstr	s8, [r5, #-244]	@ 0xffffff0c
    39ac:	e852 8220 			@ <UNDEFINED> instruction: 0xe8528220
    39b0:	3922      	subs	r1, #34	@ 0x22
    39b2:	7387      	strb	r7, [r0, #14]
    39b4:	14ed      	asrs	r5, r5, #19
    39b6:	980f      	ldr	r0, [sp, #60]	@ 0x3c
    39b8:	4e33      	ldr	r6, [pc, #204]	@ (0x3a88)
    39ba:	2ce1      	cmp	r4, #225	@ 0xe1
    39bc:	461e      	mov	r6, r3
    39be:	fc10 2580 	ldc2	5, cr2, [r0], {128}	@ 0x80
    39c2:	ed05 4a3d 	vstr	s8, [r5, #-244]	@ 0xffffff0c
    39c6:	e852 8220 			@ <UNDEFINED> instruction: 0xe8528220
    39ca:	3922      	subs	r1, #34	@ 0x22
    39cc:	7387      	strb	r7, [r0, #14]
    39ce:	14ed      	asrs	r5, r5, #19
    39d0:	f2ce 37e0 	movt	r7, #58336	@ 0xe3e0
    39d4:	05df      	lsls	r7, r3, #23
    39d6:	cff1      	ldmia	r7, {r0, r4, r5, r6, r7}
    39d8:	f2ec 3127 			@ <UNDEFINED> instruction: 0xf2ec3127
    39dc:	201e      	movs	r0, #30
    39de:	4232      	tst	r2, r6
    39e0:	90c2      	str	r0, [sp, #776]	@ 0x308
    39e2:	7322      	strb	r2, [r4, #12]
    39e4:	c244      	stmia	r2!, {r2, r6}
    39e6:	22a6      	movs	r2, #166	@ 0xa6
    39e8:	56f3      	ldrsb	r3, [r6, r3]
    39ea:	c6c2      	stmia	r6!, {r1, r6, r7}
    39ec:	f322 c276 	blx	0xf25edc
    39f0:	22e6      	movs	r2, #230	@ 0xe6
    39f2:	96f3      	str	r6, [sp, #972]	@ 0x3cc
    39f4:	09d3      	lsrs	r3, r2, #7
    39f6:	2322      	movs	r3, #34	@ 0x22
    39f8:	8020      	strh	r0, [r4, #0]
    39fa:	14ce      	asrs	r6, r1, #19
    39fc:	1ac0      	subs	r0, r0, r3
    39fe:	e047      	b.n	0x3a90
    3a00:	0a3f      	lsrs	r7, r7, #8
    3a02:	4700      	bx	r0
    3a04:	8e30      	ldrh	r0, [r6, #48]	@ 0x30
    3a06:	3220      	adds	r2, #32
    3a08:	208c      	movs	r0, #140	@ 0x8c
    3a0a:	210c      	movs	r1, #12
    3a0c:	4732      	bx	r6
    3a0e:	6c2b      	ldr	r3, [r5, #64]	@ 0x40
    3a10:	3222      	adds	r2, #34	@ 0x22
    3a12:	2c6f      	cmp	r4, #111	@ 0x6f
    3a14:	246c      	movs	r4, #108	@ 0x6c
    3a16:	6f32      	ldr	r2, [r6, #112]	@ 0x70
    3a18:	6c2e      	ldr	r6, [r5, #64]	@ 0x40
    3a1a:	3226      	adds	r2, #38	@ 0x26
    3a1c:	06f2      	lsls	r2, r6, #27
    3a1e:	9d31      	ldr	r5, [sp, #196]	@ 0xc4
    3a20:	3220      	adds	r2, #32
    3a22:	0201      	lsls	r1, r0, #8
    3a24:	ce28      	ldmia	r6!, {r3, r5}
    3a26:	110b      	asrs	r3, r1, #4
    3a28:	7180      	strb	r0, [r0, #6]
    3a2a:	4614      	mov	r4, r2
    3a2c:	08c0      	lsrs	r0, r0, #3
    3a2e:	6470      	str	r0, [r6, #68]	@ 0x44
    3a30:	46b5      	mov	sp, r6
    3a32:	1234      	asrs	r4, r6, #8
    3a34:	3ab8      	subs	r2, #184	@ 0xb8
    3a36:	ec7e 8256 	lfm	f0, 3, [lr], #-344	@ 0xfffffea8
    3a3a:	db85      	blt.n	0x3948
    3a3c:	e7e2      	b.n	0x3a04
    3a3e:	276e      	movs	r7, #110	@ 0x6e
    3a40:	b858      			@ <UNDEFINED> instruction: 0xb858
    3a42:	e220      	b.n	0x3e86
    3a44:	e107      	b.n	0x3c56
    3a46:	8296      	strh	r6, [r2, #20]
    3a48:	1b85      	subs	r5, r0, r6
    3a4a:	00a1      	lsls	r1, r4, #2
    3a4c:	0470      	lsls	r0, r6, #17
    3a4e:	a3fe      	add	r3, pc, #1016	@ (adr r3, 0x3e48)
    3a50:	7000      	strb	r0, [r0, #0]
    3a52:	4614      	mov	r4, r2
    3a54:	8d21      	ldrh	r1, [r4, #40]	@ 0x28
    3a56:	f303 0460 			@ <UNDEFINED> instruction: 0xf3030460
    3a5a:	38d2      	subs	r0, #210	@ 0xd2
    3a5c:	0bd0      	lsrs	r0, r2, #15
    3a5e:	1e46      	subs	r6, r0, #1
    3a60:	71fc      	strb	r4, [r7, #7]
    3a62:	4624      	mov	r4, r4
    3a64:	fc17 3471 	ldc2	4, cr3, [r7], {113}	@ 0x71
    3a68:	c346      	stmia	r3!, {r1, r2, r6}
    3a6a:	31f8      	adds	r1, #248	@ 0xf8
    3a6c:	2465      	movs	r4, #101	@ 0x65
    3a6e:	3356      	adds	r3, #86	@ 0x56
    3a70:	c842      	ldmia	r0!, {r1, r6}
    3a72:	4623      	mov	r3, r4
    3a74:	8021      	strh	r1, [r4, #0]
    3a76:	bce2      	pop	{r1, r5, r6, r7}
    3a78:	5010      	str	r0, [r2, r0]
    3a7a:	4607      	mov	r7, r0
    3a7c:	8020      	strh	r0, [r4, #0]
    3a7e:	14ce      	asrs	r6, r1, #19
    3a80:	06e0      	lsls	r0, r4, #27
    3a82:	cb99      	ldmia	r3, {r0, r3, r4, r7}
    3a84:	0460      	lsls	r0, r4, #17
    3a86:	e802 114c 			@ <UNDEFINED> instruction: 0xe802114c
    3a8a:	6064      	str	r4, [r4, #4]
    3a8c:	0214      	lsls	r4, r2, #8
    3a8e:	ce28      	ldmia	r6!, {r3, r5}
    3a90:	110b      	asrs	r3, r1, #4
    3a92:	905c      	str	r0, [sp, #368]	@ 0x170
    3a94:	0a89      	lsrs	r1, r1, #10
    3a96:	c246      	stmia	r2!, {r1, r2, r6}
    3a98:	2008      	movs	r0, #8
    3a9a:	1462      	asrs	r2, r4, #17
    3a9c:	2802      	cmp	r0, #2
    3a9e:	0bce      	lsrs	r6, r1, #15
    3aa0:	4d11      	ldr	r5, [pc, #68]	@ (0x3ae8)
    3aa2:	0460      	lsls	r0, r4, #17
    3aa4:	e802 114c 			@ <UNDEFINED> instruction: 0xe802114c
    3aa8:	8046      	strh	r6, [r0, #2]
    3aaa:	67d9      	str	r1, [r3, #124]	@ 0x7c
    3aac:	0204      	lsls	r4, r0, #8
    3aae:	4ce8      	ldr	r4, [pc, #928]	@ (0x3e50)
    3ab0:	3d11      	subs	r5, #17
    3ab2:	1460      	asrs	r0, r4, #17
    3ab4:	2802      	cmp	r0, #2
    3ab6:	0bce      	lsrs	r6, r1, #15
    3ab8:	3511      	adds	r5, #17
    3aba:	b980      	cbnz	r0, 0x3ade
    3abc:	0465      	lsls	r5, r4, #17
    3abe:	008c      	lsls	r4, r1, #2
    3ac0:	460e      	mov	r6, r1
    3ac2:	8020      	strh	r0, [r4, #0]
    3ac4:	14ce      	asrs	r6, r1, #19
    3ac6:	0280      	lsls	r0, r0, #10
    3ac8:	2146      	movs	r1, #70	@ 0x46
    3aca:	e280      	b.n	0x3fce
    3acc:	10bc      	asrs	r4, r7, #2
    3ace:	0200      	lsls	r0, r0, #8
    3ad0:	3098      	adds	r0, #152	@ 0x98
    3ad2:	c146      	stmia	r1!, {r1, r2, r6}
    3ad4:	0008      	movs	r0, r1
    3ad6:	1461      	asrs	r1, r4, #17
    3ad8:	2802      	cmp	r0, #2
    3ada:	0bce      	lsrs	r6, r1, #15
    3adc:	1111      	asrs	r1, r2, #4
    3ade:	0460      	lsls	r0, r4, #17
    3ae0:	008c      	lsls	r4, r1, #2
    3ae2:	460e      	mov	r6, r1
    3ae4:	8020      	strh	r0, [r4, #0]
    3ae6:	14ce      	asrs	r6, r1, #19
    3ae8:	0060      	lsls	r0, r4, #1
    3aea:	27e2      	movs	r7, #226	@ 0xe2
    3aec:	4cf1      	ldr	r4, [pc, #964]	@ (0x3eb4)
    3aee:	f101 fadf 	bl	0x1050b0
    3af2:	4714      	bxns	r2
    3af4:	0460      	lsls	r0, r4, #17
    3af6:	18d2      	adds	r2, r2, r3
    3af8:	0ab0      	lsrs	r0, r6, #10
    3afa:	614e      	str	r6, [r1, #20]
    3afc:	1028      	asrs	r0, r5, #32
    3afe:	73fc      	strb	r4, [r7, #15]
    3b00:	4e34      	ldr	r6, [pc, #208]	@ (0x3bd4)
    3b02:	6841      	ldr	r1, [r0, #4]
    3b04:	2335      	movs	r3, #53	@ 0x35
    3b06:	db91      	blt.n	0x3a2c
    3b08:	4e13      	ldr	r6, [pc, #76]	@ (0x3b58)
    3b0a:	3861      	subs	r0, #97	@ 0x61
    3b0c:	0c10      	lsrs	r0, r2, #16
    3b0e:	447e      	add	r6, pc
    3b10:	614e      	str	r6, [r1, #20]
    3b12:	1018      	asrs	r0, r3, #32
    3b14:	73fc      	strb	r4, [r7, #15]
    3b16:	4654      	mov	r4, sl
    3b18:	8d25      	ldrh	r5, [r4, #40]	@ 0x28
    3b1a:	1600      	asrs	r0, r0, #24
    3b1c:	4461      	add	r1, ip
    3b1e:	a08d      	add	r0, pc, #564	@ (adr r0, 0x3d54)
    3b20:	4e17      	ldr	r6, [pc, #92]	@ (0x3b80)
    3b22:	3ce1      	subs	r4, #225	@ 0xe1
    3b24:	3c21      	subs	r4, #33	@ 0x21
    3b26:	21f7      	movs	r1, #247	@ 0xf7
    3b28:	dc3f      	bgt.n	0x3baa
    3b2a:	f699 4460 			@ <UNDEFINED> instruction: 0xf6994460
    3b2e:	e08d      	b.n	0x3c4c
    3b30:	4619      	mov	r1, r3
    3b32:	14e3      	asrs	r3, r4, #19
    3b34:	13ce      	asrs	r6, r1, #15
    3b36:	83d0      	strh	r0, [r2, #30]
    3b38:	2e21      	cmp	r6, #33	@ 0x21
    3b3a:	99dc      	ldr	r1, [sp, #880]	@ 0x370
    3b3c:	60d4      	str	r4, [r2, #12]
    3b3e:	d244      	bcs.n	0x3bca
    3b40:	9608      	str	r6, [sp, #32]
    3b42:	460c      	mov	r4, r1
    3b44:	14e3      	asrs	r3, r4, #19
    3b46:	13ce      	asrs	r6, r1, #15
    3b48:	a0c0      	add	r0, pc, #768	@ (adr r0, 0x3e4c)
    3b4a:	1c21      	adds	r1, r4, #0
    3b4c:	99dc      	ldr	r1, [sp, #880]	@ 0x370
    3b4e:	60b0      	str	r0, [r6, #8]
    3b50:	8d04      	ldrh	r4, [r0, #40]	@ 0x28
    3b52:	2f02      	cmp	r7, #2
    3b54:	414e      	adcs	r6, r1
    3b56:	08d8      	lsrs	r0, r3, #3
    3b58:	e100      	b.n	0x3d5c
    3b5a:	8614      	strh	r4, [r2, #48]	@ 0x30
    3b5c:	c102      	stmia	r1!, {r1}
    3b5e:	a980      	add	r1, sp, #512	@ 0x200
    3b60:	e08c      	b.n	0x3c7c
    3b62:	8414      	strh	r4, [r2, #32]
    3b64:	e14e      	b.n	0x3e04
    3b66:	113c      	asrs	r4, r7, #4
    3b68:	8256      	strh	r6, [r2, #18]
    3b6a:	e789      	b.n	0x3a80
    3b6c:	8614      	strh	r4, [r2, #48]	@ 0x30
    3b6e:	c102      	stmia	r1!, {r1}
    3b70:	473f      	bx	r7
    3b72:	14e3      	asrs	r3, r4, #19
    3b74:	5684      	ldrsb	r4, [r0, r2]
    3b76:	1233      	asrs	r3, r6, #8
    3b78:	5bb8      	ldrh	r0, [r7, r6]
    3b7a:	414e      	adcs	r6, r1
    3b7c:	7018      	strb	r0, [r3, #0]
    3b7e:	8ddb      	ldrh	r3, [r3, #46]	@ 0x2e
    3b80:	2500      	movs	r5, #0
    3b82:	414e      	adcs	r6, r1
    3b84:	08c8      	lsrs	r0, r1, #3
    3b86:	e400      	b.n	0x338a
    3b88:	8414      	strh	r4, [r2, #32]
    3b8a:	1f8c      	subs	r4, r1, #6
    3b8c:	4e35      	ldr	r6, [pc, #212]	@ (0x3c64)
    3b8e:	1841      	adds	r1, r0, r1
    3b90:	68e3      	ldr	r3, [r4, #12]
    3b92:	698f      	ldr	r7, [r1, #24]
    3b94:	3462      	adds	r4, #98	@ 0x62
    3b96:	e14e      	b.n	0x3e36
    3b98:	213c      	movs	r1, #60	@ 0x3c
    3b9a:	f30d 614e 	ssat	r1, #15, sp, lsl #25
    3b9e:	1038      	asrs	r0, r7, #32
    3ba0:	940c      	str	r4, [sp, #48]	@ 0x30
    3ba2:	4641      	mov	r1, r8
    3ba4:	d313      	bcc.n	0x3bce
    3ba6:	fdb8 106d 	ldc2	0, cr1, [r8, #436]!	@ 0x1b4
    3baa:	fcdf 0a04 	ldc2l	10, cr0, [pc], {4}	@ <UNPREDICTABLE>
    3bae:	4700      	bx	r0
    3bb0:	04e2      	lsls	r2, r4, #19
    3bb2:	0186      	lsls	r6, r0, #6
    3bb4:	c0c1      	stmia	r0!, {r0, r6, r7}
    3bb6:	6347      	str	r7, [r0, #52]	@ 0x34
    3bb8:	8d34      	ldrh	r4, [r6, #40]	@ 0x28
    3bba:	2400      	movs	r4, #0
    3bbc:	604e      	str	r6, [r1, #4]
    3bbe:	1038      	asrs	r0, r7, #32
    3bc0:	920c      	str	r2, [sp, #48]	@ 0x30
    3bc2:	0a53      	lsrs	r3, r2, #9
    3bc4:	4703      	bx	r0
    3bc6:	b982      	cbnz	r2, 0x3bea
    3bc8:	10a3      	asrs	r3, r4, #2
    3bca:	2470      	movs	r4, #112	@ 0x70
    3bcc:	3098      	adds	r0, #152	@ 0x98
    3bce:	d346      	bcc.n	0x3c5e
    3bd0:	7c08      	ldrb	r0, [r1, #16]
    3bd2:	04e2      	lsls	r2, r4, #19
    3bd4:	0186      	lsls	r6, r0, #6
    3bd6:	20c1      	movs	r0, #193	@ 0xc1
    3bd8:	18b8      	adds	r0, r7, r2
    3bda:	604e      	str	r6, [r1, #4]
    3bdc:	1028      	asrs	r0, r5, #32
    3bde:	d38c      	bcc.n	0x3afa
    3be0:	7088      	strb	r0, [r1, #2]
    3be2:	20a0      	movs	r0, #160	@ 0xa0
    3be4:	2470      	movs	r4, #112	@ 0x70
    3be6:	f246 104d 	movw	r0, #24909	@ 0x614d
    3bea:	2d51      	cmp	r5, #81	@ 0x51
    3bec:	1008      	asrs	r0, r1, #32
    3bee:	8335      	strh	r5, [r6, #24]
    3bf0:	5100      	str	r0, [r0, r4]
    3bf2:	0839      	lsrs	r1, r7, #32
    3bf4:	1510      	asrs	r0, r2, #20
    3bf6:	0084      	lsls	r4, r0, #2
    3bf8:	3f51      	subs	r7, #81	@ 0x51
    3bfa:	1008      	asrs	r0, r1, #32
    3bfc:	8405      	strh	r5, [r0, #32]
    3bfe:	c200      	stmia	r2!, {}
    3c00:	2000      	movs	r0, #0
    3c02:	fc13 0d23 	ldc2	13, cr0, [r3], {35}	@ 0x23
    3c06:	321b      	adds	r2, #27
    3c08:	19d3      	adds	r3, r2, r7
    3c0a:	0321      	lsls	r1, r4, #12
    3c0c:	9d30      	ldr	r5, [sp, #192]	@ 0xc0
    3c0e:	3219      	adds	r2, #25
    3c10:	1000      	asrs	r0, r0, #32
    3c12:	3ddf      	subs	r5, #223	@ 0xdf
    3c14:	100f      	asrs	r7, r1, #32
    3c16:	6932      	ldr	r2, [r6, #16]
    3c18:	00c2      	lsls	r2, r0, #3
    3c1a:	1321      	asrs	r1, r4, #12
    3c1c:	70cc      	strb	r4, [r1, #3]
    3c1e:	4604      	mov	r4, r0
    3c20:	08c0      	lsrs	r0, r0, #3
    3c22:	6520      	str	r0, [r4, #80]	@ 0x50
    3c24:	c104      	stmia	r1!, {r2}
    3c26:	1904      	adds	r4, r0, r4
    3c28:	10a3      	asrs	r3, r4, #2
    3c2a:	2ee0      	cmp	r6, #224	@ 0xe0
    3c2c:	000a      	movs	r2, r1
    3c2e:	6047      	str	r7, [r0, #4]
    3c30:	8d04      	ldrh	r4, [r0, #40]	@ 0x28
    3c32:	0c00      	lsrs	r0, r0, #16
    3c34:	09d3      	lsrs	r3, r2, #7
    3c36:	8321      	strh	r1, [r4, #24]
    3c38:	4fe0      	ldr	r7, [pc, #896]	@ (0x3fbc)
    3c3a:	09d3      	lsrs	r3, r2, #7
    3c3c:	4321      	orrs	r1, r4
    3c3e:	9d30      	ldr	r5, [sp, #192]	@ 0xc0
    3c40:	3211      	adds	r2, #17
    3c42:	5100      	str	r0, [r0, r4]
    3c44:	082d      	lsrs	r5, r5, #32
    3c46:	f510 0083 	adds.w	r0, r0, #4292608	@ 0x418000
    3c4a:	de11      	udf	#17
    3c4c:	8f3a      	ldrh	r2, [r7, #56]	@ 0x38
    3c4e:	3218      	adds	r2, #24
    3c50:	20fb      	movs	r0, #251	@ 0xfb
    3c52:	180c      	adds	r4, r1, r0
    3c54:	c132      	stmia	r1!, {r1, r4, r5}
    3c56:	470c      	bxns	r1
    3c58:	0460      	lsls	r0, r4, #17
    3c5a:	08c2      	lsrs	r2, r0, #3
    3c5c:	0e20      	lsrs	r0, r4, #24
    3c5e:	1046      	asrs	r6, r0, #1
    3c60:	904c      	str	r0, [sp, #304]	@ 0x130
    3c62:	0a31      	lsrs	r1, r6, #8
    3c64:	ee01 00a2 	cdp	0, 0, cr0, cr1, cr2, {5}
    3c68:	0470      	lsls	r0, r6, #17
    3c6a:	d046      	beq.n	0x3cfa
    3c6c:	c008      	stmia	r0!, {r3}
    3c6e:	9d30      	ldr	r5, [sp, #192]	@ 0xc0
    3c70:	3218      	adds	r2, #24
    3c72:	fe08 9d34 	mcr2	13, 0, r9, cr8, cr4, {1}
    3c76:	3218      	adds	r2, #24
    3c78:	d304      	bcc.n	0x3c84
    3c7a:	2199      	movs	r1, #153	@ 0x99
    3c7c:	3003      	adds	r0, #3
    3c7e:	40ed      	lsrs	r5, r5
    3c80:	0208      	lsls	r0, r1, #8
    3c82:	5129      	str	r1, [r5, r4]
    3c84:	0833      	lsrs	r3, r6, #32
    3c86:	0c20      	lsrs	r0, r4, #16
    3c88:	3200      	adds	r2, #0
    3c8a:	3fc1      	subs	r7, #193	@ 0xc1
    3c8c:	b0d2      	sub	sp, #328	@ 0x148
    3c8e:	1321      	asrs	r1, r4, #12
    3c90:	8405      	strh	r5, [r0, #32]
    3c92:	1100      	asrs	r0, r0, #4
    3c94:	8259      	strh	r1, [r3, #18]
    3c96:	46f9      	mov	r9, pc
    3c98:	8390      	strh	r0, [r2, #28]
    3c9a:	4147      	adcs	r7, r0
    3c9c:	83b0      	strh	r0, [r6, #28]
    3c9e:	40c1      	lsrs	r1, r0
    3ca0:	1247      	asrs	r7, r0, #9
    3ca2:	8395      	strh	r5, [r2, #28]
    3ca4:	5100      	str	r0, [r0, r4]
    3ca6:	0840      	lsrs	r0, r0, #1
    3ca8:	2460      	movs	r4, #96	@ 0x60
    3caa:	008c      	lsls	r4, r1, #2
    3cac:	4634      	mov	r4, r6
    3cae:	08c0      	lsrs	r0, r0, #3
    3cb0:	30b0      	adds	r0, #176	@ 0xb0
    3cb2:	41cd      	rors	r5, r1
    3cb4:	0008      	movs	r0, r1
    3cb6:	460c      	mov	r4, r1
    3cb8:	e311      	b.n	0x42de
    3cba:	eda3 464f 	stc	6, cr4, [r3, #316]!	@ 0x13c
    3cbe:	d311      	bcc.n	0x3ce4
    3cc0:	1d9f      	adds	r7, r3, #6
    3cc2:	8415      	strh	r5, [r2, #32]
    3cc4:	9800      	ldr	r0, [sp, #0]
    3cc6:	4610      	mov	r0, r2
    3cc8:	08d0      	lsrs	r0, r2, #3
    3cca:	1070      	asrs	r0, r6, #1
    3ccc:	8415      	strh	r5, [r2, #32]
    3cce:	df01      	svc	1
    3cd0:	f103 fedf 	bl	0x107a92
    3cd4:	d305      	bcc.n	0x3ce2
    3cd6:	833e      	strh	r6, [r7, #24]
    3cd8:	c000      	stmia	r0!, {}
    3cda:	4fd1      	ldr	r7, [pc, #836]	@ (0x4020)
    3cdc:	d083      	beq.n	0x3be6
    3cde:	835e      	strh	r6, [r3, #26]
    3ce0:	cc20      	ldmia	r4!, {r5}
    3ce2:	1202      	asrs	r2, r0, #8
    3ce4:	18f0      	adds	r0, r6, r3
    3ce6:	3305      	adds	r3, #5
    3ce8:	ed38 082d 	ldc	8, cr0, [r8, #-180]!	@ 0xffffff4c
    3cec:	1c00      	adds	r0, r0, #0
    3cee:	2efd      	cmp	r6, #253	@ 0xfd
    3cf0:	ed08 082f 	stc	8, cr0, [r8, #-188]	@ 0xffffff44
    3cf4:	2cc2      	cmp	r4, #194	@ 0xc2
    3cf6:	1120      	asrs	r0, r4, #4
    3cf8:	58c7      	ldr	r7, [r0, r3]
    3cfa:	82d0      	strh	r0, [r2, #22]
    3cfc:	9ed3      	ldr	r6, [sp, #844]	@ 0x34c
    3cfe:	0083      	lsls	r3, r0, #2
    3d00:	d1d0      	bne.n	0x3ca4
    3d02:	83af      	strh	r7, [r5, #28]
    3d04:	bed0      	bkpt	0x00d0
    3d06:	2083      	movs	r0, #131	@ 0x83
    3d08:	02cc      	lsls	r4, r1, #11
    3d0a:	0312      	lsls	r2, r2, #12
    3d0c:	5f21      	ldrsh	r1, [r4, r4]
    3d0e:	8390      	strh	r0, [r2, #28]
    3d10:	3cd3      	subs	r4, #211	@ 0xd3
    3d12:	0083      	lsls	r3, r0, #2
    3d14:	36b0      	adds	r6, #176	@ 0xb0
    3d16:	3ffd      	subs	r7, #253	@ 0xfd
    3d18:	0008      	movs	r0, r1
    3d1a:	3124      	adds	r1, #36	@ 0x24
    3d1c:	40fd      	lsrs	r5, r7
    3d1e:	0008      	movs	r0, r1
    3d20:	1118      	asrs	r0, r3, #4
    3d22:	8405      	strh	r5, [r0, #32]
    3d24:	d302      	bcc.n	0x3d2c
    3d26:	2199      	movs	r1, #153	@ 0x99
    3d28:	2103      	movs	r1, #3
    3d2a:	356c      	adds	r5, #108	@ 0x6c
    3d2c:	d208      	bcs.n	0x3d40
    3d2e:	21c6      	movs	r1, #198	@ 0xc6
    3d30:	6c23      	ldr	r3, [r4, #64]	@ 0x40
    3d32:	0837      	lsrs	r7, r6, #32
    3d34:	e6d2      	b.n	0x3adc
    3d36:	4321      	orrs	r1, r4
    3d38:	8340      	strh	r0, [r0, #26]
    3d3a:	c081      	stmia	r0!, {r0, r7}
    3d3c:	a0d2      	add	r0, pc, #840	@ (adr r0, 0x4088)
    3d3e:	3321      	adds	r3, #33	@ 0x21
    3d40:	1b9d      	subs	r5, r3, r6
    3d42:	0832      	lsrs	r2, r6, #32
    3d44:	89d3      	ldrh	r3, [r2, #14]
    3d46:	1321      	asrs	r1, r4, #12
    3d48:	5990      	ldr	r0, [r2, r6]
    3d4a:	d30c      	bcc.n	0x3d66
    3d4c:	82dc      	strh	r4, [r3, #22]
    3d4e:	c000      	stmia	r0!, {}
    3d50:	ed34 083f 	ldc	8, cr0, [r4, #-252]!	@ 0xffffff04
    3d54:	4100      	asrs	r0, r0
    3d56:	3f51      	subs	r7, #81	@ 0x51
    3d58:	3018      	adds	r0, #24
    3d5a:	119d      	asrs	r5, r3, #6
    3d5c:	1032      	asrs	r2, r6, #32
    3d5e:	f6c2 2082 	movt	r0, #10882	@ 0x2a82
    3d62:	146d      	asrs	r5, r5, #17
    3d64:	c232      	stmia	r2!, {r1, r4, r5}
    3d66:	8316      	strh	r6, [r2, #24]
    3d68:	6d20      	ldr	r0, [r4, #80]	@ 0x50
    3d6a:	3216      	adds	r2, #22
    3d6c:	2e04      	cmp	r6, #4
    3d6e:	0d28      	lsrs	r0, r5, #20
    3d70:	3212      	adds	r2, #18
    3d72:	09d3      	lsrs	r3, r2, #7
    3d74:	1321      	asrs	r1, r4, #12
    3d76:	cd30      	ldmia	r5, {r4, r5}
    3d78:	0839      	lsrs	r1, r7, #32
    3d7a:	6300      	str	r0, [r0, #48]	@ 0x30
    3d7c:	0ed3      	lsrs	r3, r2, #27
    3d7e:	0084      	lsls	r4, r0, #2
    3d80:	1580      	asrs	r0, r0, #22
    3d82:	8405      	strh	r5, [r0, #32]
    3d84:	d303      	bcc.n	0x3d8e
    3d86:	83ae      	strh	r6, [r5, #28]
    3d88:	c3f0      	stmia	r3!, {r4, r5, r6, r7}
    3d8a:	9d30      	ldr	r5, [sp, #192]	@ 0xc0
    3d8c:	3219      	adds	r2, #25
    3d8e:	fe10 9d34 	mrc2	13, 0, r9, cr0, cr4, {1}
    3d92:	3219      	adds	r2, #25
    3d94:	c212      	stmia	r2!, {r1, r4}
    3d96:	83b6      	strh	r6, [r6, #28]
    3d98:	6d20      	ldr	r0, [r4, #80]	@ 0x50
    3d9a:	321c      	adds	r2, #28
    3d9c:	d6c2      	bvs.n	0x3d24
    3d9e:	2083      	movs	r0, #131	@ 0x83
    3da0:	1e6d      	subs	r5, r5, #1
    3da2:	0432      	lsls	r2, r6, #16
    3da4:	283a      	cmp	r0, #58	@ 0x3a
    3da6:	1a0d      	subs	r5, r1, r0
    3da8:	d332      	bcc.n	0x3e10
    3daa:	2189      	movs	r1, #137	@ 0x89
    3dac:	e013      	b.n	0x3dd6
    3dae:	df05      	svc	5
    3db0:	f102 4251 	add.w	r2, r2, #3506438144	@ 0xd1000000
    3db4:	0008      	movs	r0, r1
    3db6:	200c      	movs	r0, #12
    3db8:	456d      	cmp	r5, sp
    3dba:	5108      	str	r0, [r1, r4]
    3dbc:	0843      	lsrs	r3, r0, #1
    3dbe:	f100 fadf 	bl	0x104380
    3dc2:	4747      	bx	r8
    3dc4:	14f0      	asrs	r0, r6, #19
    3dc6:	614e      	str	r6, [r1, #20]
    3dc8:	e03b      	b.n	0x3e42
    3dca:	a414      	add	r4, pc, #80	@ (adr r4, 0x3e1c)
    3dcc:	614e      	str	r6, [r1, #20]
    3dce:	e018      	b.n	0x3e02
    3dd0:	9614      	str	r6, [sp, #80]	@ 0x50
    3dd2:	3302      	adds	r3, #2
    3dd4:	38a2      	subs	r0, #162	@ 0xa2
    3dd6:	8043      	strh	r3, [r0, #2]
    3dd8:	2308      	movs	r3, #8
    3dda:	7b93      	ldrb	r3, [r2, #14]
    3ddc:	4e12      	ldr	r6, [pc, #72]	@ (0x3e28)
    3dde:	7841      	ldrb	r1, [r0, #1]
    3de0:	4634      	mov	r4, r6
    3de2:	10c3      	asrs	r3, r0, #3
    3de4:	1d80      	adds	r0, r0, #6
    3de6:	3465      	adds	r4, #101	@ 0x65
    3de8:	050c      	lsls	r4, r1, #20
    3dea:	5222      	strh	r2, [r4, r0]
    3dec:	3464      	adds	r4, #100	@ 0x64
    3dee:	10a2      	asrs	r2, r4, #2
    3df0:	d580      	bpl.n	0x3cf4
    3df2:	25ce      	movs	r5, #206	@ 0xce
    3df4:	8524      	strh	r4, [r4, #40]	@ 0x28
    3df6:	4e94      	ldr	r6, [pc, #592]	@ (0x4048)
    3df8:	1861      	adds	r1, r4, r1
    3dfa:	1230      	asrs	r0, r6, #8
    3dfc:	22b8      	movs	r2, #184	@ 0xb8
    3dfe:	2346      	movs	r3, #70	@ 0x46
    3e00:	010a      	lsls	r2, r1, #4
    3e02:	ed58 4261 	lfm	f4, 2, [r8, #-388]	@ 0xfffffe7c
    3e06:	4852      	ldr	r0, [pc, #328]	@ (0x3f50)
    3e08:	14e9      	asrs	r1, r5, #19
    3e0a:	0286      	lsls	r6, r0, #10
    3e0c:	9123      	str	r1, [sp, #140]	@ 0x8c
    3e0e:	0a31      	lsrs	r1, r6, #8
    3e10:	4700      	bx	r0
    3e12:	6ed3      	ldr	r3, [r2, #108]	@ 0x6c
    3e14:	4426      	add	r6, r4
    3e16:	8420      	strh	r0, [r4, #32]
    3e18:	4882      	ldr	r0, [pc, #520]	@ (0x4024)
    3e1a:	3568      	adds	r5, #104	@ 0x68
    3e1c:	8123      	strh	r3, [r4, #8]
    3e1e:	447b      	add	r3, pc
    3e20:	8420      	strh	r0, [r4, #32]
    3e22:	d108      	bne.n	0x3e36
    3e24:	0ec0      	lsrs	r0, r0, #27
    3e26:	20fa      	movs	r0, #250	@ 0xfa
    3e28:	456d      	cmp	r5, sp
    3e2a:	5108      	str	r0, [r1, r4]
    3e2c:	1843      	adds	r3, r0, r1
    3e2e:	0460      	lsls	r0, r4, #17
    3e30:	4405      	add	r5, r0
    3e32:	2508      	movs	r5, #8
    3e34:	0584      	lsls	r4, r0, #22
    3e36:	71d8      	strb	r0, [r3, #7]
    3e38:	3721      	adds	r7, #33	@ 0x21
    3e3a:	92d9      	str	r2, [sp, #868]	@ 0x364
    3e3c:	3bf2      	subs	r3, #242	@ 0xf2
    3e3e:	c429      	stmia	r4!, {r0, r3, r5}
    3e40:	9830      	ldr	r0, [sp, #192]	@ 0xc0
    3e42:	ed5b 426b 	lfm	f4, 2, [fp, #-428]	@ 0xfffffe54
    3e46:	4204      	tst	r4, r0
    3e48:	8828      	ldrh	r0, [r5, #0]
    3e4a:	5684      	ldrsb	r4, [r0, r2]
    3e4c:	1233      	asrs	r3, r6, #8
    3e4e:	13b8      	asrs	r0, r7, #14
    3e50:	4351      	muls	r1, r2
    3e52:	6018      	str	r0, [r3, #0]
    3e54:	0504      	lsls	r4, r0, #20
    3e56:	8844      	ldrh	r4, [r0, #2]
    3e58:	e2e9      	b.n	0x442e
    3e5a:	8414      	strh	r4, [r2, #32]
    3e5c:	10c1      	asrs	r1, r0, #3
    3e5e:	21b8      	movs	r1, #184	@ 0xb8
    3e60:	4251      	negs	r1, r2
    3e62:	0008      	movs	r0, r1
    3e64:	200c      	movs	r0, #12
    3e66:	456d      	cmp	r5, sp
    3e68:	5108      	str	r0, [r1, r4]
    3e6a:	2843      	cmp	r0, #67	@ 0x43
    3e6c:	0460      	lsls	r0, r4, #17
    3e6e:	4405      	add	r5, r0
    3e70:	47e8      	blx	sp
    3e72:	06df      	lsls	r7, r3, #27
    3e74:	dff1      	svc	241	@ 0xf1
    3e76:	567a      	ldrsb	r2, [r7, r1]
    3e78:	f06f 0a24 	mvn.w	sl, #36	@ 0x24
    3e7c:	4700      	bx	r0
    3e7e:	ed34 0843 	ldc	8, cr0, [r4, #-268]!	@ 0xfffffef4
    3e82:	6201      	str	r1, [r0, #32]
    3e84:	4404      	add	r4, r0
    3e86:	24e8      	movs	r4, #232	@ 0xe8
    3e88:	0a85      	lsrs	r5, r0, #10
    3e8a:	4e11      	ldr	r6, [pc, #68]	@ (0x3ed0)
    3e8c:	4850      	ldr	r0, [pc, #320]	@ (0x3fd0)
    3e8e:	8420      	strh	r0, [r4, #32]
    3e90:	704e      	strb	r6, [r1, #1]
    3e92:	a018      	add	r0, pc, #96	@ (adr r0, 0x3ef4)
    3e94:	e000      	b.n	0x3e98
    3e96:	8704      	strh	r4, [r0, #56]	@ 0x38
    3e98:	4e02      	ldr	r6, [pc, #8]	@ (0x3ea4)
    3e9a:	ea40 8604 			@ <UNDEFINED> instruction: 0xea408604
    3e9e:	4e01      	ldr	r6, [pc, #4]	@ (0x3ea4)
    3ea0:	2960      	cmp	r1, #96	@ 0x60
    3ea2:	2330      	movs	r3, #48	@ 0x30
    3ea4:	338a      	adds	r3, #138	@ 0x8a
    3ea6:	8804      	ldrh	r4, [r0, #0]
    3ea8:	04e0      	lsls	r0, r4, #19
    3eaa:	0387      	lsls	r7, r0, #14
    3eac:	4351      	muls	r1, r2
    3eae:	a008      	add	r0, pc, #32	@ (adr r0, 0x3ed0)
    3eb0:	7010      	strb	r0, [r2, #0]
    3eb2:	9844      	ldr	r0, [sp, #272]	@ 0x110
    3eb4:	d368      	bcc.n	0x3f88
    3eb6:	843e      	strh	r6, [r7, #32]
    3eb8:	d020      	beq.n	0x3efc
    3eba:	4045      	eors	r5, r0
    3ebc:	4e84      	ldr	r6, [pc, #528]	@ (0x40d0)
    3ebe:	a852      	add	r0, sp, #328	@ 0x148
    3ec0:	e120      	b.n	0x4104
    3ec2:	8504      	strh	r4, [r0, #40]	@ 0x28
    3ec4:	000a      	movs	r2, r1
    3ec6:	704e      	strb	r6, [r1, #1]
    3ec8:	a018      	add	r0, pc, #96	@ (adr r0, 0x3f2c)
    3eca:	e000      	b.n	0x3ece
    3ecc:	8704      	strh	r4, [r0, #56]	@ 0x38
    3ece:	4e02      	ldr	r6, [pc, #8]	@ (0x3ed8)
    3ed0:	ea40 8604 			@ <UNDEFINED> instruction: 0xea408604
    3ed4:	4e01      	ldr	r6, [pc, #4]	@ (0x3edc)
    3ed6:	2960      	cmp	r1, #96	@ 0x60
    3ed8:	2330      	movs	r3, #48	@ 0x30
    3eda:	a633      	add	r6, pc, #204	@ (adr r6, 0x3fa8)
    3edc:	8808      	ldrh	r0, [r1, #0]
    3ede:	04e0      	lsls	r0, r4, #19
    3ee0:	0387      	lsls	r7, r0, #14
    3ee2:	4351      	muls	r1, r2
    3ee4:	a008      	add	r0, pc, #32	@ (adr r0, 0x3f08)
    3ee6:	7010      	strb	r0, [r2, #0]
    3ee8:	4644      	mov	r4, r8
    3eea:	5664      	ldrsb	r4, [r4, r1]
    3eec:	06df      	lsls	r7, r3, #27
    3eee:	10f1      	asrs	r1, r6, #3
    3ef0:	56c2      	ldrsb	r2, [r0, r3]
    3ef2:	c084      	stmia	r0!, {r2, r7}
    3ef4:	000c      	movs	r4, r1
    3ef6:	3220      	adds	r2, #32
    3ef8:	c225      	stmia	r2!, {r0, r2, r5}
    3efa:	8456      	strh	r6, [r2, #34]	@ 0x22
    3efc:	4420      	add	r0, r4
    3efe:	0001      	movs	r1, r0
    3f00:	c249      	stmia	r2!, {r0, r3, r6}
    3f02:	8456      	strh	r6, [r2, #34]	@ 0x22
    3f04:	0cc0      	lsrs	r0, r0, #19
    3f06:	9000      	str	r0, [sp, #0]
    3f08:	1123      	asrs	r3, r4, #4
    3f0a:	0ea6      	lsrs	r6, r4, #26
    3f0c:	dff1      	svc	241	@ 0xf1
    3f0e:	047d      	lsls	r5, r7, #17
    3f10:	030a      	lsls	r2, r1, #12
    3f12:	1147      	asrs	r7, r0, #5
    3f14:	0810      	lsrs	r0, r2, #32
    3f16:	b0ec      	sub	sp, #432	@ 0x1b0
    3f18:	2104      	movs	r1, #4
    3f1a:	e757      	b.n	0x3dcc
    3f1c:	7e11      	ldrb	r1, [r2, #24]
    3f1e:	1460      	asrs	r0, r4, #17
    3f20:	10a2      	asrs	r2, r4, #2
    3f22:	60d0      	str	r0, [r2, #12]
    3f24:	0c14      	lsrs	r4, r2, #16
    3f26:	2200      	movs	r2, #0
    3f28:	62e3      	str	r3, [r4, #44]	@ 0x2c
    3f2a:	4704      	bxns	r0
    3f2c:	4982      	ldr	r1, [pc, #520]	@ (0x4138)
    3f2e:	dc01      	bgt.n	0x3f34
    3f30:	f317 6e73 			@ <UNDEFINED> instruction: 0xf3176e73
    3f34:	a224      	add	r2, pc, #144	@ (adr r2, 0x3fc8)
    3f36:	d010      	beq.n	0x3f5a
    3f38:	2460      	movs	r4, #96	@ 0x60
    3f3a:	000c      	movs	r4, r1
    3f3c:	0222      	lsls	r2, r4, #8
    3f3e:	698e      	ldr	r6, [r1, #24]
    3f40:	3dfa      	subs	r5, #250	@ 0xfa
    3f42:	df10      	svc	16
    3f44:	47fa      			@ <UNDEFINED> instruction: 0x47fa
    3f46:	a0ec      	add	r0, pc, #944	@ (adr r0, 0x42f8)
    3f48:	6f0f      	ldr	r7, [r1, #112]	@ 0x70
    3f4a:	e980 cfc7 			@ <UNDEFINED> instruction: 0xe980cfc7
    3f4e:	c012      	stmia	r0!, {r1, r4}
    3f50:	384e      	subs	r0, #78	@ 0x4e
    3f52:	c420      	stmia	r4!, {r5}
    3f54:	1282      	asrs	r2, r0, #10
    3f56:	8813      	ldrh	r3, [r2, #0]
    3f58:	26fe      	movs	r6, #254	@ 0xfe
    3f5a:	e07e      	b.n	0x405a
    3f5c:	5226      	strh	r6, [r4, r0]
    3f5e:	00a4      	lsls	r4, r4, #2
    3f60:	1420      	asrs	r0, r4, #16
    3f62:	f282 1106 			@ <UNDEFINED> instruction: 0xf2821106
    3f66:	e02f      	b.n	0x3fc8
    3f68:	2126      	movs	r1, #38	@ 0x26
    3f6a:	e707      	b.n	0x3d7c
    3f6c:	2e11      	cmp	r6, #17
    3f6e:	cfc0      	ldmia	r7, {r6, r7}
    3f70:	c012      	stmia	r0!, {r1, r4}
    3f72:	384e      	subs	r0, #78	@ 0x4e
    3f74:	c420      	stmia	r4!, {r5}
    3f76:	1282      	asrs	r2, r0, #10
    3f78:	85f3      	strh	r3, [r6, #46]	@ 0x2e
    3f7a:	26fe      	movs	r6, #254	@ 0xfe
    3f7c:	e07e      	b.n	0x407c
    3f7e:	5226      	strh	r6, [r4, r0]
    3f80:	00a4      	lsls	r4, r4, #2
    3f82:	1420      	asrs	r0, r4, #16
    3f84:	f282 6e06 			@ <UNDEFINED> instruction: 0xf2826e06
    3f88:	7312      	strb	r2, [r2, #12]
    3f8a:	ee6e cc06 	cdp	12, 6, cr12, cr14, cr6, {0}
    3f8e:	0000      	movs	r0, r0
    3f90:	3132      	adds	r1, #50	@ 0x32
    3f92:	7ef7      	ldrb	r7, [r6, #27]
    3f94:	6df4      	ldr	r4, [r6, #92]	@ 0x5c
    3f96:	d310      	bcc.n	0x3fba
    3f98:	1159      	asrs	r1, r3, #5
    3f9a:	0013      	movs	r3, r2
    3f9c:	d3f1      	bcc.n	0x3f82
    3f9e:	1159      	asrs	r1, r3, #5
    3fa0:	0003      	movs	r3, r0
    3fa2:	d3f1      	bcc.n	0x3f88
    3fa4:	ee09 3003 	cdp	0, 0, cr3, cr9, cr3, {0}
    3fa8:	709d      	strb	r5, [r3, #2]
    3faa:	003e      	movs	r6, r7
    3fac:	09d3      	lsrs	r3, r2, #7
    3fae:	f3e9 9d3d 	b.w	0xbeda2c
    3fb2:	3ea0      	subs	r6, #160	@ 0xa0
    3fb4:	d300      	bcc.n	0x3fb8
    3fb6:	ef09 3003 	vhadd.s8	d3, d9, d3
    3fba:	b09d      	sub	sp, #116	@ 0x74
    3fbc:	003e      	movs	r6, r7
    3fbe:	29d3      	cmp	r1, #211	@ 0xd3
    3fc0:	13e7      	asrs	r7, r4, #15
    3fc2:	9d38      	ldr	r5, [sp, #224]	@ 0xe0
    3fc4:	3e92      	subs	r6, #146	@ 0x92
    3fc6:	d31d      	bcc.n	0x4004
    3fc8:	ea29 3003 	bic.w	r0, r9, r3, lsl #12
    3fcc:	f29d 003e 			@ <UNDEFINED> instruction: 0xf29d003e
    3fd0:	39d3      	subs	r1, #211	@ 0xd3
    3fd2:	03e7      	lsls	r7, r4, #15
    3fd4:	9d30      	ldr	r5, [sp, #192]	@ 0xc0
    3fd6:	3e93      	subs	r6, #147	@ 0x93
    3fd8:	d303      	bcc.n	0x3fe2
    3fda:	ea39 3003 	bics.w	r0, r9, r3, lsl #12
    3fde:	7a9d      	ldrb	r5, [r3, #10]
    3fe0:	083e      	lsrs	r6, r7, #32
    3fe2:	a9d3      	add	r1, sp, #844	@ 0x34c
    3fe4:	b3e9      	cbz	r1, 0x4062
    3fe6:	9d3f      	ldr	r5, [sp, #252]	@ 0xfc
    3fe8:	3eaa      	subs	r6, #170	@ 0xaa
    3fea:	d300      	bcc.n	0x3fee
    3fec:	efa9 3003 	vaddl.s32	<illegal reg q1.5>, d9, d3
    3ff0:	ba9d      	hlt	0x001d
    3ff2:	003e      	movs	r6, r7
    3ff4:	a9d3      	add	r1, sp, #844	@ 0x34c
    3ff6:	03ec      	lsls	r4, r5, #15
    3ff8:	e200      	b.n	0x43fc
    3ffa:	0005      	movs	r5, r0
    3ffc:	05f2      	lsls	r2, r6, #23
    3ffe:	0200      	lsls	r0, r0, #8
    4000:	012d      	lsls	r5, r5, #4
    4002:	11e2      	asrs	r2, r4, #7
    4004:	7200      	strb	r0, [r0, #8]
    4006:	010d      	lsls	r5, r1, #4
    4008:	0d12      	lsrs	r2, r2, #20
    400a:	2200      	movs	r2, #0
    400c:	000d      	movs	r5, r1
    400e:	0d32      	lsrs	r2, r6, #20
    4010:	4200      	tst	r0, r0
    4012:	000d      	movs	r5, r1
    4014:	0d52      	lsrs	r2, r2, #21
    4016:	2200      	movs	r2, #0
    4018:	000e      	movs	r6, r1
    401a:	2e32      	cmp	r6, #50	@ 0x32
    401c:	4204      	tst	r4, r0
    401e:	080e      	lsrs	r6, r1, #32
    4020:	0e52      	lsrs	r2, r2, #25
    4022:	6200      	str	r0, [r0, #32]
    4024:	000e      	movs	r6, r1
    4026:	03e2      	lsls	r2, r4, #15
    4028:	f200 0003 	addw	r0, r0, #3
    402c:	e5e2      	b.n	0x3bf4
    402e:	f101 2983 	add.w	r9, r1, #2197848832	@ 0x83008300
    4032:	983e      	ldr	r0, [sp, #248]	@ 0xf8
    4034:	83e3      	strh	r3, [r4, #30]
    4036:	3e49      	subs	r6, #73	@ 0x49
    4038:	e598      	b.n	0x3b6c
    403a:	5e20      	ldrsh	r0, [r4, r0]
    403c:	2000      	movs	r0, #0
    403e:	00d7      	lsls	r7, r2, #3
    4040:	5e20      	ldrsh	r0, [r4, r0]
    4042:	201e      	movs	r0, #30
    4044:	045f      	lsls	r7, r3, #17
    4046:	1283      	asrs	r3, r0, #10
    4048:	8830      	ldrh	r0, [r6, #0]
    404a:	83e2      	strh	r2, [r4, #30]
    404c:	3e38      	subs	r6, #56	@ 0x38
    404e:	e488      	b.n	0x3962
    4050:	5883      	ldr	r3, [r0, r2]
    4052:	a83e      	add	r0, sp, #248	@ 0xf8
    4054:	2001      	movs	r0, #1
    4056:	00e2      	lsls	r2, r4, #3
    4058:	e320      	b.n	0x469c
    405a:	2040      	movs	r0, #64	@ 0x40
    405c:	80e4      	strh	r4, [r4, #6]
    405e:	e520      	b.n	0x3aa2
    4060:	1000      	asrs	r0, r0, #32
    4062:	2983      	cmp	r1, #131	@ 0x83
    4064:	983e      	ldr	r0, [sp, #248]	@ 0xf8
    4066:	83e3      	strh	r3, [r4, #30]
    4068:	3e49      	subs	r6, #73	@ 0x49
    406a:	e598      	b.n	0x3b9e
    406c:	6983      	ldr	r3, [r0, #24]
    406e:	e20e      	b.n	0x448e
    4070:	0005      	movs	r5, r0
    4072:	0d72      	lsrs	r2, r6, #21
    4074:	e200      	b.n	0x4478
    4076:	01f5      	lsls	r5, r6, #7
    4078:	f5f2 2831 			@ <UNDEFINED> instruction: 0xf5f22831
    407c:	8301      	strh	r1, [r0, #24]
    407e:	3e28      	subs	r6, #40	@ 0x28
    4080:	e388      	b.n	0x4794
    4082:	4883      	ldr	r0, [pc, #524]	@ (0x4290)
    4084:	883e      	ldrh	r6, [r7, #0]
    4086:	83e5      	strh	r5, [r4, #30]
    4088:	3e68      	subs	r6, #104	@ 0x68
    408a:	01a8      	lsls	r0, r5, #6
    408c:	e220      	b.n	0x44d0
    408e:	2020      	movs	r0, #32
    4090:	60e3      	str	r3, [r4, #12]
    4092:	e420      	b.n	0x38d6
    4094:	20a0      	movs	r0, #160	@ 0xa0
    4096:	20e5      	movs	r0, #229	@ 0xe5
    4098:	e620      	b.n	0x3cdc
    409a:	1020      	asrs	r0, r4, #32
    409c:	2983      	cmp	r1, #131	@ 0x83
    409e:	983e      	ldr	r0, [sp, #248]	@ 0xf8
    40a0:	83e3      	strh	r3, [r4, #30]
    40a2:	3e49      	subs	r6, #73	@ 0x49
    40a4:	e598      	b.n	0x3bd8
    40a6:	5f20      	ldrsh	r0, [r4, r4]
    40a8:	2000      	movs	r0, #0
    40aa:	005e      	lsls	r6, r3, #1
    40ac:	d720      	bvc.n	0x40f0
    40ae:	2000      	movs	r0, #0
    40b0:	1e5e      	subs	r6, r3, #1
    40b2:	1283      	asrs	r3, r0, #10
    40b4:	8830      	ldrh	r0, [r6, #0]
    40b6:	83e2      	strh	r2, [r4, #30]
    40b8:	3e38      	subs	r6, #56	@ 0x38
    40ba:	e488      	b.n	0x39ce
    40bc:	5883      	ldr	r3, [r0, r2]
    40be:	a83e      	add	r0, sp, #248	@ 0xf8
    40c0:	2001      	movs	r0, #1
    40c2:	00e2      	lsls	r2, r4, #3
    40c4:	e320      	b.n	0x4708
    40c6:	2042      	movs	r0, #66	@ 0x42
    40c8:	80e4      	strh	r4, [r4, #6]
    40ca:	e520      	b.n	0x3b0e
    40cc:	1000      	asrs	r0, r0, #32
    40ce:	6983      	ldr	r3, [r0, #24]
    40d0:	0c2e      	lsrs	r6, r5, #16
    40d2:	3e92      	subs	r6, #146	@ 0x92
    40d4:	10c1      	asrs	r1, r0, #3
    40d6:	4705      	bx	r0
    40d8:	0c28      	lsrs	r0, r5, #16
    40da:	3e72      	subs	r6, #114	@ 0x72
    40dc:	10c1      	asrs	r1, r0, #3
    40de:	4805      	ldr	r0, [pc, #20]	@ (0x40f4)
    40e0:	4c38      	ldr	r4, [pc, #224]	@ (0x41c4)
    40e2:	3e92      	subs	r6, #146	@ 0x92
    40e4:	24c3      	movs	r4, #195	@ 0xc3
    40e6:	03e7      	lsls	r7, r4, #15
    40e8:	05e2      	lsls	r2, r4, #23
    40ea:	0200      	lsls	r0, r0, #8
    40ec:	012d      	lsls	r5, r5, #4
    40ee:	11e2      	asrs	r2, r4, #7
    40f0:	7200      	strb	r0, [r0, #8]
    40f2:	000d      	movs	r5, r1
    40f4:	0d52      	lsrs	r2, r2, #21
    40f6:	e20d      	b.n	0x4514
    40f8:	0003      	movs	r3, r0
    40fa:	e5e2      	b.n	0x3cc2
    40fc:	2831      	cmp	r0, #49	@ 0x31
    40fe:	8301      	strh	r1, [r0, #24]
    4100:	3e68      	subs	r6, #104	@ 0x68
    4102:	01a8      	lsls	r0, r5, #6
    4104:	e620      	b.n	0x3d48
    4106:	1002      	asrs	r2, r0, #32
    4108:	6983      	ldr	r3, [r0, #24]
    410a:	e20e      	b.n	0x452a
    410c:	0005      	movs	r5, r0
    410e:	2d02      	cmp	r5, #2
    4110:	e201      	b.n	0x4516
    4112:	0011      	movs	r1, r2
    4114:	0d72      	lsrs	r2, r6, #21
    4116:	5201      	strh	r1, [r0, r0]
    4118:	000d      	movs	r5, r1
    411a:	03e2      	lsls	r2, r4, #15
    411c:	e200      	b.n	0x4520
    411e:	21e5      	movs	r1, #229	@ 0xe5
    4120:	920c      	str	r2, [sp, #48]	@ 0x30
    4122:	c13e      	stmia	r1!, {r1, r2, r3, r4, r5}
    4124:	14ef      	asrs	r7, r5, #19
    4126:	3847      	subs	r0, #71	@ 0x47
    4128:	d246      	bcs.n	0x41b8
    412a:	e920 0c23 	stmdb	r0!, {r0, r1, r5, sl, fp}
    412e:	3e72      	subs	r6, #114	@ 0x72
    4130:	efc1 4814 	vmov.i16	d20, #20	@ 0x0014
    4134:	4638      	mov	r0, r7
    4136:	20d2      	movs	r0, #210	@ 0xd2
    4138:	33e7      	adds	r3, #231	@ 0xe7
    413a:	0128      	lsls	r0, r5, #4
    413c:	6883      	ldr	r3, [r0, #8]
    413e:	a83e      	add	r0, sp, #248	@ 0xf8
    4140:	2001      	movs	r0, #1
    4142:	00e6      	lsls	r6, r4, #3
    4144:	2010      	movs	r0, #16
    4146:	00b0      	lsls	r0, r6, #2
    4148:	b220      	sxth	r0, r4
    414a:	2000      	movs	r0, #0
    414c:	0366      	lsls	r6, r4, #13
    414e:	6220      	str	r0, [r4, #32]
    4150:	2019      	movs	r0, #25
    4152:	0164      	lsls	r4, r4, #5
    4154:	e920 10c0 	stmdb	r0!, {r6, r7, ip}
    4158:	fddf 4715 	ldc2l	7, cr4, [pc, #84]	@ 0x41b0
    415c:	2830      	cmp	r0, #48	@ 0x30
    415e:	4601      	mov	r1, r0
    4160:	2580      	movs	r5, #128	@ 0x80
    4162:	ed05 4298 	sfm	f4, 4, [r5, #-608]	@ 0xfffffda0
    4166:	2852      	cmp	r0, #82	@ 0x52
    4168:	469e      	mov	lr, r3
    416a:	2580      	movs	r5, #128	@ 0x80
    416c:	ed05 4298 	sfm	f4, 4, [r5, #-608]	@ 0xfffffda0
    4170:	2852      	cmp	r0, #82	@ 0x52
    4172:	848e      	strh	r6, [r1, #36]	@ 0x24
    4174:	fec1 83c5 	cdp2	3, 12, cr8, cr1, cr5, {6}
    4178:	601a      	str	r2, [r3, #0]
    417a:	5804      	ldr	r4, [r0, r0]
    417c:	d052      	beq.n	0x4224
    417e:	298e      	cmp	r1, #142	@ 0x8e
    4180:	8524      	strh	r4, [r4, #40]	@ 0x28
    4182:	69e2      	ldr	r2, [r4, #28]
    4184:	5804      	ldr	r4, [r0, r0]
    4186:	d052      	beq.n	0x422e
    4188:	298e      	cmp	r1, #142	@ 0x8e
    418a:	8524      	strh	r4, [r4, #40]	@ 0x28
    418c:	48e2      	ldr	r0, [pc, #904]	@ (0x4518)
    418e:	2818      	cmp	r0, #24
    4190:	6c50      	ldr	r0, [r2, #68]	@ 0x44
    4192:	5804      	ldr	r4, [r0, r0]
    4194:	d052      	beq.n	0x423c
    4196:	270e      	movs	r7, #14
    4198:	8524      	strh	r4, [r4, #40]	@ 0x28
    419a:	69e2      	ldr	r2, [r4, #28]
    419c:	5804      	ldr	r4, [r0, r0]
    419e:	d052      	beq.n	0x4246
    41a0:	270e      	movs	r7, #14
    41a2:	8524      	strh	r4, [r4, #40]	@ 0x28
    41a4:	48e2      	ldr	r0, [pc, #904]	@ (0x4530)
    41a6:	0ed9      	lsrs	r1, r3, #27
    41a8:	6428      	str	r0, [r5, #64]	@ 0x40
    41aa:	8204      	strh	r4, [r0, #16]
    41ac:	3848      	subs	r0, #72	@ 0x48
    41ae:	d516      	bpl.n	0x41de
    41b0:	f15e 103d 	adcs.w	r0, lr, #3997757	@ 0x3d003d
    41b4:	fddf 4715 	ldc2l	7, cr4, [pc, #84]	@ 0x420c
    41b8:	0460      	lsls	r0, r4, #17
    41ba:	5258      	strh	r0, [r3, r1]
    41bc:	8ed0      	ldrh	r0, [r2, #54]	@ 0x36
    41be:	2429      	movs	r4, #41	@ 0x29
    41c0:	e285      	b.n	0x46ce
    41c2:	0469      	lsls	r1, r5, #17
    41c4:	5258      	strh	r0, [r3, r1]
    41c6:	8ed0      	ldrh	r0, [r2, #54]	@ 0x36
    41c8:	2429      	movs	r4, #41	@ 0x29
    41ca:	e285      	b.n	0x46d8
    41cc:	1848      	adds	r0, r1, r1
    41ce:	5fdc      	ldrsh	r4, [r3, r7]
    41d0:	046c      	lsls	r4, r5, #17
    41d2:	5258      	strh	r0, [r3, r1]
    41d4:	0ed0      	lsrs	r0, r2, #27
    41d6:	2427      	movs	r4, #39	@ 0x27
    41d8:	e285      	b.n	0x46e6
    41da:	0469      	lsls	r1, r5, #17
    41dc:	5258      	strh	r0, [r3, r1]
    41de:	0ed0      	lsrs	r0, r2, #27
    41e0:	2427      	movs	r4, #39	@ 0x27
    41e2:	e285      	b.n	0x46f0
    41e4:	d948      	bls.n	0x4278
    41e6:	280e      	cmp	r0, #14
    41e8:	0464      	lsls	r4, r4, #17
    41ea:	4882      	ldr	r0, [pc, #520]	@ (0x43f4)
    41ec:	8228      	strh	r0, [r5, #16]
    41ee:	5173      	str	r3, [r6, r5]
    41f0:	15ed      	asrs	r5, r5, #23
    41f2:	03df      	lsls	r7, r3, #15
    41f4:	dff1      	svc	241	@ 0xf1
    41f6:	14fd      	asrs	r5, r7, #19
    41f8:	6047      	str	r7, [r0, #4]
    41fa:	8d04      	ldrh	r4, [r0, #40]	@ 0x28
    41fc:	0e05      	lsrs	r5, r0, #24
    41fe:	216e      	movs	r1, #110	@ 0x6e
    4200:	846d      	strh	r5, [r5, #34]	@ 0x22
    4202:	983f      	ldr	r0, [sp, #252]	@ 0xfc
    4204:	4630      	mov	r0, r6
    4206:	68d0      	ldr	r0, [r2, #12]
    4208:	e0e0      	b.n	0x43cc
    420a:	d216      	bcs.n	0x423a
    420c:	f946 9983 	vst2.32	{d25,d27}, [r6], r3
    4210:	0461      	lsls	r1, r4, #17
    4212:	5258      	strh	r0, [r3, r1]
    4214:	8ed0      	ldrh	r0, [r2, #54]	@ 0x36
    4216:	2428      	movs	r4, #40	@ 0x28
    4218:	e285      	b.n	0x4726
    421a:	16e8      	asrs	r0, r5, #27
    421c:	df85      	svc	133	@ 0x85
    421e:	f103 fddf 	bl	0x107de0
    4222:	4714      	bxns	r2
    4224:	0460      	lsls	r0, r4, #17
    4226:	058d      	lsls	r5, r1, #22
    4228:	6e0e      	ldr	r6, [r1, #96]	@ 0x60
    422a:	6d21      	ldr	r1, [r4, #80]	@ 0x50
    422c:	3f8c      	subs	r7, #140	@ 0x8c
    422e:	1398      	asrs	r0, r3, #14
    4230:	d046      	beq.n	0x42c0
    4232:	a068      	add	r0, pc, #416	@ (adr r0, 0x43d4)
    4234:	16e0      	asrs	r0, r4, #27
    4236:	c6d2      	stmia	r6!, {r1, r4, r6, r7}
    4238:	f3f9 103d 			@ <UNDEFINED> instruction: 0xf3f9103d
    423c:	fcdf 6f04 	ldc2l	15, cr6, [pc], {4}
    4240:	26e2      	movs	r6, #226	@ 0xe2
    4242:	46d2      	mov	sl, sl
    4244:	e3f8      	b.n	0x4a38
    4246:	d206      	bcs.n	0x4256
    4248:	f946 4df3 			@ <UNDEFINED> instruction: 0xf9464df3
    424c:	df10      	svc	16
    424e:	04fc      	lsls	r4, r7, #19
    4250:	e26f      	b.n	0x4732
    4252:	d226      	bcs.n	0x42a2
    4254:	f8c6 06e3 	str.w	r0, [r6, #1763]	@ 0x6e3
    4258:	c6d2      	stmia	r6!, {r1, r4, r6, r7}
    425a:	f3f9 104d 			@ <UNDEFINED> instruction: 0xf3f9104d
    425e:	7fdf      	ldrb	r7, [r3, #31]
    4260:	4604      	mov	r4, r0
    4262:	58d0      	ldr	r0, [r2, r3]
    4264:	20b0      	movs	r0, #176	@ 0xb0
    4266:	866c      	strh	r4, [r5, #50]	@ 0x32
    4268:	983f      	ldr	r0, [sp, #252]	@ 0xfc
    426a:	4617      	mov	r7, r2
    426c:	68d0      	ldr	r0, [r2, #12]
    426e:	20a0      	movs	r0, #160	@ 0xa0
    4270:	966c      	str	r6, [sp, #432]	@ 0x1b0
    4272:	ee3f 0c02 	cdp	12, 3, cr0, cr15, cr2, {0}
    4276:	1df0      	adds	r0, r6, #7
    4278:	5110      	str	r0, [r2, r4]
    427a:	0895      	lsrs	r5, r2, #2
    427c:	0c00      	lsrs	r0, r0, #16
    427e:	6d20      	ldr	r0, [r4, #80]	@ 0x50
    4280:	0896      	lsrs	r6, r2, #2
    4282:	00c0      	lsls	r0, r0, #3
    4284:	86d2      	strh	r2, [r2, #54]	@ 0x36
    4286:	0089      	lsls	r1, r1, #2
    4288:	200c      	movs	r0, #12
    428a:	9a6d      	ldr	r2, [sp, #436]	@ 0x1b4
    428c:	c008      	stmia	r0!, {r3}
    428e:	d200      	bcs.n	0x4292
    4290:	89c6      	ldrh	r6, [r0, #14]
    4292:	1200      	asrs	r0, r0, #8
    4294:	0181      	lsls	r1, r0, #6
    4296:	5122      	str	r2, [r4, r4]
    4298:	3203      	adds	r2, #3
    429a:	0881      	lsrs	r1, r0, #2
    429c:	7142      	strb	r2, [r0, #5]
    429e:	0200      	lsls	r0, r0, #8
    42a0:	0001      	movs	r1, r0
    42a2:	0f92      	lsrs	r2, r2, #30
    42a4:	7208      	strb	r0, [r1, #8]
    42a6:	080f      	lsrs	r7, r1, #32
    42a8:	0282      	lsls	r2, r0, #10
    42aa:	3830      	subs	r0, #48	@ 0x30
    42ac:	8314      	strh	r4, [r2, #24]
    42ae:	0f91      	lsrs	r1, r2, #30
    42b0:	43f1      	mvns	r1, r6
    42b2:	5151      	str	r1, [r2, r5]
    42b4:	2010      	movs	r0, #16
    42b6:	530a      	strh	r2, [r1, r4]
    42b8:	b155      	cbz	r5, 0x42d0
    42ba:	ed35 0895 	ldc	8, cr0, [r5, #-596]!	@ 0xfffffdac
    42be:	5001      	str	r1, [r0, r0]
    42c0:	66c2      	str	r2, [r0, #108]	@ 0x6c
    42c2:	c089      	stmia	r0!, {r0, r3, r7}
    42c4:	000c      	movs	r4, r1
    42c6:	da80      	bge.n	0x41ca
    42c8:	6c22      	ldr	r2, [r4, #64]	@ 0x40
    42ca:	0896      	lsrs	r6, r2, #2
    42cc:	1442      	asrs	r2, r0, #17
    42ce:	9000      	str	r0, [sp, #0]
    42d0:	4c24      	ldr	r4, [pc, #144]	@ (0x4364)
    42d2:	089a      	lsrs	r2, r3, #2
    42d4:	0784      	lsls	r4, r0, #30
    42d6:	c217      	stmia	r2!, {r0, r1, r2, r4}
    42d8:	89a4      	ldrh	r4, [r4, #12]
    42da:	1ce0      	adds	r0, r4, #3
    42dc:	9869      	ldr	r0, [sp, #420]	@ 0x1a4
    42de:	5112      	str	r2, [r2, r4]
    42e0:	0895      	lsrs	r5, r2, #2
    42e2:	9830      	ldr	r0, [sp, #192]	@ 0xc0
    42e4:	21f7      	movs	r1, #247	@ 0xf7
    42e6:	76d6      	strb	r6, [r2, #27]
    42e8:	4310      	orrs	r0, r2
    42ea:	5151      	str	r1, [r2, r5]
    42ec:	a010      	add	r0, pc, #64	@ (adr r0, 0x4330)
    42ee:	4306      	orrs	r6, r0
    42f0:	a154      	add	r1, pc, #336	@ (adr r1, 0x4444)
    42f2:	6060      	str	r0, [r4, #4]
    42f4:	2311      	movs	r3, #17
    42f6:	076d      	lsls	r5, r5, #29
    42f8:	dff1      	svc	241	@ 0xf1
    42fa:	06fc      	lsls	r4, r7, #27
    42fc:	324f      	adds	r2, #79	@ 0x4f
    42fe:	95ed      	str	r5, [sp, #948]	@ 0x3b4
    4300:	0008      	movs	r0, r1
    4302:	4e5e      	ldr	r6, [pc, #376]	@ (0x447c)
    4304:	1ce2      	adds	r2, r4, #3
    4306:	a4d2      	add	r4, pc, #840	@ (adr r4, 0x4650)
    4308:	e089      	b.n	0x441e
    430a:	d226      	bcs.n	0x435a
    430c:	89c6      	ldrh	r6, [r0, #14]
    430e:	06e0      	lsls	r0, r4, #27
    4310:	1442      	asrs	r2, r0, #17
    4312:	2000      	movs	r0, #0
    4314:	966d      	str	r6, [sp, #436]	@ 0x1b4
    4316:	6e08      	ldr	r0, [r1, #96]	@ 0x60
    4318:	6d20      	ldr	r0, [r4, #80]	@ 0x50
    431a:	0898      	lsrs	r0, r3, #2
    431c:	9551      	str	r5, [sp, #324]	@ 0x144
    431e:	3018      	adds	r0, #24
    4320:	0128      	lsls	r0, r5, #4
    4322:	f720 8380 	bgt.w	0xfff24a26
    4326:	301a      	adds	r0, #26
    4328:	f718 424e 			@ <UNDEFINED> instruction: 0xf718424e
    432c:	7078      	strb	r0, [r7, #1]
    432e:	10a1      	asrs	r1, r4, #2
    4330:	2ee0      	cmp	r6, #224	@ 0xe0
    4332:	000a      	movs	r2, r1
    4334:	04df      	lsls	r7, r3, #19
    4336:	83f1      	strh	r1, [r6, #30]
    4338:	3f99      	subs	r7, #153	@ 0x99
    433a:	f798 9551 	b.w	0xff39cde0
    433e:	0008      	movs	r0, r1
    4340:	200c      	movs	r0, #12
    4342:	966d      	str	r6, [sp, #436]	@ 0x1b4
    4344:	c008      	stmia	r0!, {r3}
    4346:	d200      	bcs.n	0x434a
    4348:	8986      	ldrh	r6, [r0, #12]
    434a:	0c00      	lsrs	r0, r0, #16
    434c:	6d20      	ldr	r0, [r4, #80]	@ 0x50
    434e:	089a      	lsrs	r2, r3, #2
    4350:	00c0      	lsls	r0, r0, #3
    4352:	c6d2      	stmia	r6!, {r1, r4, r6, r7}
    4354:	3089      	adds	r0, #137	@ 0x89
    4356:	f918 df10 	ldrsb.w	sp, [r8, #16]!
    435a:	983f      	ldr	r0, [sp, #252]	@ 0xfc
    435c:	83f9      	strh	r1, [r7, #30]
    435e:	6f79      	ldr	r1, [r7, #116]	@ 0x74
    4360:	7120      	strb	r0, [r4, #4]
    4362:	4604      	mov	r4, r0
    4364:	fc10 207c 	ldc2	0, cr2, [r0], {124}	@ 0x7c
    4368:	0461      	lsls	r1, r4, #17
    436a:	1207      	asrs	r7, r0, #8
    436c:	9183      	str	r1, [sp, #524]	@ 0x20c
    436e:	ed3f 0895 	ldc	8, cr0, [pc, #-596]!	@ 0x411c
    4372:	3801      	subs	r0, #1
    4374:	c4c2      	stmia	r4!, {r1, r6, r7}
    4376:	e089      	b.n	0x448c
    4378:	d21c      	bcs.n	0x43b4
    437a:	89a4      	ldrh	r4, [r4, #12]
    437c:	6c20      	ldr	r0, [r4, #64]	@ 0x40
    437e:	0898      	lsrs	r0, r3, #2
    4380:	1442      	asrs	r2, r0, #17
    4382:	2000      	movs	r0, #0
    4384:	966d      	str	r6, [sp, #436]	@ 0x1b4
    4386:	8308      	strh	r0, [r1, #24]
    4388:	2f71      	cmp	r7, #113	@ 0x71
    438a:	9c4c      	ldr	r4, [sp, #304]	@ 0x130
    438c:	8408      	strh	r0, [r1, #32]
    438e:	1707      	asrs	r7, r0, #28
    4390:	01df      	lsls	r7, r3, #7
    4392:	d3f1      	bcc.n	0x4378
    4394:	895e      	ldrh	r6, [r3, #10]
    4396:	e000      	b.n	0x439a
    4398:	7530      	strb	r0, [r6, #20]
    439a:	0715      	lsls	r5, r2, #28
    439c:	000a      	movs	r2, r1
    439e:	a2ee      	add	r2, pc, #952	@ (adr r2, 0x4758)
    43a0:	0010      	movs	r0, r2
    43a2:	51f1      	str	r1, [r6, r7]
    43a4:	089e      	lsrs	r6, r3, #2
    43a6:	0c00      	lsrs	r0, r0, #16
    43a8:	6d20      	ldr	r0, [r4, #80]	@ 0x50
    43aa:	089f      	lsrs	r7, r3, #2
    43ac:	00c0      	lsls	r0, r0, #3
    43ae:	16d2      	asrs	r2, r2, #27
    43b0:	008a      	lsls	r2, r1, #2
    43b2:	200c      	movs	r0, #12
    43b4:	a36d      	add	r3, pc, #436	@ (adr r3, 0x456c)
    43b6:	c008      	stmia	r0!, {r3}
    43b8:	d200      	bcs.n	0x43bc
    43ba:	8a56      	ldrh	r6, [r2, #18]
    43bc:	0200      	lsls	r0, r0, #8
    43be:	0075      	lsls	r5, r6, #1
    43c0:	4512      	cmp	r2, r2
    43c2:	2207      	movs	r2, #7
    43c4:	0015      	movs	r5, r2
    43c6:	0532      	lsls	r2, r6, #20
    43c8:	4200      	tst	r0, r0
    43ca:	0005      	movs	r5, r0
    43cc:	0552      	lsls	r2, r2, #21
    43ce:	6200      	str	r0, [r0, #32]
    43d0:	0005      	movs	r5, r0
    43d2:	0572      	lsls	r2, r6, #21
    43d4:	a200      	add	r2, pc, #0	@ (adr r2, 0x43d8)
    43d6:	0075      	lsls	r5, r6, #1
    43d8:	0fc2      	lsrs	r2, r0, #31
    43da:	b204      	sxth	r4, r0
    43dc:	300f      	adds	r0, #15
    43de:	5238      	strh	r0, [r7, r0]
    43e0:	c183      	stmia	r1!, {r0, r1, r7}
    43e2:	f10f 7043 	add.w	r0, pc, #51118080	@ 0x30c0000
    43e6:	a095      	add	r0, pc, #596	@ (adr r0, 0x463c)
    43e8:	1010      	asrs	r0, r2, #32
    43ea:	0a30      	lsrs	r0, r6, #8
    43ec:	6443      	str	r3, [r0, #68]	@ 0x44
    43ee:	60a5      	str	r5, [r4, #8]
    43f0:	1580      	asrs	r0, r0, #22
    43f2:	d763      	bvc.n	0x44bc
    43f4:	5535      	strb	r5, [r6, r4]
    43f6:	5556      	strb	r6, [r2, r5]
    43f8:	eed3 1089 	cdp	0, 13, cr1, cr3, cr9, {4}
    43fc:	24a0      	movs	r4, #160	@ 0xa0
    43fe:	9f6c      	ldr	r7, [sp, #432]	@ 0x1b0
    4400:	cc08      	ldmia	r4!, {r3}
    4402:	0000      	movs	r0, r0
    4404:	2ca8      	cmp	r4, #168	@ 0xa8
    4406:	f6c2 2089 	movt	r0, #10889	@ 0x2a89
    440a:	0144      	lsls	r4, r0, #5
    440c:	4900      	ldr	r1, [pc, #0]	@ (0x4410)
    440e:	34c2      	adds	r4, #194	@ 0xc2
    4410:	408a      	lsls	r2, r1
    4412:	9078      	str	r0, [sp, #480]	@ 0x1e0
    4414:	4c25      	ldr	r4, [pc, #148]	@ (0x44ac)
    4416:	08a3      	lsrs	r3, r4, #2
    4418:	91ce      	str	r1, [sp, #824]	@ 0x338
    441a:	6fe6      	ldr	r6, [r4, #124]	@ 0x7c
    441c:	9e51      	ldr	r6, [sp, #324]	@ 0x144
    441e:	1008      	asrs	r0, r1, #32
    4420:	e003      	b.n	0x442a
    4422:	f105 fcdf 	bl	0x109de4
    4426:	4714      	bxns	r2
    4428:	10a0      	asrs	r0, r4, #2
    442a:	3470      	adds	r4, #112	@ 0x70
    442c:	d046      	beq.n	0x44bc
    442e:	b018      	add	sp, #96	@ 0x60
    4430:	ed35 089e 	ldc	8, cr0, [r5, #-632]!	@ 0xfffffd88
    4434:	4600      	mov	r0, r0
    4436:	e14e      	b.n	0x46d6
    4438:	d21c      	bcs.n	0x4474
    443a:	8a34      	ldrh	r4, [r6, #16]
    443c:	16e0      	asrs	r0, r4, #27
    443e:	56d2      	ldrsb	r2, [r2, r3]
    4440:	e08a      	b.n	0x4558
    4442:	4276      	negs	r6, r6
    4444:	0014      	movs	r4, r2
    4446:	6d20      	ldr	r0, [r4, #80]	@ 0x50
    4448:	089f      	lsrs	r7, r3, #2
    444a:	276e      	movs	r7, #110	@ 0x6e
    444c:	a16d      	add	r1, pc, #436	@ (adr r1, 0x4604)
    444e:	5108      	str	r0, [r1, r4]
    4450:	189e      	adds	r6, r3, r2
    4452:	14e0      	asrs	r0, r4, #19
    4454:	0784      	lsls	r4, r0, #30
    4456:	9859      	ldr	r0, [sp, #356]	@ 0x164
    4458:	0a11      	lsrs	r1, r2, #8
    445a:	4700      	bx	r0
    445c:	3fe3      	subs	r7, #227	@ 0xe3
    445e:	000a      	movs	r2, r1
    4460:	6347      	str	r7, [r0, #52]	@ 0x34
    4462:	df34      	svc	52	@ 0x34
    4464:	f104 7fdf 	add.w	pc, r4, #29229056	@ 0x1be0000
    4468:	4604      	mov	r4, r0
    446a:	18d0      	adds	r0, r2, r3
    446c:	33d0      	adds	r3, #208	@ 0xd0
    446e:	fc98 9e51 	ldc2	14, cr9, [r8], {81}	@ 0x51
    4472:	0008      	movs	r0, r1
    4474:	200c      	movs	r0, #12
    4476:	9f6d      	ldr	r7, [sp, #436]	@ 0x1b4
    4478:	c008      	stmia	r0!, {r3}
    447a:	d200      	bcs.n	0x447e
    447c:	8a16      	ldrh	r6, [r2, #16]
    447e:	0c00      	lsrs	r0, r0, #16
    4480:	6d20      	ldr	r0, [r4, #80]	@ 0x50
    4482:	08a3      	lsrs	r3, r4, #2
    4484:	00c0      	lsls	r0, r0, #3
    4486:	56d2      	ldrsb	r2, [r2, r3]
    4488:	308a      	adds	r0, #138	@ 0x8a
    448a:	fc18 01df 	ldc2	1, cr0, [r8], {223}	@ 0xdf
    448e:	dff1      	svc	241	@ 0xf1
    4490:	047e      	lsls	r6, r7, #17
    4492:	d046      	beq.n	0x4522
    4494:	1018      	asrs	r0, r3, #32
    4496:	9836      	ldr	r0, [sp, #216]	@ 0xd8
    4498:	06fc      	lsls	r4, r7, #27
    449a:	4751      	bx	sl
    449c:	1461      	asrs	r1, r4, #17
    449e:	cfc1      	ldmia	r7, {r0, r6, r7}
    44a0:	5107      	str	r7, [r0, r4]
    44a2:	7146      	strb	r6, [r0, #5]
    44a4:	3510      	adds	r5, #16
    44a6:	9eed      	ldr	r6, [sp, #948]	@ 0x3b4
    44a8:	0108      	lsls	r0, r1, #4
    44aa:	c233      	stmia	r2!, {r0, r1, r4, r5}
    44ac:	8a54      	ldrh	r4, [r2, #18]
    44ae:	1ce0      	adds	r0, r4, #3
    44b0:	34d2      	adds	r4, #210	@ 0xd2
    44b2:	208a      	movs	r0, #138	@ 0x8a
    44b4:	a16c      	add	r1, pc, #432	@ (adr r1, 0x4668)
    44b6:	4208      	tst	r0, r1
    44b8:	0014      	movs	r4, r2
    44ba:	6d20      	ldr	r0, [r4, #80]	@ 0x50
    44bc:	089f      	lsrs	r7, r3, #2
    44be:	54c2      	strb	r2, [r0, r3]
    44c0:	408a      	lsls	r2, r1
    44c2:	9078      	str	r0, [sp, #480]	@ 0x1e0
    44c4:	1835      	adds	r5, r6, r0
    44c6:	dffc      	svc	252	@ 0xfc
    44c8:	f102 7fdf 	add.w	pc, r2, #29229056	@ 0x1be0000
    44cc:	4604      	mov	r4, r0
    44ce:	18d0      	adds	r0, r2, r3
    44d0:	3190      	adds	r1, #144	@ 0x90
    44d2:	9eed      	ldr	r6, [sp, #948]	@ 0x3b4
    44d4:	0008      	movs	r0, r1
    44d6:	0a07      	lsrs	r7, r0, #8
    44d8:	ee00 10a2 	cdp	0, 0, cr1, cr0, cr2, {5}
    44dc:	2ee0      	cmp	r6, #224	@ 0xe0
    44de:	000a      	movs	r2, r1
    44e0:	01df      	lsls	r7, r3, #7
    44e2:	dff1      	svc	241	@ 0xf1
    44e4:	057e      	lsls	r6, r7, #21
    44e6:	6147      	str	r7, [r0, #20]
    44e8:	8d14      	ldrh	r4, [r2, #40]	@ 0x28
    44ea:	5201      	strh	r1, [r0, r0]
    44ec:	c983      	ldmia	r1, {r0, r1, r7}
    44ee:	106f      	asrs	r7, r5, #1
    44f0:	fc15 60dc 	ldc2	0, cr6, [r5], {220}	@ 0xdc
    44f4:	8104      	strh	r4, [r0, #8]
    44f6:	0744      	lsls	r4, r0, #29
    44f8:	5151      	str	r1, [r2, r5]
    44fa:	089e      	lsrs	r6, r3, #2
    44fc:	0c00      	lsrs	r0, r0, #16
    44fe:	6d20      	ldr	r0, [r4, #80]	@ 0x50
    4500:	089f      	lsrs	r7, r3, #2
    4502:	00c0      	lsls	r0, r0, #3
    4504:	16d2      	asrs	r2, r2, #27
    4506:	008a      	lsls	r2, r1, #2
    4508:	200c      	movs	r0, #12
    450a:	a36d      	add	r3, pc, #436	@ (adr r3, 0x46c0)
    450c:	c008      	stmia	r0!, {r3}
    450e:	d200      	bcs.n	0x4512
    4510:	8a56      	ldrh	r6, [r2, #18]
    4512:	1830      	adds	r0, r6, r0
    4514:	dffc      	svc	252	@ 0xfc
    4516:	f102 3321 	add.w	r3, r2, #555819297	@ 0x21212121
    451a:	937e      	str	r3, [sp, #504]	@ 0x1f8
    451c:	701a      	strb	r2, [r3, #0]
    451e:	f310 17a3 			@ <UNDEFINED> instruction: 0xf31017a3
    4522:	84b3      	strh	r3, [r6, #36]	@ 0x24
    4524:	b314      	cbz	r4, 0x456c
    4526:	14a5      	asrs	r5, r4, #18
    4528:	0233      	lsls	r3, r6, #8
    452a:	b317      	cbz	r7, 0x4572
    452c:	3561      	adds	r5, #97	@ 0x61
    452e:	99a9      	ldr	r1, [sp, #676]	@ 0x2a4
    4530:	2106      	movs	r1, #6
    4532:	10ae      	asrs	r6, r5, #2
    4534:	000a      	movs	r2, r1
    4536:	1a21      	subs	r1, r4, r0
    4538:	107e      	asrs	r6, r7, #1
    453a:	ffdf 471e 	vqshl.u16	d20, d14, #15
    453e:	6c20      	ldr	r0, [r4, #64]	@ 0x40
    4540:	08a7      	lsrs	r7, r4, #2
    4542:	ffcc c8ff 			@ <UNDEFINED> instruction: 0xffccc8ff
    4546:	c213      	stmia	r2!, {r0, r1, r4}
    4548:	8a76      	ldrh	r6, [r6, #18]
    454a:	4520      	cmp	r0, r4
    454c:	0001      	movs	r1, r0
    454e:	fe49 1c05 	cdp2	12, 4, cr1, cr9, cr5, {0}
    4552:	6d20      	ldr	r0, [r4, #80]	@ 0x50
    4554:	08a7      	lsrs	r7, r4, #2
    4556:	1b21      	subs	r1, r4, r4
    4558:	8c7b      	ldrh	r3, [r7, #34]	@ 0x22
    455a:	1201      	asrs	r1, r0, #8
    455c:	c046      	stmia	r0!, {r1, r2, r6}
    455e:	9048      	str	r0, [sp, #288]	@ 0x120
    4560:	0460      	lsls	r0, r4, #17
    4562:	058d      	lsls	r5, r1, #22
    4564:	2135      	movs	r1, #53	@ 0x35
    4566:	701b      	strb	r3, [r3, #0]
    4568:	3a93      	subs	r2, #147	@ 0x93
    456a:	1074      	asrs	r4, r6, #1
    456c:	a253      	add	r2, pc, #332	@ (adr r2, 0x46bc)
    456e:	6317      	str	r7, [r2, #48]	@ 0x30
    4570:	1483      	asrs	r3, r0, #18
    4572:	aac3      	add	r2, sp, #780	@ 0x30c
    4574:	d314      	bcc.n	0x45a0
    4576:	1578      	asrs	r0, r7, #21
    4578:	1303      	asrs	r3, r0, #12
    457a:	2311      	movs	r3, #17
    457c:	8c97      	ldrh	r7, [r2, #36]	@ 0x24
    457e:	1189      	asrs	r1, r1, #6
    4580:	0003      	movs	r3, r0
    4582:	e317      	b.n	0x4bb4
    4584:	17a0      	asrs	r0, r4, #30
    4586:	77c3      	strb	r3, [r0, #31]
    4588:	f315 f111 	bl	0x7197ae
    458c:	101d      	asrs	r5, r3, #32
    458e:	000a      	movs	r2, r1
    4590:	be21      	bkpt	0x0021
    4592:	0a7a      	lsrs	r2, r7, #9
    4594:	9300      	str	r3, [sp, #0]
    4596:	6b7a      	ldr	r2, [r7, #52]	@ 0x34
    4598:	70a0      	strb	r0, [r4, #2]
    459a:	5310      	strh	r0, [r2, r4]
    459c:	17db      	asrs	r3, r3, #31
    459e:	1820      	adds	r0, r4, r0
    45a0:	2a21      	cmp	r2, #33	@ 0x21
    45a2:	1075      	asrs	r5, r6, #1
    45a4:	76c2      	strb	r2, [r0, #27]
    45a6:	208a      	movs	r0, #138	@ 0x8a
    45a8:	a96d      	add	r1, sp, #436	@ 0x1b4
    45aa:	1008      	asrs	r0, r1, #32
    45ac:	fcdf c227 	ldc2l	2, cr12, [pc], {39}	@ 0x27
    45b0:	8a76      	ldrh	r6, [r6, #18]
    45b2:	06f0      	lsls	r0, r6, #27
    45b4:	96c2      	str	r6, [sp, #776]	@ 0x308
    45b6:	e08a      	b.n	0x46ce
    45b8:	8207      	strh	r7, [r0, #16]
    45ba:	4c86      	ldr	r4, [pc, #536]	@ (0x47d4)
    45bc:	06e1      	lsls	r1, r4, #27
    45be:	97c2      	str	r7, [sp, #776]	@ 0x308
    45c0:	208a      	movs	r0, #138	@ 0x8a
    45c2:	6f24      	ldr	r4, [r4, #112]	@ 0x70
    45c4:	6980      	ldr	r0, [r0, #24]
    45c6:	fc01 7c2f 	stc2	12, cr7, [r1], {47}	@ 0x2f
    45ca:	08a9      	lsrs	r1, r5, #2
    45cc:	e242      	b.n	0x4a54
    45ce:	5207      	strh	r7, [r0, r0]
    45d0:	e492      	b.n	0x3ef8
    45d2:	7e06      	ldrb	r6, [r0, #24]
    45d4:	4df2      	ldr	r5, [pc, #968]	@ (0x49a0)
    45d6:	df10      	svc	16
    45d8:	bece      	bkpt	0x00ce
    45da:	208a      	movs	r0, #138	@ 0x8a
    45dc:	eb6d 5108 	sbc.w	r1, sp, r8, lsl #20
    45e0:	18ef      	adds	r7, r5, r3
    45e2:	0c00      	lsrs	r0, r0, #16
    45e4:	6d20      	ldr	r0, [r4, #80]	@ 0x50
    45e6:	08ed      	lsrs	r5, r5, #3
    45e8:	f051 0008 	orrs.w	r0, r1, #8
    45ec:	200c      	movs	r0, #12
    45ee:	f16d ec08 	blx	0x171e00
    45f2:	08ab      	lsrs	r3, r5, #2
    45f4:	36d2      	adds	r6, #210	@ 0xd2
    45f6:	108f      	asrs	r7, r1, #2
    45f8:	8f55      	ldrh	r5, [r2, #58]	@ 0x3a
    45fa:	0a03      	lsrs	r3, r0, #8
    45fc:	4700      	bx	r0
    45fe:	e980 0463 			@ <UNDEFINED> instruction: 0xe9800463
    4602:	095a      	lsrs	r2, r3, #5
    4604:	def2      	udf	#242	@ 0xf2
    4606:	8f6e      	ldrh	r6, [r5, #58]	@ 0x3a
    4608:	8520      	strh	r0, [r4, #40]	@ 0x28
    460a:	000a      	movs	r2, r1
    460c:	0687      	lsls	r7, r0, #26
    460e:	a046      	add	r0, pc, #280	@ (adr r0, 0x4728)
    4610:	2095      	movs	r0, #149	@ 0x95
    4612:	edef 08f6 	stcl	8, cr0, [pc, #984]!	@ 0x49ec
    4616:	a852      	add	r0, sp, #328	@ 0x148
    4618:	7000      	strb	r0, [r0, #0]
    461a:	6088      	str	r0, [r1, #8]
    461c:	0804      	lsrs	r4, r0, #32
    461e:	60d1      	str	r1, [r2, #12]
    4620:	0c04      	lsrs	r4, r0, #16
    4622:	d819      	bhi.n	0x4658
    4624:	51b7      	str	r7, [r6, r6]
    4626:	09d9      	lsrs	r1, r3, #7
    4628:	a510      	add	r5, pc, #64	@ (adr r5, 0x466c)
    462a:	009d      	lsls	r5, r3, #2
    462c:	db51      	blt.n	0x46d2
    462e:	1009      	asrs	r1, r1, #32
    4630:	9dc5      	ldr	r5, [sp, #788]	@ 0x314
    4632:	1100      	asrs	r0, r0, #4
    4634:	11d8      	asrs	r0, r3, #7
    4636:	91a3      	str	r1, [sp, #652]	@ 0x28c
    4638:	1470      	asrs	r0, r6, #17
    463a:	d146      	bne.n	0x46ca
    463c:	9018      	str	r0, [sp, #96]	@ 0x60
    463e:	9310      	str	r3, [sp, #64]	@ 0x40
    4640:	e09e      	b.n	0x4780
    4642:	213e      	movs	r1, #62	@ 0x3e
    4644:	0aa8      	lsrs	r0, r5, #10
    4646:	02df      	lsls	r7, r3, #11
    4648:	d3f1      	bcc.n	0x462e
    464a:	9d9c      	ldr	r5, [sp, #624]	@ 0x270
    464c:	5000      	str	r0, [r0, r0]
    464e:	cd32      	ldmia	r5, {r1, r4, r5}
    4650:	09d9      	lsrs	r1, r3, #7
    4652:	2301      	movs	r3, #1
    4654:	9cd3      	ldr	r4, [sp, #844]	@ 0x34c
    4656:	209d      	movs	r0, #157	@ 0x9d
    4658:	3210      	adds	r2, #16
    465a:	d9cd      	bls.n	0x45f8
    465c:	0309      	lsls	r1, r1, #12
    465e:	981e      	ldr	r0, [sp, #120]	@ 0x78
    4660:	1122      	asrs	r2, r4, #4
    4662:	82ae      	strh	r6, [r5, #20]
    4664:	1209      	asrs	r1, r1, #8
    4666:	3ab0      	subs	r2, #176	@ 0xb0
    4668:	1798      	asrs	r0, r3, #30
    466a:	6d11      	ldr	r1, [r2, #80]	@ 0x50
    466c:	7fe4      	ldrb	r4, [r4, #31]
    466e:	3d11      	subs	r5, #17
    4670:	3fe7      	subs	r7, #231	@ 0xe7
    4672:	d951      	bls.n	0x4718
    4674:	0009      	movs	r1, r1
    4676:	dff1      	svc	241	@ 0xf1
    4678:	904e      	str	r0, [sp, #312]	@ 0x138
    467a:	479d      			@ <UNDEFINED> instruction: 0x479d
    467c:	ed30 09d9 			@ <UNDEFINED> instruction: 0xed3009d9
    4680:	4600      	mov	r0, r0
    4682:	000a      	movs	r2, r1
    4684:	8147      	strh	r7, [r0, #10]
    4686:	6309      	str	r1, [r1, #48]	@ 0x30
    4688:	5a14      	ldrh	r4, [r2, r0]
    468a:	f209 6ede 	addw	lr, r9, #1758	@ 0x6de
    468e:	208f      	movs	r0, #143	@ 0x8f
    4690:	8685      	strh	r5, [r0, #52]	@ 0x34
    4692:	8d06      	ldrh	r6, [r0, #40]	@ 0x28
    4694:	0b01      	lsrs	r1, r0, #12
    4696:	010a      	lsls	r2, r1, #4
    4698:	8047      	strh	r7, [r0, #2]
    469a:	6139      	str	r1, [r7, #16]
    469c:	0814      	lsrs	r4, r2, #32
    469e:	60d1      	str	r1, [r2, #12]
    46a0:	0c14      	lsrs	r4, r2, #16
    46a2:	d819      	bhi.n	0x46d8
    46a4:	46c5      	mov	sp, r8
    46a6:	2df0      	cmp	r5, #240	@ 0xf0
    46a8:	df10      	svc	16
    46aa:	67f8      	str	r0, [r7, #124]	@ 0x7c
    46ac:	714f      	strb	r7, [r1, #5]
    46ae:	4604      	mov	r4, r0
    46b0:	90c0      	str	r0, [sp, #768]	@ 0x300
    46b2:	1c91      	adds	r1, r2, #2
    46b4:	0a0d      	lsrs	r5, r1, #8
    46b6:	4700      	bx	r0
    46b8:	0c03      	lsrs	r3, r0, #16
    46ba:	46f0      	mov	r8, lr
    46bc:	4c98      	ldr	r4, [pc, #608]	@ (0x4920)
    46be:	e44e      	b.n	0x3f5e
    46c0:	5216      	strh	r6, [r2, r0]
    46c2:	6a48      	ldr	r0, [r1, #36]	@ 0x24
    46c4:	5804      	ldr	r4, [r0, r0]
    46c6:	2a12      	cmp	r2, #18
    46c8:	ed05 4a5d 	vstr	s8, [r5, #-372]	@ 0xfffffe8c
    46cc:	e852 e25c 			@ <UNDEFINED> instruction: 0xe852e25c
    46d0:	46e8      	mov	r8, sp
    46d2:	5852      	ldr	r2, [r2, r1]
    46d4:	44ea      	add	sl, sp
    46d6:	216e      	movs	r1, #110	@ 0x6e
    46d8:	8485      	strh	r5, [r0, #36]	@ 0x24
    46da:	3356      	adds	r3, #86	@ 0x56
    46dc:	0d43      	lsrs	r3, r0, #21
    46de:	246e      	movs	r4, #110	@ 0x6e
    46e0:	0145      	lsls	r5, r0, #5
    46e2:	4900      	ldr	r1, [pc, #0]	@ (0x46e4)
    46e4:	8046      	strh	r6, [r0, #2]
    46e6:	a125      	add	r1, pc, #148	@ (adr r1, 0x477c)
    46e8:	d052      	beq.n	0x4790
    46ea:	a5de      	add	r5, pc, #888	@ (adr r5, 0x4a64)
    46ec:	8524      	strh	r4, [r4, #40]	@ 0x28
    46ee:	0486      	lsls	r6, r0, #18
    46f0:	10a2      	asrs	r2, r4, #2
    46f2:	e580      	b.n	0x41f6
    46f4:	8247      	strh	r7, [r0, #18]
    46f6:	bd85      	pop	{r0, r2, r7, pc}
    46f8:	0468      	lsls	r0, r5, #17
    46fa:	1258      	asrs	r0, r3, #9
    46fc:	052a      	lsls	r2, r5, #20
    46fe:	5ded      	ldrb	r5, [r5, r7]
    4700:	524a      	strh	r2, [r1, r1]
    4702:	5ce8      	ldrb	r0, [r5, r3]
    4704:	a8e2      	add	r0, sp, #904	@ 0x388
    4706:	6ff0      	ldr	r0, [r6, #124]	@ 0x7c
    4708:	a235      	add	r2, pc, #212	@ (adr r2, 0x47e0)
    470a:	1084      	asrs	r4, r0, #2
    470c:	247e      	movs	r4, #126	@ 0x7e
    470e:	85a5      	strh	r5, [r4, #44]	@ 0x2c
    4710:	a046      	add	r0, pc, #280	@ (adr r0, 0x482c)
    4712:	2095      	movs	r0, #149	@ 0x95
    4714:	edef 08f6 	stcl	8, cr0, [pc, #984]!	@ 0x4af0
    4718:	a852      	add	r0, sp, #328	@ 0x148
    471a:	7010      	strb	r0, [r2, #0]
    471c:	e068      	b.n	0x47f0
    471e:	cf67      	ldmia	r7!, {r0, r1, r2, r5, r6}
    4720:	1008      	asrs	r0, r1, #32
    4722:	bf21      	itttt	cs
    4724:	11e1      	asrcs	r1, r4, #7
    4726:	3f21      	subcs	r7, #33	@ 0x21
    4728:	d9ed      	bls.n	0x4706	@ unpredictable <IT:cs>
    472a:	0009      	movcs	r1, r1
    472c:	10ea      	asrs	r2, r5, #3
    472e:	7edf      	ldrb	r7, [r3, #27]
    4730:	4604      	mov	r4, r0
    4732:	95a0      	str	r5, [sp, #640]	@ 0x280
    4734:	ef20 f6ed 	vmax.s32	<illegal reg q7.5>, q8, <illegal reg q14.5>
    4738:	5208      	strh	r0, [r1, r0]
    473a:	8868      	ldrh	r0, [r5, #2]
    473c:	18d0      	adds	r0, r2, r3
    473e:	a0a0      	add	r0, pc, #640	@ (adr r0, 0x49c0)
    4740:	7010      	strb	r0, [r2, #0]
    4742:	fe14 00a3 	cdp2	0, 1, cr0, cr4, cr3, {5}
    4746:	1470      	asrs	r0, r6, #17
    4748:	f146 102d 	adc.w	r0, r6, #2949165	@ 0x2d002d
    474c:	7ddf      	ldrb	r7, [r3, #23]
    474e:	4604      	mov	r4, r0
    4750:	95a0      	str	r5, [sp, #640]	@ 0x280
    4752:	ef20 f6ed 	vmax.s32	<illegal reg q7.5>, q8, <illegal reg q14.5>
    4756:	5208      	strh	r0, [r1, r0]
    4758:	c0e8      	stmia	r0!, {r3, r5, r6, r7}
    475a:	fffc db8f 	vtbl.8	d29, {d28-d31}, d15
    475e:	0461      	lsls	r1, r4, #17
    4760:	095a      	lsrs	r2, r3, #5
    4762:	def2      	udf	#242	@ 0xf2
    4764:	8f6e      	ldrh	r6, [r5, #58]	@ 0x3a
    4766:	8520      	strh	r0, [r4, #40]	@ 0x28
    4768:	0686      	lsls	r6, r0, #26
    476a:	018d      	lsls	r5, r1, #6
    476c:	461f      	mov	r7, r3
    476e:	2580      	movs	r5, #128	@ 0x80
    4770:	52a1      	strh	r1, [r4, r2]
    4772:	ded0      	udf	#208	@ 0xd0
    4774:	24a5      	movs	r4, #165	@ 0xa5
    4776:	ce85      	ldmia	r6!, {r0, r2, r7}
    4778:	f0e5 fe16 	bl	0xea3a8
    477c:	0c03      	lsrs	r3, r0, #16
    477e:	16f0      	asrs	r0, r6, #27
    4780:	f14e 103d 	adc.w	r0, lr, #3997757	@ 0x3d003d
    4784:	fbdf 4714 			@ <UNDEFINED> instruction: 0xfbdf4714
    4788:	0c00      	lsrs	r0, r0, #16
    478a:	36f0      	adds	r6, #240	@ 0xf0
    478c:	a046      	add	r0, pc, #280	@ (adr r0, 0x48a8)
    478e:	2095      	movs	r0, #149	@ 0x95
    4790:	edef 08f6 	stcl	8, cr0, [pc, #984]!	@ 0x4b6c
    4794:	e852 fcc0 			@ <UNDEFINED> instruction: 0xe852fcc0
    4798:	9fff      	ldr	r7, [sp, #1020]	@ 0x3fc
    479a:	093a      	lsrs	r2, r7, #4
    479c:	8046      	strh	r6, [r0, #2]
    479e:	a125      	add	r1, pc, #148	@ (adr r1, 0x4834)
    47a0:	d052      	beq.n	0x4848
    47a2:	a5de      	add	r5, pc, #888	@ (adr r5, 0x4b1c)
    47a4:	8524      	strh	r4, [r4, #40]	@ 0x28
    47a6:	0486      	lsls	r6, r0, #18
    47a8:	10a2      	asrs	r2, r4, #2
    47aa:	f580 0a36 			@ <UNDEFINED> instruction: 0xf5800a36
    47ae:	4e01      	ldr	r6, [pc, #4]	@ (0x47b4)
    47b0:	4851      	ldr	r0, [pc, #324]	@ (0x48f8)
    47b2:	9d70      	ldr	r5, [sp, #448]	@ 0x1c0
    47b4:	028d      	lsls	r5, r1, #10
    47b6:	4626      	mov	r6, r4
    47b8:	95a0      	str	r5, [sp, #640]	@ 0x280
    47ba:	ef20 f6ed 	vmax.s32	<illegal reg q7.5>, q8, <illegal reg q14.5>
    47be:	5208      	strh	r0, [r1, r0]
    47c0:	10e8      	asrs	r0, r5, #3
    47c2:	1008      	asrs	r0, r1, #32
    47c4:	e109      	b.n	0x49da
    47c6:	0f84      	lsrs	r4, r0, #30
    47c8:	3798      	adds	r7, #152	@ 0x98
    47ca:	d704      	bvc.n	0x47d6
    47cc:	38d9      	subs	r0, #217	@ 0xd9
    47ce:	6250      	str	r0, [r2, #36]	@ 0x24
    47d0:	5a04      	ldrh	r4, [r0, r0]
    47d2:	f209 6ede 	addw	lr, r9, #1758	@ 0x6de
    47d6:	208f      	movs	r0, #143	@ 0x8f
    47d8:	0e85      	lsrs	r5, r0, #26
    47da:	0081      	lsls	r1, r0, #2
    47dc:	2091      	movs	r0, #145	@ 0x91
    47de:	f84e 3fe0 	str.w	r3, [lr, #224]!
    47e2:	00c0      	lsls	r0, r0, #3
    47e4:	e36f      	b.n	0x4ec6
    47e6:	df36      	svc	54	@ 0x36
    47e8:	f105 fadf 	bl	0x109daa
    47ec:	5744      	ldrsb	r4, [r0, r5]
    47ee:	3472      	adds	r4, #114	@ 0x72
    47f0:	d346      	bcc.n	0x4880
    47f2:	3018      	adds	r0, #24
    47f4:	96e1      	str	r6, [sp, #900]	@ 0x384
    47f6:	606f      	str	r7, [r5, #4]
    47f8:	4e24      	ldr	r6, [pc, #144]	@ (0x488c)
    47fa:	bef4      	bkpt	0x00f4
    47fc:	1298      	asrs	r0, r3, #10
    47fe:	f96e 4606 	vld1.8	{d20-d22}, [lr], r6
    4802:	44e2      	add	sl, ip
    4804:	e721      	b.n	0x464a
    4806:	df0c      	svc	12
    4808:	f106 20ed 	add.w	r0, r6, #3976260864	@ 0xed00ed00
    480c:	100a      	asrs	r2, r1, #32
    480e:	e7cf      	b.n	0x47b0
    4810:	77f2      	strb	r2, [r6, #31]
    4812:	e511      	b.n	0x4238
    4814:	00a1      	lsls	r1, r4, #2
    4816:	1f51      	subs	r1, r2, #5
    4818:	c00a      	stmia	r0!, {r1, r3}
    481a:	ff8e 06f1 	vqshlu.s64	q0, <illegal reg q8.5>, #14
    481e:	070a      	lsls	r2, r1, #28
    4820:	2802      	cmp	r0, #2
    4822:	09ce      	lsrs	r6, r1, #7
    4824:	cbef      	ldmia	r3, {r0, r1, r2, r3, r5, r6, r7}
    4826:	ff8e 06f2 	vqshlu.s64	q0, q9, #14
    482a:	070a      	lsls	r2, r1, #28
    482c:	2802      	cmp	r0, #2
    482e:	10ce      	asrs	r6, r1, #3
    4830:	abef      	add	r3, sp, #956	@ 0x3bc
    4832:	7000      	strb	r0, [r0, #0]
    4834:	0a24      	lsrs	r4, r4, #8
    4836:	4700      	bx	r0
    4838:	0c03      	lsrs	r3, r0, #16
    483a:	56f0      	ldrsb	r0, [r6, r3]
    483c:	00c0      	lsls	r0, r0, #3
    483e:	a76f      	add	r7, pc, #444	@ (adr r7, 0x49fc)
    4840:	7000      	strb	r0, [r0, #0]
    4842:	9844      	ldr	r0, [sp, #272]	@ 0x110
    4844:	4674      	mov	r4, lr
    4846:	2584      	movs	r5, #132	@ 0x84
    4848:	e280      	b.n	0x4d4c
    484a:	209c      	movs	r0, #156	@ 0x9c
    484c:	8485      	strh	r5, [r0, #36]	@ 0x24
    484e:	3256      	adds	r2, #86	@ 0x56
    4850:	0d4a      	lsrs	r2, r1, #21
    4852:	8446      	strh	r6, [r0, #34]	@ 0x22
    4854:	8025      	strh	r5, [r4, #0]
    4856:	0ce2      	lsrs	r2, r4, #19
    4858:	8521      	strh	r1, [r4, #40]	@ 0x28
    485a:	5684      	ldrsb	r4, [r0, r2]
    485c:	4a33      	ldr	r2, [pc, #204]	@ (0x492c)
    485e:	460d      	mov	r5, r1
    4860:	2584      	movs	r5, #132	@ 0x84
    4862:	e280      	b.n	0x4d66
    4864:	209c      	movs	r0, #156	@ 0x9c
    4866:	8485      	strh	r5, [r0, #36]	@ 0x24
    4868:	7e58      	ldrb	r0, [r3, #25]
    486a:	1525      	asrs	r5, r4, #20
    486c:	4659      	mov	r1, fp
    486e:	2584      	movs	r5, #132	@ 0x84
    4870:	e280      	b.n	0x4d74
    4872:	210c      	movs	r1, #12
    4874:	8485      	strh	r5, [r0, #36]	@ 0x24
    4876:	7e58      	ldrb	r0, [r3, #25]
    4878:	1527      	asrs	r7, r4, #20
    487a:	4659      	mov	r1, fp
    487c:	1084      	asrs	r4, r0, #2
    487e:	460d      	mov	r5, r1
    4880:	70c4      	strb	r4, [r0, #3]
    4882:	1d80      	adds	r0, r0, #6
    4884:	2468      	movs	r4, #104	@ 0x68
    4886:	008d      	lsls	r5, r1, #2
    4888:	6e77      	ldr	r7, [r6, #100]	@ 0x64
    488a:	0cc5      	lsrs	r5, r0, #19
    488c:	8000      	strh	r0, [r0, #0]
    488e:	a6aa      	add	r6, pc, #680	@ (adr r6, 0x4b38)
    4890:	7000      	strb	r0, [r0, #0]
    4892:	9844      	ldr	r0, [sp, #272]	@ 0x110
    4894:	4628      	mov	r0, r5
    4896:	2584      	movs	r5, #132	@ 0x84
    4898:	e280      	b.n	0x4d9c
    489a:	209c      	movs	r0, #156	@ 0x9c
    489c:	8485      	strh	r5, [r0, #36]	@ 0x24
    489e:	20ed      	movs	r0, #237	@ 0xed
    48a0:	560a      	ldrsb	r2, [r1, r0]
    48a2:	9824      	ldr	r0, [sp, #144]	@ 0x90
    48a4:	4685      	mov	sp, r0
    48a6:	1084      	asrs	r4, r0, #2
    48a8:	460d      	mov	r5, r1
    48aa:	70c4      	strb	r4, [r0, #3]
    48ac:	dd80      	ble.n	0x47b0
    48ae:	e51c      	b.n	0x42ea
    48b0:	01a1      	lsls	r1, r4, #6
    48b2:	2346      	movs	r3, #70	@ 0x46
    48b4:	008d      	lsls	r5, r1, #2
    48b6:	e0aa      	b.n	0x4a0e
    48b8:	cc76      	ldmia	r4, {r1, r2, r4, r5, r6}
    48ba:	0000      	movs	r0, r0
    48bc:	9ca9      	ldr	r4, [sp, #676]	@ 0x2a4
    48be:	f510 01a1 	adds.w	r1, r0, #5275648	@ 0x508000
    48c2:	9099      	str	r0, [sp, #612]	@ 0x264
    48c4:	3460      	adds	r4, #96	@ 0x60
    48c6:	008d      	lsls	r5, r1, #2
    48c8:	6e56      	ldr	r6, [r2, #100]	@ 0x64
    48ca:	0cc7      	lsrs	r7, r0, #19
    48cc:	8000      	strh	r0, [r0, #0]
    48ce:	a49a      	add	r4, pc, #616	@ (adr r4, 0x4b38)
    48d0:	7000      	strb	r0, [r0, #0]
    48d2:	9844      	ldr	r0, [sp, #272]	@ 0x110
    48d4:	4628      	mov	r0, r5
    48d6:	2584      	movs	r5, #132	@ 0x84
    48d8:	e280      	b.n	0x4ddc
    48da:	210c      	movs	r1, #12
    48dc:	8485      	strh	r5, [r0, #36]	@ 0x24
    48de:	20ed      	movs	r0, #237	@ 0xed
    48e0:	560a      	ldrsb	r2, [r1, r0]
    48e2:	9824      	ldr	r0, [sp, #144]	@ 0x90
    48e4:	4685      	mov	sp, r0
    48e6:	1084      	asrs	r4, r0, #2
    48e8:	460d      	mov	r5, r1
    48ea:	70c4      	strb	r4, [r0, #3]
    48ec:	dd80      	ble.n	0x47f0
    48ee:	f51c 01a1 	adds.w	r1, ip, #5275648	@ 0x508000
    48f2:	3198      	adds	r1, #152	@ 0x98
    48f4:	2051      	movs	r0, #81	@ 0x51
    48f6:	1ffa      	subs	r2, r7, #7
    48f8:	a215      	add	r2, pc, #84	@ (adr r2, 0x4950)
    48fa:	51ff      	str	r7, [r7, r7]
    48fc:	fa22 351f 			@ <UNDEFINED> instruction: 0xfa22351f
    4900:	ffa2 2451 	vsri.32	q1, <illegal reg q0.5>, #30
    4904:	10ca      	asrs	r2, r1, #3
    4906:	a255      	add	r2, pc, #340	@ (adr r2, 0x4a5c)
    4908:	5100      	str	r0, [r0, r4]
    490a:	ca26      	ldmia	r2, {r1, r2, r5}
    490c:	7e20      	ldrb	r0, [r4, #24]
    490e:	cf17      	ldmia	r7!, {r0, r1, r2, r4}
    4910:	1019      	asrs	r1, r3, #32
    4912:	f7cf a77f 	undefined (bcc, cond=0xF)
    4916:	7000      	strb	r0, [r0, #0]
    4918:	9824      	ldr	r0, [sp, #144]	@ 0x90
    491a:	464c      	mov	r4, r9
    491c:	95a2      	str	r5, [sp, #648]	@ 0x288
    491e:	ef20 f6ed 	vmax.s32	<illegal reg q7.5>, q8, <illegal reg q14.5>
    4922:	5208      	strh	r0, [r1, r0]
    4924:	6868      	ldr	r0, [r5, #4]
    4926:	18d0      	adds	r0, r2, r3
    4928:	6270      	str	r0, [r6, #36]	@ 0x24
    492a:	0524      	lsls	r4, r4, #20
    492c:	69dc      	ldr	r4, [r3, #28]
    492e:	5a24      	ldrh	r4, [r4, r0]
    4930:	f209 6ede 	addw	lr, r9, #1758	@ 0x6de
    4934:	208f      	movs	r0, #143	@ 0x8f
    4936:	0a85      	lsrs	r5, r0, #10
    4938:	8700      	strh	r0, [r0, #56]	@ 0x38
    493a:	9806      	ldr	r0, [sp, #24]
    493c:	4613      	mov	r3, r2
    493e:	1082      	asrs	r2, r0, #2
    4940:	460d      	mov	r5, r1
    4942:	90c2      	str	r0, [sp, #776]	@ 0x308
    4944:	9d81      	ldr	r5, [sp, #516]	@ 0x204
    4946:	246a      	movs	r4, #106	@ 0x6a
    4948:	198d      	adds	r5, r1, r6
    494a:	510c      	str	r4, [r1, r4]
    494c:	09d9      	lsrs	r1, r3, #7
    494e:	a990      	add	r1, sp, #576	@ 0x240
    4950:	0417      	lsls	r7, r2, #16
    4952:	a9dc      	add	r1, sp, #880	@ 0x370
    4954:	2095      	movs	r0, #149	@ 0x95
    4956:	edef 08f6 	stcl	8, cr0, [pc, #984]!	@ 0x4d30
    495a:	e852 1e2c 			@ <UNDEFINED> instruction: 0xe8521e2c
    495e:	dc04      	bgt.n	0x496a
    4960:	2589      	movs	r5, #137	@ 0x89
    4962:	52a1      	strh	r1, [r4, r2]
    4964:	ded0      	udf	#208	@ 0xd0
    4966:	24a5      	movs	r4, #165	@ 0xa5
    4968:	8685      	strh	r5, [r0, #52]	@ 0x34
    496a:	5804      	ldr	r4, [r0, r0]
    496c:	2252      	movs	r2, #82	@ 0x52
    496e:	0144      	lsls	r4, r0, #5
    4970:	6f00      	ldr	r0, [r0, #112]	@ 0x70
    4972:	c045      	stmia	r0!, {r0, r2, r6}
    4974:	589d      	ldr	r5, [r3, r2]
    4976:	2a12      	cmp	r2, #18
    4978:	ed05 4a5d 	vstr	s8, [r5, #-372]	@ 0xfffffe8c
    497c:	e852 0e2c 			@ <UNDEFINED> instruction: 0xe8520e2c
    4980:	257e      	movs	r5, #126	@ 0x7e
    4982:	2258      	movs	r2, #88	@ 0x58
    4984:	16b2      	asrs	r2, r6, #26
    4986:	9d95      	ldr	r5, [sp, #596]	@ 0x254
    4988:	0401      	lsls	r1, r0, #16
    498a:	a9dc      	add	r1, sp, #880	@ 0x370
    498c:	2095      	movs	r0, #149	@ 0x95
    498e:	edef 08f6 	stcl	8, cr0, [pc, #984]!	@ 0x4d68
    4992:	e852 0e2c 			@ <UNDEFINED> instruction: 0xe8520e2c
    4996:	406f      	eors	r7, r5
    4998:	9dc0      	ldr	r5, [sp, #768]	@ 0x300
    499a:	1258      	asrs	r0, r3, #9
    499c:	052a      	lsls	r2, r5, #20
    499e:	5ded      	ldrb	r5, [r5, r7]
    49a0:	524a      	strh	r2, [r1, r1]
    49a2:	4a68      	ldr	r2, [pc, #416]	@ (0x4b44)
    49a4:	7340      	strb	r0, [r0, #13]
    49a6:	049d      	lsls	r5, r3, #18
    49a8:	89dc      	ldrh	r4, [r3, #14]
    49aa:	a125      	add	r1, pc, #148	@ (adr r1, 0x4a40)
    49ac:	d052      	beq.n	0x4a54
    49ae:	a5de      	add	r5, pc, #888	@ (adr r5, 0x4d28)
    49b0:	8524      	strh	r4, [r4, #40]	@ 0x28
    49b2:	25ce      	movs	r5, #206	@ 0xce
    49b4:	da8e      	bge.n	0x48d4
    49b6:	ef8a 699e 			@ <UNDEFINED> instruction: 0xef8a699e
    49ba:	040a      	lsls	r2, r1, #16
    49bc:	d9d7      	bls.n	0x496e
    49be:	0028      	movs	r0, r5
    49c0:	3ec3      	subs	r6, #195	@ 0xc3
    49c2:	f1ff 0a06 			@ <UNDEFINED> instruction: 0xf1ff0a06
    49c6:	0201      	lsls	r1, r0, #8
    49c8:	3ce8      	subs	r4, #232	@ 0xe8
    49ca:	cbef      	ldmia	r3, {r0, r1, r2, r3, r5, r6, r7}
    49cc:	ff1e 06f2 	vmin.u16	q0, q15, q9
    49d0:	010a      	lsls	r2, r1, #4
    49d2:	e802 ef4c 			@ <UNDEFINED> instruction: 0xe802ef4c
    49d6:	c98b      	ldmia	r1, {r0, r1, r3, r7}
    49d8:	3ec2      	subs	r6, #194	@ 0xc2
    49da:	f2ff 0a06 			@ <UNDEFINED> instruction: 0xf2ff0a06
    49de:	0201      	lsls	r1, r0, #8
    49e0:	3ce8      	subs	r4, #232	@ 0xe8
    49e2:	cbef      	ldmia	r3, {r0, r1, r2, r3, r5, r6, r7}
    49e4:	ff1e 06f1 	vmin.u16	q0, q15, <illegal reg q8.5>
    49e8:	010a      	lsls	r2, r1, #4
    49ea:	e802 ef4c 			@ <UNDEFINED> instruction: 0xe802ef4c
    49ee:	346b      	adds	r4, #107	@ 0x6b
    49f0:	008d      	lsls	r5, r1, #2
    49f2:	461b      	mov	r3, r3
    49f4:	f8d4 112f 	ldr.w	r1, [r4, #303]	@ 0x12f
    49f8:	9d95      	ldr	r5, [sp, #596]	@ 0x254
    49fa:	5102      	str	r2, [r0, r4]
    49fc:	09da      	lsrs	r2, r3, #7
    49fe:	b980      	cbnz	r0, 0x4a22
    4a00:	2461      	movs	r4, #97	@ 0x61
    4a02:	095a      	lsrs	r2, r3, #5
    4a04:	def2      	udf	#242	@ 0xf2
    4a06:	8f6e      	ldrh	r6, [r5, #58]	@ 0x3a
    4a08:	8520      	strh	r0, [r4, #40]	@ 0x28
    4a0a:	000a      	movs	r2, r1
    4a0c:	0887      	lsrs	r7, r0, #2
    4a0e:	f77e 009c 			@ <UNDEFINED> instruction: 0xf77e009c
    4a12:	dff1      	svc	241	@ 0xf1
    4a14:	17fb      	asrs	r3, r7, #31
    4a16:	d35f      	bcc.n	0x4ad8
    4a18:	8ebe      	ldrh	r6, [r7, #52]	@ 0x34
    4a1a:	2310      	movs	r3, #16
    4a1c:	70b8      	strb	r0, [r7, #2]
    4a1e:	4604      	mov	r4, r0
    4a20:	08c0      	lsrs	r0, r0, #3
    4a22:	6100      	str	r0, [r0, #16]
    4a24:	c204      	stmia	r2!, {r2}
    4a26:	d808      	bhi.n	0x4a3a
    4a28:	990b      	ldr	r1, [sp, #44]	@ 0x2c
    4a2a:	40d9      	lsrs	r1, r3
    4a2c:	9dc0      	ldr	r5, [sp, #768]	@ 0x300
    4a2e:	095a      	lsrs	r2, r3, #5
    4a30:	def2      	udf	#242	@ 0xf2
    4a32:	8f6e      	ldrh	r6, [r5, #58]	@ 0x3a
    4a34:	8520      	strh	r0, [r4, #40]	@ 0x28
    4a36:	e2ce      	b.n	0x4fd6
    4a38:	c041      	stmia	r0!, {r0, r6}
    4a3a:	5a9d      	ldrh	r5, [r3, r2]
    4a3c:	f209 6ede 	addw	lr, r9, #1758	@ 0x6de
    4a40:	208f      	movs	r0, #143	@ 0x8f
    4a42:	1f85      	subs	r5, r0, #6
    4a44:	dc04      	bgt.n	0x4a50
    4a46:	95a9      	str	r5, [sp, #676]	@ 0x2a4
    4a48:	ef20 f6ed 	vmax.s32	<illegal reg q7.5>, q8, <illegal reg q14.5>
    4a4c:	5208      	strh	r0, [r1, r0]
    4a4e:	2ce8      	cmp	r4, #232	@ 0xe8
    4a50:	49e2      	ldr	r1, [pc, #904]	@ (0x4ddc)
    4a52:	9dc0      	ldr	r5, [sp, #768]	@ 0x300
    4a54:	1258      	asrs	r0, r3, #9
    4a56:	052a      	lsls	r2, r5, #20
    4a58:	5ded      	ldrb	r5, [r5, r7]
    4a5a:	524a      	strh	r2, [r1, r1]
    4a5c:	4868      	ldr	r0, [pc, #416]	@ (0x4c00)
    4a5e:	2580      	movs	r5, #128	@ 0x80
    4a60:	04c4      	lsls	r4, r0, #19
    4a62:	a9dc      	add	r1, sp, #880	@ 0x370
    4a64:	2095      	movs	r0, #149	@ 0x95
    4a66:	82ef      	strh	r7, [r5, #22]
    4a68:	cc21      	ldmia	r4!, {r0, r5}
    4a6a:	2952      	cmp	r1, #82	@ 0x52
    4a6c:	edec 08f6 	stcl	8, cr0, [ip, #984]!	@ 0x3d8
    4a70:	ea52 0f2c 	orrs.w	pc, r2, ip, asr #32
    4a74:	dc04      	bgt.n	0x4a80
    4a76:	95a9      	str	r5, [sp, #676]	@ 0x2a4
    4a78:	ef20 f6ed 	vmax.s32	<illegal reg q7.5>, q8, <illegal reg q14.5>
    4a7c:	5208      	strh	r0, [r1, r0]
    4a7e:	10a8      	asrs	r0, r5, #2
    4a80:	8870      	ldrh	r0, [r6, #2]
    4a82:	d010      	beq.n	0x4aa6
    4a84:	99e8      	ldr	r1, [sp, #928]	@ 0x3a0
    4a86:	409a      	lsls	r2, r3
    4a88:	9dc0      	ldr	r5, [sp, #768]	@ 0x300
    4a8a:	095a      	lsrs	r2, r3, #5
    4a8c:	def2      	udf	#242	@ 0xf2
    4a8e:	8f6e      	ldrh	r6, [r5, #58]	@ 0x3a
    4a90:	8520      	strh	r0, [r4, #40]	@ 0x28
    4a92:	020a      	lsls	r2, r1, #8
    4a94:	0887      	lsrs	r7, r0, #2
    4a96:	7998      	ldrb	r0, [r3, #6]
    4a98:	dc04      	bgt.n	0x4aa4
    4a9a:	95a9      	str	r5, [sp, #676]	@ 0x2a4
    4a9c:	ef20 f6ed 	vmax.s32	<illegal reg q7.5>, q8, <illegal reg q14.5>
    4aa0:	5208      	strh	r0, [r1, r0]
    4aa2:	2ce8      	cmp	r4, #232	@ 0xe8
    4aa4:	49e2      	ldr	r1, [pc, #904]	@ (0x4e30)
    4aa6:	9dc0      	ldr	r5, [sp, #768]	@ 0x300
    4aa8:	1258      	asrs	r0, r3, #9
    4aaa:	052a      	lsls	r2, r5, #20
    4aac:	5ded      	ldrb	r5, [r5, r7]
    4aae:	524a      	strh	r2, [r1, r1]
    4ab0:	4a68      	ldr	r2, [pc, #416]	@ (0x4c54)
    4ab2:	4780      	blx	r0
    4ab4:	9dc0      	ldr	r5, [sp, #768]	@ 0x300
    4ab6:	095a      	lsrs	r2, r3, #5
    4ab8:	2ef2      	cmp	r6, #242	@ 0xf2
    4aba:	c2b5      	stmia	r2!, {r0, r2, r4, r5, r7}
    4abc:	6edf      	ldr	r7, [r3, #108]	@ 0x6c
    4abe:	208f      	movs	r0, #143	@ 0x8f
    4ac0:	ce85      	ldmia	r6!, {r0, r2, r7}
    4ac2:	41f2      	rors	r2, r6
    4ac4:	9dc0      	ldr	r5, [sp, #768]	@ 0x300
    4ac6:	095a      	lsrs	r2, r3, #5
    4ac8:	def2      	udf	#242	@ 0xf2
    4aca:	8f6e      	ldrh	r6, [r5, #58]	@ 0x3a
    4acc:	8520      	strh	r0, [r4, #40]	@ 0x28
    4ace:	000a      	movs	r2, r1
    4ad0:	0887      	lsrs	r7, r0, #2
    4ad2:	3d11      	subs	r5, #17
    4ad4:	17ee      	asrs	r6, r5, #31
    4ad6:	f35e 105d 			@ <UNDEFINED> instruction: 0xf35e105d
    4ada:	f5cf f77f 	bl	0xff9d49dc
    4ade:	0a95      	lsrs	r5, r2, #10
    4ae0:	4700      	bx	r0
    4ae2:	cd32      	ldmia	r5, {r1, r4, r5}
    4ae4:	09da      	lsrs	r2, r3, #7
    4ae6:	2900      	cmp	r1, #0
    4ae8:	add3      	add	r5, sp, #844	@ 0x34c
    4aea:	109d      	asrs	r5, r3, #2
    4aec:	39f0      	subs	r1, #240	@ 0xf0
    4aee:	add3      	add	r5, sp, #844	@ 0x34c
    4af0:	209d      	movs	r0, #157	@ 0x9d
    4af2:	3a40      	subs	r2, #64	@ 0x40
    4af4:	add3      	add	r5, sp, #844	@ 0x34c
    4af6:	309d      	adds	r0, #157	@ 0x9d
    4af8:	3f20      	subs	r7, #32
    4afa:	5199      	str	r1, [r3, r6]
    4afc:	1ec5      	subs	r5, r0, #3
    4afe:	f0ff 1406 			@ <UNDEFINED> instruction: 0xf0ff1406
    4b02:	a9d8      	add	r1, sp, #864	@ 0x360
    4b04:	2010      	movs	r0, #16
    4b06:	ce80      	ldmia	r6!, {r7}
    4b08:	eef2 ebed 	vcvtt.f64.f16	d30, s27
    4b0c:	2108      	movs	r1, #8
    4b0e:	0a4e      	lsrs	r6, r1, #9
    4b10:	6347      	str	r7, [r0, #52]	@ 0x34
    4b12:	d234      	bcs.n	0x4b7e
    4b14:	a008      	add	r0, pc, #32	@ (adr r0, 0x4b38)
    4b16:	5112      	str	r2, [r2, r4]
    4b18:	09dc      	lsrs	r4, r3, #7
    4b1a:	c040      	stmia	r0!, {r6}
    4b1c:	589d      	ldr	r5, [r3, r2]
    4b1e:	2a12      	cmp	r2, #18
    4b20:	ed05 4a5d 	vstr	s8, [r5, #-372]	@ 0xfffffe8c
    4b24:	6852      	ldr	r2, [r2, #4]
    4b26:	5078      	str	r0, [r7, r1]
    4b28:	1464      	asrs	r4, r4, #17
    4b2a:	9da5      	ldr	r5, [sp, #660]	@ 0x294
    4b2c:	0a01      	lsrs	r1, r0, #8
    4b2e:	4700      	bx	r0
    4b30:	3994      	subs	r1, #148	@ 0x94
    4b32:	460e      	mov	r6, r1
    4b34:	95a4      	str	r5, [sp, #656]	@ 0x290
    4b36:	ef20 f6ed 	vmax.s32	<illegal reg q7.5>, q8, <illegal reg q14.5>
    4b3a:	5208      	strh	r0, [r1, r0]
    4b3c:	c0e8      	stmia	r0!, {r3, r5, r6, r7}
    4b3e:	fffc db8f 	vtbl.8	d29, {d28-d31}, d15
    4b42:	4461      	add	r1, ip
    4b44:	095a      	lsrs	r2, r3, #5
    4b46:	def2      	udf	#242	@ 0xf2
    4b48:	8f6e      	ldrh	r6, [r5, #58]	@ 0x3a
    4b4a:	8520      	strh	r0, [r4, #40]	@ 0x28
    4b4c:	0686      	lsls	r6, r0, #26
    4b4e:	018d      	lsls	r5, r1, #6
    4b50:	4668      	mov	r0, sp
    4b52:	95a4      	str	r5, [sp, #656]	@ 0x290
    4b54:	ef20 f6ed 	vmax.s32	<illegal reg q7.5>, q8, <illegal reg q14.5>
    4b58:	5208      	strh	r0, [r1, r0]
    4b5a:	00a8      	lsls	r0, r5, #2
    4b5c:	6870      	ldr	r0, [r6, #4]
    4b5e:	4460      	add	r0, ip
    4b60:	095a      	lsrs	r2, r3, #5
    4b62:	def2      	udf	#242	@ 0xf2
    4b64:	8f6e      	ldrh	r6, [r5, #58]	@ 0x3a
    4b66:	8520      	strh	r0, [r4, #40]	@ 0x28
    4b68:	010a      	lsls	r2, r1, #4
    4b6a:	0787      	lsls	r7, r0, #30
    4b6c:	8446      	strh	r6, [r0, #34]	@ 0x22
    4b6e:	a125      	add	r1, pc, #148	@ (adr r1, 0x4c04)
    4b70:	d052      	beq.n	0x4c18
    4b72:	a5de      	add	r5, pc, #888	@ (adr r5, 0x4eec)
    4b74:	8524      	strh	r4, [r4, #40]	@ 0x28
    4b76:	461e      	mov	r6, r3
    4b78:	95a4      	str	r5, [sp, #656]	@ 0x290
    4b7a:	ef20 f6ed 	vmax.s32	<illegal reg q7.5>, q8, <illegal reg q14.5>
    4b7e:	5208      	strh	r0, [r1, r0]
    4b80:	4ce8      	ldr	r4, [pc, #928]	@ (0x4f24)
    4b82:	981f      	ldr	r0, [sp, #124]	@ 0x7c
    4b84:	4637      	mov	r7, r6
    4b86:	95a4      	str	r5, [sp, #656]	@ 0x290
    4b88:	ef20 f6ed 	vmax.s32	<illegal reg q7.5>, q8, <illegal reg q14.5>
    4b8c:	5208      	strh	r0, [r1, r0]
    4b8e:	00a8      	lsls	r0, r5, #2
    4b90:	7870      	ldrb	r0, [r6, #1]
    4b92:	4460      	add	r0, ip
    4b94:	095a      	lsrs	r2, r3, #5
    4b96:	def2      	udf	#242	@ 0xf2
    4b98:	8f6e      	ldrh	r6, [r5, #58]	@ 0x3a
    4b9a:	8520      	strh	r0, [r4, #40]	@ 0x28
    4b9c:	ffc0 f4ce 	vmls.i<illegal width 8>	<illegal reg q15.5>, q8, d2[3]
    4ba0:	4460      	add	r0, ip
    4ba2:	d108      	bne.n	0x4bb6
    4ba4:	4460      	add	r0, ip
    4ba6:	190c      	adds	r4, r1, r4
    4ba8:	11d9      	asrs	r1, r3, #7
    4baa:	2fef      	cmp	r7, #239	@ 0xef
    4bac:	6711      	str	r1, [r2, #112]	@ 0x70
    4bae:	00a3      	lsls	r3, r4, #2
    4bb0:	4470      	add	r0, lr
    4bb2:	2398      	movs	r3, #152	@ 0x98
    4bb4:	a446      	add	r4, pc, #280	@ (adr r4, 0x4cd0)
    4bb6:	2095      	movs	r0, #149	@ 0x95
    4bb8:	edef 08f6 	stcl	8, cr0, [pc, #984]!	@ 0x4f94
    4bbc:	a852      	add	r0, sp, #328	@ 0x148
    4bbe:	7000      	strb	r0, [r0, #0]
    4bc0:	6088      	str	r0, [r1, #8]
    4bc2:	0844      	lsrs	r4, r0, #1
    4bc4:	60d1      	str	r1, [r2, #12]
    4bc6:	0c44      	lsrs	r4, r0, #17
    4bc8:	d819      	bhi.n	0x4bfe
    4bca:	99d2      	ldr	r1, [sp, #840]	@ 0x348
    4bcc:	03b4      	lsls	r4, r6, #14
    4bce:	9dc5      	ldr	r5, [sp, #788]	@ 0x314
    4bd0:	c919      	ldmia	r1!, {r0, r3, r4}
    4bd2:	41cd      	rors	r5, r1
    4bd4:	9dc0      	ldr	r5, [sp, #768]	@ 0x300
    4bd6:	095a      	lsrs	r2, r3, #5
    4bd8:	def2      	udf	#242	@ 0xf2
    4bda:	8f6e      	ldrh	r6, [r5, #58]	@ 0x3a
    4bdc:	8520      	strh	r0, [r4, #40]	@ 0x28
    4bde:	0786      	lsls	r6, r0, #30
    4be0:	18d2      	adds	r2, r2, r3
    4be2:	16b0      	asrs	r0, r6, #26
    4be4:	4640      	mov	r0, r8
    4be6:	3200      	adds	r2, #0
    4be8:	0d83      	lsrs	r3, r0, #22
    4bea:	dc04      	bgt.n	0x4bf6
    4bec:	6549      	str	r1, [r1, #84]	@ 0x54
    4bee:	b014      	add	sp, #80	@ 0x50
    4bf0:	4f76      	ldr	r7, [pc, #472]	@ (0x4dcc)
    4bf2:	6445      	str	r5, [r0, #68]	@ 0x44
    4bf4:	0a24      	lsrs	r4, r4, #8
    4bf6:	0d01      	lsrs	r1, r0, #20
    4bf8:	c56e      	stmia	r5!, {r1, r2, r3, r5, r6}
    4bfa:	000c      	movs	r4, r1
    4bfc:	da90      	bge.n	0x4b20
    4bfe:	0417      	lsls	r7, r2, #16
    4c00:	a9dc      	add	r1, sp, #880	@ 0x370
    4c02:	2095      	movs	r0, #149	@ 0x95
    4c04:	edef 08f6 	stcl	8, cr0, [pc, #984]!	@ 0x4fe0
    4c08:	e852 0e4c 			@ <UNDEFINED> instruction: 0xe8520e4c
    4c0c:	406f      	eors	r7, r5
    4c0e:	9dc0      	ldr	r5, [sp, #768]	@ 0x300
    4c10:	1258      	asrs	r0, r3, #9
    4c12:	052a      	lsls	r2, r5, #20
    4c14:	5ded      	ldrb	r5, [r5, r7]
    4c16:	524a      	strh	r2, [r1, r1]
    4c18:	4868      	ldr	r0, [pc, #416]	@ (0x4dbc)
    4c1a:	8140      	strh	r0, [r0, #10]
    4c1c:	4e9d      	ldr	r6, [pc, #628]	@ (0x4e94)
    4c1e:	eef5 dc04 	cdp	12, 15, cr13, cr5, cr4, {0}
    4c22:	95a9      	str	r5, [sp, #676]	@ 0x2a4
    4c24:	ef20 f6ed 	vmax.s32	<illegal reg q7.5>, q8, <illegal reg q14.5>
    4c28:	5208      	strh	r0, [r1, r0]
    4c2a:	4ce8      	ldr	r4, [pc, #928]	@ (0x4fcc)
    4c2c:	49e2      	ldr	r1, [pc, #904]	@ (0x4fb8)
    4c2e:	9dc0      	ldr	r5, [sp, #768]	@ 0x300
    4c30:	1258      	asrs	r0, r3, #9
    4c32:	052a      	lsls	r2, r5, #20
    4c34:	5ded      	ldrb	r5, [r5, r7]
    4c36:	524a      	strh	r2, [r1, r1]
    4c38:	4868      	ldr	r0, [pc, #416]	@ (0x4ddc)
    4c3a:	2580      	movs	r5, #128	@ 0x80
    4c3c:	04c4      	lsls	r4, r0, #19
    4c3e:	a9dc      	add	r1, sp, #880	@ 0x370
    4c40:	2095      	movs	r0, #149	@ 0x95
    4c42:	82ef      	strh	r7, [r5, #22]
    4c44:	cc21      	ldmia	r4!, {r0, r5}
    4c46:	2952      	cmp	r1, #82	@ 0x52
    4c48:	edec 08f6 	stcl	8, cr0, [ip, #984]!	@ 0x3d8
    4c4c:	ea52 0f4c 	orrs.w	pc, r2, ip, lsl #1
    4c50:	da51      	bge.n	0x4cf6
    4c52:	9029      	str	r0, [sp, #164]	@ 0xa4
    4c54:	0cf9      	lsrs	r1, r7, #19
    4c56:	dc04      	bgt.n	0x4c62
    4c58:	95a9      	str	r5, [sp, #676]	@ 0x2a4
    4c5a:	ef20 f6ed 	vmax.s32	<illegal reg q7.5>, q8, <illegal reg q14.5>
    4c5e:	5208      	strh	r0, [r1, r0]
    4c60:	4ce8      	ldr	r4, [pc, #928]	@ (0x5004)
    4c62:	6f0e      	ldr	r6, [r1, #112]	@ 0x70
    4c64:	c040      	stmia	r0!, {r6}
    4c66:	589d      	ldr	r5, [r3, r2]
    4c68:	2a12      	cmp	r2, #18
    4c6a:	ed05 4a5d 	vstr	s8, [r5, #-372]	@ 0xfffffe8c
    4c6e:	6852      	ldr	r2, [r2, #4]
    4c70:	404a      	eors	r2, r1
    4c72:	9d83      	ldr	r5, [sp, #524]	@ 0x20c
    4c74:	dc04      	bgt.n	0x4c80
    4c76:	2589      	movs	r5, #137	@ 0x89
    4c78:	52a1      	strh	r1, [r4, r2]
    4c7a:	ded0      	udf	#208	@ 0xd0
    4c7c:	24a5      	movs	r4, #165	@ 0xa5
    4c7e:	ce85      	ldmia	r6!, {r0, r2, r7}
    4c80:	8e25      	ldrh	r5, [r4, #48]	@ 0x30
    4c82:	8ada      	ldrh	r2, [r3, #22]
    4c84:	4eef      	ldr	r6, [pc, #956]	@ (0x5044)
    4c86:	9dc0      	ldr	r5, [sp, #768]	@ 0x300
    4c88:	095a      	lsrs	r2, r3, #5
    4c8a:	def2      	udf	#242	@ 0xf2
    4c8c:	8f6e      	ldrh	r6, [r5, #58]	@ 0x3a
    4c8e:	8520      	strh	r0, [r4, #40]	@ 0x28
    4c90:	000a      	movs	r2, r1
    4c92:	0787      	lsls	r7, r0, #30
    4c94:	da51      	bge.n	0x4d3a
    4c96:	8029      	strh	r1, [r5, #0]
    4c98:	4489      	add	r9, r1
    4c9a:	9dc0      	ldr	r5, [sp, #768]	@ 0x300
    4c9c:	d108      	bne.n	0x4cb0
    4c9e:	c500      	stmia	r5!, {}
    4ca0:	199d      	adds	r5, r3, r6
    4ca2:	22c8      	movs	r2, #200	@ 0xc8
    4ca4:	dc04      	bgt.n	0x4cb0
    4ca6:	2589      	movs	r5, #137	@ 0x89
    4ca8:	52a1      	strh	r1, [r4, r2]
    4caa:	ded0      	udf	#208	@ 0xd0
    4cac:	24a5      	movs	r4, #165	@ 0xa5
    4cae:	8685      	strh	r5, [r0, #52]	@ 0x34
    4cb0:	4507      	cmp	r7, r0
    4cb2:	9846      	ldr	r0, [sp, #280]	@ 0x118
    4cb4:	5111      	str	r1, [r2, r4]
    4cb6:	39da      	subs	r1, #218	@ 0xda
    4cb8:	3fe0      	subs	r7, #224	@ 0xe0
    4cba:	da51      	bge.n	0x4d60
    4cbc:	3039      	adds	r0, #57	@ 0x39
    4cbe:	dadd      	bge.n	0x4c7c
    4cc0:	0109      	lsls	r1, r1, #4
    4cc2:	9e14      	ldr	r6, [sp, #80]	@ 0x50
    4cc4:	1c39      	adds	r1, r7, #0
    4cc6:	ebed 2108 			@ <UNDEFINED> instruction: 0xebed2108
    4cca:	08d4      	lsrs	r4, r2, #3
    4ccc:	6347      	str	r7, [r0, #52]	@ 0x34
    4cce:	8c34      	ldrh	r4, [r6, #32]
    4cd0:	0f00      	lsrs	r0, r0, #28
    4cd2:	2346      	movs	r3, #70	@ 0x46
    4cd4:	808c      	strh	r4, [r1, #4]
    4cd6:	81a0      	strh	r0, [r4, #12]
    4cd8:	4299      	cmp	r1, r3
    4cda:	9dc0      	ldr	r5, [sp, #768]	@ 0x300
    4cdc:	095a      	lsrs	r2, r3, #5
    4cde:	def2      	udf	#242	@ 0xf2
    4ce0:	8f6e      	ldrh	r6, [r5, #58]	@ 0x3a
    4ce2:	8520      	strh	r0, [r4, #40]	@ 0x28
    4ce4:	010a      	lsls	r2, r1, #4
    4ce6:	0887      	lsrs	r7, r0, #2
    4ce8:	da51      	bge.n	0x4d8e
    4cea:	9019      	str	r0, [sp, #100]	@ 0x64
    4cec:	1739      	asrs	r1, r7, #28
    4cee:	2511      	movs	r5, #17
    4cf0:	9992      	ldr	r1, [sp, #584]	@ 0x248
    4cf2:	0416      	lsls	r6, r2, #16
    4cf4:	d9d7      	bls.n	0x4ca6
    4cf6:	1028      	asrs	r0, r5, #32
    4cf8:	7511      	strb	r1, [r2, #20]
    4cfa:	039d      	lsls	r5, r3, #14
    4cfc:	d851      	bhi.n	0x4da2
    4cfe:	e029      	b.n	0x4d54
    4d00:	517e      	str	r6, [r7, r5]
    4d02:	29d7      	cmp	r1, #215	@ 0xd7
    4d04:	8510      	strh	r0, [r2, #40]	@ 0x28
    4d06:	039d      	lsls	r5, r3, #14
    4d08:	000a      	movs	r2, r1
    4d0a:	9447      	str	r4, [sp, #284]	@ 0x11c
    4d0c:	0f49      	lsrs	r1, r1, #29
    4d0e:	a446      	add	r4, pc, #280	@ (adr r4, 0x4e28)
    4d10:	2095      	movs	r0, #149	@ 0x95
    4d12:	edef 08f6 	stcl	8, cr0, [pc, #984]!	@ 0x50ec
    4d16:	e852 0e4c 			@ <UNDEFINED> instruction: 0xe8520e4c
    4d1a:	ffcc a9ff 			@ <UNDEFINED> instruction: 0xffcca9ff
    4d1e:	6082      	str	r2, [r0, #8]
    4d20:	5a44      	ldrh	r4, [r0, r1]
    4d22:	f209 6ede 	addw	lr, r9, #1758	@ 0x6de
    4d26:	208f      	movs	r0, #143	@ 0x8f
    4d28:	ce85      	ldmia	r6!, {r0, r2, r7}
    4d2a:	61e4      	str	r4, [r4, #28]
    4d2c:	5a44      	ldrh	r4, [r0, r1]
    4d2e:	f209 6ede 	addw	lr, r9, #1758	@ 0x6de
    4d32:	208f      	movs	r0, #143	@ 0x8f
    4d34:	1f85      	subs	r5, r0, #6
    4d36:	a446      	add	r4, pc, #280	@ (adr r4, 0x4e50)
    4d38:	2095      	movs	r0, #149	@ 0x95
    4d3a:	edef 08f6 	stcl	8, cr0, [pc, #984]!	@ 0x5114
    4d3e:	e852 e24c 			@ <UNDEFINED> instruction: 0xe852e24c
    4d42:	4469      	add	r1, sp
    4d44:	1258      	asrs	r0, r3, #9
    4d46:	052a      	lsls	r2, r5, #20
    4d48:	5ded      	ldrb	r5, [r5, r7]
    4d4a:	524a      	strh	r2, [r1, r1]
    4d4c:	4a68      	ldr	r2, [pc, #416]	@ (0x4ef0)
    4d4e:	6780      	str	r0, [r0, #120]	@ 0x78
    4d50:	5a44      	ldrh	r4, [r0, r1]
    4d52:	f209 b52e 	b.w	0x60e7b2
    4d56:	dfc2      	svc	194	@ 0xc2
    4d58:	8f6e      	ldrh	r6, [r5, #58]	@ 0x3a
    4d5a:	8520      	strh	r0, [r4, #40]	@ 0x28
    4d5c:	f2ce 7981 	movt	r9, #59265	@ 0xe781
    4d60:	4464      	add	r4, ip
    4d62:	095a      	lsrs	r2, r3, #5
    4d64:	0ef2      	lsrs	r2, r6, #27
    4d66:	dffd      	svc	253	@ 0xfd
    4d68:	8f6e      	ldrh	r6, [r5, #58]	@ 0x3a
    4d6a:	8520      	strh	r0, [r4, #40]	@ 0x28
    4d6c:	461f      	mov	r7, r3
    4d6e:	2584      	movs	r5, #132	@ 0x84
    4d70:	52a1      	strh	r1, [r4, r2]
    4d72:	ded0      	udf	#208	@ 0xd0
    4d74:	24a5      	movs	r4, #165	@ 0xa5
    4d76:	1e85      	subs	r5, r0, #2
    4d78:	a446      	add	r4, pc, #280	@ (adr r4, 0x4e94)
    4d7a:	2095      	movs	r0, #149	@ 0x95
    4d7c:	edef 08f6 	stcl	8, cr0, [pc, #984]!	@ 0x5158
    4d80:	e852 1f2c 	ldrex	r1, [r2, #176]	@ 0xb0
    4d84:	8446      	strh	r6, [r0, #34]	@ 0x22
    4d86:	0d10      	lsrs	r0, r2, #20
    4d88:	c446      	stmia	r4!, {r1, r2, r6}
    4d8a:	9190      	str	r1, [sp, #576]	@ 0x240
    4d8c:	f00d f0ec 	bl	0x411f68
    4d90:	6f0f      	ldr	r7, [r1, #112]	@ 0x70
    4d92:	7140      	strb	r0, [r0, #5]
    4d94:	0a9d      	lsrs	r5, r3, #10
    4d96:	0201      	lsls	r1, r0, #8
    4d98:	2ce8      	cmp	r4, #232	@ 0xe8
    4d9a:	deef      	udf	#239	@ 0xef
    4d9c:	8ebe      	ldrh	r6, [r7, #52]	@ 0x34
    4d9e:	d010      	beq.n	0x4dc2
    4da0:	117b      	asrs	r3, r7, #5
    4da2:	e172      	b.n	0x508a
    4da4:	112f      	asrs	r7, r5, #4
    4da6:	e16e      	b.n	0x5086
    4da8:	5e77      	ldrsh	r7, [r6, r1]
    4daa:	bcf9      	pop	{r0, r3, r4, r5, r6, r7}
    4dac:	f100 a8df 	bmi.w	0xc4f6e
    4db0:	7000      	strb	r0, [r0, #0]
    4db2:	d324      	bcc.n	0x4dfe
    4db4:	9dbc      	ldr	r5, [sp, #752]	@ 0x2f0
    4db6:	1000      	asrs	r0, r0, #32
    4db8:	dd34      	ble.n	0x4e24
    4dba:	09db      	lsrs	r3, r3, #7
    4dbc:	8c01      	ldrh	r1, [r0, #32]
    4dbe:	dd30      	ble.n	0x4e22
    4dc0:	09db      	lsrs	r3, r3, #7
    4dc2:	d402      	bmi.n	0x4dca
    4dc4:	dd30      	ble.n	0x4e28
    4dc6:	09db      	lsrs	r3, r3, #7
    4dc8:	1c03      	adds	r3, r0, #0
    4dca:	dd31      	ble.n	0x4e30
    4dcc:	09db      	lsrs	r3, r3, #7
    4dce:	ab04      	add	r3, sp, #16
    4dd0:	dd31      	ble.n	0x4e36
    4dd2:	09db      	lsrs	r3, r3, #7
    4dd4:	2c05      	cmp	r4, #5
    4dd6:	3992      	subs	r1, #146	@ 0x92
    4dd8:	5027      	str	r7, [r4, r0]
    4dda:	2a1d      	cmp	r2, #29
    4ddc:	0c80      	lsrs	r0, r0, #18
    4dde:	3ed4      	subs	r6, #212	@ 0xd4
    4de0:	108f      	asrs	r7, r1, #2
    4de2:	7dd0      	ldrb	r0, [r2, #23]
    4de4:	6347      	str	r7, [r0, #52]	@ 0x34
    4de6:	8c34      	ldrh	r4, [r6, #32]
    4de8:	0e00      	lsrs	r0, r0, #24
    4dea:	2346      	movs	r3, #70	@ 0x46
    4dec:	808c      	strh	r4, [r1, #4]
    4dee:	e246      	b.n	0x527e
    4df0:	516e      	str	r6, [r5, r5]
    4df2:	19db      	adds	r3, r3, r7
    4df4:	7990      	ldrb	r0, [r2, #6]
    4df6:	0423      	lsls	r3, r4, #16
    4df8:	8a1d      	ldrh	r5, [r3, #16]
    4dfa:	0d10      	lsrs	r0, r2, #20
    4dfc:	2899      	cmp	r0, #153	@ 0x99
    4dfe:	9512      	str	r5, [sp, #72]	@ 0x48
    4e00:	009d      	lsls	r5, r3, #2
    4e02:	1c99      	adds	r1, r3, #2
    4e04:	2ec2      	cmp	r6, #194	@ 0xc2
    4e06:	f0ff 1406 			@ <UNDEFINED> instruction: 0xf0ff1406
    4e0a:	a9d7      	add	r1, sp, #860	@ 0x35c
    4e0c:	2010      	movs	r0, #16
    4e0e:	ce80      	ldmia	r6!, {r7}
    4e10:	eef2 ebed 	vcvtt.f64.f16	d30, s27
    4e14:	1108      	asrs	r0, r1, #4
    4e16:	7746      	strb	r6, [r0, #29]
    4e18:	4634      	mov	r4, r6
    4e1a:	08d3      	lsrs	r3, r2, #3
    4e1c:	10c0      	asrs	r0, r0, #3
    4e1e:	9db5      	ldr	r5, [sp, #724]	@ 0x2d4
    4e20:	9902      	ldr	r1, [sp, #8]
    4e22:	41de      	rors	r6, r3
    4e24:	a1d0      	add	r1, pc, #832	@ (adr r1, 0x5168)
    4e26:	d108      	bne.n	0x4e3a
    4e28:	b510      	push	{r4, lr}
    4e2a:	009d      	lsls	r5, r3, #2
    4e2c:	c899      	ldmia	r0, {r0, r3, r4, r7}
    4e2e:	8ec1      	ldrh	r1, [r0, #54]	@ 0x36
    4e30:	f0ff 1406 			@ <UNDEFINED> instruction: 0xf0ff1406
    4e34:	a9d8      	add	r1, sp, #864	@ 0x360
    4e36:	d070      	beq.n	0x4f1a
    4e38:	a20e      	add	r2, pc, #56	@ (adr r2, 0x4e74)
    4e3a:	eef0 ebed 	vabs.f64	d30, d29
    4e3e:	1108      	asrs	r0, r1, #4
    4e40:	771c      	strb	r4, [r3, #28]
    4e42:	4634      	mov	r4, r6
    4e44:	08d3      	lsrs	r3, r2, #3
    4e46:	10c0      	asrs	r0, r0, #3
    4e48:	9db5      	ldr	r5, [sp, #724]	@ 0x2d4
    4e4a:	9903      	ldr	r1, [sp, #12]
    4e4c:	418a      	sbcs	r2, r1
    4e4e:	a1d0      	add	r1, pc, #832	@ (adr r1, 0x5190)
    4e50:	d108      	bne.n	0x4e64
    4e52:	b510      	push	{r4, lr}
    4e54:	009d      	lsls	r5, r3, #2
    4e56:	7499      	strb	r1, [r3, #18]
    4e58:	7041      	strb	r1, [r0, #1]
    4e5a:	8d9d      	ldrh	r5, [r3, #44]	@ 0x2c
    4e5c:	1a02      	subs	r2, r0, r0
    4e5e:	f6ec 6f1f 			@ <UNDEFINED> instruction: 0xf6ec6f1f
    4e62:	20a0      	movs	r0, #160	@ 0xa0
    4e64:	8020      	strh	r0, [r4, #0]
    4e66:	f4ce 98be 	b.w	0xff4d2fe6
    4e6a:	ec16 2ff6 	ldc	15, cr2, [r6], {246}	@ 0xf6
    4e6e:	a06f      	add	r0, pc, #444	@ (adr r0, 0x502c)
    4e70:	2020      	movs	r0, #32
    4e72:	ce80      	ldmia	r6!, {r7}
    4e74:	bef4      	bkpt	0x00f4
    4e76:	246e      	movs	r4, #110	@ 0x6e
    4e78:	0145      	lsls	r5, r0, #5
    4e7a:	4900      	ldr	r1, [pc, #0]	@ (0x4e7c)
    4e7c:	f4ec 6f0f 			@ <UNDEFINED> instruction: 0xf4ec6f0f
    4e80:	8140      	strh	r0, [r0, #10]
    4e82:	0a9d      	lsrs	r5, r3, #10
    4e84:	0202      	lsls	r2, r0, #8
    4e86:	4ce8      	ldr	r4, [pc, #928]	@ (0x5228)
    4e88:	deef      	udf	#239	@ 0xef
    4e8a:	8ebe      	ldrh	r6, [r7, #52]	@ 0x34
    4e8c:	f010 476c 	ands.w	r7, r0, #3959422976	@ 0xec000000
    4e90:	3463      	adds	r4, #99	@ 0x63
    4e92:	008d      	lsls	r5, r1, #2
    4e94:	510c      	str	r4, [r1, r4]
    4e96:	49db      	ldr	r1, [pc, #876]	@ (0x5204)
    4e98:	f990 040e 	ldrsb.w	r0, [r0, #1038]	@ 0x40e
    4e9c:	8a1d      	ldrh	r5, [r3, #16]
    4e9e:	0d10      	lsrs	r0, r2, #20
    4ea0:	db51      	blt.n	0x4f46
    4ea2:	9009      	str	r0, [sp, #36]	@ 0x24
    4ea4:	0d99      	lsrs	r1, r3, #22
    4ea6:	d704      	bvc.n	0x4eb2
    4ea8:	28d9      	cmp	r0, #217	@ 0xd9
    4eaa:	c1a0      	stmia	r1!, {r5, r7}
    4eac:	ff4e 06f1 	vmin.u8	q8, q15, <illegal reg q8.5>
    4eb0:	020a      	lsls	r2, r1, #8
    4eb2:	e802 ef6c 			@ <UNDEFINED> instruction: 0xe802ef6c
    4eb6:	698b      	ldr	r3, [r1, #24]
    4eb8:	4ec1      	ldr	r6, [pc, #772]	@ (0x51c0)
    4eba:	f2ff 0a06 			@ <UNDEFINED> instruction: 0xf2ff0a06
    4ebe:	0202      	lsls	r2, r0, #8
    4ec0:	6ce8      	ldr	r0, [r5, #76]	@ 0x4c
    4ec2:	cbef      	ldmia	r3, {r0, r1, r2, r3, r5, r6, r7}
    4ec4:	ff6e 06f0 	vmin.u32	q8, q15, q8
    4ec8:	d814      	bhi.n	0x4ef4
    4eca:	20a9      	movs	r0, #169	@ 0xa9
    4ecc:	8020      	strh	r0, [r4, #0]
    4ece:	f6ce edee 	blx	0xffed3aac
    4ed2:	08eb      	lsrs	r3, r5, #3
    4ed4:	8711      	strh	r1, [r2, #56]	@ 0x38
    4ed6:	3476      	adds	r4, #118	@ 0x76
    4ed8:	d346      	bcc.n	0x4f68
    4eda:	b008      	add	sp, #32
    4edc:	b510      	push	{r4, lr}
    4ede:	059d      	lsls	r5, r3, #22
    4ee0:	6198      	str	r0, [r3, #24]
    4ee2:	1d04      	adds	r4, r0, #4
    4ee4:	108a      	asrs	r2, r1, #2
    4ee6:	510d      	str	r5, [r1, r4]
    4ee8:	09db      	lsrs	r3, r3, #7
    4eea:	c980      	ldmia	r1!, {r7}
    4eec:	3ec4      	subs	r6, #196	@ 0xc4
    4eee:	f0ff 1406 			@ <UNDEFINED> instruction: 0xf0ff1406
    4ef2:	a9d7      	add	r1, sp, #860	@ 0x35c
    4ef4:	2010      	movs	r0, #16
    4ef6:	ce80      	ldmia	r6!, {r7}
    4ef8:	eef2 ebed 	vcvtt.f64.f16	d30, s27
    4efc:	1108      	asrs	r0, r1, #4
    4efe:	765e      	strb	r6, [r3, #25]
    4f00:	4634      	mov	r4, r6
    4f02:	08d3      	lsrs	r3, r2, #3
    4f04:	1090      	asrs	r0, r2, #2
    4f06:	a0a0      	add	r0, pc, #640	@ (adr r0, 0x5188)
    4f08:	1198      	asrs	r0, r3, #6
    4f0a:	1d04      	adds	r4, r0, #4
    4f0c:	108a      	asrs	r2, r1, #2
    4f0e:	510d      	str	r5, [r1, r4]
    4f10:	09db      	lsrs	r3, r3, #7
    4f12:	8cf0      	ldrh	r0, [r6, #38]	@ 0x26
    4f14:	f100 4cdf 	add.w	ip, r0, #1870659584	@ 0x6f800000
    4f18:	9d70      	ldr	r5, [sp, #448]	@ 0x1c0
    4f1a:	028d      	lsls	r5, r1, #10
    4f1c:	ec1a 1ff6 	ldc	15, cr1, [sl], {246}	@ 0xf6
    4f20:	a06f      	add	r0, pc, #444	@ (adr r0, 0x50e0)
    4f22:	2020      	movs	r0, #32
    4f24:	ce80      	ldmia	r6!, {r7}
    4f26:	bef2      	bkpt	0x00f2
    4f28:	1698      	asrs	r0, r3, #26
    4f2a:	f6ec 6f2f 			@ <UNDEFINED> instruction: 0xf6ec6f2f
    4f2e:	20a0      	movs	r0, #160	@ 0xa0
    4f30:	8020      	strh	r0, [r4, #0]
    4f32:	f2ce 6ebe 	movt	lr, #59070	@ 0xe6be
    4f36:	4cc2      	ldr	r4, [pc, #776]	@ (0x5240)
    4f38:	803d      	strh	r5, [r7, #0]
    4f3a:	122c      	asrs	r4, r5, #8
    4f3c:	9d95      	ldr	r5, [sp, #596]	@ 0x254
    4f3e:	5103      	str	r3, [r0, r4]
    4f40:	09db      	lsrs	r3, r3, #7
    4f42:	d510      	bpl.n	0x4f66
    4f44:	00a1      	lsls	r1, r4, #2
    4f46:	d804      	bhi.n	0x4f52
    4f48:	5059      	str	r1, [r3, r1]
    4f4a:	fe8f 9513 	mcr2	5, 4, r9, cr15, cr3, {0}
    4f4e:	009d      	lsls	r5, r3, #2
    4f50:	04df      	lsls	r7, r3, #19
    4f52:	dff1      	svc	241	@ 0xf1
    4f54:	0ec9      	lsrs	r1, r1, #27
    4f56:	f1ff 0a06 			@ <UNDEFINED> instruction: 0xf1ff0a06
    4f5a:	0201      	lsls	r1, r0, #8
    4f5c:	2ce8      	cmp	r4, #232	@ 0xe8
    4f5e:	cbef      	ldmia	r3, {r0, r1, r2, r3, r5, r6, r7}
    4f60:	ff0e 06f2 	vmin.u8	q0, q15, q9
    4f64:	010a      	lsls	r2, r1, #4
    4f66:	e802 ef3c 			@ <UNDEFINED> instruction: 0xe802ef3c
    4f6a:	3ecb      	subs	r6, #203	@ 0xcb
    4f6c:	f1ff 0a06 			@ <UNDEFINED> instruction: 0xf1ff0a06
    4f70:	0201      	lsls	r1, r0, #8
    4f72:	4ce8      	ldr	r4, [pc, #928]	@ (0x5314)
    4f74:	cbef      	ldmia	r3, {r0, r1, r2, r3, r5, r6, r7}
    4f76:	ff3e 06f2 	vmin.u<illegal width 64>	q0, q15, q9
    4f7a:	010a      	lsls	r2, r1, #4
    4f7c:	e802 ef5c 			@ <UNDEFINED> instruction: 0xe802ef5c
    4f80:	246b      	movs	r4, #107	@ 0x6b
    4f82:	008d      	lsls	r5, r1, #2
    4f84:	0a7e      	lsrs	r6, r7, #9
    4f86:	4702      	bx	r0
    4f88:	3466      	adds	r4, #102	@ 0x66
    4f8a:	008d      	lsls	r5, r1, #2
    4f8c:	d35c      	bcc.n	0x5048
    4f8e:	a1ee      	add	r1, pc, #952	@ (adr r1, 0x5348)
    4f90:	9010      	str	r0, [sp, #64]	@ 0x40
    4f92:	ed32 0a1f 	vldmdb	r2!, {s0-s30}
    4f96:	0c01      	lsrs	r1, r0, #16
    4f98:	d751      	bvc.n	0x503e
    4f9a:	9ff9      	ldr	r7, [sp, #996]	@ 0x3e4
    4f9c:	0839      	lsrs	r1, r7, #32
    4f9e:	d751      	bvc.n	0x5044
    4fa0:	1029      	asrs	r1, r5, #32
    4fa2:	9d85      	ldr	r5, [sp, #532]	@ 0x214
    4fa4:	9803      	ldr	r0, [sp, #12]
    4fa6:	d371      	bcc.n	0x508c
    4fa8:	a1fe      	add	r1, pc, #1016	@ (adr r1, 0x53a4)
    4faa:	2010      	movs	r0, #16
    4fac:	7511      	strb	r1, [r2, #20]
    4fae:	039d      	lsls	r5, r3, #14
    4fb0:	d851      	bhi.n	0x5056
    4fb2:	8029      	strh	r1, [r5, #0]
    4fb4:	1549      	asrs	r1, r1, #21
    4fb6:	9d75      	ldr	r5, [sp, #468]	@ 0x1d4
    4fb8:	98ff      	ldr	r0, [sp, #1020]	@ 0x3fc
    4fba:	5149      	str	r1, [r1, r5]
    4fbc:	29d7      	cmp	r1, #215	@ 0xd7
    4fbe:	8510      	strh	r0, [r2, #40]	@ 0x28
    4fc0:	039d      	lsls	r5, r3, #14
    4fc2:	3798      	adds	r7, #152	@ 0x98
    4fc4:	d346      	bcc.n	0x5054
    4fc6:	9008      	str	r0, [sp, #32]
    4fc8:	20a1      	movs	r0, #161	@ 0xa1
    4fca:	6470      	str	r0, [r6, #68]	@ 0x44
    4fcc:	d751      	bvc.n	0x5072
    4fce:	1039      	asrs	r1, r7, #32
    4fd0:	9d85      	ldr	r5, [sp, #532]	@ 0x214
    4fd2:	9802      	ldr	r0, [sp, #8]
    4fd4:	0a15      	lsrs	r5, r2, #8
    4fd6:	4701      	bx	r0
    4fd8:	7516      	strb	r6, [r2, #20]
    4fda:	029d      	lsls	r5, r3, #10
    4fdc:	d851      	bhi.n	0x5082
    4fde:	4039      	ands	r1, r7
    4fe0:	9d70      	ldr	r5, [sp, #448]	@ 0x1c0
    4fe2:	f8d2 082f 	ldr.w	r0, [r2, #2095]	@ 0x82f
    4fe6:	d446      	bmi.n	0x5076
    4fe8:	d008      	beq.n	0x4ffc
    4fea:	5462      	strb	r2, [r4, r1]
    4fec:	ff8d 5112 	vsra.u8	d5, d2, #3
    4ff0:	39d7      	subs	r1, #215	@ 0xd7
    4ff2:	8510      	strh	r0, [r2, #40]	@ 0x28
    4ff4:	029d      	lsls	r5, r3, #10
    4ff6:	5e98      	ldrsh	r0, [r3, r2]
    4ff8:	d751      	bvc.n	0x509e
    4ffa:	1029      	asrs	r1, r5, #32
    4ffc:	9d85      	ldr	r5, [sp, #532]	@ 0x214
    4ffe:	9803      	ldr	r0, [sp, #12]
    5000:	464c      	mov	r4, r9
    5002:	f8d4 112f 	ldr.w	r1, [r4, #303]	@ 0x12f
    5006:	9d75      	ldr	r5, [sp, #468]	@ 0x1d4
    5008:	5102      	str	r2, [r0, r4]
    500a:	39d8      	subs	r1, #216	@ 0xd8
    500c:	1980      	adds	r0, r0, r6
    500e:	5463      	strb	r3, [r4, r1]
    5010:	008c      	lsls	r4, r1, #2
    5012:	4609      	mov	r1, r1
    5014:	f8d5 111f 	ldr.w	r1, [r5, #287]	@ 0x11f
    5018:	9d75      	ldr	r5, [sp, #468]	@ 0x1d4
    501a:	5103      	str	r3, [r0, r4]
    501c:	29d8      	cmp	r1, #216	@ 0xd8
    501e:	7ee0      	ldrb	r0, [r4, #27]
    5020:	d751      	bvc.n	0x50c6
    5022:	1029      	asrs	r1, r5, #32
    5024:	9d85      	ldr	r5, [sp, #532]	@ 0x214
    5026:	4603      	mov	r3, r0
    5028:	7df6      	ldrb	r6, [r6, #23]
    502a:	df10      	svc	16
    502c:	67f8      	str	r0, [r7, #124]	@ 0x7c
    502e:	00c0      	lsls	r0, r0, #3
    5030:	a46f      	add	r4, pc, #444	@ (adr r4, 0x51f0)
    5032:	7000      	strb	r0, [r0, #0]
    5034:	ec24 0ff4 	vstr	<invalid reg 0>, [r4], #-464	@ 0xfffffe30
    5038:	a06f      	add	r0, pc, #444	@ (adr r0, 0x51f8)
    503a:	a020      	add	r0, pc, #128	@ (adr r0, 0x50bc)
    503c:	2025      	movs	r0, #37	@ 0x25
    503e:	ce80      	ldmia	r6!, {r7}
    5040:	eef4 ebed 	vcmpe.f64	d30, d29
    5044:	1108      	asrs	r0, r1, #4
    5046:	c516      	stmia	r5!, {r1, r2, r4}
    5048:	ff6e 06f0 	vmin.u32	q8, q15, q8
    504c:	020a      	lsls	r2, r1, #8
    504e:	025a      	lsls	r2, r3, #9
    5050:	e802 ef4c 			@ <UNDEFINED> instruction: 0xe802ef4c
    5054:	bede      	bkpt	0x00de
    5056:	108e      	asrs	r6, r1, #2
    5058:	5040      	str	r0, [r0, r1]
    505a:	f4ec 6f0f 			@ <UNDEFINED> instruction: 0xf4ec6f0f
    505e:	20a0      	movs	r0, #160	@ 0xa0
    5060:	35a0      	adds	r5, #160	@ 0xa0
    5062:	8020      	strh	r0, [r4, #0]
    5064:	f4ce edee 	blx	0xffcd3c44
    5068:	08eb      	lsrs	r3, r5, #3
    506a:	f111 6ec4 	adds.w	lr, r1, #102760448	@ 0x6200000
    506e:	f0ff 0a06 			@ <UNDEFINED> instruction: 0xf0ff0a06
    5072:	5a02      	ldrh	r2, [r0, r0]
    5074:	0203      	lsls	r3, r0, #8
    5076:	4ce8      	ldr	r4, [pc, #928]	@ (0x5418)
    5078:	deef      	udf	#239	@ 0xef
    507a:	8ebe      	ldrh	r6, [r7, #52]	@ 0x34
    507c:	f010 ec4d 	bfcsel	0, 0x591a, 2, mi
    5080:	0ff2      	lsrs	r2, r6, #31
    5082:	a06f      	add	r0, pc, #444	@ (adr r0, 0x5240)
    5084:	a010      	add	r0, pc, #64	@ (adr r0, 0x50c8)
    5086:	2025      	movs	r0, #37	@ 0x25
    5088:	ce80      	ldmia	r6!, {r7}
    508a:	eef2 ebed 	vcvtt.f64.f16	d30, s27
    508e:	1108      	asrs	r0, r1, #4
    5090:	c4cc      	stmia	r4!, {r2, r3, r6, r7}
    5092:	ff3e 06f0 	vmin.u<illegal width 64>	q0, q15, q8
    5096:	010a      	lsls	r2, r1, #4
    5098:	025a      	lsls	r2, r3, #9
    509a:	e802 ef2c 			@ <UNDEFINED> instruction: 0xe802ef2c
    509e:	bede      	bkpt	0x00de
    50a0:	108e      	asrs	r6, r1, #2
    50a2:	4ba0      	ldr	r3, [pc, #640]	@ (0x5324)
    50a4:	f0ec 6f0f 			@ <UNDEFINED> instruction: 0xf0ec6f0f
    50a8:	10a0      	asrs	r0, r4, #2
    50aa:	25a0      	movs	r5, #160	@ 0xa0
    50ac:	8020      	strh	r0, [r4, #0]
    50ae:	f2ce edee 	blx	0x2d3c8c
    50b2:	08eb      	lsrs	r3, r5, #3
    50b4:	a711      	add	r7, pc, #68	@ (adr r7, 0x50fc)
    50b6:	00a4      	lsls	r4, r4, #2
    50b8:	3470      	adds	r4, #112	@ 0x70
    50ba:	4f98      	ldr	r7, [pc, #608]	@ (0x531c)
    50bc:	a346      	add	r3, pc, #280	@ (adr r3, 0x51d8)
    50be:	2095      	movs	r0, #149	@ 0x95
    50c0:	d0ef      	beq.n	0x50a2
    50c2:	edff 08f6 	ldcl	8, cr0, [pc, #984]!	@ 0x549c
    50c6:	f852 3461 	ldr.w	r3, [r2, <undefined>]
    50ca:	1258      	asrs	r0, r3, #9
    50cc:	052a      	lsls	r2, r5, #20
    50ce:	5ded      	ldrb	r5, [r5, r7]
    50d0:	524a      	strh	r2, [r1, r1]
    50d2:	61e8      	str	r0, [r5, #28]
    50d4:	5a34      	ldrh	r4, [r6, r0]
    50d6:	f209 6ede 	addw	lr, r9, #1758	@ 0x6de
    50da:	208f      	movs	r0, #143	@ 0x8f
    50dc:	ce85      	ldmia	r6!, {r0, r2, r7}
    50de:	61f2      	str	r2, [r6, #28]
    50e0:	0834      	lsrs	r4, r6, #32
    50e2:	60d1      	str	r1, [r2, #12]
    50e4:	0c34      	lsrs	r4, r6, #16
    50e6:	d819      	bhi.n	0x511c
    50e8:	7ea6      	ldrb	r6, [r4, #26]
    50ea:	8cf6      	ldrh	r6, [r6, #38]	@ 0x26
    50ec:	f100 f2cf 	bl	0x50568e
    50f0:	4c7f      	ldr	r4, [pc, #508]	@ (0x52f0)
    50f2:	9d70      	ldr	r5, [sp, #448]	@ 0x1c0
    50f4:	028d      	lsls	r5, r1, #10
    50f6:	ec16 1000 	ldc	0, cr1, [r6], {-0}
    50fa:	c46f      	stmia	r4!, {r0, r1, r2, r3, r5, r6}
    50fc:	000e      	movs	r6, r1
    50fe:	66f2      	str	r2, [r6, #108]	@ 0x6c
    5100:	1298      	asrs	r0, r3, #10
    5102:	00ec      	lsls	r4, r5, #3
    5104:	6f20      	ldr	r0, [r4, #112]	@ 0x70
    5106:	0ec4      	lsrs	r4, r0, #27
    5108:	f100 6e66 	add.w	lr, r0, #241172480	@ 0xe600000
    510c:	3814      	subs	r0, #20
    510e:	f91f 06f0 	ldrsb.w	r0, [pc, #-1776]	@ 0x4a20
    5112:	010a      	lsls	r2, r1, #4
    5114:	e802 ef2c 			@ <UNDEFINED> instruction: 0xe802ef2c
    5118:	66eb      	str	r3, [r5, #108]	@ 0x6c
    511a:	f181 0f91 			@ <UNDEFINED> instruction: 0xf1810f91
    511e:	a06f      	add	r0, pc, #444	@ (adr r0, 0x52dc)
    5120:	2010      	movs	r0, #16
    5122:	ce80      	ldmia	r6!, {r7}
    5124:	bef3      	bkpt	0x00f3
    5126:	146e      	asrs	r6, r5, #17
    5128:	1f48      	subs	r0, r1, #5
    512a:	f0f9 0a06 			@ <UNDEFINED> instruction: 0xf0f90a06
    512e:	0202      	lsls	r2, r0, #8
    5130:	ce28      	ldmia	r6!, {r3, r5}
    5132:	ef08 66eb 	vmax.s8	q3, q12, <illegal reg q13.5>
    5136:	f681 0f91 			@ <UNDEFINED> instruction: 0xf6810f91
    513a:	a06f      	add	r0, pc, #444	@ (adr r0, 0x52f8)
    513c:	2020      	movs	r0, #32
    513e:	e280      	b.n	0x5642
    5140:	f0ac 46be 			@ <UNDEFINED> instruction: 0xf0ac46be
    5144:	08d2      	lsrs	r2, r2, #3
    5146:	6430      	str	r0, [r6, #64]	@ 0x40
    5148:	8d34      	ldrh	r4, [r6, #40]	@ 0x28
    514a:	3aff      	subs	r2, #255	@ 0xff
    514c:	d704      	bvc.n	0x5158
    514e:	28d9      	cmp	r0, #217	@ 0xd9
    5150:	30b0      	adds	r0, #176	@ 0xb0
    5152:	1fed      	subs	r5, r5, #7
    5154:	010a      	lsls	r2, r1, #4
    5156:	0424      	lsls	r4, r4, #16
    5158:	d9d7      	bls.n	0x510a
    515a:	b038      	add	sp, #224	@ 0xe0
    515c:	ed30 0a1e 	vldmdb	r0!, {s0-s29}
    5160:	0e01      	lsrs	r1, r0, #24
    5162:	ea6e 8287 			@ <UNDEFINED> instruction: 0xea6e8287
    5166:	3226      	adds	r2, #38	@ 0x26
    5168:	1105      	asrs	r5, r0, #4
    516a:	1009      	asrs	r1, r1, #32
    516c:	0ef0      	lsrs	r0, r6, #27
    516e:	1b11      	subs	r1, r2, r4
    5170:	c7e3      	stmia	r7!, {r0, r1, r5, r6, r7}
    5172:	0ecf      	lsrs	r7, r1, #27
    5174:	cf10      	ldmia	r7!, {r4}
    5176:	0af7      	lsrs	r7, r6, #11
    5178:	4700      	bx	r0
    517a:	8042      	strh	r2, [r0, #2]
    517c:	059d      	lsls	r5, r3, #22
    517e:	48f5      	ldr	r0, [pc, #980]	@ (0x5554)
    5180:	9d70      	ldr	r5, [sp, #448]	@ 0x1c0
    5182:	028d      	lsls	r5, r1, #10
    5184:	ec30 1ff6 	ldc	15, cr1, [r0], #-984	@ 0xfffffc28
    5188:	a06f      	add	r0, pc, #444	@ (adr r0, 0x5348)
    518a:	2020      	movs	r0, #32
    518c:	ce80      	ldmia	r6!, {r7}
    518e:	bef5      	bkpt	0x00f5
    5190:	f4ec 6f1f 			@ <UNDEFINED> instruction: 0xf4ec6f1f
    5194:	20a0      	movs	r0, #160	@ 0xa0
    5196:	8020      	strh	r0, [r4, #0]
    5198:	f7ce 98be 	b.w	0xff7d3318
    519c:	ec2c 2ff6 	vstr	FPSCR, [ip], #-472	@ 0xfffffe28
    51a0:	a06f      	add	r0, pc, #444	@ (adr r0, 0x5360)
    51a2:	2020      	movs	r0, #32
    51a4:	ce80      	ldmia	r6!, {r7}
    51a6:	bef5      	bkpt	0x00f5
    51a8:	f4ec 6f2f 			@ <UNDEFINED> instruction: 0xf4ec6f2f
    51ac:	20a0      	movs	r0, #160	@ 0xa0
    51ae:	8020      	strh	r0, [r4, #0]
    51b0:	f7ce 6ebe 			@ <UNDEFINED> instruction: 0xf7ce6ebe
    51b4:	4cc5      	ldr	r4, [pc, #788]	@ (0x54cc)
    51b6:	903d      	str	r0, [sp, #244]	@ 0xf4
    51b8:	13fc      	asrs	r4, r7, #15
    51ba:	000a      	movs	r2, r1
    51bc:	9347      	str	r3, [sp, #284]	@ 0x11c
    51be:	1279      	asrs	r1, r7, #9
    51c0:	f3ed 1108 			@ <UNDEFINED> instruction: 0xf3ed1108
    51c4:	73b9      	strb	r1, [r7, #14]
    51c6:	4644      	mov	r4, r8
    51c8:	8d24      	ldrh	r4, [r4, #40]	@ 0x28
    51ca:	0600      	lsls	r0, r0, #24
    51cc:	2ec1      	cmp	r6, #193	@ 0xc1
    51ce:	f0ff 1406 			@ <UNDEFINED> instruction: 0xf0ff1406
    51d2:	a9d7      	add	r1, sp, #860	@ 0x35c
    51d4:	2010      	movs	r0, #16
    51d6:	ce80      	ldmia	r6!, {r7}
    51d8:	eef2 ebed 	vcvtt.f64.f16	d30, s27
    51dc:	1108      	asrs	r0, r1, #4
    51de:	737e      	strb	r6, [r7, #13]
    51e0:	4644      	mov	r4, r8
    51e2:	08d4      	lsrs	r4, r2, #3
    51e4:	c290      	stmia	r2!, {r4, r7}
    51e6:	ff8e 06f0 	vqshlu.s64	q0, q8, #14
    51ea:	d814      	bhi.n	0x5216
    51ec:	70a9      	strb	r1, [r5, #2]
    51ee:	0ed0      	lsrs	r0, r2, #27
    51f0:	f0a2 edee 	blx	0xa7dd0
    51f4:	08eb      	lsrs	r3, r5, #3
    51f6:	6511      	str	r1, [r2, #80]	@ 0x50
    51f8:	4473      	add	r3, lr
    51fa:	d446      	bmi.n	0x528a
    51fc:	5008      	str	r0, [r1, r0]
    51fe:	56e3      	ldrsb	r3, [r4, r3]
    5200:	1452      	asrs	r2, r2, #17
    5202:	9000      	str	r0, [sp, #0]
    5204:	4ec4      	ldr	r6, [pc, #784]	@ (0x5518)
    5206:	f0ff 1406 			@ <UNDEFINED> instruction: 0xf0ff1406
    520a:	a9d8      	add	r1, sp, #864	@ 0x360
    520c:	2020      	movs	r0, #32
    520e:	ce80      	ldmia	r6!, {r7}
    5210:	eef5 ebed 			@ <UNDEFINED> instruction: 0xeef5ebed
    5214:	1108      	asrs	r0, r1, #4
    5216:	7346      	strb	r6, [r0, #13]
    5218:	4644      	mov	r4, r8
    521a:	08d4      	lsrs	r4, r2, #3
    521c:	c290      	stmia	r2!, {r4, r7}
    521e:	ff6e 06f0 	vmin.u32	q8, q15, q8
    5222:	d814      	bhi.n	0x524e
    5224:	20a9      	movs	r0, #169	@ 0xa9
    5226:	8020      	strh	r0, [r4, #0]
    5228:	f7ce edee 	blx	0xfffd3e08
    522c:	08eb      	lsrs	r3, r5, #3
    522e:	2d11      	cmp	r5, #17
    5230:	4473      	add	r3, lr
    5232:	d446      	bmi.n	0x52c2
    5234:	9008      	str	r0, [sp, #32]
    5236:	3ec2      	subs	r6, #194	@ 0xc2
    5238:	f0ff 1406 			@ <UNDEFINED> instruction: 0xf0ff1406
    523c:	a9d7      	add	r1, sp, #860	@ 0x35c
    523e:	2010      	movs	r0, #16
    5240:	ce80      	ldmia	r6!, {r7}
    5242:	eef2 ebed 	vcvtt.f64.f16	d30, s27
    5246:	1108      	asrs	r0, r1, #4
    5248:	7314      	strb	r4, [r2, #12]
    524a:	4644      	mov	r4, r8
    524c:	08c4      	lsrs	r4, r0, #3
    524e:	6140      	str	r0, [r0, #20]
    5250:	0834      	lsrs	r4, r6, #32
    5252:	60d1      	str	r1, [r2, #12]
    5254:	0c34      	lsrs	r4, r6, #16
    5256:	d902      	bls.n	0x525e
    5258:	fecd 009c 	mcr2	0, 6, r0, cr13, cr12, {4}
    525c:	cff1      	ldmia	r7, {r0, r4, r5, r6, r7}
    525e:	7ff6      	ldrb	r6, [r6, #31]
    5260:	7048      	strb	r0, [r1, #1]
    5262:	8d9d      	ldrh	r5, [r3, #44]	@ 0x2c
    5264:	0c02      	lsrs	r2, r0, #16
    5266:	00ec      	lsls	r4, r5, #3
    5268:	6f10      	ldr	r0, [r2, #112]	@ 0x70
    526a:	4fe4      	ldr	r7, [pc, #912]	@ (0x55fc)
    526c:	00ec      	lsls	r4, r5, #3
    526e:	6f20      	ldr	r0, [r4, #112]	@ 0x70
    5270:	00a4      	lsls	r4, r4, #2
    5272:	2470      	movs	r4, #112	@ 0x70
    5274:	b699      			@ <UNDEFINED> instruction: 0xb699
    5276:	2461      	movs	r4, #97	@ 0x61
    5278:	1258      	asrs	r0, r3, #9
    527a:	052a      	lsls	r2, r5, #20
    527c:	5ded      	ldrb	r5, [r5, r7]
    527e:	524a      	strh	r2, [r1, r1]
    5280:	f0e8 4666 			@ <UNDEFINED> instruction: 0xf0e84666
    5284:	95a2      	str	r5, [sp, #648]	@ 0x288
    5286:	ef20 ffd0 	vrsqrts.f32	<illegal reg q7.5>, q8, q0
    528a:	f6ed 5208 			@ <UNDEFINED> instruction: 0xf6ed5208
    528e:	91f8      	str	r1, [sp, #992]	@ 0x3e0
    5290:	0c59      	lsrs	r1, r3, #17
    5292:	e66e      	b.n	0x4f72
    5294:	6347      	str	r7, [r0, #52]	@ 0x34
    5296:	d638      	bvs.n	0x530a
    5298:	606f      	str	r7, [r5, #4]
    529a:	5824      	ldr	r4, [r4, r0]
    529c:	2a12      	cmp	r2, #18
    529e:	ed05 4a5d 	vstr	s8, [r5, #-372]	@ 0xfffffe8c
    52a2:	6852      	ldr	r2, [r2, #4]
    52a4:	d048      	beq.n	0x5338
    52a6:	9dde      	ldr	r5, [sp, #888]	@ 0x378
    52a8:	bef0      	bkpt	0x00f0
    52aa:	8246      	strh	r6, [r0, #18]
    52ac:	a125      	add	r1, pc, #148	@ (adr r1, 0x5344)
    52ae:	d052      	beq.n	0x5356
    52b0:	a5de      	add	r5, pc, #888	@ (adr r5, 0x562c)
    52b2:	8524      	strh	r4, [r4, #40]	@ 0x28
    52b4:	0486      	lsls	r6, r0, #18
    52b6:	dded      	ble.n	0x5294
    52b8:	1109      	asrs	r1, r1, #4
    52ba:	718e      	strb	r6, [r1, #6]
    52bc:	4634      	mov	r4, r6
    52be:	18d3      	adds	r3, r2, r3
    52c0:	61c0      	str	r0, [r0, #28]
    52c2:	5a24      	ldrh	r4, [r4, r0]
    52c4:	f209 67ee 	addw	r7, r9, #1774	@ 0x6ee
    52c8:	f6ed 5208 			@ <UNDEFINED> instruction: 0xf6ed5208
    52cc:	81f8      	strh	r0, [r7, #14]
    52ce:	6289      	str	r1, [r1, #40]	@ 0x28
    52d0:	8d34      	ldrh	r4, [r6, #40]	@ 0x28
    52d2:	1f00      	subs	r0, r0, #4
    52d4:	a246      	add	r2, pc, #280	@ (adr r2, 0x53f0)
    52d6:	2095      	movs	r0, #149	@ 0x95
    52d8:	edef 08f6 	stcl	8, cr0, [pc, #984]!	@ 0x56b4
    52dc:	e852 ce66 			@ <UNDEFINED> instruction: 0xe852ce66
    52e0:	80f2      	strh	r2, [r6, #6]
    52e2:	66e9      	str	r1, [r5, #108]	@ 0x6c
    52e4:	5824      	ldr	r4, [r4, r0]
    52e6:	2a12      	cmp	r2, #18
    52e8:	ed05 4a5d 	vstr	s8, [r5, #-372]	@ 0xfffffe8c
    52ec:	6852      	ldr	r2, [r2, #4]
    52ee:	8048      	strh	r0, [r1, #2]
    52f0:	67e5      	str	r5, [r4, #124]	@ 0x7c
    52f2:	9152      	str	r1, [sp, #328]	@ 0x148
    52f4:	2465      	movs	r4, #101	@ 0x65
    52f6:	1258      	asrs	r0, r3, #9
    52f8:	052a      	lsls	r2, r5, #20
    52fa:	5ded      	ldrb	r5, [r5, r7]
    52fc:	524a      	strh	r2, [r1, r1]
    52fe:	2ce8      	cmp	r4, #232	@ 0xe8
    5300:	461e      	mov	r6, r3
    5302:	2582      	movs	r5, #130	@ 0x82
    5304:	52a1      	strh	r1, [r4, r2]
    5306:	ded0      	udf	#208	@ 0xd0
    5308:	24a5      	movs	r4, #165	@ 0xa5
    530a:	8685      	strh	r5, [r0, #52]	@ 0x34
    530c:	5804      	ldr	r4, [r0, r0]
    530e:	2142      	movs	r1, #66	@ 0x42
    5310:	5228      	strh	r0, [r5, r0]
    5312:	0014      	movs	r4, r2
    5314:	67e0      	str	r0, [r4, #124]	@ 0x7c
    5316:	2582      	movs	r5, #130	@ 0x82
    5318:	ef33 246e 	vshl.s64	q1, q15, <illegal reg q1.5>
    531c:	1258      	asrs	r0, r3, #9
    531e:	052a      	lsls	r2, r5, #20
    5320:	5ded      	ldrb	r5, [r5, r7]
    5322:	524a      	strh	r2, [r1, r1]
    5324:	2ce8      	cmp	r4, #232	@ 0xe8
    5326:	461e      	mov	r6, r3
    5328:	2582      	movs	r5, #130	@ 0x82
    532a:	52a1      	strh	r1, [r4, r2]
    532c:	ded0      	udf	#208	@ 0xd0
    532e:	24a5      	movs	r4, #165	@ 0xa5
    5330:	8685      	strh	r5, [r0, #52]	@ 0x34
    5332:	5804      	ldr	r4, [r0, r0]
    5334:	2142      	movs	r1, #66	@ 0x42
    5336:	5228      	strh	r0, [r5, r0]
    5338:	0014      	movs	r4, r2
    533a:	67e0      	str	r0, [r4, #124]	@ 0x7c
    533c:	2582      	movs	r5, #130	@ 0x82
    533e:	1b32      	subs	r2, r6, r4
    5340:	a246      	add	r2, pc, #280	@ (adr r2, 0x545c)
    5342:	2095      	movs	r0, #149	@ 0x95
    5344:	edef 08f6 	stcl	8, cr0, [pc, #984]!	@ 0x5720
    5348:	e852 ce66 			@ <UNDEFINED> instruction: 0xe852ce66
    534c:	60f2      	str	r2, [r6, #12]
    534e:	0824      	lsrs	r4, r4, #32
    5350:	60d1      	str	r1, [r2, #12]
    5352:	0c24      	lsrs	r4, r4, #16
    5354:	d919      	bls.n	0x538a
    5356:	ee3e cf87 	cdp	15, 3, cr12, cr14, cr7, {4}
    535a:	100a      	asrs	r2, r1, #32
    535c:	f3cf 7b7f 			@ <UNDEFINED> instruction: 0xf3cf7b7f
    5360:	4725      	bx	r4
    5362:	7043      	strb	r3, [r0, #1]
    5364:	8d9d      	ldrh	r5, [r3, #44]	@ 0x2c
    5366:	0c02      	lsrs	r2, r0, #16
    5368:	00ec      	lsls	r4, r5, #3
    536a:	6f10      	ldr	r0, [r2, #112]	@ 0x70
    536c:	4fe5      	ldr	r7, [pc, #916]	@ (0x5704)
    536e:	00ec      	lsls	r4, r5, #3
    5370:	6f20      	ldr	r0, [r4, #112]	@ 0x70
    5372:	0c05      	lsrs	r5, r0, #16
    5374:	76f0      	strb	r0, [r6, #27]
    5376:	a346      	add	r3, pc, #280	@ (adr r3, 0x5490)
    5378:	2095      	movs	r0, #149	@ 0x95
    537a:	edef 08f6 	stcl	8, cr0, [pc, #984]!	@ 0x5754
    537e:	e852 fcc0 			@ <UNDEFINED> instruction: 0xe852fcc0
    5382:	9fff      	ldr	r7, [sp, #1020]	@ 0x3fc
    5384:	123a      	asrs	r2, r7, #8
    5386:	a346      	add	r3, pc, #280	@ (adr r3, 0x54a0)
    5388:	2095      	movs	r0, #149	@ 0x95
    538a:	edef 08f6 	stcl	8, cr0, [pc, #984]!	@ 0x5764
    538e:	e852 96f0 			@ <UNDEFINED> instruction: 0xe85296f0
    5392:	e599      	b.n	0x4ec8
    5394:	96e0      	str	r6, [sp, #896]	@ 0x380
    5396:	357e      	adds	r5, #126	@ 0x7e
    5398:	6386      	str	r6, [r0, #56]	@ 0x38
    539a:	06fd      	lsls	r5, r7, #27
    539c:	8346      	strh	r6, [r0, #26]
    539e:	a125      	add	r1, pc, #148	@ (adr r1, 0x5434)
    53a0:	d052      	beq.n	0x5448
    53a2:	a5de      	add	r5, pc, #888	@ (adr r5, 0x571c)
    53a4:	8524      	strh	r4, [r4, #40]	@ 0x28
    53a6:	0486      	lsls	r6, r0, #18
    53a8:	dded      	ble.n	0x5386
    53aa:	ef09 346b 	vshl.s8	<illegal reg q1.5>, <illegal reg q13.5>, <illegal reg q4.5>
    53ae:	1258      	asrs	r0, r3, #9
    53b0:	052a      	lsls	r2, r5, #20
    53b2:	5ded      	ldrb	r5, [r5, r7]
    53b4:	524a      	strh	r2, [r1, r1]
    53b6:	4868      	ldr	r0, [pc, #416]	@ (0x5558)
    53b8:	ded0      	udf	#208	@ 0xd0
    53ba:	109d      	asrs	r5, r3, #2
    53bc:	08c0      	lsrs	r0, r0, #3
    53be:	6447      	str	r7, [r0, #68]	@ 0x44
    53c0:	8d44      	ldrh	r4, [r0, #42]	@ 0x2a
    53c2:	2701      	movs	r7, #1
    53c4:	c246      	stmia	r2!, {r1, r2, r6}
    53c6:	2000      	movs	r0, #0
    53c8:	0d32      	lsrs	r2, r6, #20
    53ca:	2246      	movs	r2, #70	@ 0x46
    53cc:	010a      	lsls	r2, r1, #4
    53ce:	ee0d dec7 	cdp	14, 0, cr13, cr13, cr7, {6}
    53d2:	f09d 9976 	b.w	0x8a26c2
    53d6:	6080      	str	r0, [r0, #8]
    53d8:	5834      	ldr	r4, [r6, r0]
    53da:	2a12      	cmp	r2, #18
    53dc:	ed05 4a5d 	vstr	s8, [r5, #-372]	@ 0xfffffe8c
    53e0:	e852 3461 			@ <UNDEFINED> instruction: 0xe8523461
    53e4:	1258      	asrs	r0, r3, #9
    53e6:	052a      	lsls	r2, r5, #20
    53e8:	5ded      	ldrb	r5, [r5, r7]
    53ea:	524a      	strh	r2, [r1, r1]
    53ec:	4868      	ldr	r0, [pc, #416]	@ (0x5590)
    53ee:	2580      	movs	r5, #128	@ 0x80
    53f0:	7e25      	ldrb	r5, [r4, #24]
    53f2:	5829      	ldr	r1, [r5, r0]
    53f4:	43d8      	mvns	r0, r3
    53f6:	8346      	strh	r6, [r0, #26]
    53f8:	a125      	add	r1, pc, #148	@ (adr r1, 0x5490)
    53fa:	d052      	beq.n	0x54a2
    53fc:	a5de      	add	r5, pc, #888	@ (adr r5, 0x5778)
    53fe:	8524      	strh	r4, [r4, #40]	@ 0x28
    5400:	0486      	lsls	r6, r0, #18
    5402:	7e58      	ldrb	r0, [r3, #25]
    5404:	1429      	asrs	r1, r5, #16
    5406:	4659      	mov	r1, fp
    5408:	2583      	movs	r5, #131	@ 0x83
    540a:	52a1      	strh	r1, [r4, r2]
    540c:	ded0      	udf	#208	@ 0xd0
    540e:	24a5      	movs	r4, #165	@ 0xa5
    5410:	0e85      	lsrs	r5, r0, #26
    5412:	297e      	cmp	r1, #126	@ 0x7e
    5414:	c958      	ldmia	r1!, {r3, r4, r6}
    5416:	eefa 7e74 	mrc	14, 7, r7, cr10, cr4, {3}
    541a:	dcfb      	bgt.n	0x5414
    541c:	f100 fcdf 	bl	0x105dde
    5420:	4724      	bxns	r4
    5422:	1570      	asrs	r0, r6, #21
    5424:	d146      	bne.n	0x54b4
    5426:	5028      	str	r0, [r5, r0]
    5428:	76e1      	strb	r1, [r4, #27]
    542a:	0452      	lsls	r2, r2, #17
    542c:	2100      	movs	r1, #0
    542e:	ed6d 9808 	stcl	8, cr9, [sp, #-32]!	@ 0xffffffe0
    5432:	6e11      	ldr	r1, [r2, #96]	@ 0x60
    5434:	4527      	cmp	r7, r4
    5436:	2000      	movs	r0, #0
    5438:	d6d2      	bvs.n	0x53e0
    543a:	608e      	str	r6, [r1, #8]
    543c:	a204      	add	r2, pc, #16	@ (adr r2, 0x5450)
    543e:	5010      	str	r0, [r2, r0]
    5440:	8f00      	ldrh	r0, [r0, #56]	@ 0x38
    5442:	226e      	movs	r2, #110	@ 0x6e
    5444:	f16d df08 	bl	0x973258
    5448:	f104 7adf 	add.w	sl, r4, #29229056	@ 0x1be0000
    544c:	4f04      	ldr	r7, [pc, #16]	@ (0x5460)
    544e:	00a1      	lsls	r1, r4, #2
    5450:	3470      	adds	r4, #112	@ 0x70
    5452:	000a      	movs	r2, r1
    5454:	a447      	add	r4, pc, #284	@ (adr r4, 0x5574)
    5456:	7000      	strb	r0, [r0, #0]
    5458:	9854      	ldr	r0, [sp, #336]	@ 0x150
    545a:	4e33      	ldr	r6, [pc, #204]	@ (0x5528)
    545c:	5461      	strb	r1, [r4, r1]
    545e:	4882      	ldr	r0, [pc, #520]	@ (0x5668)
    5460:	f8c8 a07f 	str.w	sl, [r8, #127]	@ 0x7f
    5464:	7010      	strb	r0, [r2, #0]
    5466:	4e34      	ldr	r6, [pc, #208]	@ (0x5538)
    5468:	5461      	strb	r1, [r4, r1]
    546a:	4882      	ldr	r0, [pc, #520]	@ (0x5674)
    546c:	4568      	cmp	r0, sp
    546e:	d433      	bmi.n	0x54d8
    5470:	5460      	strb	r0, [r4, r1]
    5472:	d108      	bne.n	0x5486
    5474:	5460      	strb	r0, [r4, r1]
    5476:	3056      	adds	r0, #86	@ 0x56
    5478:	d842      	bhi.n	0x5500
    547a:	46c0      	nop			@ (mov r8, r8)
    547c:	18d3      	adds	r3, r2, r3
    547e:	6100      	str	r0, [r0, #16]
    5480:	8c44      	ldrh	r4, [r0, #34]	@ 0x22
    5482:	0700      	lsls	r0, r0, #28
    5484:	020a      	lsls	r2, r1, #8
    5486:	6347      	str	r7, [r0, #52]	@ 0x34
    5488:	df34      	svc	52	@ 0x34
    548a:	f106 f9df 	bl	0x10b84c
    548e:	0457      	lsls	r7, r2, #17
    5490:	d9d7      	bls.n	0x5442
    5492:	c028      	stmia	r0!, {r3, r5}
    5494:	0ec0      	lsrs	r0, r0, #27
    5496:	f100 fe36 	bl	0x106106
    549a:	0ec4      	lsrs	r4, r0, #27
    549c:	f200 0a36 	addw	sl, r0, #54	@ 0x36
    54a0:	4700      	bx	r0
    54a2:	f982 2467 	vst1.16			@ <UNDEFINED> instruction: 0xf9822467
    54a6:	095a      	lsrs	r2, r3, #5
    54a8:	def2      	udf	#242	@ 0xf2
    54aa:	8f6e      	ldrh	r6, [r5, #58]	@ 0x3a
    54ac:	8520      	strh	r0, [r4, #40]	@ 0x28
    54ae:	cc0e      	ldmia	r4!, {r1, r2, r3}
    54b0:	ffff 58a8 	vtbl.8	d21, {d31}, d24
    54b4:	a246      	add	r2, pc, #280	@ (adr r2, 0x55d0)
    54b6:	2095      	movs	r0, #149	@ 0x95
    54b8:	edef 08f6 	stcl	8, cr0, [pc, #984]!	@ 0x5894
    54bc:	e852 37e0 			@ <UNDEFINED> instruction: 0xe85237e0
    54c0:	3863      	subs	r0, #99	@ 0x63
    54c2:	6fd6      	ldr	r6, [r2, #124]	@ 0x7c
    54c4:	2460      	movs	r4, #96	@ 0x60
    54c6:	1258      	asrs	r0, r3, #9
    54c8:	052a      	lsls	r2, r5, #20
    54ca:	5ded      	ldrb	r5, [r5, r7]
    54cc:	524a      	strh	r2, [r1, r1]
    54ce:	4a68      	ldr	r2, [pc, #416]	@ (0x5670)
    54d0:	2460      	movs	r4, #96	@ 0x60
    54d2:	1258      	asrs	r0, r3, #9
    54d4:	052a      	lsls	r2, r5, #20
    54d6:	5ded      	ldrb	r5, [r5, r7]
    54d8:	524a      	strh	r2, [r1, r1]
    54da:	5ce8      	ldrb	r0, [r5, r3]
    54dc:	a8e2      	add	r0, sp, #904	@ 0x388
    54de:	bef8      	bkpt	0x00f8
    54e0:	8246      	strh	r6, [r0, #18]
    54e2:	0d10      	lsrs	r0, r2, #20
    54e4:	c246      	stmia	r2!, {r1, r2, r6}
    54e6:	9190      	str	r1, [sp, #576]	@ 0x240
    54e8:	f75d f57e 	bl	0xffb62fe8
    54ec:	107d      	asrs	r5, r7, #1
    54ee:	7bdf      	ldrb	r7, [r3, #15]
    54f0:	4f04      	ldr	r7, [pc, #16]	@ (0x5504)
    54f2:	4121      	asrs	r1, r4
    54f4:	f292 347b 			@ <UNDEFINED> instruction: 0xf292347b
    54f8:	000a      	movs	r2, r1
    54fa:	8447      	strh	r7, [r0, #34]	@ 0x22
    54fc:	e249      	b.n	0x5992
    54fe:	8484      	strh	r4, [r0, #36]	@ 0x24
    5500:	614e      	str	r6, [r1, #20]
    5502:	8245      	strh	r5, [r0, #18]
    5504:	e859 5286 			@ <UNDEFINED> instruction: 0xe8595286
    5508:	0014      	movs	r4, r2
    550a:	6490      	str	r0, [r2, #72]	@ 0x48
    550c:	0844      	lsrs	r4, r0, #1
    550e:	60d1      	str	r1, [r2, #12]
    5510:	5644      	ldrsb	r4, [r0, r1]
    5512:	4230      	tst	r0, r6
    5514:	cfd8      	ldmia	r7, {r3, r4, r6, r7}
    5516:	1356      	asrs	r6, r2, #13
    5518:	240d      	movs	r4, #13
    551a:	c141      	stmia	r1!, {r0, r6}
    551c:	63bf      	str	r7, [r7, #56]	@ 0x38
    551e:	4924      	ldr	r1, [pc, #144]	@ (0x55b0)
    5520:	05df      	lsls	r7, r3, #23
    5522:	dff1      	svc	241	@ 0xf1
    5524:	047b      	lsls	r3, r7, #17
    5526:	214f      	movs	r1, #79	@ 0x4f
    5528:	9241      	str	r2, [sp, #260]	@ 0x104
    552a:	7bf2      	ldrb	r2, [r6, #15]
    552c:	2034      	movs	r0, #52	@ 0x34
    552e:	010a      	lsls	r2, r1, #4
    5530:	000a      	movs	r2, r1
    5532:	8447      	strh	r7, [r0, #34]	@ 0x22
    5534:	e249      	b.n	0x59ca
    5536:	8484      	strh	r4, [r0, #36]	@ 0x24
    5538:	614e      	str	r6, [r1, #20]
    553a:	8245      	strh	r5, [r0, #18]
    553c:	e859 5286 			@ <UNDEFINED> instruction: 0xe8595286
    5540:	0014      	movs	r4, r2
    5542:	6490      	str	r0, [r2, #72]	@ 0x48
    5544:	0844      	lsrs	r4, r0, #1
    5546:	60d1      	str	r1, [r2, #12]
    5548:	5644      	ldrsb	r4, [r0, r1]
    554a:	4230      	tst	r0, r6
    554c:	cfd8      	ldmia	r7, {r3, r4, r6, r7}
    554e:	0a20      	lsrs	r0, r4, #8
    5550:	5600      	ldrsb	r0, [r0, r0]
    5552:	0d13      	lsrs	r3, r2, #20
    5554:	4124      	asrs	r4, r4
    5556:	bfc1      	itttt	gt
    5558:	2463      	movgt	r4, #99	@ 0x63
    555a:	df49      	svcgt	73	@ 0x49
    555c:	f105 fcdf 	blgt	0x10af1e	@ unpredictable branch in IT block

    5560:	1204      	asrgt	r4, r0, #8
    5562:	2924      	cmp	r1, #36	@ 0x24
    5564:	47bf      			@ <UNDEFINED> instruction: 0x47bf
    5566:	d202      	bcs.n	0x556e
    5568:	e4bb      	b.n	0x4ee2
    556a:	d304      	bcc.n	0x5576
    556c:	ec0b 7f89 	stc	15, cr7, [fp], {137}	@ 0x89
    5570:	5634      	ldrsb	r4, [r6, r0]
    5572:	0d12      	lsrs	r2, r2, #20
    5574:	4124      	asrs	r4, r4
    5576:	bfc1      	itttt	gt
    5578:	2463      	movgt	r4, #99	@ 0x63
    557a:	4649      	movgt	r1, r9
    557c:	4df3      	ldrgt	r5, [pc, #972]	@ (0x594c)
    557e:	df10      	svcgt	16
    5580:	04fc      	lsls	r4, r7, #19
    5582:	2412      	movs	r4, #18
    5584:	bf29      	itett	cs
    5586:	0247      	lslcs	r7, r0, #9
    5588:	bbd2      	cbnz	r2, 0x5600	@ unpredictable <IT:cc>
    558a:	04e4      	lslcs	r4, r4, #19
    558c:	0bd3      	lsrcs	r3, r2, #15
    558e:	8a8c      	ldrh	r4, [r1, #20]
    5590:	347f      	adds	r4, #127	@ 0x7f
    5592:	1256      	asrs	r6, r2, #9
    5594:	240d      	movs	r4, #13
    5596:	c141      	stmia	r1!, {r0, r6}
    5598:	63bf      	str	r7, [r7, #56]	@ 0x38
    559a:	4924      	ldr	r1, [pc, #144]	@ (0x562c)
    559c:	f346 104d 	sbfx	r0, r6, #5, #14
    55a0:	fcdf 1204 	ldc2l	2, cr1, [pc], {4}
    55a4:	2924      	cmp	r1, #36	@ 0x24
    55a6:	47bf      			@ <UNDEFINED> instruction: 0x47bf
    55a8:	d202      	bcs.n	0x55b0
    55aa:	e4bb      	b.n	0x4f24
    55ac:	d304      	bcc.n	0x55b8
    55ae:	9c0b      	ldr	r4, [sp, #44]	@ 0x2c
    55b0:	7f89      	ldrb	r1, [r1, #30]
    55b2:	5634      	ldrsb	r4, [r6, r0]
    55b4:	0d12      	lsrs	r2, r2, #20
    55b6:	4124      	asrs	r4, r4
    55b8:	bfc1      	itttt	gt
    55ba:	2463      	movgt	r4, #99	@ 0x63
    55bc:	4649      	movgt	r1, r9
    55be:	4df3      	ldrgt	r5, [pc, #972]	@ (0x598c)
    55c0:	df10      	svcgt	16
    55c2:	04fc      	lsls	r4, r7, #19
    55c4:	2412      	movs	r4, #18
    55c6:	bf29      	itett	cs
    55c8:	0247      	lslcs	r7, r0, #9
    55ca:	bbd2      	cbnz	r2, 0x5642	@ unpredictable <IT:cc>
    55cc:	04e4      	lslcs	r4, r4, #19
    55ce:	0bd3      	lsrcs	r3, r2, #15
    55d0:	8a3c      	ldrh	r4, [r7, #16]
    55d2:	347f      	adds	r4, #127	@ 0x7f
    55d4:	1256      	asrs	r6, r2, #9
    55d6:	240d      	movs	r4, #13
    55d8:	c141      	stmia	r1!, {r0, r6}
    55da:	63bf      	str	r7, [r7, #56]	@ 0x38
    55dc:	4924      	ldr	r1, [pc, #144]	@ (0x5670)
    55de:	f346 104d 	sbfx	r0, r6, #5, #14
    55e2:	7ddf      	ldrb	r7, [r3, #23]
    55e4:	d326      	bcc.n	0x5634
    55e6:	1099      	asrs	r1, r3, #2
    55e8:	a4b3      	add	r4, pc, #716	@ (adr r4, 0x58b8)
    55ea:	7000      	strb	r0, [r0, #0]
    55ec:	9804      	ldr	r0, [sp, #16]
    55ee:	462e      	mov	r6, r5
    55f0:	35a0      	adds	r5, #160	@ 0xa0
    55f2:	ef20 ffaa 	vmin.f32	d15, d16, d26
    55f6:	aaed      	add	r2, sp, #948	@ 0x3b4
    55f8:	520a      	strh	r2, [r1, r0]
    55fa:	6a58      	ldr	r0, [r3, #36]	@ 0x24
    55fc:	5a04      	ldrh	r4, [r0, r0]
    55fe:	2100      	movs	r1, #0
    5600:	6ea0      	ldr	r0, [r4, #104]	@ 0x68
    5602:	8046      	strh	r6, [r0, #2]
    5604:	0d10      	lsrs	r0, r2, #20
    5606:	c046      	stmia	r0!, {r1, r2, r6}
    5608:	80a0      	strh	r0, [r4, #4]
    560a:	ac7d      	add	r4, sp, #500	@ 0x1f4
    560c:	d000      	beq.n	0x5610
    560e:	4980      	ldr	r1, [pc, #512]	@ (0x5810)
    5610:	00a4      	lsls	r4, r4, #2
    5612:	1470      	asrs	r0, r6, #17
    5614:	2698      	movs	r6, #152	@ 0x98
    5616:	a046      	add	r0, pc, #280	@ (adr r0, 0x5730)
    5618:	20d5      	movs	r0, #213	@ 0xd5
    561a:	66ef      	str	r7, [r5, #108]	@ 0x6c
    561c:	c421      	stmia	r4!, {r0, r5}
    561e:	aa82      	add	r2, sp, #520	@ 0x208
    5620:	2000      	movs	r0, #0
    5622:	4f87      	ldr	r7, [pc, #540]	@ (0x5840)
    5624:	460a      	mov	r2, r1
    5626:	1081      	asrs	r1, r0, #2
    5628:	460d      	mov	r5, r1
    562a:	d0c1      	beq.n	0x55b0
    562c:	fd80 046c 	stc2	4, cr0, [r0, #432]	@ 0x1b0
    5630:	d108      	bne.n	0x5644
    5632:	0460      	lsls	r0, r4, #17
    5634:	070c      	lsls	r4, r1, #28
    5636:	b1d8      	cbz	r0, 0x5670
    5638:	3251      	adds	r2, #81	@ 0x51
    563a:	c00a      	stmia	r0!, {r1, r3}
    563c:	9c4e      	ldr	r4, [sp, #312]	@ 0x138
    563e:	6d20      	ldr	r0, [r4, #80]	@ 0x50
    5640:	0a33      	lsrs	r3, r6, #8
    5642:	e251      	b.n	0x5ae8
    5644:	100b      	asrs	r3, r1, #32
    5646:	be35      	bkpt	0x0035
    5648:	5101      	str	r1, [r0, r4]
    564a:	0be4      	lsrs	r4, r4, #15
    564c:	5510      	strb	r0, [r2, r4]
    564e:	00be      	lsls	r6, r7, #2
    5650:	e651      	b.n	0x52f6
    5652:	100b      	asrs	r3, r1, #32
    5654:	be75      	bkpt	0x0075
    5656:	5100      	str	r0, [r0, r4]
    5658:	0be8      	lsrs	r0, r5, #15
    565a:	d510      	bpl.n	0x567e
    565c:	00be      	lsls	r6, r7, #2
    565e:	ee51 100b 	cdp	0, 5, cr1, cr1, cr11, {0}
    5662:	bf35      	itete	cc
    5664:	c200      	stmiacc	r2!, {}
    5666:	4306      	orrcs	r6, r0
    5668:	6d24      	ldrcc	r4, [r4, #80]	@ 0x50
    566a:	0bf5      	lsrcs	r5, r6, #15
    566c:	26c2      	movs	r6, #194	@ 0xc2
    566e:	2443      	movs	r4, #67	@ 0x43
    5670:	f76d 510b 			@ <UNDEFINED> instruction: 0xf76d510b
    5674:	0bf4      	lsrs	r4, r6, #15
    5676:	0510      	lsls	r0, r2, #20
    5678:	00c0      	lsls	r0, r0, #3
    567a:	00c0      	lsls	r0, r0, #3
    567c:	86d2      	strh	r2, [r2, #54]	@ 0x36
    567e:	c0c2      	stmia	r0!, {r1, r6, r7}
    5680:	d4ce      	bmi.n	0x5620
    5682:	6d21      	ldr	r1, [r4, #80]	@ 0x50
    5684:	0c2a      	lsrs	r2, r5, #16
    5686:	2c51      	cmp	r4, #81	@ 0x51
    5688:	10cc      	asrs	r4, r1, #3
    568a:	c3b5      	stmia	r3!, {r0, r2, r4, r5, r7}
    568c:	51ff      	str	r7, [r7, r7]
    568e:	fc40 b51f 	mcrr2	5, 1, fp, r0, cr15
    5692:	01c4      	lsls	r4, r0, #7
    5694:	f266 103d 			@ <UNDEFINED> instruction: 0xf266103d
    5698:	3251      	adds	r2, #81	@ 0x51
    569a:	102a      	asrs	r2, r5, #32
    569c:	be25      	bkpt	0x0025
    569e:	c000      	stmia	r0!, {}
    56a0:	d200      	bcs.n	0x56a4
    56a2:	a336      	add	r3, pc, #216	@ (adr r3, 0x577c)
    56a4:	f100 19c0 	add.w	r9, r0, #12583104	@ 0xc000c0
    56a8:	02ef      	lsls	r7, r5, #11
    56aa:	c2f1      	stmia	r2!, {r0, r4, r5, r6, r7}
    56ac:	a336      	add	r3, pc, #216	@ (adr r3, 0x5788)
    56ae:	0cc0      	lsrs	r0, r0, #19
    56b0:	2000      	movs	r0, #0
    56b2:	1032      	asrs	r2, r6, #32
    56b4:	36c2      	adds	r6, #194	@ 0xc2
    56b6:	20a3      	movs	r0, #163	@ 0xa3
    56b8:	0144      	lsls	r4, r0, #5
    56ba:	4900      	ldr	r1, [pc, #0]	@ (0x56bc)
    56bc:	d1ef      	bne.n	0x569e
    56be:	f008 6c23 	and.w	ip, r8, #170917888	@ 0xa300000
    56c2:	0c28      	lsrs	r0, r5, #16
    56c4:	98cc      	ldr	r0, [sp, #816]	@ 0x330
    56c6:	c83a      	ldmia	r0!, {r1, r3, r4, r5}
    56c8:	c214      	stmia	r2!, {r2, r4}
    56ca:	c286      	stmia	r2!, {r1, r2, r7}
    56cc:	4520      	cmp	r0, r4
    56ce:	0001      	movs	r1, r0
    56d0:	9849      	ldr	r0, [sp, #292]	@ 0x124
    56d2:	c01a      	stmia	r0!, {r1, r3, r4}
    56d4:	d201      	bcs.n	0x56da
    56d6:	c286      	stmia	r2!, {r1, r2, r7}
    56d8:	b310      	cbz	r0, 0x5720
    56da:	c08d      	stmia	r0!, {r0, r2, r3, r7}
    56dc:	096e      	lsrs	r6, r5, #5
    56de:	2ef0      	cmp	r6, #240	@ 0xf0
    56e0:	3950      	subs	r1, #80	@ 0x50
    56e2:	200c      	movs	r0, #12
    56e4:	2e32      	cmp	r6, #50	@ 0x32
    56e6:	3904      	subs	r1, #4
    56e8:	0a2c      	lsrs	r4, r5, #8
    56ea:	0d01      	lsrs	r1, r0, #20
    56ec:	9ed3      	ldr	r6, [sp, #844]	@ 0x34c
    56ee:	00c3      	lsls	r3, r0, #3
    56f0:	0170      	lsls	r0, r6, #5
    56f2:	c3c5      	stmia	r3!, {r0, r2, r6, r7}
    56f4:	2201      	movs	r2, #1
    56f6:	a0b2      	add	r0, pc, #712	@ (adr r0, 0x59c0)
    56f8:	a0b0      	add	r0, pc, #704	@ (adr r0, 0x59bc)
    56fa:	f005 d3de 	bl	0xc0aeba
    56fe:	a32c      	add	r3, pc, #176	@ (adr r3, 0x57b0)
    5700:	d000      	beq.n	0x5704
    5702:	dd31      	ble.n	0x5768
    5704:	0a32      	lsrs	r2, r6, #8
    5706:	b301      	cbz	r1, 0x574a
    5708:	dd31      	ble.n	0x576e
    570a:	0a32      	lsrs	r2, r6, #8
    570c:	a702      	add	r7, pc, #8	@ (adr r7, 0x5718)
    570e:	1991      	adds	r1, r2, r6
    5710:	041c      	lsls	r4, r3, #16
    5712:	caad      	ldmia	r2, {r0, r2, r3, r5, r7}
    5714:	6ff8      	ldr	r0, [r7, #124]	@ 0x7c
    5716:	4310      	orrs	r0, r2
    5718:	41d1      	rors	r1, r2
    571a:	aaa0      	add	r2, sp, #640	@ 0x280
    571c:	ff8c 2106 	vaddw.u8	q1, q6, d6
    5720:	1de7      	adds	r7, r4, #7
    5722:	c204      	stmia	r2!, {r2}
    5724:	f8ca 106f 	str.w	r1, [sl, #111]	@ 0x6f
    5728:	eb93 5041 			@ <UNDEFINED> instruction: 0xeb935041
    572c:	8cac      	ldrh	r4, [r5, #36]	@ 0x24
    572e:	06ff      	lsls	r7, r7, #27
    5730:	3a21      	subs	r2, #33	@ 0x21
    5732:	2120      	movs	r1, #32
    5734:	207a      	movs	r0, #122	@ 0x7a
    5736:	b004      	add	sp, #16
    5738:	f8ca a0af 	str.w	sl, [sl, #175]	@ 0xaf
    573c:	1020      	asrs	r0, r4, #32
    573e:	f7e3 3041 			@ <UNDEFINED> instruction: 0xf7e33041
    5742:	8cab      	ldrh	r3, [r5, #36]	@ 0x24
    5744:	0aff      	lsrs	r7, r7, #11
    5746:	030a      	lsls	r2, r1, #12
    5748:	7421      	strb	r1, [r4, #16]
    574a:	041f      	lsls	r7, r3, #16
    574c:	cab6      	ldmia	r2, {r1, r2, r4, r5, r7}
    574e:	aff8      	add	r7, sp, #992	@ 0x3e0
    5750:	40a0      	lsls	r0, r4
    5752:	9310      	str	r3, [sp, #64]	@ 0x40
    5754:	41f6      	rors	r6, r6
    5756:	ab90      	add	r3, sp, #576	@ 0x240
    5758:	ff8c 0a0a 	vmlsl.u8	q0, d12, d10
    575c:	2105      	movs	r1, #5
    575e:	1f5f      	subs	r7, r3, #5
    5760:	bc04      	pop	{r2}
    5762:	f8ca a0af 	str.w	sl, [sl, #175]	@ 0xaf
    5766:	1060      	asrs	r0, r4, #1
    5768:	f543 f041 	bl	0xff9487ee
    576c:	8cab      	ldrh	r3, [r5, #36]	@ 0x24
    576e:	0aff      	lsrs	r7, r7, #11
    5770:	070a      	lsls	r2, r1, #28
    5772:	4a21      	ldr	r2, [pc, #132]	@ (0x57f8)
    5774:	ef1f 08d1 	vtst.16	q0, <illegal reg q15.5>, <illegal reg q0.5>
    5778:	14e0      	asrs	r0, r4, #19
    577a:	0c93      	lsrs	r3, r2, #18
    577c:	08d5      	lsrs	r5, r2, #3
    577e:	2420      	movs	r4, #32
    5780:	2a6c      	cmp	r2, #108	@ 0x6c
    5782:	cc0c      	ldmia	r4!, {r2, r3}
    5784:	1d4c      	adds	r4, r1, #5
    5786:	14c8      	asrs	r0, r1, #19
    5788:	a6c2      	add	r6, pc, #776	@ (adr r6, 0x5a94)
    578a:	20c2      	movs	r0, #194	@ 0xc2
    578c:	0145      	lsls	r5, r0, #5
    578e:	4900      	ldr	r1, [pc, #0]	@ (0x5790)
    5790:	2898      	cmp	r0, #152	@ 0x98
    5792:	01c0      	lsls	r0, r0, #7
    5794:	a6d2      	add	r6, pc, #840	@ (adr r6, 0x5ae0)
    5796:	10c2      	asrs	r2, r0, #3
    5798:	8f73      	ldrh	r3, [r6, #58]	@ 0x3a
    579a:	4ecb      	ldr	r6, [pc, #812]	@ (0x5ac8)
    579c:	f01f fe2e 	bl	0x253fc
    57a0:	1c05      	adds	r5, r0, #0
    57a2:	6d20      	ldr	r0, [r4, #80]	@ 0x50
    57a4:	0c2a      	lsrs	r2, r5, #16
    57a6:	36c2      	adds	r6, #194	@ 0xc2
    57a8:	c0a3      	stmia	r0!, {r0, r1, r5, r7}
    57aa:	000c      	movs	r4, r1
    57ac:	3b80      	subs	r3, #128	@ 0x80
    57ae:	4315      	orrs	r5, r2
    57b0:	d509      	bpl.n	0x57c6
    57b2:	b018      	add	sp, #96	@ 0x60
    57b4:	1ef3      	subs	r3, r6, #3
    57b6:	008c      	lsls	r4, r1, #2
    57b8:	d30b      	bcc.n	0x57d2
    57ba:	be2e      	bkpt	0x002e
    57bc:	d010      	beq.n	0x57e0
    57be:	f313 1376 			@ <UNDEFINED> instruction: 0xf3131376
    57c2:	7033      	strb	r3, [r6, #0]
    57c4:	251b      	movs	r5, #27
    57c6:	01a3      	lsls	r3, r4, #6
    57c8:	1021      	asrs	r1, r4, #32
    57ca:	0a6e      	lsrs	r6, r5, #9
    57cc:	2101      	movs	r1, #1
    57ce:	b57c      	push	{r2, r3, r4, r5, r6, lr}
    57d0:	1698      	asrs	r0, r3, #26
    57d2:	f4ec ef01 			@ <UNDEFINED> instruction: 0xf4ecef01
    57d6:	5ee2      	ldrsh	r2, [r4, r3]
    57d8:	000a      	movs	r2, r1
    57da:	6f21      	ldr	r1, [r4, #112]	@ 0x70
    57dc:	21b5      	movs	r1, #181	@ 0xb5
    57de:	097e      	lsrs	r6, r7, #5
    57e0:	1f98      	subs	r0, r3, #6
    57e2:	36c2      	adds	r6, #194	@ 0xc2
    57e4:	c0a3      	stmia	r0!, {r0, r1, r5, r7}
    57e6:	000c      	movs	r4, r1
    57e8:	3220      	adds	r2, #32
    57ea:	210d      	movs	r1, #13
    57ec:	b6e5      			@ <UNDEFINED> instruction: 0xb6e5
    57ee:	3251      	adds	r2, #81	@ 0x51
    57f0:	000a      	movs	r2, r1
    57f2:	cff1      	ldmia	r7, {r0, r4, r5, r6, r7}
    57f4:	7ff4      	ldrb	r4, [r6, #31]
    57f6:	247a      	movs	r4, #122	@ 0x7a
    57f8:	e34f      	b.n	0x5e9a
    57fa:	ce34      	ldmia	r6!, {r2, r4, r5}
    57fc:	10e2      	asrs	r2, r4, #3
    57fe:	1ffc      	subs	r4, r7, #7
    5800:	ffed 4e66 	vqrdmlah.s32	q10, <illegal reg q6.5>, d6[1]
    5804:	3863      	subs	r0, #99	@ 0x63
    5806:	1c10      	adds	r0, r2, #0
    5808:	5470      	strb	r0, [r6, r1]
    580a:	166e      	asrs	r6, r5, #25
    580c:	8ffc      	ldrh	r4, [r7, #62]	@ 0x3e
    580e:	86f5      	strh	r5, [r6, #54]	@ 0x36
    5810:	c86e      	ldmia	r0!, {r1, r2, r3, r5, r6}
    5812:	0f0c      	lsrs	r4, r1, #28
    5814:	6190      	str	r0, [r2, #24]
    5816:	c86e      	ldmia	r0!, {r1, r2, r3, r5, r6}
    5818:	0f8c      	lsrs	r4, r1, #30
    581a:	8b80      	ldrh	r0, [r0, #28]
    581c:	1ef4      	subs	r4, r6, #3
    581e:	000c      	movs	r4, r1
    5820:	8322      	strh	r2, [r4, #24]
    5822:	34e2      	adds	r4, #226	@ 0xe2
    5824:	12ce      	asrs	r6, r1, #11
    5826:	a7f3      	add	r7, pc, #972	@ (adr r7, 0x5bf4)
    5828:	8d24      	ldrh	r4, [r4, #40]	@ 0x28
    582a:	c300      	stmia	r3!, {}
    582c:	67e0      	str	r0, [r4, #124]	@ 0x7c
    582e:	2246      	movs	r2, #70	@ 0x46
    5830:	21e4      	movs	r1, #228	@ 0xe4
    5832:	27b5      	movs	r7, #181	@ 0xb5
    5834:	af99      	add	r7, sp, #612	@ 0x264
    5836:	67e0      	str	r0, [r4, #124]	@ 0x7c
    5838:	2246      	movs	r2, #70	@ 0x46
    583a:	21e4      	movs	r1, #228	@ 0xe4
    583c:	27ab      	movs	r7, #171	@ 0xab
    583e:	9b99      	ldr	r3, [sp, #612]	@ 0x264
    5840:	66e0      	str	r0, [r4, #108]	@ 0x6c
    5842:	00c1      	lsls	r1, r0, #3
    5844:	06d1      	lsls	r1, r2, #27
    5846:	dc42      	bgt.n	0x58ce
    5848:	000c      	movs	r4, r1
    584a:	4a80      	ldr	r2, [pc, #512]	@ (0x5a4c)
    584c:	6522      	str	r2, [r4, #80]	@ 0x50
    584e:	fe00 39a8 	vseleq.f16	s6, s1, s17
    5852:	0652      	lsls	r2, r2, #25
    5854:	9fe0      	ldr	r7, [sp, #896]	@ 0x380
    5856:	5271      	strh	r1, [r6, r1]
    5858:	e006      	b.n	0x5868
    585a:	4a8f      	ldr	r2, [pc, #572]	@ (0x5a98)
    585c:	f982 66e5 	vst3.16	{d6[3],d8[3],d10[3]}, [r2], r5
    5860:	e06f      	b.n	0x5942
    5862:	ce34      	ldmia	r6!, {r2, r4, r5}
    5864:	2462      	movs	r4, #98	@ 0x62
    5866:	3421      	adds	r4, #33	@ 0x21
    5868:	c00a      	stmia	r0!, {r1, r3}
    586a:	ef05 f982 	vmla.i8	d15, d21, d2
    586e:	5463      	strb	r3, [r4, r1]
    5870:	008d      	lsls	r5, r1, #2
    5872:	6e19      	ldr	r1, [r3, #96]	@ 0x60
    5874:	06f6      	lsls	r6, r6, #27
    5876:	e34e      	b.n	0x5f16
    5878:	462c      	mov	r4, r5
    587a:	6312      	str	r2, [r2, #48]	@ 0x30
    587c:	8157      	strh	r7, [r2, #10]
    587e:	e1d9      	b.n	0x5c34
    5880:	ce34      	ldmia	r6!, {r2, r4, r5}
    5882:	e0e4      	b.n	0x5a4e
    5884:	7f67      	ldrb	r7, [r4, #29]
    5886:	1820      	adds	r0, r4, r0
    5888:	2246      	movs	r2, #70	@ 0x46
    588a:	21e4      	movs	r1, #228	@ 0xe4
    588c:	19a8      	adds	r0, r5, r6
    588e:	fa7e 00cc 			@ <UNDEFINED> instruction: 0xfa7e00cc
    5892:	dff1      	svc	241	@ 0xf1
    5894:	04fe      	lsls	r6, r7, #19
    5896:	e304      	b.n	0x5ea2
    5898:	04eb      	lsls	r3, r5, #19
    589a:	2185      	movs	r1, #133	@ 0x85
    589c:	b652      			@ <UNDEFINED> instruction: 0xb652
    589e:	010a      	lsls	r2, r1, #4
    58a0:	02df      	lsls	r7, r3, #11
    58a2:	cff1      	ldmia	r7, {r0, r4, r5, r6, r7}
    58a4:	f2e8 7127 			@ <UNDEFINED> instruction: 0xf2e87127
    58a8:	47a5      			@ <UNDEFINED> instruction: 0x47a5
    58aa:	a0ab      	add	r0, pc, #684	@ (adr r0, 0x5b58)
    58ac:	c470      	stmia	r4!, {r4, r5, r6}
    58ae:	000a      	movs	r2, r1
    58b0:	8d47      	ldrh	r7, [r0, #42]	@ 0x2a
    58b2:	67f9      	str	r1, [r7, #124]	@ 0x7c
    58b4:	5ad4      	ldrh	r4, [r2, r3]
    58b6:	f205 8ede 	bhi.w	0x8b676
    58ba:	242a      	movs	r4, #42	@ 0x2a
    58bc:	8485      	strh	r5, [r0, #36]	@ 0x24
    58be:	b562      	push	{r1, r5, r6, lr}
    58c0:	4231      	tst	r1, r6
    58c2:	56b8      	ldrsb	r0, [r7, r2]
    58c4:	ad46      	add	r5, sp, #280	@ 0x118
    58c6:	2035      	movs	r0, #53	@ 0x35
    58c8:	edef 0aaa 			@ <UNDEFINED> instruction: 0xedef0aaa
    58cc:	4852      	ldr	r0, [pc, #328]	@ (0x5a18)
    58ce:	f8d8 613f 	ldr.w	r6, [r8, #319]	@ 0x13f
    58d2:	8dc4      	ldrh	r4, [r0, #46]	@ 0x2e
    58d4:	320a      	adds	r2, #10
    58d6:	7d46      	ldrb	r6, [r0, #21]
    58d8:	98c4      	ldr	r0, [sp, #784]	@ 0x310
    58da:	4628      	mov	r0, r5
    58dc:	35ad      	adds	r5, #173	@ 0xad
    58de:	ef20 aaed 	vpmax.s32	q5, q8, <illegal reg q14.5>
    58e2:	520a      	strh	r2, [r1, r0]
    58e4:	6848      	ldr	r0, [r1, #4]
    58e6:	23b5      	movs	r3, #181	@ 0xb5
    58e8:	5294      	strh	r4, [r2, r2]
    58ea:	7d46      	ldrb	r6, [r0, #21]
    58ec:	98c4      	ldr	r0, [sp, #784]	@ 0x310
    58ee:	4614      	mov	r4, r2
    58f0:	108d      	asrs	r5, r1, #2
    58f2:	460d      	mov	r5, r1
    58f4:	a0cd      	add	r0, pc, #820	@ (adr r0, 0x5c2c)
    58f6:	5d90      	ldrb	r0, [r2, r6]
    58f8:	46f7      	mov	pc, lr
    58fa:	a0cc      	add	r0, pc, #816	@ (adr r0, 0x5c2c)
    58fc:	0c90      	lsrs	r0, r2, #18
    58fe:	4614      	mov	r4, r2
    5900:	35ac      	adds	r5, #172	@ 0xac
    5902:	ef20 db66 	vqdmulh.s32	<illegal reg q6.5>, q0, q11
    5906:	aaae      	add	r2, sp, #696	@ 0x2b8
    5908:	8520      	strh	r0, [r4, #40]	@ 0x28
    590a:	46a5      	mov	sp, r4
    590c:	15ac      	asrs	r4, r5, #22
    590e:	0310      	lsls	r0, r2, #12
    5910:	66b9      	str	r1, [r7, #104]	@ 0x68
    5912:	8dc4      	ldrh	r4, [r0, #46]	@ 0x2e
    5914:	0d09      	lsrs	r1, r1, #20
    5916:	88ec      	ldrh	r4, [r5, #6]
    5918:	ef13 c982 	vmla.i16	d12, d19, d2
    591c:	4ec1      	ldr	r6, [pc, #772]	@ (0x5c24)
    591e:	f01f 462e 	ands.w	r6, pc, #2919235584	@ 0xae000000
    5922:	30ca      	adds	r0, #202	@ 0xca
    5924:	2220      	movs	r2, #32
    5926:	5107      	str	r7, [r0, r4]
    5928:	0be3      	lsrs	r3, r4, #15
    592a:	4620      	mov	r0, r4
    592c:	0c1b      	lsrs	r3, r3, #16
    592e:	c820      	ldmia	r0!, {r5}
    5930:	6276      	str	r6, [r6, #36]	@ 0x24
    5932:	81b4      	strh	r4, [r6, #12]
    5934:	9125      	str	r1, [sp, #148]	@ 0x94
    5936:	d052      	beq.n	0x59de
    5938:	430e      	orrs	r6, r1
    593a:	8524      	strh	r4, [r4, #40]	@ 0x28
    593c:	7f1e      	ldrb	r6, [r3, #28]
    593e:	2a6e      	cmp	r2, #110	@ 0x6e
    5940:	3b60      	subs	r3, #96	@ 0x60
    5942:	7f20      	ldrb	r0, [r4, #28]
    5944:	c210      	stmia	r2!, {r4}
    5946:	bf56      	itet	pl
    5948:	26f0      	movpl	r6, #240	@ 0xf0
    594a:	76c2      	strbmi	r2, [r0, #27]
    594c:	f0bf 6e46 			@ <UNDEFINED> instruction: 0xf0bf6e46
    5950:	66fe      	str	r6, [r7, #108]	@ 0x6c
    5952:	06e2      	lsls	r2, r4, #27
    5954:	86f1      	strh	r1, [r6, #54]	@ 0x36
    5956:	2802      	cmp	r0, #2
    5958:	14ce      	asrs	r6, r1, #19
    595a:	fcc2 2106 	stc2l	1, cr2, [r2], {6}
    595e:	72d4      	strb	r4, [r2, #11]
    5960:	46e2      	mov	sl, ip
    5962:	6d21      	ldr	r1, [r4, #80]	@ 0x50
    5964:	0bf5      	lsrs	r5, r6, #15
    5966:	66e2      	str	r2, [r4, #108]	@ 0x6c
    5968:	6d21      	ldr	r1, [r4, #80]	@ 0x50
    596a:	0bf7      	lsrs	r7, r6, #15
    596c:	b462      	push	{r1, r5, r6}
    596e:	18d1      	adds	r1, r2, r3
    5970:	40a0      	lsls	r0, r4
    5972:	bf40      	sev
    5974:	d108      	bne.n	0x5988
    5976:	f310 1335 			@ <UNDEFINED> instruction: 0xf3101335
    597a:	a9b3      	add	r1, sp, #716	@ 0x2cc
    597c:	3313      	adds	r3, #19
    597e:	6242      	str	r2, [r0, #36]	@ 0x24
    5980:	5ac4      	ldrh	r4, [r0, r3]
    5982:	f205 8ede 	bhi.w	0x8b742
    5986:	242a      	movs	r4, #42	@ 0x2a
    5988:	ce85      	ldmia	r6!, {r0, r2, r7}
    598a:	8e21      	ldrh	r1, [r4, #48]	@ 0x30
    598c:	00cd      	lsls	r5, r1, #3
    598e:	a800      	add	r0, sp, #0
    5990:	461c      	mov	r4, r3
    5992:	55ac      	strb	r4, [r5, r6]
    5994:	ef20 a8ed 	vadd.i32	q5, q8, <illegal reg q14.5>
    5998:	5242      	strh	r2, [r0, r1]
    599a:	1ce8      	adds	r0, r5, #3
    599c:	28e2      	cmp	r0, #226	@ 0xe2
    599e:	e211      	b.n	0x5dc4
    59a0:	f127 018c 			@ <UNDEFINED> instruction: 0xf127018c
    59a4:	cff1      	ldmia	r7, {r0, r4, r5, r6, r7}
    59a6:	f2e2 7187 			@ <UNDEFINED> instruction: 0xf2e27187
    59aa:	0aa4      	lsrs	r4, r4, #10
    59ac:	4700      	bx	r0
    59ae:	799b      	ldrb	r3, [r3, #6]
    59b0:	4626      	mov	r6, r4
    59b2:	35ab      	adds	r5, #171	@ 0xab
    59b4:	ef20 aaed 	vpmax.s32	q5, q8, <illegal reg q14.5>
    59b8:	520a      	strh	r2, [r1, r0]
    59ba:	6848      	ldr	r0, [r1, #4]
    59bc:	23a5      	movs	r3, #165	@ 0xa5
    59be:	fb94 4623 			@ <UNDEFINED> instruction: 0xfb944623
    59c2:	e05a      	b.n	0x5a7a
    59c4:	46c3      	mov	fp, r8
    59c6:	35ab      	adds	r5, #171	@ 0xab
    59c8:	ef20 ffaa 	vmin.f32	d15, d16, d26
    59cc:	aaed      	add	r2, sp, #948	@ 0x3b4
    59ce:	520a      	strh	r2, [r1, r0]
    59d0:	6a58      	ldr	r0, [r3, #36]	@ 0x24
    59d2:	5ab4      	ldrh	r4, [r6, r2]
    59d4:	2100      	movs	r1, #0
    59d6:	6aca      	ldr	r2, [r1, #44]	@ 0x2c
    59d8:	6b21      	ldr	r1, [r4, #48]	@ 0x30
    59da:	8d4e      	ldrh	r6, [r1, #42]	@ 0x2a
    59dc:	0a00      	lsrs	r0, r0, #8
    59de:	000a      	movs	r2, r1
    59e0:	0721      	lsls	r1, r4, #28
    59e2:	466b      	mov	r3, sp
    59e4:	55ab      	strb	r3, [r5, r6]
    59e6:	ef20 a8ed 	vadd.i32	q5, q8, <illegal reg q14.5>
    59ea:	5242      	strh	r2, [r0, r1]
    59ec:	3ce8      	subs	r4, #232	@ 0xe8
    59ee:	d8e2      	bhi.n	0x59b6
    59f0:	000c      	movs	r4, r1
    59f2:	ca80      	ldmia	r2!, {r7}
    59f4:	b461      	push	{r0, r5, r6}
    59f6:	055a      	lsls	r2, r3, #21
    59f8:	def2      	udf	#242	@ 0xf2
    59fa:	2a8e      	cmp	r2, #142	@ 0x8e
    59fc:	8524      	strh	r4, [r4, #40]	@ 0x28
    59fe:	23ce      	movs	r3, #206	@ 0xce
    5a00:	128e      	asrs	r6, r1, #10
    5a02:	b461      	push	{r0, r5, r6}
    5a04:	055a      	lsls	r2, r3, #21
    5a06:	def2      	udf	#242	@ 0xf2
    5a08:	2a8e      	cmp	r2, #142	@ 0x8e
    5a0a:	8524      	strh	r4, [r4, #40]	@ 0x28
    5a0c:	d284      	bcs.n	0x5918
    5a0e:	1018      	asrs	r0, r3, #32
    5a10:	500c      	str	r4, [r1, r0]
    5a12:	0bf4      	lsrs	r4, r6, #15
    5a14:	3220      	adds	r2, #32
    5a16:	040c      	lsls	r4, r1, #16
    5a18:	2bf4      	cmp	r3, #244	@ 0xf4
    5a1a:	010a      	lsls	r2, r1, #4
    5a1c:	d30d      	bcc.n	0x5a3a
    5a1e:	bf4f      	iteee	mi
    5a20:	5000      	strmi	r0, [r0, r0]
    5a22:	c217      	stmiapl	r2!, {r0, r1, r2, r4}
    5a24:	4346      	mulpl	r6, r0
    5a26:	c6f4      	stmiapl	r6!, {r2, r4, r5, r6, r7}
    5a28:	66c2      	str	r2, [r0, #108]	@ 0x6c
    5a2a:	f443 6ee6 	orr.w	lr, r3, #1840	@ 0x730
    5a2e:	26fc      	movs	r6, #252	@ 0xfc
    5a30:	fe6e 0246 	cdp2	2, 6, cr0, cr14, cr6, {2}
    5a34:	ce28      	ldmia	r6!, {r3, r5}
    5a36:	c21a      	stmia	r2!, {r1, r3, r4}
    5a38:	06fc      	lsls	r4, r7, #27
    5a3a:	4a21      	ldr	r2, [pc, #132]	@ (0x5ac0)
    5a3c:	e272      	b.n	0x5f24
    5a3e:	21a6      	movs	r1, #166	@ 0xa6
    5a40:	106f      	asrs	r7, r5, #1
    5a42:	c6e2      	stmia	r6!, {r1, r5, r6, r7}
    5a44:	6f21      	ldr	r1, [r4, #112]	@ 0x70
    5a46:	c212      	stmia	r2!, {r1, r4}
    5a48:	bf56      	itet	pl
    5a4a:	26f0      	movpl	r6, #240	@ 0xf0
    5a4c:	76c2      	strbmi	r2, [r0, #27]
    5a4e:	f0bf e246 	blxpl	0x4c4edc
    5a52:	f106 e266 	blx	0x50bf20
    5a56:	f126 0286 			@ <UNDEFINED> instruction: 0xf1260286
    5a5a:	ce28      	ldmia	r6!, {r3, r5}
    5a5c:	c21a      	stmia	r2!, {r1, r3, r4}
    5a5e:	06fc      	lsls	r4, r7, #27
    5a60:	fa31 e271 			@ <UNDEFINED> instruction: 0xfa31e271
    5a64:	21a6      	movs	r1, #166	@ 0xa6
    5a66:	f56d e20b 	bfx	14, sp	@ <UNPREDICTABLE>
    5a6a:	21c6      	movs	r1, #198	@ 0xc6
    5a6c:	f76d 990b 	b.w	0xff772c86
    5a70:	60d8      	str	r0, [r3, #12]
    5a72:	5ab4      	ldrh	r4, [r6, r2]
    5a74:	f205 8ede 	bhi.w	0x8b834
    5a78:	242a      	movs	r4, #42	@ 0x2a
    5a7a:	8485      	strh	r5, [r0, #36]	@ 0x24
    5a7c:	200c      	movs	r0, #12
    5a7e:	bac9      	revsh	r1, r1
    5a80:	b460      	push	{r5, r6}
    5a82:	055a      	lsls	r2, r3, #21
    5a84:	def2      	udf	#242	@ 0xf2
    5a86:	2a8e      	cmp	r2, #142	@ 0x8e
    5a88:	8524      	strh	r4, [r4, #40]	@ 0x28
    5a8a:	5884      	ldr	r4, [r0, r2]
    5a8c:	2912      	cmp	r1, #18
    5a8e:	ed05 4430 	cfstrs	mvf4, [r5, #-192]	@ 0xffffff40
    5a92:	e852 c7f1 			@ <UNDEFINED> instruction: 0xe852c7f1
    5a96:	02a6      	lsls	r6, r4, #10
    5a98:	03b6      	lsls	r6, r6, #14
    5a9a:	ee7f 6fc6 	cdp	15, 7, cr6, cr15, cr6, {6}
    5a9e:	e6e2      	b.n	0x5866
    5aa0:	246f      	movs	r4, #111	@ 0x6f
    5aa2:	e280      	b.n	0x5fa6
    5aa4:	21ac      	movs	r1, #172	@ 0xac
    5aa6:	6fcc      	ldr	r4, [r1, #124]	@ 0x7c
    5aa8:	b310      	cbz	r0, 0x5af0
    5aaa:	271d      	movs	r7, #29
    5aac:	1a6e      	subs	r6, r5, r1
    5aae:	46f2      	mov	sl, lr
    5ab0:	6e21      	ldr	r1, [r4, #96]	@ 0x60
    5ab2:	f21c 2166 			@ <UNDEFINED> instruction: 0xf21c2166
    5ab6:	f56c 6f0b 	sbc.w	pc, ip, #2224	@ 0x8b0
    5aba:	6c22      	ldr	r2, [r4, #64]	@ 0x40
    5abc:	0bf7      	lsrs	r7, r6, #15
    5abe:	246f      	movs	r4, #111	@ 0x6f
    5ac0:	146e      	asrs	r6, r5, #17
    5ac2:	266f      	movs	r6, #111	@ 0x6f
    5ac4:	166e      	asrs	r6, r5, #25
    5ac6:	286f      	cmp	r0, #111	@ 0x6f
    5ac8:	e280      	b.n	0x5fcc
    5aca:	21ac      	movs	r1, #172	@ 0xac
    5acc:	6fcc      	ldr	r4, [r1, #124]	@ 0x7c
    5ace:	c210      	stmia	r2!, {r4}
    5ad0:	2718      	movs	r7, #24
    5ad2:	1a6e      	subs	r6, r5, r1
    5ad4:	56d2      	ldrsb	r2, [r2, r3]
    5ad6:	20bf      	movs	r0, #191	@ 0xbf
    5ad8:	1c6e      	adds	r6, r5, #1
    5ada:	76d2      	strb	r2, [r2, #27]
    5adc:	10bf      	asrs	r7, r7, #2
    5ade:	2c23      	cmp	r4, #35	@ 0x23
    5ae0:	b462      	push	{r1, r5, r6}
    5ae2:	d108      	bne.n	0x5af6
    5ae4:	b460      	push	{r5, r6}
    5ae6:	0a0c      	lsrs	r4, r1, #8
    5ae8:	8dd9      	ldrh	r1, [r3, #46]	@ 0x2e
    5aea:	b31d      	cbz	r5, 0x5b34
    5aec:	131e      	asrs	r6, r3, #12
    5aee:	9283      	str	r2, [sp, #524]	@ 0x20c
    5af0:	2013      	movs	r0, #19
    5af2:	8c63      	ldrh	r3, [r4, #34]	@ 0x22
    5af4:	3a01      	subs	r2, #1
    5af6:	4151      	adcs	r1, r2
    5af8:	100c      	asrs	r4, r1, #32
    5afa:	c425      	stmia	r4!, {r0, r2, r5}
    5afc:	0a00      	lsrs	r0, r0, #8
    5afe:	2100      	movs	r1, #0
    5b00:	48c7      	ldr	r0, [pc, #796]	@ (0x5e20)
    5b02:	000a      	movs	r2, r1
    5b04:	cf21      	ldmia	r7!, {r0, r5}
    5b06:	2148      	movs	r1, #72	@ 0x48
    5b08:	49f8      	ldr	r1, [pc, #992]	@ (0x5eec)
    5b0a:	000a      	movs	r2, r1
    5b0c:	3611      	adds	r6, #17
    5b0e:	00a3      	lsls	r3, r4, #2
    5b10:	f010 e24c 	blx	0x415fac
    5b14:	f187 01ec 			@ <UNDEFINED> instruction: 0xf18701ec
    5b18:	dff1      	svc	241	@ 0xf1
    5b1a:	057f      	lsls	r7, r7, #21
    5b1c:	5121      	str	r1, [r4, r4]
    5b1e:	2132      	movs	r1, #50	@ 0x32
    5b20:	3461      	adds	r4, #97	@ 0x61
    5b22:	000a      	movs	r2, r1
    5b24:	9021      	str	r0, [sp, #132]	@ 0x84
    5b26:	0a6b      	lsrs	r3, r5, #9
    5b28:	2100      	movs	r1, #0
    5b2a:	489d      	ldr	r0, [pc, #628]	@ (0x5da0)
    5b2c:	000a      	movs	r2, r1
    5b2e:	a521      	add	r5, pc, #132	@ (adr r5, 0x5bb4)
    5b30:	0a48      	lsrs	r0, r1, #9
    5b32:	1100      	asrs	r0, r0, #4
    5b34:	a30f      	add	r3, pc, #60	@ (adr r3, 0x5b74)
    5b36:	1000      	asrs	r0, r0, #32
    5b38:	4a80      	ldr	r2, [pc, #512]	@ (0x5d3c)
    5b3a:	000a      	movs	r2, r1
    5b3c:	005a      	lsls	r2, r3, #1
    5b3e:	1f21      	subs	r1, r4, #4
    5b40:	0a49      	lsrs	r1, r1, #9
    5b42:	5a00      	ldrh	r0, [r0, r0]
    5b44:	2100      	movs	r1, #0
    5b46:	493d      	ldr	r1, [pc, #244]	@ (0x5c3c)
    5b48:	1046      	asrs	r6, r0, #1
    5b4a:	7e53      	ldrb	r3, [r2, #25]
    5b4c:	1df4      	adds	r4, r6, #7
    5b4e:	df10      	svc	16
    5b50:	067f      	lsls	r7, r7, #25
    5b52:	3851      	subs	r0, #81	@ 0x51
    5b54:	100c      	asrs	r4, r1, #32
    5b56:	28a3      	cmp	r0, #163	@ 0xa3
    5b58:	f312 1224 			@ <UNDEFINED> instruction: 0xf3121224
    5b5c:	2bc3      	cmp	r3, #195	@ 0xc3
    5b5e:	3312      	adds	r3, #18
    5b60:	122c      	asrs	r4, r5, #8
    5b62:	2ca3      	cmp	r4, #163	@ 0xa3
    5b64:	1312      	asrs	r2, r2, #12
    5b66:	122d      	asrs	r5, r5, #8
    5b68:	2d83      	cmp	r5, #131	@ 0x83
    5b6a:	f312 122d 			@ <UNDEFINED> instruction: 0xf312122d
    5b6e:	31d3      	adds	r1, #211	@ 0xd3
    5b70:	4ec2      	ldr	r6, [pc, #776]	@ (0x5e7c)
    5b72:	f01f 0a2e 	ands.w	sl, pc, #46	@ 0x2e
    5b76:	2100      	movs	r1, #0
    5b78:	6b3d      	ldr	r5, [r7, #48]	@ 0x30
    5b7a:	000a      	movs	r2, r1
    5b7c:	b321      	cbz	r1, 0x5bc8
    5b7e:	2147      	movs	r1, #71	@ 0x47
    5b80:	64f2      	str	r2, [r6, #76]	@ 0x4c
    5b82:	018d      	lsls	r5, r1, #6
    5b84:	aa13      	add	r2, sp, #76	@ 0x4c
    5b86:	c001      	stmia	r0!, {r0}
    5b88:	4200      	tst	r0, r0
    5b8a:	18ac      	adds	r4, r5, r2
    5b8c:	e6e3      	b.n	0x5956
    5b8e:	e315      	b.n	0x61bc
    5b90:	d329      	bcc.n	0x5be6
    5b92:	d018      	beq.n	0x5bc6
    5b94:	10a0      	asrs	r0, r4, #2
    5b96:	9310      	str	r3, [sp, #64]	@ 0x40
    5b98:	e484      	b.n	0x54a4
    5b9a:	0a5e      	lsrs	r6, r3, #9
    5b9c:	2100      	movs	r1, #0
    5b9e:	4843      	ldr	r0, [pc, #268]	@ (0x5cac)
    5ba0:	f066 101d 	orn	r0, r6, #1900573	@ 0x1d001d
    5ba4:	fbdf 4714 			@ <UNDEFINED> instruction: 0xfbdf4714
    5ba8:	0460      	lsls	r0, r4, #17
    5baa:	ff8d 0a0b 	vmlsl.u8	q0, d13, d11
    5bae:	4700      	bx	r0
    5bb0:	2983      	cmp	r1, #131	@ 0x83
    5bb2:	14e3      	asrs	r3, r4, #19
    5bb4:	6112      	str	r2, [r2, #16]
    5bb6:	ed04 0a27 	vstr	s0, [r4, #-156]	@ 0xffffff64
    5bba:	9321      	str	r3, [sp, #132]	@ 0x84
    5bbc:	47b4      	blxns	r6
    5bbe:	4464      	add	r4, ip
    5bc0:	008c      	lsls	r4, r1, #2
    5bc2:	0a0a      	lsrs	r2, r1, #8
    5bc4:	4702      	bx	r0
    5bc6:	3fe3      	subs	r7, #227	@ 0xe3
    5bc8:	000a      	movs	r2, r1
    5bca:	6347      	str	r7, [r0, #52]	@ 0x34
    5bcc:	df34      	svc	52	@ 0x34
    5bce:	f105 7adf 	add.w	sl, r5, #29229056	@ 0x1be0000
    5bd2:	4f05      	ldr	r7, [pc, #20]	@ (0x5be8)
    5bd4:	1472      	asrs	r2, r6, #17
    5bd6:	d146      	bne.n	0x5c66
    5bd8:	cff8      	ldmia	r7, {r3, r4, r5, r6, r7}
    5bda:	00a0      	lsls	r0, r4, #2
    5bdc:	4470      	add	r0, lr
    5bde:	b899      			@ <UNDEFINED> instruction: 0xb899
    5be0:	24e0      	movs	r4, #224	@ 0xe0
    5be2:	d284      	bcs.n	0x5aee
    5be4:	7008      	strb	r0, [r1, #0]
    5be6:	4e08      	ldr	r6, [pc, #32]	@ (0x5c08)
    5be8:	c849      	ldmia	r0, {r0, r3, r6}
    5bea:	2000      	movs	r0, #0
    5bec:	6f32      	ldr	r2, [r6, #112]	@ 0x70
    5bee:	2b4e      	cmp	r3, #78	@ 0x4e
    5bf0:	4611      	mov	r1, r2
    5bf2:	7ed1      	ldrb	r1, [r2, #27]
    5bf4:	10a2      	asrs	r2, r4, #2
    5bf6:	4573      	cmp	r3, lr
    5bf8:	547b      	strb	r3, [r7, r1]
    5bfa:	c546      	stmia	r5!, {r1, r2, r6}
    5bfc:	3008      	adds	r0, #8
    5bfe:	94e4      	str	r4, [sp, #912]	@ 0x390
    5c00:	8c84      	ldrh	r4, [r0, #36]	@ 0x24
    5c02:	0fff      	lsrs	r7, r7, #31
    5c04:	494e      	ldr	r1, [pc, #312]	@ (0x5d40)
    5c06:	0a28      	lsrs	r0, r5, #8
    5c08:	4e01      	ldr	r6, [pc, #4]	@ (0x5c10)
    5c0a:	6859      	ldr	r1, [r3, #4]
    5c0c:	4e04      	ldr	r6, [pc, #16]	@ (0x5c20)
    5c0e:	e852 8494 			@ <UNDEFINED> instruction: 0xe8528494
    5c12:	008d      	lsls	r5, r1, #2
    5c14:	0a0b      	lsrs	r3, r1, #8
    5c16:	4702      	bx	r0
    5c18:	7984      	ldrb	r4, [r0, #6]
    5c1a:	10a2      	asrs	r2, r4, #2
    5c1c:	4470      	add	r0, lr
    5c1e:	1c98      	adds	r0, r3, #2
    5c20:	000a      	movs	r2, r1
    5c22:	8447      	strh	r7, [r0, #34]	@ 0x22
    5c24:	a119      	add	r1, pc, #100	@ (adr r1, 0x5c8c)
    5c26:	7030      	strb	r0, [r6, #0]
    5c28:	fe44 00a3 	cdp2	0, 4, cr0, cr4, cr3, {5}
    5c2c:	4470      	add	r0, lr
    5c2e:	424e      	negs	r6, r1
    5c30:	00c8      	lsls	r0, r1, #3
    5c32:	3220      	adds	r2, #32
    5c34:	4e0f      	ldr	r6, [pc, #60]	@ (0x5c74)
    5c36:	2842      	cmp	r0, #66	@ 0x42
    5c38:	010a      	lsls	r2, r1, #4
    5c3a:	524e      	strh	r6, [r1, r1]
    5c3c:	4468      	add	r0, sp
    5c3e:	06df      	lsls	r7, r3, #27
    5c40:	dff1      	svc	241	@ 0xf1
    5c42:	27fc      	movs	r7, #252	@ 0xfc
    5c44:	306f      	adds	r0, #111	@ 0x6f
    5c46:	e2cd      	b.n	0x61e4
    5c48:	010b      	lsls	r3, r1, #4
    5c4a:	d333      	bcc.n	0x5cb4
    5c4c:	a32c      	add	r3, pc, #176	@ (adr r3, 0x5d00)
    5c4e:	d000      	beq.n	0x5c52
    5c50:	f310 1b27 			@ <UNDEFINED> instruction: 0xf3101b27
    5c54:	a325      	add	r3, pc, #148	@ (adr r3, 0x5cec)
    5c56:	c200      	stmia	r2!, {}
    5c58:	a336      	add	r3, pc, #216	@ (adr r3, 0x5d34)
    5c5a:	07e0      	lsls	r0, r4, #31
    5c5c:	8682      	strh	r2, [r0, #52]	@ 0x34
    5c5e:	e0ac      	b.n	0x5dba
    5c60:	d206      	bcs.n	0x5c70
    5c62:	a336      	add	r3, pc, #216	@ (adr r3, 0x5d3c)
    5c64:	27e0      	movs	r7, #224	@ 0xe0
    5c66:	04df      	lsls	r7, r3, #19
    5c68:	04f1      	lsls	r1, r6, #19
    5c6a:	0a32      	lsrs	r2, r6, #8
    5c6c:	0af1      	lsrs	r1, r6, #11
    5c6e:	2100      	movs	r1, #0
    5c70:	16bd      	asrs	r5, r7, #26
    5c72:	df10      	svc	16
    5c74:	047f      	lsls	r7, r7, #17
    5c76:	5046      	str	r6, [r0, r1]
    5c78:	be50      	bkpt	0x0050
    5c7a:	010a      	lsls	r2, r1, #4
    5c7c:	b021      	add	sp, #132	@ 0x84
    5c7e:	df16      	svc	22
    5c80:	f101 7fdf 	add.w	pc, r1, #29229056	@ 0x1be0000
    5c84:	4604      	mov	r4, r0
    5c86:	9050      	str	r0, [sp, #320]	@ 0x140
    5c88:	0abe      	lsrs	r6, r7, #10
    5c8a:	ef06 1df4 	vmla.f32	<illegal reg q0.5>, q11, q10
    5c8e:	df10      	svc	16
    5c90:	047f      	lsls	r7, r7, #17
    5c92:	5046      	str	r6, [r0, r1]
    5c94:	be70      	bkpt	0x0070
    5c96:	01df      	lsls	r7, r3, #7
    5c98:	dff1      	svc	241	@ 0xf1
    5c9a:	047f      	lsls	r7, r7, #17
    5c9c:	5046      	str	r6, [r0, r1]
    5c9e:	bea0      	bkpt	0x00a0
    5ca0:	070a      	lsls	r2, r1, #28
    5ca2:	f4ef 101d 			@ <UNDEFINED> instruction: 0xf4ef101d
    5ca6:	7fdf      	ldrb	r7, [r3, #31]
    5ca8:	4604      	mov	r4, r0
    5caa:	8050      	strh	r0, [r2, #2]
    5cac:	0abe      	lsrs	r6, r7, #10
    5cae:	2104      	movs	r1, #4
    5cb0:	167d      	asrs	r5, r7, #25
    5cb2:	01df      	lsls	r7, r3, #7
    5cb4:	0af1      	lsrs	r1, r6, #11
    5cb6:	2105      	movs	r1, #5
    5cb8:	1675      	asrs	r5, r6, #25
    5cba:	df10      	svc	16
    5cbc:	047f      	lsls	r7, r7, #17
    5cbe:	5046      	str	r6, [r0, r1]
    5cc0:	bed0      	bkpt	0x00d0
    5cc2:	060a      	lsls	r2, r1, #24
    5cc4:	6821      	ldr	r1, [r4, #0]
    5cc6:	df16      	svc	22
    5cc8:	f101 7fdf 	add.w	pc, r1, #29229056	@ 0x1be0000
    5ccc:	4604      	mov	r4, r0
    5cce:	f050 0abe 	orrs.w	sl, r0, #190	@ 0xbe
    5cd2:	ef08 1df4 	vmla.f32	<illegal reg q0.5>, q12, q10
    5cd6:	df10      	svc	16
    5cd8:	047f      	lsls	r7, r7, #17
    5cda:	5046      	str	r6, [r0, r1]
    5cdc:	beb0      	bkpt	0x00b0
    5cde:	0a0a      	lsrs	r2, r1, #8
    5ce0:	f4ef 101d 			@ <UNDEFINED> instruction: 0xf4ef101d
    5ce4:	7fdf      	ldrb	r7, [r3, #31]
    5ce6:	4604      	mov	r4, r0
    5ce8:	1050      	asrs	r0, r2, #1
    5cea:	0abf      	lsrs	r7, r7, #10
    5cec:	ef0c 1df4 	vmla.f32	<illegal reg q0.5>, q14, q10
    5cf0:	0a10      	lsrs	r0, r2, #8
    5cf2:	2100      	movs	r1, #0
    5cf4:	15f9      	asrs	r1, r7, #23
    5cf6:	df10      	svc	16
    5cf8:	047f      	lsls	r7, r7, #17
    5cfa:	5046      	str	r6, [r0, r1]
    5cfc:	be60      	bkpt	0x0060
    5cfe:	010a      	lsls	r2, r1, #4
    5d00:	ec21 df15 	stc	15, cr13, [r1], #-84	@ 0xffffffac
    5d04:	f101 030a 	add.w	r3, r1, #10
    5d08:	e421      	b.n	0x554e
    5d0a:	1015      	asrs	r5, r2, #32
    5d0c:	7fdf      	ldrb	r7, [r3, #31]
    5d0e:	4604      	mov	r4, r0
    5d10:	e050      	b.n	0x5db4
    5d12:	0abe      	lsrs	r6, r7, #10
    5d14:	2104      	movs	r1, #4
    5d16:	15d7      	asrs	r7, r2, #23
    5d18:	01df      	lsls	r7, r3, #7
    5d1a:	dff1      	svc	241	@ 0xf1
    5d1c:	047f      	lsls	r7, r7, #17
    5d1e:	5046      	str	r6, [r0, r1]
    5d20:	bf00      	nop
    5d22:	090a      	lsrs	r2, r1, #4
    5d24:	f4ef 101d 			@ <UNDEFINED> instruction: 0xf4ef101d
    5d28:	7fdf      	ldrb	r7, [r3, #31]
    5d2a:	4604      	mov	r4, r0
    5d2c:	c050      	stmia	r0!, {r4, r6}
    5d2e:	0abe      	lsrs	r6, r7, #10
    5d30:	2107      	movs	r1, #7
    5d32:	15fb      	asrs	r3, r7, #23
    5d34:	0b0a      	lsrs	r2, r1, #12
    5d36:	f4ef 101d 			@ <UNDEFINED> instruction: 0xf4ef101d
    5d3a:	7fdf      	ldrb	r7, [r3, #31]
    5d3c:	4604      	mov	r4, r0
    5d3e:	2050      	movs	r0, #80	@ 0x50
    5d40:	0abf      	lsrs	r7, r7, #10
    5d42:	ef0d 1df4 	vmla.f32	<illegal reg q0.5>, <illegal reg q14.5>, q10
    5d46:	df10      	svc	16
    5d48:	047f      	lsls	r7, r7, #17
    5d4a:	5046      	str	r6, [r0, r1]
    5d4c:	be40      	bkpt	0x0040
    5d4e:	050a      	lsls	r2, r1, #20
    5d50:	9c21      	ldr	r4, [sp, #132]	@ 0x84
    5d52:	0a15      	lsrs	r5, r2, #8
    5d54:	2108      	movs	r1, #8
    5d56:	15d7      	asrs	r7, r2, #23
    5d58:	020a      	lsls	r2, r1, #8
    5d5a:	f4ef 101d 			@ <UNDEFINED> instruction: 0xf4ef101d
    5d5e:	7fdf      	ldrb	r7, [r3, #31]
    5d60:	4604      	mov	r4, r0
    5d62:	4050      	eors	r0, r2
    5d64:	0abe      	lsrs	r6, r7, #10
    5d66:	ef02 1df4 	vmla.f32	<illegal reg q0.5>, q9, q10
    5d6a:	2110      	movs	r1, #16
    5d6c:	6306      	str	r6, [r0, #48]	@ 0x30
    5d6e:	018d      	lsls	r5, r1, #6
    5d70:	0a14      	lsrs	r4, r2, #8
    5d72:	2103      	movs	r1, #3
    5d74:	15b9      	asrs	r1, r7, #22
    5d76:	020a      	lsls	r2, r1, #8
    5d78:	7421      	strb	r1, [r4, #16]
    5d7a:	1015      	asrs	r5, r2, #32
    5d7c:	260a      	movs	r6, #10
    5d7e:	04ef      	lsls	r7, r5, #19
    5d80:	dff1      	svc	241	@ 0xf1
    5d82:	057d      	lsls	r5, r7, #21
    5d84:	6147      	str	r7, [r0, #20]
    5d86:	0c14      	lsrs	r4, r2, #16
    5d88:	c90c      	ldmia	r1!, {r2, r3}
    5d8a:	d10d      	bne.n	0x5da8
    5d8c:	c2de      	stmia	r2!, {r1, r2, r3, r4, r6, r7}
    5d8e:	1460      	asrs	r0, r4, #17
    5d90:	4882      	ldr	r0, [pc, #520]	@ (0x5f9c)
    5d92:	0568      	lsls	r0, r5, #21
    5d94:	9123      	str	r1, [sp, #140]	@ 0x8c
    5d96:	0f4a      	lsrs	r2, r1, #29
    5d98:	d046      	beq.n	0x5e28
    5d9a:	c2de      	stmia	r2!, {r1, r2, r3, r4, r6, r7}
    5d9c:	1560      	asrs	r0, r4, #21
    5d9e:	5982      	ldr	r2, [r0, r6]
    5da0:	00a8      	lsls	r0, r5, #2
    5da2:	2470      	movs	r4, #112	@ 0x70
    5da4:	2898      	cmp	r0, #152	@ 0x98
    5da6:	2ded      	cmp	r5, #237	@ 0xed
    5da8:	460c      	mov	r4, r1
    5daa:	8822      	ldrh	r2, [r4, #0]
    5dac:	8d84      	ldrh	r4, [r0, #44]	@ 0x2c
    5dae:	0c01      	lsrs	r1, r0, #16
    5db0:	5246      	strh	r6, [r0, r1]
    5db2:	c2c0      	stmia	r2!, {r6, r7}
    5db4:	1398      	asrs	r0, r3, #14
    5db6:	8246      	strh	r6, [r0, #18]
    5db8:	0d10      	lsrs	r0, r2, #20
    5dba:	c246      	stmia	r2!, {r1, r2, r6}
    5dbc:	80c0      	strh	r0, [r0, #6]
    5dbe:	6cdd      	ldr	r5, [r3, #76]	@ 0x4c
    5dc0:	8d24      	ldrh	r4, [r4, #40]	@ 0x28
    5dc2:	080c      	lsrs	r4, r1, #32
    5dc4:	5146      	str	r6, [r0, r5]
    5dc6:	c2c0      	stmia	r2!, {r6, r7}
    5dc8:	010a      	lsls	r2, r1, #4
    5dca:	c4ef      	stmia	r4!, {r0, r1, r2, r3, r5, r6, r7}
    5dcc:	096e      	lsrs	r6, r5, #5
    5dce:	2ef0      	cmp	r6, #240	@ 0xf0
    5dd0:	2c04      	cmp	r4, #4
    5dd2:	35ac      	adds	r5, #172	@ 0xac
    5dd4:	ef20 b0ed 	vhadd.s32	<illegal reg q5.5>, q8, <illegal reg q14.5>
    5dd8:	5244      	strh	r4, [r0, r1]
    5dda:	d848      	bhi.n	0x5e6e
    5ddc:	0458      	lsls	r0, r3, #17
    5dde:	ded6      	udf	#214	@ 0xd6
    5de0:	40c2      	lsrs	r2, r0
    5de2:	c2c0      	stmia	r2!, {r6, r7}
    5de4:	4882      	ldr	r0, [pc, #520]	@ (0x5ff0)
    5de6:	18d8      	adds	r0, r3, r3
    5de8:	14a0      	asrs	r0, r4, #18
    5dea:	c3f5      	stmia	r3!, {r0, r2, r4, r5, r6, r7}
    5dec:	0a01      	lsrs	r1, r0, #8
    5dee:	2100      	movs	r1, #0
    5df0:	45d7      	cmp	pc, sl
    5df2:	000a      	movs	r2, r1
    5df4:	df21      	svc	33	@ 0x21
    5df6:	2145      	movs	r1, #69	@ 0x45
    5df8:	4708      	bx	r1
    5dfa:	000a      	movs	r2, r1
    5dfc:	4611      	mov	r1, r2
    5dfe:	00a0      	lsls	r0, r4, #2
    5e00:	f010 0a1d 	ands.w	sl, r0, #29
    5e04:	2100      	movs	r1, #0
    5e06:	302c      	adds	r0, #44	@ 0x2c
    5e08:	000a      	movs	r2, r1
    5e0a:	0521      	lsls	r1, r4, #20
    5e0c:	fe45 f513 	mcr2	5, 2, pc, cr5, cr3, {0}	@ <UNPREDICTABLE>
    5e10:	00c3      	lsls	r3, r0, #3
    5e12:	03df      	lsls	r7, r3, #15
    5e14:	0af1      	lsrs	r1, r6, #11
    5e16:	5a03      	ldrh	r3, [r0, r0]
    5e18:	213f      	movs	r1, #63	@ 0x3f
    5e1a:	2167      	movs	r1, #103	@ 0x67
    5e1c:	0a10      	lsrs	r0, r2, #8
    5e1e:	ef17 f104 	vrhadd.s16	d15, d7, d4
    5e22:	180a      	adds	r2, r1, r0
    5e24:	04ef      	lsls	r7, r5, #19
    5e26:	0af1      	lsrs	r1, r6, #11
    5e28:	ef19 f104 	vrhadd.s16	d15, d9, d4
    5e2c:	1a0a      	subs	r2, r1, r0
    5e2e:	04ef      	lsls	r7, r5, #19
    5e30:	0af1      	lsrs	r1, r6, #11
    5e32:	ef1b f104 	vrhadd.s16	d15, d11, d4
    5e36:	1c0a      	adds	r2, r1, #0
    5e38:	04ef      	lsls	r7, r5, #19
    5e3a:	0af1      	lsrs	r1, r6, #11
    5e3c:	ef1d f104 	vrhadd.s16	d15, d13, d4
    5e40:	1e0a      	subs	r2, r1, #0
    5e42:	04ef      	lsls	r7, r5, #19
    5e44:	dff1      	svc	241	@ 0xf1
    5e46:	047f      	lsls	r7, r7, #17
    5e48:	5046      	str	r6, [r0, r1]
    5e4a:	bf90      	nop	{9}
    5e4c:	110a      	asrs	r2, r1, #4
    5e4e:	f4ef 101d 			@ <UNDEFINED> instruction: 0xf4ef101d
    5e52:	7fdf      	ldrb	r7, [r3, #31]
    5e54:	4604      	mov	r4, r0
    5e56:	e050      	b.n	0x5efa
    5e58:	0abf      	lsrs	r7, r7, #10
    5e5a:	ef1f 1df4 	vmla.f16	<illegal reg q0.5>, <illegal reg q15.5>, q10
    5e5e:	df10      	svc	16
    5e60:	047f      	lsls	r7, r7, #17
    5e62:	5046      	str	r6, [r0, r1]
    5e64:	bfe0      	nop	{14}
    5e66:	0f0a      	lsrs	r2, r1, #28
    5e68:	f8ef 101d 	str??.w	r1, [pc, #29]	@ 0x5e89
    5e6c:	200a      	movs	r0, #10
    5e6e:	04ef      	lsls	r7, r5, #19
    5e70:	0af1      	lsrs	r1, r6, #11
    5e72:	ef09 f108 	vrhadd.s8	d15, d9, d8
    5e76:	0a0a      	lsrs	r2, r1, #8
    5e78:	08ef      	lsrs	r7, r5, #3
    5e7a:	0af1      	lsrs	r1, r6, #11
    5e7c:	ef0b f108 	vrhadd.s8	d15, d11, d8
    5e80:	0c0a      	lsrs	r2, r1, #16
    5e82:	08ef      	lsrs	r7, r5, #3
    5e84:	0af1      	lsrs	r1, r6, #11
    5e86:	ef0d f108 	vrhadd.s8	d15, d13, d8
    5e8a:	0e0a      	lsrs	r2, r1, #24
    5e8c:	08ef      	lsrs	r7, r5, #3
    5e8e:	0af1      	lsrs	r1, r6, #11
    5e90:	ef02 f108 	vrhadd.s8	d15, d2, d8
    5e94:	fddf 0a04 	ldc2l	10, cr0, [pc, #16]	@ 0x5ea8	@ <UNPREDICTABLE>
    5e98:	4700      	bx	r0
    5e9a:	1982      	adds	r2, r0, r6
    5e9c:	04e2      	lsls	r2, r4, #19
    5e9e:	2246      	movs	r2, #70	@ 0x46
    5ea0:	8488      	strh	r0, [r1, #36]	@ 0x24
    5ea2:	09ed      	lsrs	r5, r5, #7
    5ea4:	560c      	ldrsb	r4, [r1, r0]
    5ea6:	9822      	ldr	r0, [sp, #136]	@ 0x88
    5ea8:	4685      	mov	sp, r0
    5eaa:	1082      	asrs	r2, r0, #2
    5eac:	460d      	mov	r5, r1
    5eae:	70c2      	strb	r2, [r0, #3]
    5eb0:	4d80      	ldr	r5, [pc, #512]	@ (0x60b4)
    5eb2:	30ad      	adds	r0, #173	@ 0xad
    5eb4:	8ef0      	ldrh	r0, [r6, #54]	@ 0x36
    5eb6:	03df      	lsls	r7, r3, #15
    5eb8:	dff1      	svc	241	@ 0xf1
    5eba:	24fc      	movs	r4, #252	@ 0xfc
    5ebc:	7057      	strb	r7, [r2, #1]
    5ebe:	4614      	mov	r4, r2
    5ec0:	7051      	strb	r1, [r2, #1]
    5ec2:	46c1      	mov	r9, r8
    5ec4:	8050      	strh	r0, [r2, #2]
    5ec6:	6ec1      	ldr	r1, [r0, #108]	@ 0x6c
    5ec8:	6d22      	ldr	r2, [r4, #80]	@ 0x50
    5eca:	0c19      	lsrs	r1, r3, #16
    5ecc:	5746      	ldrsb	r6, [r0, r5]
    5ece:	c1b0      	stmia	r1!, {r4, r5, r7}
    5ed0:	100a      	asrs	r2, r1, #32
    5ed2:	f8ef 104d 	str??.w	r1, [pc, #77]	@ 0x5f21
    5ed6:	fcdf 5724 	ldc2l	7, cr5, [pc], {36}	@ 0x24
    5eda:	1470      	asrs	r0, r6, #17
    5edc:	5146      	str	r6, [r0, r5]
    5ede:	c1c0      	stmia	r1!, {r6, r7}
    5ee0:	5046      	str	r6, [r0, r1]
    5ee2:	c1d0      	stmia	r1!, {r4, r6, r7}
    5ee4:	226e      	movs	r2, #110	@ 0x6e
    5ee6:	1e6d      	subs	r5, r5, #1
    5ee8:	0a0c      	lsrs	r4, r1, #8
    5eea:	ef11 4df8 	vmla.f16	q2, <illegal reg q8.5>, q12
    5eee:	df10      	svc	16
    5ef0:	057e      	lsls	r6, r7, #21
    5ef2:	6147      	str	r7, [r0, #20]
    5ef4:	0514      	lsls	r4, r2, #20
    5ef6:	6c20      	ldr	r0, [r4, #64]	@ 0x40
    5ef8:	0504      	lsls	r4, r0, #20
    5efa:	ac21      	add	r4, sp, #132	@ 0x84
    5efc:	f120 df8e 	bl	0x926e1c
    5f00:	f102 7edf 	add.w	lr, r2, #29229056	@ 0x1be0000
    5f04:	4705      	bx	r0
    5f06:	1461      	asrs	r1, r4, #17
    5f08:	2205      	movs	r2, #5
    5f0a:	046c      	lsls	r4, r5, #17
    5f0c:	2305      	movs	r3, #5
    5f0e:	30ac      	adds	r0, #172	@ 0xac
    5f10:	8ef1      	ldrh	r1, [r6, #54]	@ 0x36
    5f12:	02df      	lsls	r7, r3, #11
    5f14:	dff1      	svc	241	@ 0xf1
    5f16:	047f      	lsls	r7, r7, #17
    5f18:	5046      	str	r6, [r0, r1]
    5f1a:	c4b0      	stmia	r4!, {r4, r5, r7}
    5f1c:	080a      	lsrs	r2, r1, #32
    5f1e:	f8ef 101d 	str??.w	r1, [pc, #29]	@ 0x5f3d
    5f22:	140a      	asrs	r2, r1, #16
    5f24:	08ef      	lsrs	r7, r5, #3
    5f26:	0af1      	lsrs	r1, r6, #11
    5f28:	ef15 f108 	vrhadd.s16	d15, d5, d8
    5f2c:	7edf      	ldrb	r7, [r3, #27]
    5f2e:	4705      	bx	r0
    5f30:	1461      	asrs	r1, r4, #17
    5f32:	2405      	movs	r4, #5
    5f34:	046c      	lsls	r4, r5, #17
    5f36:	2705      	movs	r7, #5
    5f38:	60ac      	str	r4, [r5, #8]
    5f3a:	8ef1      	ldrh	r1, [r6, #54]	@ 0x36
    5f3c:	02df      	lsls	r7, r3, #11
    5f3e:	dff1      	svc	241	@ 0xf1
    5f40:	14fd      	asrs	r5, r7, #19
    5f42:	6047      	str	r7, [r0, #4]
    5f44:	0504      	lsls	r4, r0, #20
    5f46:	ec01 8414 	cfstrs	mvf8, [r1], {20}
    5f4a:	0505      	lsls	r5, r0, #20
    5f4c:	14ec      	asrs	r4, r5, #19
    5f4e:	0186      	lsls	r6, r0, #6
    5f50:	0605      	lsls	r5, r0, #24
    5f52:	14ec      	asrs	r4, r5, #19
    5f54:	0286      	lsls	r6, r0, #10
    5f56:	0705      	lsls	r5, r0, #28
    5f58:	14ec      	asrs	r4, r5, #19
    5f5a:	0386      	lsls	r6, r0, #14
    5f5c:	0805      	lsrs	r5, r0, #32
    5f5e:	70ac      	strb	r4, [r5, #2]
    5f60:	8ef1      	ldrh	r1, [r6, #54]	@ 0x36
    5f62:	03df      	lsls	r7, r3, #15
    5f64:	0af1      	lsrs	r1, r6, #11
    5f66:	ef04 f108 	vrhadd.s8	d15, d4, d8
    5f6a:	050a      	lsls	r2, r1, #20
    5f6c:	08ef      	lsrs	r7, r5, #3
    5f6e:	0af1      	lsrs	r1, r6, #11
    5f70:	ef06 f108 	vrhadd.s8	d15, d6, d8
    5f74:	070a      	lsls	r2, r1, #28
    5f76:	08ef      	lsrs	r7, r5, #3
    5f78:	dff1      	svc	241	@ 0xf1
    5f7a:	047f      	lsls	r7, r7, #17
    5f7c:	5046      	str	r6, [r0, r1]
    5f7e:	bff0      	nop	{15}
    5f80:	030a      	lsls	r2, r1, #12
    5f82:	f4ef 101d 			@ <UNDEFINED> instruction: 0xf4ef101d
    5f86:	7fdf      	ldrb	r7, [r3, #31]
    5f88:	4604      	mov	r4, r0
    5f8a:	b050      	add	sp, #320	@ 0x140
    5f8c:	0ac4      	lsrs	r4, r0, #11
    5f8e:	ef04 1df4 	vmla.f32	<illegal reg q0.5>, q10, q10
    5f92:	df10      	svc	16
    5f94:	047f      	lsls	r7, r7, #17
    5f96:	5046      	str	r6, [r0, r1]
    5f98:	c4c0      	stmia	r4!, {r6, r7}
    5f9a:	050a      	lsls	r2, r1, #20
    5f9c:	f4ef 101d 			@ <UNDEFINED> instruction: 0xf4ef101d
    5fa0:	130a      	asrs	r2, r1, #12
    5fa2:	04ef      	lsls	r7, r5, #19
    5fa4:	0af1      	lsrs	r1, r6, #11
    5fa6:	ef14 f104 	vrhadd.s16	d15, d4, d4
    5faa:	7fdf      	ldrb	r7, [r3, #31]
    5fac:	4604      	mov	r4, r0
    5fae:	6050      	str	r0, [r2, #4]
    5fb0:	0ac1      	lsrs	r1, r0, #11
    5fb2:	ef27 1df4 	vmls.f32	<illegal reg q0.5>, <illegal reg q11.5>, q10
    5fb6:	0a10      	lsrs	r0, r2, #8
    5fb8:	ef28 f104 	vrhadd.s32	d15, d8, d4
    5fbc:	7fdf      	ldrb	r7, [r3, #31]
    5fbe:	4604      	mov	r4, r0
    5fc0:	9050      	str	r0, [sp, #320]	@ 0x140
    5fc2:	0abe      	lsrs	r6, r7, #10
    5fc4:	ef0f 1df4 	vmla.f32	<illegal reg q0.5>, <illegal reg q15.5>, q10
    5fc8:	df10      	svc	16
    5fca:	047f      	lsls	r7, r7, #17
    5fcc:	5046      	str	r6, [r0, r1]
    5fce:	bea0      	bkpt	0x00a0
    5fd0:	100a      	asrs	r2, r1, #32
    5fd2:	f4ef 101d 			@ <UNDEFINED> instruction: 0xf4ef101d
    5fd6:	7fdf      	ldrb	r7, [r3, #31]
    5fd8:	4604      	mov	r4, r0
    5fda:	05a0      	lsls	r0, r4, #22
    5fdc:	f310 f13c 	bl	0x716258
    5fe0:	101d      	asrs	r5, r3, #32
    5fe2:	7edf      	ldrb	r7, [r3, #27]
    5fe4:	4604      	mov	r4, r0
    5fe6:	a050      	add	r0, pc, #320	@ (adr r0, 0x6128)
    5fe8:	0abf      	lsrs	r7, r7, #10
    5fea:	ef12 0464 	vshl.s16	q0, q10, q1
    5fee:	010c      	lsls	r4, r1, #4
    5ff0:	c222      	stmia	r2!, {r1, r5}
    5ff2:	20a2      	movs	r0, #162	@ 0xa2
    5ff4:	1470      	asrs	r0, r6, #17
    5ff6:	1598      	asrs	r0, r3, #22
    5ff8:	a146      	add	r1, pc, #280	@ (adr r1, 0x6114)
    5ffa:	1015      	asrs	r5, r2, #32
    5ffc:	3b03      	subs	r3, #3
    5ffe:	1461      	asrs	r1, r4, #17
    6000:	d108      	bne.n	0x6014
    6002:	1460      	asrs	r0, r4, #17
    6004:	070c      	lsls	r4, r1, #28
    6006:	f322 2dfd 			@ <UNDEFINED> instruction: 0xf3222dfd
    600a:	0a10      	lsrs	r0, r2, #8
    600c:	ef21 f104 	vrhadd.s32	d15, d1, d4
    6010:	d1ef      	bne.n	0x5ff2
    6012:	a008      	add	r0, pc, #32	@ (adr r0, 0x6034)
    6014:	20a0      	movs	r0, #160	@ 0xa0
    6016:	4ef2      	ldr	r6, [pc, #968]	@ (0x63e0)
    6018:	a3fe      	add	r3, pc, #1016	@ (adr r3, 0x6414)
    601a:	f180 108e 			@ <UNDEFINED> instruction: 0xf180108e
    601e:	190a      	adds	r2, r1, r4
    6020:	08ef      	lsrs	r7, r5, #3
    6022:	0af1      	lsrs	r1, r6, #11
    6024:	ef1a f108 	vrhadd.s16	d15, d10, d8
    6028:	160a      	asrs	r2, r1, #24
    602a:	04ef      	lsls	r7, r5, #19
    602c:	0af1      	lsrs	r1, r6, #11
    602e:	ef1b f108 	vrhadd.s16	d15, d11, d8
    6032:	1c0a      	adds	r2, r1, #0
    6034:	08ef      	lsrs	r7, r5, #3
    6036:	dff1      	svc	241	@ 0xf1
    6038:	04fc      	lsls	r4, r7, #19
    603a:	e26f      	b.n	0x651c
    603c:	d226      	bcs.n	0x608c
    603e:	c036      	stmia	r0!, {r1, r2, r4, r5}
    6040:	04e0      	lsls	r0, r4, #19
    6042:	0584      	lsls	r4, r0, #22
    6044:	ec05 8604 	stc	6, cr8, [r5], {4}
    6048:	0501      	lsls	r1, r0, #20
    604a:	ec06 8604 	stc	6, cr8, [r6], {4}
    604e:	0502      	lsls	r2, r0, #20
    6050:	ec07 8604 	stc	6, cr8, [r7], {4}
    6054:	0503      	lsls	r3, r0, #20
    6056:	ac08      	add	r4, sp, #32
    6058:	f1d0 df8e 	bl	0x9d6f78
    605c:	f104 000a 	add.w	r0, r4, #10
    6060:	04ef      	lsls	r7, r5, #19
    6062:	0af1      	lsrs	r1, r6, #11
    6064:	ef1e f108 	vrhadd.s16	d15, d14, d8
    6068:	1f0a      	subs	r2, r1, #4
    606a:	08ef      	lsrs	r7, r5, #3
    606c:	dff1      	svc	241	@ 0xf1
    606e:	057c      	lsls	r4, r7, #21
    6070:	f147 6e24 	adc.w	lr, r7, #171966464	@ 0xa400000
    6074:	6d22      	ldr	r2, [r4, #80]	@ 0x50
    6076:	0c4d      	lsrs	r5, r1, #17
    6078:	5146      	str	r6, [r0, r5]
    607a:	c4f0      	stmia	r4!, {r4, r5, r6, r7}
    607c:	5046      	str	r6, [r0, r1]
    607e:	c500      	stmia	r5!, {}
    6080:	5746      	ldrsb	r6, [r0, r5]
    6082:	c510      	stmia	r5!, {r4}
    6084:	04df      	lsls	r7, r3, #19
    6086:	dff1      	svc	241	@ 0xf1
    6088:	06fe      	lsls	r6, r7, #27
    608a:	206e      	movs	r0, #110	@ 0x6e
    608c:	4d6d      	ldr	r5, [pc, #436]	@ (0x6244)
    608e:	ef0c 08d1 	vtst.8	q0, q14, <illegal reg q0.5>
    6092:	a0a0      	add	r0, pc, #640	@ (adr r0, 0x6314)
    6094:	f240 fe4e 	bl	0x246d34
    6098:	00a3      	lsls	r3, r4, #2
    609a:	8ef2      	ldrh	r2, [r6, #54]	@ 0x36
    609c:	02df      	lsls	r7, r3, #11
    609e:	eff1 08d1 			@ <UNDEFINED> instruction: 0xeff108d1
    60a2:	a0a0      	add	r0, pc, #640	@ (adr r0, 0x6324)
    60a4:	f250 fe4e 	bl	0x256d44
    60a8:	10a3      	asrs	r3, r4, #2
    60aa:	8ef2      	ldrh	r2, [r6, #54]	@ 0x36
    60ac:	d310      	bcc.n	0x60d0
    60ae:	bfde      	ittt	le
    60b0:	6000      	strle	r0, [r0, #0]
    60b2:	cd33      	ldmiale	r5, {r0, r1, r4, r5}
    60b4:	0bfb      	lsrle	r3, r7, #15
    60b6:	5d00      	ldrb	r0, [r0, r4]
    60b8:	090a      	lsrs	r2, r1, #4
    60ba:	9821      	ldr	r0, [sp, #132]	@ 0x84
    60bc:	8d2a      	ldrh	r2, [r5, #40]	@ 0x28
    60be:	4d00      	ldr	r5, [pc, #0]	@ (0x60c0)
    60c0:	080a      	lsrs	r2, r1, #32
    60c2:	9021      	str	r0, [sp, #132]	@ 0x84
    60c4:	8d2a      	ldrh	r2, [r5, #40]	@ 0x28
    60c6:	3d00      	subs	r5, #0
    60c8:	fd51 801b 	ldc2l	0, cr8, [r1, #-108]	@ 0xffffff94
    60cc:	3329      	adds	r3, #41	@ 0x29
    60ce:	fbed 000b 	umlal	r0, r0, sp, fp
    60d2:	0a27      	lsrs	r7, r4, #8
    60d4:	2109      	movs	r1, #9
    60d6:	2a7d      	cmp	r2, #125	@ 0x7d
    60d8:	008d      	lsls	r5, r1, #2
    60da:	0a17      	lsrs	r7, r2, #8
    60dc:	2108      	movs	r1, #8
    60de:	2a75      	cmp	r2, #117	@ 0x75
    60e0:	008d      	lsls	r5, r1, #2
    60e2:	5107      	str	r7, [r0, r4]
    60e4:	0bfd      	lsrs	r5, r7, #15
    60e6:	f100 fedf 	bl	0x106ea8
    60ea:	0404      	lsls	r4, r0, #16
    60ec:	ec10 8504 	cfldr32	mvfx8, [r0], {4}
    60f0:	1104      	asrs	r4, r0, #4
    60f2:	04ec      	lsls	r4, r5, #19
    60f4:	0187      	lsls	r7, r0, #6
    60f6:	1204      	asrs	r4, r0, #8
    60f8:	04ec      	lsls	r4, r5, #19
    60fa:	0287      	lsls	r7, r0, #10
    60fc:	1304      	asrs	r4, r0, #12
    60fe:	04ec      	lsls	r4, r5, #19
    6100:	0387      	lsls	r7, r0, #14
    6102:	1404      	asrs	r4, r0, #16
    6104:	04ec      	lsls	r4, r5, #19
    6106:	0487      	lsls	r7, r0, #18
    6108:	1504      	asrs	r4, r0, #20
    610a:	04ec      	lsls	r4, r5, #19
    610c:	0587      	lsls	r7, r0, #22
    610e:	02df      	lsls	r7, r3, #11
    6110:	04f1      	lsls	r1, r6, #19
    6112:	0c3f      	lsrs	r7, r7, #16
    6114:	04f1      	lsls	r1, r6, #19
    6116:	0c36      	lsrs	r6, r6, #16
    6118:	04f1      	lsls	r1, r6, #19
    611a:	0c41      	lsrs	r1, r0, #17
    611c:	04f1      	lsls	r1, r6, #19
    611e:	0c42      	lsrs	r2, r0, #17
    6120:	04f1      	lsls	r1, r6, #19
    6122:	0c4b      	lsrs	r3, r1, #17
    6124:	04f1      	lsls	r1, r6, #19
    6126:	0c52      	lsrs	r2, r2, #17
    6128:	04f1      	lsls	r1, r6, #19
    612a:	0c53      	lsrs	r3, r2, #17
    612c:	04f1      	lsls	r1, r6, #19
    612e:	0c54      	lsrs	r4, r2, #17
    6130:	dff1      	svc	241	@ 0xf1
    6132:	cd3f      	ldmia	r5, {r0, r1, r2, r3, r4, r5}
    6134:	0c55      	lsrs	r5, r2, #17
    6136:	0c01      	lsrs	r1, r0, #16
    6138:	3d50      	subs	r5, #80	@ 0x50
    613a:	200c      	movs	r0, #12
    613c:	2032      	movs	r0, #50	@ 0x32
    613e:	8ed3      	ldrh	r3, [r2, #54]	@ 0x36
    6140:	10c5      	asrs	r5, r0, #3
    6142:	3150      	adds	r1, #80	@ 0x50
    6144:	eced 080b 	stcl	8, cr0, [sp], #44	@ 0x2c
    6148:	0a0a      	lsrs	r2, r1, #8
    614a:	4700      	bx	r0
    614c:	3fe0      	subs	r7, #224	@ 0xe0
    614e:	000a      	movs	r2, r1
    6150:	6047      	str	r7, [r0, #4]
    6152:	df04      	svc	4
    6154:	f101 5604 	add.w	r6, r1, #553648128	@ 0x21000000
    6158:	f10c 5704 	add.w	r7, ip, #553648128	@ 0x21000000
    615c:	f10c fcdf 	bl	0x112b1e
    6160:	0a27      	lsrs	r7, r4, #8
    6162:	4700      	bx	r0
    6164:	8990      	ldrh	r0, [r2, #12]
    6166:	4625      	mov	r5, r4
    6168:	2580      	movs	r5, #128	@ 0x80
    616a:	ed05 0a35 	vstr	s0, [r5, #-212]	@ 0xffffff2c
    616e:	e852 0cc0 			@ <UNDEFINED> instruction: 0xe8520cc0
    6172:	2000      	movs	r0, #0
    6174:	3133      	adds	r1, #51	@ 0x33
    6176:	0462      	lsls	r2, r4, #17
    6178:	5258      	strh	r0, [r3, r1]
    617a:	5ed0      	ldrsh	r0, [r2, r3]
    617c:	20a3      	movs	r0, #163	@ 0xa3
    617e:	0e85      	lsrs	r5, r0, #26
    6180:	2182      	movs	r1, #130	@ 0x82
    6182:	0154      	lsls	r4, r2, #5
    6184:	4600      	mov	r0, r0
    6186:	2580      	movs	r5, #128	@ 0x80
    6188:	ed05 0a35 	vstr	s0, [r5, #-212]	@ 0xffffff2c
    618c:	f852 0461 	ldr.w	r0, [r2, <undefined>]
    6190:	5258      	strh	r0, [r3, r1]
    6192:	5ed0      	ldrsh	r0, [r2, r3]
    6194:	20a3      	movs	r0, #163	@ 0xa3
    6196:	0e85      	lsrs	r5, r0, #26
    6198:	00cc      	lsls	r4, r1, #3
    619a:	b900      	cbnz	r0, 0x619e
    619c:	a1e3      	add	r1, pc, #908	@ (adr r1, 0x652c)
    619e:	7000      	strb	r0, [r0, #0]
    61a0:	9814      	ldr	r0, [sp, #80]	@ 0x50
    61a2:	4626      	mov	r6, r4
    61a4:	d5a1      	bpl.n	0x60ea
    61a6:	ef20 2066 	vhadd.s32	q1, q0, q11
    61aa:	82c4      	strh	r4, [r0, #22]
    61ac:	00aa      	lsls	r2, r5, #2
    61ae:	8720      	strh	r0, [r4, #56]	@ 0x38
    61b0:	0a4f      	lsrs	r7, r1, #9
    61b2:	8146      	strh	r6, [r0, #10]
    61b4:	0d10      	lsrs	r0, r2, #20
    61b6:	c146      	stmia	r1!, {r1, r2, r6}
    61b8:	8070      	strh	r0, [r6, #2]
    61ba:	6cfd      	ldr	r5, [r7, #76]	@ 0x4c
    61bc:	c204      	stmia	r2!, {r2}
    61be:	9018      	str	r0, [sp, #96]	@ 0x60
    61c0:	4608      	mov	r0, r1
    61c2:	8c20      	ldrh	r0, [r4, #32]
    61c4:	9400      	str	r4, [sp, #0]
    61c6:	0460      	lsls	r0, r4, #17
    61c8:	38c2      	subs	r0, #194	@ 0xc2
    61ca:	09f0      	lsrs	r0, r6, #7
    61cc:	2046      	movs	r0, #70	@ 0x46
    61ce:	028c      	lsls	r4, r1, #10
    61d0:	60aa      	str	r2, [r5, #8]
    61d2:	c204      	stmia	r2!, {r2}
    61d4:	5058      	str	r0, [r3, r1]
    61d6:	460b      	mov	r3, r1
    61d8:	8c20      	ldrh	r0, [r4, #32]
    61da:	c004      	stmia	r0!, {r2}
    61dc:	0460      	lsls	r0, r4, #17
    61de:	78c2      	ldrb	r2, [r0, #3]
    61e0:	0cb0      	lsrs	r0, r6, #18
    61e2:	2046      	movs	r0, #70	@ 0x46
    61e4:	068c      	lsls	r4, r1, #26
    61e6:	60d5      	str	r5, [r2, #12]
    61e8:	c204      	stmia	r2!, {r2}
    61ea:	f088 460d 	eor.w	r6, r8, #2365587456	@ 0x8d000000
    61ee:	8c20      	ldrh	r0, [r4, #32]
    61f0:	e909 0460 	stmdb	r9, {r5, r6, sl}
    61f4:	a8c2      	add	r0, sp, #776	@ 0x308
    61f6:	0f30      	lsrs	r0, r6, #28
    61f8:	2046      	movs	r0, #70	@ 0x46
    61fa:	0b8c      	lsrs	r4, r1, #14
    61fc:	60fd      	str	r5, [r7, #12]
    61fe:	c204      	stmia	r2!, {r2}
    6200:	70c8      	strb	r0, [r1, #3]
    6202:	9910      	ldr	r1, [sp, #64]	@ 0x40
    6204:	0113      	lsls	r3, r2, #4
    6206:	000d      	movs	r5, r1
    6208:	201c      	movs	r0, #28
    620a:	82c4      	strh	r4, [r0, #22]
    620c:	5ef2      	ldrsh	r2, [r6, r3]
    620e:	fd99 1d00 	ldc2	13, cr1, [r9]
    6212:	1c00      	adds	r0, r0, #0
    6214:	c420      	stmia	r4!, {r5}
    6216:	f282 995e 	b.w	0xa884d6
    621a:	00e7      	lsls	r7, r4, #3
    621c:	002d      	movs	r5, r5
    621e:	201c      	movs	r0, #28
    6220:	82c4      	strh	r4, [r0, #22]
    6222:	5ef2      	ldrsh	r2, [r6, r3]
    6224:	d199      	bne.n	0x615a
    6226:	3d00      	subs	r5, #0
    6228:	1c00      	adds	r0, r0, #0
    622a:	c420      	stmia	r4!, {r5}
    622c:	f282 995e 	b.w	0xa884ec
    6230:	00bb      	lsls	r3, r7, #2
    6232:	004d      	lsls	r5, r1, #1
    6234:	201c      	movs	r0, #28
    6236:	82c4      	strh	r4, [r0, #22]
    6238:	5ef2      	ldrsh	r2, [r6, r3]
    623a:	a599      	add	r5, pc, #612	@ (adr r5, 0x64a0)
    623c:	5d00      	ldrb	r0, [r0, r4]
    623e:	1c00      	adds	r0, r0, #0
    6240:	c420      	stmia	r4!, {r5}
    6242:	f282 995e 	b.w	0xa88502
    6246:	008f      	lsls	r7, r1, #2
    6248:	006d      	lsls	r5, r5, #1
    624a:	201c      	movs	r0, #28
    624c:	82c4      	strh	r4, [r0, #22]
    624e:	5ef2      	ldrsh	r2, [r6, r3]
    6250:	7a98      	ldrb	r0, [r3, #10]
    6252:	07d0      	lsls	r0, r2, #31
    6254:	01c0      	lsls	r0, r0, #7
    6256:	2c42      	cmp	r4, #66	@ 0x42
    6258:	ef28 5985 	vmla.i32	d5, d24, d5
    625c:	9d06      	ldr	r5, [sp, #24]
    625e:	1c00      	adds	r0, r0, #0
    6260:	c420      	stmia	r4!, {r5}
    6262:	f282 985e 	b.w	0xa88322
    6266:	d050      	beq.n	0x630a
    6268:	c008      	stmia	r0!, {r3}
    626a:	4201      	tst	r1, r0
    626c:	282c      	cmp	r0, #44	@ 0x2c
    626e:	85ef      	strh	r7, [r5, #46]	@ 0x2e
    6270:	03b9      	lsls	r1, r7, #14
    6272:	00bd      	lsls	r5, r7, #2
    6274:	201c      	movs	r0, #28
    6276:	82c4      	strh	r4, [r0, #22]
    6278:	5ef2      	ldrsh	r2, [r6, r3]
    627a:	2698      	movs	r6, #152	@ 0x98
    627c:	0ad0      	lsrs	r0, r2, #11
    627e:	01c0      	lsls	r0, r0, #7
    6280:	2c42      	cmp	r4, #66	@ 0x42
    6282:	ef28 1985 	vmla.i32	d1, d24, d5
    6286:	cd01      	ldmia	r5!, {r0}
    6288:	1c00      	adds	r0, r0, #0
    628a:	c420      	stmia	r4!, {r5}
    628c:	f282 465e 			@ <UNDEFINED> instruction: 0xf282465e
    6290:	1080      	asrs	r0, r0, #2
    6292:	460d      	mov	r5, r1
    6294:	d0c0      	beq.n	0x6218
    6296:	cd90      	ldmia	r5!, {r4, r7}
    6298:	7ed9      	ldrb	r1, [r3, #27]
    629a:	4df2      	ldr	r5, [pc, #968]	@ (0x6664)
    629c:	df10      	svc	16
    629e:	67f8      	str	r0, [r7, #124]	@ 0x7c
    62a0:	f147 4e24 	adc.w	lr, r7, #2751463424	@ 0xa4000000
    62a4:	cceb      	ldmia	r4!, {r0, r1, r3, r5, r6, r7}
    62a6:	0aa9      	lsrs	r1, r5, #10
    62a8:	9ce3      	ldr	r4, [sp, #908]	@ 0x38c
    62aa:	7ea9      	ldrb	r1, [r5, #26]
    62ac:	ce23      	ldmia	r6!, {r0, r1, r5}
    62ae:	39e5      	subs	r1, #229	@ 0xe5
    62b0:	1933      	adds	r3, r6, r4
    62b2:	aae7      	add	r2, sp, #924	@ 0x39c
    62b4:	1ce2      	adds	r2, r4, #3
    62b6:	339f      	adds	r3, #159	@ 0x9f
    62b8:	4193      	sbcs	r3, r2
    62ba:	ea75 39dc 	orns	r9, r5, ip, lsr #15
    62be:	0933      	lsrs	r3, r6, #4
    62c0:	a9b6      	add	r1, sp, #728	@ 0x2d8
    62c2:	9dce      	ldr	r5, [sp, #824]	@ 0x338
    62c4:	9333      	str	r3, [sp, #204]	@ 0xcc
    62c6:	a6a1      	add	r6, pc, #644	@ (adr r6, 0x654c)
    62c8:	fcea 3339 	stc2l	3, cr3, [sl], #228	@ 0xe4
    62cc:	3019      	adds	r0, #25
    62ce:	e2aa      	b.n	0x6826
    62d0:	9f4c      	ldr	r7, [sp, #304]	@ 0x130
    62d2:	497a      	ldr	r1, [pc, #488]	@ (0x64bc)
    62d4:	d652      	bvs.n	0x637c
    62d6:	9fc3      	ldr	r7, [sp, #780]	@ 0x30c
    62d8:	9333      	str	r3, [sp, #204]	@ 0xcc
    62da:	d4b0      	bmi.n	0x623e
    62dc:	ce2a      	ldmia	r6!, {r1, r3, r5}
    62de:	39d9      	subs	r1, #217	@ 0xd9
    62e0:	0933      	lsrs	r3, r6, #4
    62e2:	acec      	add	r4, sp, #944	@ 0x3b0
    62e4:	9dce      	ldr	r5, [sp, #824]	@ 0x338
    62e6:	9333      	str	r3, [sp, #204]	@ 0xcc
    62e8:	7931      	ldrb	r1, [r6, #4]
    62ea:	ce2a      	ldmia	r6!, {r1, r3, r5}
    62ec:	a9eb      	add	r1, sp, #940	@ 0x3ac
    62ee:	2358      	movs	r3, #88	@ 0x58
    62f0:	3a65      	subs	r2, #101	@ 0x65
    62f2:	39fc      	subs	r1, #252	@ 0xfc
    62f4:	1933      	adds	r3, r6, r4
    62f6:	aaa4      	add	r2, sp, #656	@ 0x290
    62f8:	ace2      	add	r4, sp, #904	@ 0x388
    62fa:	3a9e      	subs	r2, #158	@ 0x9e
    62fc:	526c      	strh	r4, [r5, r1]
    62fe:	bea6      	bkpt	0x00a6
    6300:	1a9f      	subs	r7, r3, r2
    6302:	5247      	strh	r7, [r0, r1]
    6304:	c2c6      	stmia	r2!, {r1, r2, r6, r7}
    6306:	0a9f      	lsrs	r7, r3, #10
    6308:	5277      	strh	r7, [r6, r1]
    630a:	c006      	stmia	r0!, {r1, r2}
    630c:	5a9f      	ldrh	r7, [r3, r2]
    630e:	e27e      	b.n	0x680e
    6310:	9eac      	ldr	r6, [sp, #688]	@ 0x2b0
    6312:	2e7a      	cmp	r6, #122	@ 0x7a
    6314:	0652      	lsls	r2, r2, #25
    6316:	9fc0      	ldr	r7, [sp, #768]	@ 0x300
    6318:	9333      	str	r3, [sp, #204]	@ 0xcc
    631a:	ad31      	add	r5, sp, #196	@ 0xc4
    631c:	652a      	str	r2, [r5, #80]	@ 0x50
    631e:	fc24 06a9 	stc2	6, cr0, [r4], #-676	@ 0xfffffd5c
    6322:	6523      	str	r3, [r4, #80]	@ 0x50
    6324:	fbfe 3ba9 			@ <UNDEFINED> instruction: 0xfbfe3ba9
    6328:	ce22      	ldmia	r6!, {r1, r5}
    632a:	a9d2      	add	r1, sp, #840	@ 0x348
    632c:	25ea      	movs	r5, #234	@ 0xea
    632e:	0065      	lsls	r5, r4, #1
    6330:	a9f8      	add	r1, sp, #992	@ 0x3e0
    6332:	2558      	movs	r5, #88	@ 0x58
    6334:	3165      	adds	r1, #101	@ 0x65
    6336:	39fc      	subs	r1, #252	@ 0xfc
    6338:	0933      	lsrs	r3, r6, #4
    633a:	ac0e      	add	r4, sp, #56	@ 0x38
    633c:	c652      	stmia	r6!, {r1, r4, r6}
    633e:	9fbf      	ldr	r7, [sp, #764]	@ 0x2fc
    6340:	489a      	ldr	r0, [pc, #616]	@ (0x65ac)
    6342:	0652      	lsls	r2, r2, #25
    6344:	9f80      	ldr	r7, [sp, #512]	@ 0x200
    6346:	2cfa      	cmp	r4, #250	@ 0xfa
    6348:	9ace      	ldr	r2, [sp, #824]	@ 0x338
    634a:	37da      	adds	r7, #218	@ 0xda
    634c:	5652      	ldrsb	r2, [r2, r1]
    634e:	9f3e      	ldr	r7, [sp, #248]	@ 0xf8
    6350:	27fa      	movs	r7, #250	@ 0xfa
    6352:	c652      	stmia	r6!, {r1, r4, r6}
    6354:	9fc1      	ldr	r7, [sp, #772]	@ 0x304
    6356:	9333      	str	r3, [sp, #204]	@ 0xcc
    6358:	79d1      	ldrb	r1, [r2, #7]
    635a:	fcea 3339 	stc2l	3, cr3, [sl], #228	@ 0xe4
    635e:	d319      	bcc.n	0x6394
    6360:	e2a7      	b.n	0x68b2
    6362:	9f5c      	ldr	r7, [sp, #368]	@ 0x170
    6364:	9333      	str	r3, [sp, #204]	@ 0xcc
    6366:	b0e1      	sub	sp, #388	@ 0x184
    6368:	652a      	str	r2, [r5, #80]	@ 0x50
    636a:	fc0c 3339 	stc2	3, cr3, [ip], {57}	@ 0x39
    636e:	c919      	ldmia	r1!, {r0, r3, r4}
    6370:	cea7      	ldmia	r6!, {r0, r1, r2, r5, r7}
    6372:	339f      	adds	r3, #159	@ 0x9f
    6374:	f193 2a7f 			@ <UNDEFINED> instruction: 0xf1932a7f
    6378:	e5ce      	b.n	0x5f18
    637a:	3339      	adds	r3, #57	@ 0x39
    637c:	a119      	add	r1, pc, #100	@ (adr r1, 0x63e4)
    637e:	52ac      	strh	r4, [r5, r2]
    6380:	c106      	stmia	r1!, {r1, r2}
    6382:	339f      	adds	r3, #159	@ 0x9f
    6384:	2193      	movs	r1, #147	@ 0x93
    6386:	2a85      	cmp	r2, #133	@ 0x85
    6388:	0065      	lsls	r5, r4, #1
    638a:	a9f8      	add	r1, sp, #992	@ 0x3e0
    638c:	26fc      	movs	r6, #252	@ 0xfc
    638e:	0065      	lsls	r5, r4, #1
    6390:	a9fc      	add	r1, sp, #1008	@ 0x3f0
    6392:	276e      	movs	r7, #110	@ 0x6e
    6394:	0065      	lsls	r5, r4, #1
    6396:	39f4      	subs	r1, #244	@ 0xf4
    6398:	1933      	adds	r3, r6, r4
    639a:	ac66      	add	r4, sp, #408	@ 0x198
    639c:	0652      	lsls	r2, r2, #25
    639e:	9fc0      	ldr	r7, [sp, #768]	@ 0x300
    63a0:	9333      	str	r3, [sp, #204]	@ 0xcc
    63a2:	c981      	ldmia	r1!, {r0, r7}
    63a4:	652a      	str	r2, [r5, #80]	@ 0x50
    63a6:	f400 3339 	and.w	r3, r0, #189440	@ 0x2e400
    63aa:	a709      	add	r7, pc, #36	@ (adr r7, 0x63d0)
    63ac:	e2ac      	b.n	0x6908
    63ae:	9e4c      	ldr	r6, [sp, #304]	@ 0x130
    63b0:	4afa      	ldr	r2, [pc, #1000]	@ (0x679c)
    63b2:	c652      	stmia	r6!, {r1, r4, r6}
    63b4:	9fc1      	ldr	r7, [sp, #772]	@ 0x304
    63b6:	9333      	str	r3, [sp, #204]	@ 0xcc
    63b8:	ce61      	ldmia	r6, {r0, r5, r6}
    63ba:	652a      	str	r2, [r5, #80]	@ 0x50
    63bc:	fc0b 3339 	stc2	3, cr3, [fp], {57}	@ 0x39
    63c0:	0919      	lsrs	r1, r3, #4
    63c2:	e2a8      	b.n	0x6916
    63c4:	9f5c      	ldr	r7, [sp, #368]	@ 0x170
    63c6:	9333      	str	r3, [sp, #204]	@ 0xcc
    63c8:	d100      	bne.n	0x63cc
    63ca:	652a      	str	r2, [r5, #80]	@ 0x50
    63cc:	fc15 3339 	ldc2	3, cr3, [r5], {57}	@ 0x39
    63d0:	3219      	adds	r2, #25
    63d2:	e2ac      	b.n	0x692e
    63d4:	9f6c      	ldr	r7, [sp, #432]	@ 0x1b0
    63d6:	9333      	str	r3, [sp, #204]	@ 0xcc
    63d8:	8481      	strh	r1, [r0, #36]	@ 0x24
    63da:	ce2a      	ldmia	r6!, {r1, r3, r5}
    63dc:	39f5      	subs	r1, #245	@ 0xf5
    63de:	0933      	lsrs	r3, r6, #4
    63e0:	ad42      	add	r5, sp, #264	@ 0x108
    63e2:	b652      			@ <UNDEFINED> instruction: 0xb652
    63e4:	9fc0      	ldr	r7, [sp, #768]	@ 0x300
    63e6:	2b4a      	cmp	r3, #74	@ 0x4a
    63e8:	5ce2      	ldrb	r2, [r4, r3]
    63ea:	339f      	adds	r3, #159	@ 0x9f
    63ec:	4193      	sbcs	r3, r2
    63ee:	2ad6      	cmp	r2, #214	@ 0xd6
    63f0:	0b65      	lsrs	r5, r4, #13
    63f2:	39fc      	subs	r1, #252	@ 0xfc
    63f4:	1933      	adds	r3, r6, r4
    63f6:	ac5d      	add	r4, sp, #372	@ 0x174
    63f8:	5ce2      	ldrb	r2, [r4, r3]
    63fa:	339f      	adds	r3, #159	@ 0x9f
    63fc:	d093      	beq.n	0x6326
    63fe:	2ada      	cmp	r2, #218	@ 0xda
    6400:	0b65      	lsrs	r5, r4, #13
    6402:	39fc      	subs	r1, #252	@ 0xfc
    6404:	1933      	adds	r3, r6, r4
    6406:	ad53      	add	r5, sp, #332	@ 0x14c
    6408:	0652      	lsls	r2, r2, #25
    640a:	9fc0      	ldr	r7, [sp, #768]	@ 0x300
    640c:	9333      	str	r3, [sp, #204]	@ 0xcc
    640e:	d5c0      	bpl.n	0x6392
    6410:	652a      	str	r2, [r5, #80]	@ 0x50
    6412:	d7d9      	bvc.n	0x63c8
    6414:	3339      	adds	r3, #57	@ 0x39
    6416:	5009      	str	r1, [r1, r0]
    6418:	52ab      	strh	r3, [r5, r2]
    641a:	8006      	strh	r6, [r0, #0]
    641c:	339f      	adds	r3, #159	@ 0x9f
    641e:	5193      	str	r3, [r2, r6]
    6420:	2adb      	cmp	r2, #219	@ 0xdb
    6422:	0065      	lsls	r5, r4, #1
    6424:	39f8      	subs	r1, #248	@ 0xf8
    6426:	0933      	lsrs	r3, r6, #4
    6428:	adcf      	add	r5, sp, #828	@ 0x33c
    642a:	8093      	strh	r3, [r2, #4]
    642c:	1ade      	subs	r6, r3, r3
    642e:	ed03 24e5 	cfstrs	mvf2, [r3, #-916]	@ 0xfffffc6c
    6432:	0286      	lsls	r6, r0, #10
    6434:	6447      	str	r7, [r0, #68]	@ 0x44
    6436:	4714      	bxns	r2
    6438:	4460      	add	r0, ip
    643a:	f0c1 1456 			@ <UNDEFINED> instruction: 0xf0c11456
    643e:	10fd      	asrs	r5, r7, #3
    6440:	3ba3      	subs	r3, #163	@ 0xa3
    6442:	1931      	adds	r1, r6, r4
    6444:	adef      	add	r5, sp, #956	@ 0x3bc
    6446:	624e      	str	r6, [r1, #36]	@ 0x24
    6448:	7028      	strb	r0, [r5, #0]
    644a:	4644      	mov	r4, r8
    644c:	28d4      	cmp	r0, #212	@ 0xd4
    644e:	1250      	asrs	r0, r2, #9
    6450:	cdf0      	ldmia	r5, {r4, r5, r6, r7}
    6452:	018d      	lsls	r5, r1, #6
    6454:	2106      	movs	r1, #6
    6456:	6352      	str	r2, [r2, #52]	@ 0x34
    6458:	000a      	movs	r2, r1
    645a:	1156      	asrs	r6, r2, #5
    645c:	b243      	sxtb	r3, r0
    645e:	1931      	adds	r1, r6, r4
    6460:	adef      	add	r5, sp, #956	@ 0x3bc
    6462:	6b7e      	ldr	r6, [r7, #52]	@ 0x34
    6464:	4214      	tst	r4, r2
    6466:	0efe      	lsrs	r6, r7, #27
    6468:	f193 eade 	blx	0x199a28
    646c:	8624      	strh	r4, [r4, #48]	@ 0x30
    646e:	4702      	bx	r0
    6470:	d044      	beq.n	0x64fc
    6472:	56aa      	ldrsb	r2, [r5, r2]
    6474:	1231      	asrs	r1, r6, #8
    6476:	1639      	asrs	r1, r7, #24
    6478:	a4b3      	add	r4, pc, #716	@ (adr r4, 0x6748)
    647a:	1932      	adds	r2, r6, r4
    647c:	adef      	add	r5, sp, #956	@ 0x3bc
    647e:	6b7e      	ldr	r6, [r7, #52]	@ 0x34
    6480:	4214      	tst	r4, r2
    6482:	0efe      	lsrs	r6, r7, #27
    6484:	f193 aade 	bvs.w	0xd9a44
    6488:	6010      	str	r0, [r2, #0]
    648a:	2115      	movs	r1, #21
    648c:	1af5      	subs	r5, r6, r3
    648e:	f193 aade 	bvs.w	0xd9a4e
    6492:	6020      	str	r0, [r4, #0]
    6494:	2115      	movs	r1, #21
    6496:	1aeb      	subs	r3, r5, r3
    6498:	f193 aade 	bvs.w	0xd9a58
    649c:	6040      	str	r0, [r0, #4]
    649e:	2115      	movs	r1, #21
    64a0:	1ae1      	subs	r1, r4, r3
    64a2:	f193 aade 	bvs.w	0xd9a62
    64a6:	6050      	str	r0, [r2, #4]
    64a8:	2115      	movs	r1, #21
    64aa:	1ad7      	subs	r7, r2, r3
    64ac:	f193 eade 	blx	0x199a6c
    64b0:	8624      	strh	r4, [r4, #48]	@ 0x30
    64b2:	0502      	lsls	r2, r0, #20
    64b4:	3bfb      	subs	r3, #251	@ 0xfb
    64b6:	fbcd 020b 	smlal	r0, r2, sp, fp
    64ba:	d30f      	bcc.n	0x64dc
    64bc:	bfbc      	itt	lt
    64be:	b010      	addlt	sp, #64	@ 0x40
    64c0:	d984      	bls.n	0x63cc	@ unpredictable <IT:lt>
    64c2:	00a6      	lsls	r6, r4, #2
    64c4:	1310      	asrs	r0, r2, #12
    64c6:	a3f0      	add	r3, pc, #960	@ (adr r3, 0x6888)
    64c8:	1000      	asrs	r0, r0, #32
    64ca:	f093 00a3 	eors.w	r0, r3, #163	@ 0xa3
    64ce:	1010      	asrs	r0, r2, #32
    64d0:	11b1      	asrs	r1, r6, #6
    64d2:	dc59      	bgt.n	0x6588
    64d4:	f018 c310 	blx	0xc1eaf8
    64d8:	129a      	asrs	r2, r3, #10
    64da:	ac90      	add	r4, sp, #576	@ 0x240
    64dc:	4c98      	ldr	r4, [pc, #608]	@ (0x6740)
    64de:	6b7e      	ldr	r6, [r7, #52]	@ 0x34
    64e0:	4214      	tst	r4, r2
    64e2:	0efe      	lsrs	r6, r7, #27
    64e4:	3c98      	subs	r4, #152	@ 0x98
    64e6:	000a      	movs	r2, r1
    64e8:	de21      	udf	#33	@ 0x21
    64ea:	0a3e      	lsrs	r6, r7, #8
    64ec:	2100      	movs	r1, #0
    64ee:	3ee6      	subs	r6, #230	@ 0xe6
    64f0:	000a      	movs	r2, r1
    64f2:	ed11 e01a 	ldc	0, cr14, [r1, #-104]	@ 0xffffff98
    64f6:	98aa      	ldr	r0, [sp, #680]	@ 0x2a8
    64f8:	0416      	lsls	r6, r2, #16
    64fa:	1bf9      	subs	r1, r7, r7
    64fc:	eca3 4313 	stc	3, cr4, [r3], #76	@ 0x4c
    6500:	129c      	asrs	r4, r3, #10
    6502:	aa10      	add	r2, sp, #64	@ 0x40
    6504:	fb21 933f 			@ <UNDEFINED> instruction: 0xfb21933f
    6508:	def1      	udf	#241	@ 0xf1
    650a:	24ea      	movs	r4, #234	@ 0xea
    650c:	0286      	lsls	r6, r0, #10
    650e:	fc05 ed3b 	stc2	13, cr14, [r5], {59}	@ 0x3b
    6512:	0bfc      	lsrs	r4, r7, #15
    6514:	0600      	lsls	r0, r0, #24
    6516:	2321      	movs	r3, #33	@ 0x21
    6518:	212e      	movs	r1, #46	@ 0x2e
    651a:	29aa      	cmp	r1, #170	@ 0xaa
    651c:	f193 eade 	blx	0x199adc
    6520:	8624      	strh	r4, [r4, #48]	@ 0x30
    6522:	4702      	bx	r0
    6524:	4464      	add	r4, ip
    6526:	008d      	lsls	r5, r1, #2
    6528:	2112      	movs	r1, #18
    652a:	3fe0      	subs	r7, #224	@ 0xe0
    652c:	0711      	lsls	r1, r2, #28
    652e:	1939      	adds	r1, r7, r4
    6530:	adef      	add	r5, sp, #956	@ 0x3bc
    6532:	6b7e      	ldr	r6, [r7, #52]	@ 0x34
    6534:	4214      	tst	r4, r2
    6536:	0efe      	lsrs	r6, r7, #27
    6538:	f193 1ade 			@ <UNDEFINED> instruction: 0xf1931ade
    653c:	fb43 1933 			@ <UNDEFINED> instruction: 0xfb431933
    6540:	adef      	add	r5, sp, #956	@ 0x3bc
    6542:	624e      	str	r6, [r1, #36]	@ 0x24
    6544:	7028      	strb	r0, [r5, #0]
    6546:	0444      	lsls	r4, r0, #17
    6548:	6ac2      	ldr	r2, [r0, #44]	@ 0x2c
    654a:	2315      	movs	r3, #21
    654c:	4b84      	ldr	r3, [pc, #528]	@ (0x6760)
    654e:	4461      	add	r1, ip
    6550:	4005      	ands	r5, r0
    6552:	b01c      	add	sp, #112	@ 0x70
    6554:	93ab      	str	r3, [sp, #684]	@ 0x2ac
    6556:	def1      	udf	#241	@ 0xf1
    6558:	1efa      	subs	r2, r7, #3
    655a:	000c      	movs	r4, r1
    655c:	d322      	bcc.n	0x65a4
    655e:	4463      	add	r3, ip
    6560:	4621      	mov	r1, r4
    6562:	472e      	bx	r5
    6564:	5465      	strb	r5, [r4, r1]
    6566:	018d      	lsls	r5, r1, #6
    6568:	4615      	mov	r5, r2
    656a:	4314      	orrs	r4, r2
    656c:	13da      	asrs	r2, r3, #15
    656e:	aa00      	add	r2, sp, #0
    6570:	f193 eade 	blx	0x199b30
    6574:	46b7      	mov	pc, r6
    6576:	e421      	b.n	0x5dbc
    6578:	30ef      	adds	r0, #239	@ 0xef
    657a:	ef19 7ead 	vceq.f16	d7, d25, d29
    657e:	146b      	asrs	r3, r5, #17
    6580:	fe42 930e 	cdp2	3, 4, cr9, cr2, cr14, {0}
    6584:	def1      	udf	#241	@ 0xf1
    6586:	00aa      	lsls	r2, r5, #2
    6588:	4470      	add	r0, lr
    658a:	8699      	strh	r1, [r3, #52]	@ 0x34
    658c:	4460      	add	r0, ip
    658e:	035a      	lsls	r2, r3, #13
    6590:	def2      	udf	#242	@ 0xf2
    6592:	4b0e      	ldr	r3, [pc, #56]	@ (0x65cc)
    6594:	8524      	strh	r4, [r4, #40]	@ 0x28
    6596:	4e94      	ldr	r6, [pc, #592]	@ (0x67e8)
    6598:	3862      	subs	r0, #98	@ 0x62
    659a:	1230      	asrs	r0, r6, #8
    659c:	5bb8      	ldrh	r0, [r7, r6]
    659e:	a446      	add	r4, pc, #280	@ (adr r4, 0x66b8)
    65a0:	2035      	movs	r0, #53	@ 0x35
    65a2:	edef 44b0 	cfstrd	mvd4, [pc, #704]!	@ 0x6864
    65a6:	6852      	ldr	r2, [r2, #4]
    65a8:	e019      	b.n	0x65de
    65aa:	8624      	strh	r4, [r4, #48]	@ 0x30
    65ac:	2304      	movs	r3, #4
    65ae:	6b81      	ldr	r1, [r0, #56]	@ 0x38
    65b0:	4463      	add	r3, ip
    65b2:	035a      	lsls	r2, r3, #13
    65b4:	def2      	udf	#242	@ 0xf2
    65b6:	4b0e      	ldr	r3, [pc, #56]	@ (0x65f0)
    65b8:	8524      	strh	r4, [r4, #40]	@ 0x28
    65ba:	0296      	lsls	r6, r2, #10
    65bc:	624e      	str	r6, [r1, #36]	@ 0x24
    65be:	3058      	adds	r0, #88	@ 0x58
    65c0:	b812      			@ <UNDEFINED> instruction: 0xb812
    65c2:	4e11      	ldr	r6, [pc, #68]	@ (0x6608)
    65c4:	2962      	cmp	r1, #98	@ 0x62
    65c6:	4460      	add	r0, ip
    65c8:	8def      	ldrh	r7, [r5, #46]	@ 0x2e
    65ca:	6149      	str	r1, [r1, #20]
    65cc:	0844      	lsrs	r4, r0, #1
    65ce:	60d1      	str	r1, [r2, #12]
    65d0:	0c44      	lsrs	r4, r0, #17
    65d2:	d90c      	bls.n	0x65ee
    65d4:	af6e      	add	r7, sp, #440	@ 0x1b8
    65d6:	6120      	str	r0, [r4, #16]
    65d8:	2115      	movs	r1, #21
    65da:	19a7      	adds	r7, r4, r6
    65dc:	f193 fade 	bl	0x199b9c
    65e0:	0c1e      	lsrs	r6, r3, #16
    65e2:	2200      	movs	r2, #0
    65e4:	e353      	b.n	0x6c8e
    65e6:	8624      	strh	r4, [r4, #48]	@ 0x30
    65e8:	0502      	lsls	r2, r0, #20
    65ea:	3be2      	subs	r3, #226	@ 0xe2
    65ec:	e2ed      	b.n	0x6bca
    65ee:	010b      	lsls	r3, r1, #4
    65f0:	2106      	movs	r1, #6
    65f2:	e12e      	b.n	0x6852
    65f4:	32c0      	adds	r2, #192	@ 0xc0
    65f6:	36d2      	adds	r6, #210	@ 0xd2
    65f8:	10a3      	asrs	r3, r4, #2
    65fa:	97c3      	str	r7, [sp, #780]	@ 0x30c
    65fc:	1931      	adds	r1, r6, r4
    65fe:	adef      	add	r5, sp, #956	@ 0x3bc
    6600:	6b7e      	ldr	r6, [r7, #52]	@ 0x34
    6602:	4214      	tst	r4, r2
    6604:	0efe      	lsrs	r6, r7, #27
    6606:	f193 fade 	bl	0x199bc6
    660a:	0c1e      	lsrs	r6, r3, #16
    660c:	2200      	movs	r2, #0
    660e:	1133      	asrs	r3, r6, #4
    6610:	f733 8315 	bgt.w	0xfff39c3e
    6614:	3196      	adds	r1, #150	@ 0x96
    6616:	ef19 7ead 	vceq.f16	d7, d25, d29
    661a:	146b      	asrs	r3, r5, #17
    661c:	fe42 930e 	cdp2	3, 4, cr9, cr2, cr14, {0}
    6620:	def1      	udf	#241	@ 0xf1
    6622:	1efa      	subs	r2, r7, #3
    6624:	000c      	movs	r4, r1
    6626:	9322      	str	r3, [sp, #136]	@ 0x88
    6628:	24e5      	movs	r4, #229	@ 0xe5
    662a:	0286      	lsls	r6, r0, #10
    662c:	0005      	movs	r5, r0
    662e:	ed3c 0c00 	ldc	12, cr0, [ip, #-0]
    6632:	0c00      	lsrs	r0, r0, #16
    6634:	5811      	ldr	r1, [r2, r0]
    6636:	1938      	adds	r0, r7, r4
    6638:	adef      	add	r5, sp, #956	@ 0x3bc
    663a:	0ed3      	lsrs	r3, r2, #27
    663c:	10c0      	asrs	r0, r0, #3
    663e:	a110      	add	r1, pc, #64	@ (adr r1, 0x6680)
    6640:	1010      	asrs	r0, r2, #32
    6642:	ecc3 1933 			@ <UNDEFINED> instruction: 0xecc31933
    6646:	adef      	add	r5, sp, #956	@ 0x3bc
    6648:	0051      	lsls	r1, r2, #1
    664a:	e00c      	b.n	0x6666
    664c:	46b7      	mov	pc, r6
    664e:	e421      	b.n	0x5e94
    6650:	30ef      	adds	r0, #239	@ 0xef
    6652:	ef19 7ead 	vceq.f16	d7, d25, d29
    6656:	146b      	asrs	r3, r5, #17
    6658:	fe42 930e 	cdp2	3, 4, cr9, cr2, cr14, {0}
    665c:	def1      	udf	#241	@ 0xf1
    665e:	24ea      	movs	r4, #234	@ 0xea
    6660:	0286      	lsls	r6, r0, #10
    6662:	f447 0c1e 	orr.w	ip, r7, #10354688	@ 0x9e0000
    6666:	2200      	movs	r2, #0
    6668:	6473      	str	r3, [r6, #68]	@ 0x44
    666a:	8d44      	ldrh	r4, [r0, #42]	@ 0x2a
    666c:	2b00      	cmp	r3, #0
    666e:	0321      	lsls	r1, r4, #12
    6670:	8d5a      	ldrh	r2, [r3, #42]	@ 0x2a
    6672:	1f01      	subs	r1, r0, #4
    6674:	a121      	add	r1, pc, #132	@ (adr r1, 0x66fc)
    6676:	0a53      	lsrs	r3, r2, #9
    6678:	2100      	movs	r1, #0
    667a:	59d5      	ldr	r5, [r2, r7]
    667c:	1446      	asrs	r6, r0, #17
    667e:	8950      	ldrh	r0, [r2, #10]
    6680:	f193 eade 	blx	0x199c40
    6684:	46b7      	mov	pc, r6
    6686:	e421      	b.n	0x5ecc
    6688:	30ef      	adds	r0, #239	@ 0xef
    668a:	ef19 04ad 	vshl.s16	d0, d29, d25
    668e:	6ac2      	ldr	r2, [r0, #44]	@ 0x2c
    6690:	2315      	movs	r3, #21
    6692:	6b84      	ldr	r4, [r0, #56]	@ 0x38
    6694:	4464      	add	r4, ip
    6696:	038d      	lsls	r5, r1, #14
    6698:	211f      	movs	r1, #31
    669a:	538e      	strh	r6, [r1, r6]
    669c:	03cc      	lsls	r4, r1, #15
    669e:	8800      	ldrh	r0, [r0, #0]
    66a0:	211e      	movs	r1, #30
    66a2:	534a      	strh	r2, [r1, r5]
    66a4:	4121      	asrs	r1, r4
    66a6:	fe3f 4467 	cdp2	4, 3, cr4, cr15, cr7, {3}
    66aa:	008d      	lsls	r5, r1, #2
    66ac:	2106      	movs	r1, #6
    66ae:	5c89      	ldrb	r1, [r1, r2]
    66b0:	1446      	asrs	r6, r0, #17
    66b2:	8d20      	ldrh	r0, [r4, #40]	@ 0x28
    66b4:	f193 eade 	blx	0x199c74
    66b8:	46b7      	mov	pc, r6
    66ba:	e421      	b.n	0x5f00
    66bc:	30ef      	adds	r0, #239	@ 0xef
    66be:	ef19 4ead 	vceq.f16	d4, d25, d29
    66c2:	2862      	cmp	r0, #98	@ 0x62
    66c4:	4470      	add	r0, lr
    66c6:	c1ef      	stmia	r1!, {r0, r1, r2, r3, r5, r6, r7}
    66c8:	2000      	movs	r0, #0
    66ca:	5832      	ldr	r2, [r6, r0]
    66cc:	c446      	stmia	r4!, {r1, r2, r6}
    66ce:	2010      	movs	r0, #16
    66d0:	4c22      	ldr	r4, [pc, #136]	@ (0x675c)
    66d2:	624e      	str	r6, [r1, #36]	@ 0x24
    66d4:	1028      	asrs	r0, r5, #32
    66d6:	ff53 5475 	vqshl.u16	<illegal reg q10.5>, <illegal reg q10.5>, <illegal reg q1.5>
    66da:	d546      	bpl.n	0x676a
    66dc:	0018      	movs	r0, r3
    66de:	4462      	add	r2, ip
    66e0:	008d      	lsls	r5, r1, #2
    66e2:	0a0a      	lsrs	r2, r1, #8
    66e4:	2100      	movs	r1, #0
    66e6:	5fcf      	ldrsh	r7, [r1, r7]
    66e8:	8621      	strh	r1, [r4, #48]	@ 0x30
    66ea:	93f7      	str	r3, [sp, #988]	@ 0x3dc
    66ec:	def1      	udf	#241	@ 0xf1
    66ee:	b7ea      			@ <UNDEFINED> instruction: 0xb7ea
    66f0:	2146      	movs	r1, #70	@ 0x46
    66f2:	efe4 1930 	vqshrn.s64	d17, q8, #28
    66f6:	adef      	add	r5, sp, #956	@ 0x3bc
    66f8:	6b7e      	ldr	r6, [r7, #52]	@ 0x34
    66fa:	4214      	tst	r4, r2
    66fc:	0efe      	lsrs	r6, r7, #27
    66fe:	f193 aade 	bvs.w	0xd9cbe
    6702:	6060      	str	r0, [r4, #4]
    6704:	2115      	movs	r1, #21
    6706:	187b      	adds	r3, r7, r1
    6708:	f193 fade 	bl	0x199cc8
    670c:	0c1e      	lsrs	r6, r3, #16
    670e:	2200      	movs	r2, #0
    6710:	e5f3      	b.n	0x62fa
    6712:	ce24      	ldmia	r6!, {r2, r5}
    6714:	c0e2      	stmia	r0!, {r1, r5, r6, r7}
    6716:	f4dc de8f 	bl	0xff4e3438
    671a:	24e4      	movs	r4, #228	@ 0xe4
    671c:	e2ce      	b.n	0x6cbc
    671e:	4cc0      	ldr	r4, [pc, #768]	@ (0x6a20)
    6720:	200b      	movs	r0, #11
    6722:	3a12      	subs	r2, #18
    6724:	e24e      	b.n	0x6bc4
    6726:	0e2c      	lsrs	r4, r5, #24
    6728:	2121      	movs	r1, #33	@ 0x21
    672a:	473f      	bx	r7
    672c:	5465      	strb	r5, [r4, r1]
    672e:	018d      	lsls	r5, r1, #6
    6730:	210d      	movs	r1, #13
    6732:	f742 f193 	bl	0xffb48a5c
    6736:	eade 46b7 			@ <UNDEFINED> instruction: 0xeade46b7
    673a:	e421      	b.n	0x5f80
    673c:	30ef      	adds	r0, #239	@ 0xef
    673e:	ef19 7ead 	vceq.f16	d7, d25, d29
    6742:	146b      	asrs	r3, r5, #17
    6744:	fe42 930e 	cdp2	3, 4, cr9, cr2, cr14, {0}
    6748:	def1      	udf	#241	@ 0xf1
    674a:	70aa      	strb	r2, [r5, #2]
    674c:	1560      	asrs	r0, r4, #21
    674e:	3221      	adds	r2, #33	@ 0x21
    6750:	9318      	str	r3, [sp, #96]	@ 0x60
    6752:	def1      	udf	#241	@ 0xf1
    6754:	1efa      	subs	r2, r7, #3
    6756:	000c      	movs	r4, r1
    6758:	f322 24e5 			@ <UNDEFINED> instruction: 0xf32224e5
    675c:	e2ce      	b.n	0x6cfc
    675e:	0cc0      	lsrs	r0, r0, #19
    6760:	8019      	strh	r1, [r3, #0]
    6762:	e4dd      	b.n	0x6120
    6764:	ce24      	ldmia	r6!, {r2, r5}
    6766:	c0e2      	stmia	r0!, {r1, r5, r6, r7}
    6768:	9c4c      	ldr	r4, [sp, #304]	@ 0x130
    676a:	2220      	movs	r2, #32
    676c:	4e3a      	ldr	r6, [pc, #232]	@ (0x6858)
    676e:	2ce2      	cmp	r4, #226	@ 0xe2
    6770:	210e      	movs	r1, #14
    6772:	3f20      	subs	r7, #32
    6774:	6547      	str	r7, [r0, #84]	@ 0x54
    6776:	8d54      	ldrh	r4, [r2, #42]	@ 0x2a
    6778:	0d01      	lsrs	r1, r0, #20
    677a:	fe21 93f6 	mcr2	3, 1, r9, cr1, cr6, {7}
    677e:	def1      	udf	#241	@ 0xf1
    6780:	b7ea      			@ <UNDEFINED> instruction: 0xb7ea
    6782:	2146      	movs	r1, #70	@ 0x46
    6784:	efe4 1930 	vqshrn.s64	d17, q8, #28
    6788:	adef      	add	r5, sp, #956	@ 0x3bc
    678a:	6b7e      	ldr	r6, [r7, #52]	@ 0x34
    678c:	4214      	tst	r4, r2
    678e:	0efe      	lsrs	r6, r7, #27
    6790:	f193 aade 	bvs.w	0xd9d50
    6794:	6080      	str	r0, [r0, #8]
    6796:	2115      	movs	r1, #21
    6798:	17e9      	asrs	r1, r5, #31
    679a:	f193 fade 	bl	0x199d5a
    679e:	0c1e      	lsrs	r6, r3, #16
    67a0:	2200      	movs	r2, #0
    67a2:	e393      	b.n	0x6ecc
    67a4:	8624      	strh	r4, [r4, #48]	@ 0x30
    67a6:	2103      	movs	r1, #3
    67a8:	3f23      	subs	r7, #35	@ 0x23
    67aa:	6547      	str	r7, [r0, #84]	@ 0x54
    67ac:	8d54      	ldrh	r4, [r2, #42]	@ 0x2a
    67ae:	0d01      	lsrs	r1, r0, #20
    67b0:	cd21      	ldmia	r5, {r0, r5}
    67b2:	93f6      	str	r3, [sp, #984]	@ 0x3d8
    67b4:	def1      	udf	#241	@ 0xf1
    67b6:	b7ea      			@ <UNDEFINED> instruction: 0xb7ea
    67b8:	2146      	movs	r1, #70	@ 0x46
    67ba:	efe4 1930 	vqshrn.s64	d17, q8, #28
    67be:	adef      	add	r5, sp, #956	@ 0x3bc
    67c0:	6b7e      	ldr	r6, [r7, #52]	@ 0x34
    67c2:	4214      	tst	r4, r2
    67c4:	0efe      	lsrs	r6, r7, #27
    67c6:	f193 aade 	bvs.w	0xd9d86
    67ca:	6090      	str	r0, [r2, #8]
    67cc:	2115      	movs	r1, #21
    67ce:	17b3      	asrs	r3, r6, #30
    67d0:	f193 fade 	bl	0x199d90
    67d4:	0c1e      	lsrs	r6, r3, #16
    67d6:	2200      	movs	r2, #0
    67d8:	e393      	b.n	0x6f02
    67da:	8624      	strh	r4, [r4, #48]	@ 0x30
    67dc:	2103      	movs	r1, #3
    67de:	3f1e      	subs	r7, #30
    67e0:	6547      	str	r7, [r0, #84]	@ 0x54
    67e2:	8d54      	ldrh	r4, [r2, #42]	@ 0x2a
    67e4:	0d01      	lsrs	r1, r0, #20
    67e6:	9c21      	ldr	r4, [sp, #132]	@ 0x84
    67e8:	93f6      	str	r3, [sp, #984]	@ 0x3d8
    67ea:	def1      	udf	#241	@ 0xf1
    67ec:	b7ea      			@ <UNDEFINED> instruction: 0xb7ea
    67ee:	2146      	movs	r1, #70	@ 0x46
    67f0:	efe4 1930 	vqshrn.s64	d17, q8, #28
    67f4:	adef      	add	r5, sp, #956	@ 0x3bc
    67f6:	6b7e      	ldr	r6, [r7, #52]	@ 0x34
    67f8:	4214      	tst	r4, r2
    67fa:	0efe      	lsrs	r6, r7, #27
    67fc:	f193 aade 	bvs.w	0xd9dbc
    6800:	60a0      	str	r0, [r4, #8]
    6802:	2115      	movs	r1, #21
    6804:	177d      	asrs	r5, r7, #29
    6806:	f193 fade 	bl	0x199dc6
    680a:	0c1e      	lsrs	r6, r3, #16
    680c:	2200      	movs	r2, #0
    680e:	e5f3      	b.n	0x63f8
    6810:	8624      	strh	r4, [r4, #48]	@ 0x30
    6812:	0c02      	lsrs	r2, r0, #16
    6814:	2207      	movs	r2, #7
    6816:	e4f2      	b.n	0x61fe
    6818:	8624      	strh	r4, [r4, #48]	@ 0x30
    681a:	0c03      	lsrs	r3, r0, #16
    681c:	d801      	bhi.n	0x6822
    681e:	4e40      	ldr	r6, [pc, #256]	@ (0x6920)
    6820:	2862      	cmp	r0, #98	@ 0x62
    6822:	24e0      	movs	r4, #224	@ 0xe0
    6824:	0396      	lsls	r6, r2, #14
    6826:	d121      	bne.n	0x686c
    6828:	473d      	bx	r7
    682a:	5465      	strb	r5, [r4, r1]
    682c:	018d      	lsls	r5, r1, #6
    682e:	210d      	movs	r1, #13
    6830:	f658 f193 	bl	0xffa5eb5a
    6834:	eade 46b7 			@ <UNDEFINED> instruction: 0xeade46b7
    6838:	e421      	b.n	0x607e
    683a:	30ef      	adds	r0, #239	@ 0xef
    683c:	ef19 7ead 	vceq.f16	d7, d25, d29
    6840:	146b      	asrs	r3, r5, #17
    6842:	fe42 930e 	cdp2	3, 4, cr9, cr2, cr14, {0}
    6846:	def1      	udf	#241	@ 0xf1
    6848:	b0aa      	sub	sp, #168	@ 0xa8
    684a:	1560      	asrs	r0, r4, #21
    684c:	3421      	adds	r4, #33	@ 0x21
    684e:	9317      	str	r3, [sp, #92]	@ 0x5c
    6850:	def1      	udf	#241	@ 0xf1
    6852:	24ea      	movs	r4, #234	@ 0xea
    6854:	0286      	lsls	r6, r0, #10
    6856:	f447 d21e 	bl	0xff04dc96
    685a:	1018      	asrs	r0, r3, #32
    685c:	210c      	movs	r1, #12
    685e:	5814      	ldr	r4, [r2, r0]
    6860:	18d2      	adds	r2, r2, r3
    6862:	0b30      	lsrs	r0, r6, #12
    6864:	c446      	stmia	r4!, {r1, r2, r6}
    6866:	2050      	movs	r0, #80	@ 0x50
    6868:	1332      	asrs	r2, r6, #12
    686a:	6b7e      	ldr	r6, [r7, #52]	@ 0x34
    686c:	4214      	tst	r4, r2
    686e:	0efe      	lsrs	r6, r7, #27
    6870:	f193 6ade 			@ <UNDEFINED> instruction: 0xf1936ade
    6874:	8d44      	ldrh	r4, [r0, #42]	@ 0x2a
    6876:	5805      	ldr	r5, [r0, r0]
    6878:	dc21      	bgt.n	0x68be
    687a:	8d3f      	ldrh	r7, [r7, #40]	@ 0x28
    687c:	2601      	movs	r6, #1
    687e:	000a      	movs	r2, r1
    6880:	6047      	str	r7, [r0, #4]
    6882:	aa47      	add	r2, sp, #284	@ 0x11c
    6884:	c000      	stmia	r0!, {}
    6886:	4200      	tst	r0, r0
    6888:	a9ac      	add	r1, sp, #688	@ 0x2b0
    688a:	b31c      	cbz	r4, 0x68d4
    688c:	3f62      	subs	r7, #98	@ 0x62
    688e:	ef19 0aad 	vpmax.s16	d0, d25, d29
    6892:	4700      	bx	r0
    6894:	4760      	bx	ip
    6896:	01aa      	lsls	r2, r5, #6
    6898:	00c0      	lsls	r0, r0, #3
    689a:	ac42      	add	r4, sp, #264	@ 0x108
    689c:	1ca9      	adds	r1, r5, #2
    689e:	6183      	str	r3, [r0, #24]
    68a0:	193f      	adds	r7, r7, r4
    68a2:	adef      	add	r5, sp, #956	@ 0x3bc
    68a4:	4621      	mov	r1, r4
    68a6:	cc3d      	ldmia	r4, {r0, r2, r3, r4, r5}
    68a8:	0001      	movs	r1, r0
    68aa:	10b8      	asrs	r0, r7, #2
    68ac:	1446      	asrs	r6, r0, #17
    68ae:	acc3      	add	r4, sp, #780	@ 0x30c
    68b0:	1933      	adds	r3, r6, r4
    68b2:	adef      	add	r5, sp, #956	@ 0x3bc
    68b4:	6b7e      	ldr	r6, [r7, #52]	@ 0x34
    68b6:	4214      	tst	r4, r2
    68b8:	0efe      	lsrs	r6, r7, #27
    68ba:	f193 fade 	bl	0x199e7a
    68be:	0c1e      	lsrs	r6, r3, #16
    68c0:	d904      	bls.n	0x68cc
    68c2:	61d2      	str	r2, [r2, #28]
    68c4:	0c44      	lsrs	r4, r0, #17
    68c6:	d812      	bhi.n	0x68ee
    68c8:	7e13      	ldrb	r3, [r2, #24]
    68ca:	146b      	asrs	r3, r5, #17
    68cc:	fe42 930e 	cdp2	3, 4, cr9, cr2, cr14, {0}
    68d0:	def1      	udf	#241	@ 0xf1
    68d2:	446a      	add	r2, sp
    68d4:	058d      	lsls	r5, r1, #22
    68d6:	2158      	movs	r1, #88	@ 0x58
    68d8:	3f7d      	subs	r7, #125	@ 0x7d
    68da:	018d      	lsls	r5, r1, #6
    68dc:	0a26      	lsrs	r6, r4, #8
    68de:	4700      	bx	r0
    68e0:	4760      	bx	ip
    68e2:	00aa      	lsls	r2, r5, #2
    68e4:	00c0      	lsls	r0, r0, #3
    68e6:	ac42      	add	r4, sp, #264	@ 0x108
    68e8:	1ca9      	adds	r1, r5, #2
    68ea:	5cc3      	ldrb	r3, [r0, r3]
    68ec:	193f      	adds	r7, r7, r4
    68ee:	adef      	add	r5, sp, #956	@ 0x3bc
    68f0:	000a      	movs	r2, r1
    68f2:	6047      	str	r7, [r0, #4]
    68f4:	aa47      	add	r2, sp, #284	@ 0x11c
    68f6:	c001      	stmia	r0!, {r0}
    68f8:	4200      	tst	r0, r0
    68fa:	a9ac      	add	r1, sp, #688	@ 0x2b0
    68fc:	931c      	str	r3, [sp, #112]	@ 0x70
    68fe:	3f5b      	subs	r7, #91	@ 0x5b
    6900:	ef19 46ad 	vmax.s16	d4, d25, d29
    6904:	c8d4      	ldmia	r0!, {r2, r4, r6, r7}
    6906:	12c0      	asrs	r0, r0, #11
    6908:	1713      	asrs	r3, r2, #28
    690a:	00a5      	lsls	r5, r4, #2
    690c:	0470      	lsls	r0, r6, #17
    690e:	a476      	add	r4, pc, #472	@ (adr r4, 0x6ae8)
    6910:	001a      	movs	r2, r3
    6912:	200c      	movs	r0, #12
    6914:	9ac4      	ldr	r2, [sp, #784]	@ 0x310
    6916:	21ca      	movs	r1, #202	@ 0xca
    6918:	f59f f193 	bl	0xff9a5c42
    691c:	6ade      	ldr	r6, [r3, #44]	@ 0x2c
    691e:	8d44      	ldrh	r4, [r0, #42]	@ 0x2a
    6920:	2c0d      	cmp	r4, #13
    6922:	7321      	strb	r1, [r4, #12]
    6924:	0a51      	lsrs	r1, r2, #9
    6926:	4700      	bx	r0
    6928:	4760      	bx	ip
    692a:	01aa      	lsls	r2, r5, #6
    692c:	00c0      	lsls	r0, r0, #3
    692e:	ac42      	add	r4, sp, #264	@ 0x108
    6930:	1ca9      	adds	r1, r5, #2
    6932:	5843      	ldr	r3, [r0, r1]
    6934:	193f      	adds	r7, r7, r4
    6936:	adef      	add	r5, sp, #956	@ 0x3bc
    6938:	d446      	bmi.n	0x69c8
    693a:	c0e8      	stmia	r0!, {r3, r5, r6, r7}
    693c:	4312      	orrs	r2, r2
    693e:	a517      	add	r5, pc, #92	@ (adr r5, 0x699c)
    6940:	7000      	strb	r0, [r0, #0]
    6942:	7604      	strb	r4, [r0, #24]
    6944:	1aa4      	subs	r4, r4, r2
    6946:	0c00      	lsrs	r0, r0, #16
    6948:	c420      	stmia	r4!, {r5}
    694a:	ca9a      	ldmia	r2!, {r1, r3, r4, r7}
    694c:	6a21      	ldr	r1, [r4, #32]
    694e:	93f5      	str	r3, [sp, #980]	@ 0x3d4
    6950:	def1      	udf	#241	@ 0xf1
    6952:	731a      	strb	r2, [r3, #12]
    6954:	c3c9      	stmia	r3!, {r0, r3, r6, r7}
    6956:	001c      	movs	r4, r3
    6958:	0b90      	lsrs	r0, r2, #14
    695a:	4609      	mov	r1, r1
    695c:	40c4      	lsrs	r4, r0
    695e:	2220      	movs	r2, #32
    6960:	4610      	mov	r0, r2
    6962:	7314      	strb	r4, [r2, #12]
    6964:	33a1      	adds	r3, #161	@ 0xa1
    6966:	ef19 46ad 	vmax.s16	d4, d25, d29
    696a:	f8d4 10d0 	ldr.w	r1, [r4, #208]	@ 0xd0
    696e:	c513      	stmia	r5!, {r0, r1, r4}
    6970:	1933      	adds	r3, r6, r4
    6972:	adef      	add	r5, sp, #956	@ 0x3bc
    6974:	d446      	bmi.n	0x6a04
    6976:	e108      	b.n	0x6b8a
    6978:	24e1      	movs	r4, #225	@ 0xe1
    697a:	e4ce      	b.n	0x631a
    697c:	0aa0      	lsrs	r0, r4, #10
    697e:	c420      	stmia	r4!, {r5}
    6980:	218a      	movs	r1, #138	@ 0x8a
    6982:	3bc0      	subs	r3, #192	@ 0xc0
    6984:	f193 6ade 			@ <UNDEFINED> instruction: 0xf1936ade
    6988:	8d44      	ldrh	r4, [r0, #42]	@ 0x2a
    698a:	1e11      	subs	r1, r2, #0
    698c:	e24e      	b.n	0x6e2c
    698e:	0e4c      	lsrs	r4, r1, #25
    6990:	01aa      	lsls	r2, r5, #6
    6992:	ac42      	add	r4, sp, #264	@ 0x108
    6994:	c318      	stmia	r3!, {r3, r4}
    6996:	33ba      	adds	r3, #186	@ 0xba
    6998:	ef19 46ad 	vmax.s16	d4, d25, d29
    699c:	d314      	bcc.n	0x69c8
    699e:	33bb      	adds	r3, #187	@ 0xbb
    69a0:	ef19 7ead 	vceq.f16	d7, d25, d29
    69a4:	146b      	asrs	r3, r5, #17
    69a6:	fe42 930e 	cdp2	3, 4, cr9, cr2, cr14, {0}
    69aa:	def1      	udf	#241	@ 0xf1
    69ac:	b7ea      			@ <UNDEFINED> instruction: 0xb7ea
    69ae:	2146      	movs	r1, #70	@ 0x46
    69b0:	efe4 1930 	vqshrn.s64	d17, q8, #28
    69b4:	adef      	add	r5, sp, #956	@ 0x3bc
    69b6:	624e      	str	r6, [r1, #36]	@ 0x24
    69b8:	7028      	strb	r0, [r5, #0]
    69ba:	ef44 18d1 	vtst.8	<illegal reg q8.5>, q10, <illegal reg q0.5>
    69be:	14b0      	asrs	r0, r6, #18
    69c0:	6b13      	ldr	r3, [r2, #48]	@ 0x30
    69c2:	18d5      	adds	r5, r2, r3
    69c4:	63f0      	str	r0, [r6, #60]	@ 0x3c
    69c6:	0c44      	lsrs	r4, r0, #17
    69c8:	2200      	movs	r2, #0
    69ca:	1202      	asrs	r2, r0, #8
    69cc:	c1e3      	stmia	r1!, {r0, r1, r5, r6, r7}
    69ce:	1cc3      	adds	r3, r0, #3
    69d0:	8000      	strh	r0, [r0, #0]
    69d2:	610b      	str	r3, [r1, #16]
    69d4:	2144      	movs	r1, #68	@ 0x44
    69d6:	39b8      	subs	r1, #184	@ 0xb8
    69d8:	f193 eade 	blx	0x199f98
    69dc:	46b7      	mov	pc, r6
    69de:	e421      	b.n	0x6224
    69e0:	30ef      	adds	r0, #239	@ 0xef
    69e2:	ef19 efad 	vmax.f16	d14, d25, d29
    69e6:	40c1      	lsrs	r1, r0
    69e8:	bd80      	pop	{r7, pc}
    69ea:	4467      	add	r7, ip
    69ec:	110c      	asrs	r4, r1, #4
    69ee:	36c8      	adds	r6, #200	@ 0xc8
    69f0:	c446      	stmia	r4!, {r1, r2, r6}
    69f2:	8010      	strh	r0, [r2, #0]
    69f4:	12bd      	asrs	r5, r7, #10
    69f6:	bf43      	ittte	mi
    69f8:	1cc3      	addmi	r3, r0, #3
    69fa:	8000      	strhmi	r0, [r0, #0]
    69fc:	e1bb      	bmi.n	0x6d76	@ unpredictable branch in IT block

    69fe:	ce24      	ldmiapl	r6!, {r2, r5}
    6a00:	60e4      	str	r4, [r4, #12]
    6a02:	4246      	negs	r6, r0
    6a04:	18ac      	adds	r4, r5, r2
    6a06:	b803      			@ <UNDEFINED> instruction: 0xb803
    6a08:	9993      	ldr	r1, [sp, #588]	@ 0x24c
    6a0a:	467c      	mov	r4, pc
    6a0c:	00c4      	lsls	r4, r0, #3
    6a0e:	2220      	movs	r2, #32
    6a10:	211d      	movs	r1, #29
    6a12:	3bd9      	subs	r3, #217	@ 0xd9
    6a14:	01cc      	lsls	r4, r1, #7
    6a16:	2900      	cmp	r1, #0
    6a18:	4467      	add	r7, ip
    6a1a:	7321      	strb	r1, [r4, #12]
    6a1c:	9939      	ldr	r1, [sp, #228]	@ 0xe4
    6a1e:	e7a0      	b.n	0x6962
    6a20:	46b7      	mov	pc, r6
    6a22:	e421      	b.n	0x6268
    6a24:	90ef      	str	r0, [sp, #956]	@ 0x3bc
    6a26:	78f9      	ldrb	r1, [r7, #3]
    6a28:	6b7e      	ldr	r6, [r7, #52]	@ 0x34
    6a2a:	4214      	tst	r4, r2
    6a2c:	0efe      	lsrs	r6, r7, #27
    6a2e:	7e99      	ldrb	r1, [r3, #26]
    6a30:	24e7      	movs	r4, #231	@ 0xe7
    6a32:	0286      	lsls	r6, r0, #10
    6a34:	f447 8d1e 	bne.w	0xfff8e474
    6a38:	0c01      	lsrs	r1, r0, #16
    6a3a:	3721      	adds	r7, #33	@ 0x21
    6a3c:	8c56      	ldrh	r6, [r2, #34]	@ 0x22
    6a3e:	0b01      	lsrs	r1, r0, #12
    6a40:	c1ef      	stmia	r1!, {r0, r1, r2, r3, r5, r6, r7}
    6a42:	8040      	strh	r0, [r0, #2]
    6a44:	639d      	str	r5, [r3, #56]	@ 0x38
    6a46:	0c44      	lsrs	r4, r0, #17
    6a48:	c801      	ldmia	r0, {r0}
    6a4a:	211d      	movs	r1, #29
    6a4c:	3b9f      	subs	r3, #159	@ 0x9f
    6a4e:	01cc      	lsls	r4, r1, #7
    6a50:	2900      	cmp	r1, #0
    6a52:	4467      	add	r7, ip
    6a54:	4c21      	ldr	r4, [pc, #132]	@ (0x6adc)
    6a56:	9939      	ldr	r1, [sp, #228]	@ 0xe4
    6a58:	e72c      	b.n	0x68b4
    6a5a:	46b7      	mov	pc, r6
    6a5c:	e421      	b.n	0x62a2
    6a5e:	90ef      	str	r0, [sp, #956]	@ 0x3bc
    6a60:	71b9      	strb	r1, [r7, #6]
    6a62:	6b7e      	ldr	r6, [r7, #52]	@ 0x34
    6a64:	4214      	tst	r4, r2
    6a66:	0efe      	lsrs	r6, r7, #27
    6a68:	0a99      	lsrs	r1, r3, #10
    6a6a:	24e7      	movs	r4, #231	@ 0xe7
    6a6c:	0286      	lsls	r6, r0, #10
    6a6e:	f447 8d1e 	bne.w	0xfff8e4ae
    6a72:	0c01      	lsrs	r1, r0, #16
    6a74:	fd21 8c55 	stc2	12, cr8, [r1, #-340]!	@ 0xfffffeac
    6a78:	0b01      	lsrs	r1, r0, #12
    6a7a:	c1ef      	stmia	r1!, {r0, r1, r2, r3, r5, r6, r7}
    6a7c:	8040      	strh	r0, [r0, #2]
    6a7e:	639d      	str	r5, [r3, #56]	@ 0x38
    6a80:	0c44      	lsrs	r4, r0, #17
    6a82:	c803      	ldmia	r0, {r0, r1}
    6a84:	211d      	movs	r1, #29
    6a86:	3b65      	subs	r3, #101	@ 0x65
    6a88:	01cc      	lsls	r4, r1, #7
    6a8a:	2900      	cmp	r1, #0
    6a8c:	4467      	add	r7, ip
    6a8e:	2521      	movs	r5, #33	@ 0x21
    6a90:	9939      	ldr	r1, [sp, #228]	@ 0xe4
    6a92:	e6b8      	b.n	0x6806
    6a94:	46b7      	mov	pc, r6
    6a96:	e421      	b.n	0x62dc
    6a98:	90ef      	str	r0, [sp, #956]	@ 0x3bc
    6a9a:	6a79      	ldr	r1, [r7, #36]	@ 0x24
    6a9c:	6b7e      	ldr	r6, [r7, #52]	@ 0x34
    6a9e:	4214      	tst	r4, r2
    6aa0:	0efe      	lsrs	r6, r7, #27
    6aa2:	9699      	str	r6, [sp, #612]	@ 0x264
    6aa4:	1ef6      	subs	r6, r6, #3
    6aa6:	018d      	lsls	r5, r1, #6
    6aa8:	2118      	movs	r1, #24
    6aaa:	55c8      	strb	r0, [r1, r7]
    6aac:	018d      	lsls	r5, r1, #6
    6aae:	210c      	movs	r1, #12
    6ab0:	5c47      	ldrb	r7, [r0, r1]
    6ab2:	018c      	lsls	r4, r1, #6
    6ab4:	ef0b 40c1 	vhadd.s8	q2, <illegal reg q13.5>, <illegal reg q0.5>
    6ab8:	1d80      	adds	r0, r0, #6
    6aba:	24e2      	movs	r4, #226	@ 0xe2
    6abc:	0286      	lsls	r6, r0, #10
    6abe:	6447      	str	r7, [r0, #68]	@ 0x44
    6ac0:	2144      	movs	r1, #68	@ 0x44
    6ac2:	5bf3      	ldrh	r3, [r6, r7]
    6ac4:	1446      	asrs	r6, r0, #17
    6ac6:	3963      	subs	r1, #99	@ 0x63
    6ac8:	999f      	ldr	r1, [sp, #636]	@ 0x27c
    6aca:	7e64      	ldrb	r4, [r4, #25]
    6acc:	146b      	asrs	r3, r5, #17
    6ace:	fe42 990e 	vseleq.f16	s19, s4, s28
    6ad2:	f638 0c1e 			@ <UNDEFINED> instruction: 0xf6380c1e
    6ad6:	2200      	movs	r2, #0
    6ad8:	10b3      	asrs	r3, r6, #2
    6ada:	4453      	add	r3, sl
    6adc:	199f      	adds	r7, r3, r6
    6ade:	7e62      	ldrb	r2, [r4, #25]
    6ae0:	146b      	asrs	r3, r5, #17
    6ae2:	fe42 990e 	vseleq.f16	s19, s4, s28
    6ae6:	f610 0c1e 			@ <UNDEFINED> instruction: 0xf6100c1e
    6aea:	2200      	movs	r2, #0
    6aec:	1313      	asrs	r3, r2, #12
    6aee:	5833      	ldr	r3, [r6, r0]
    6af0:	18d5      	adds	r5, r2, r3
    6af2:	e250      	b.n	0x6f96
    6af4:	a624      	add	r6, pc, #144	@ (adr r6, 0x6b88)
    6af6:	4e02      	ldr	r6, [pc, #8]	@ (0x6b00)
    6af8:	3ce2      	subs	r4, #226	@ 0xe2
    6afa:	420e      	tst	r6, r1
    6afc:	18ac      	adds	r4, r5, r2
    6afe:	efc3 3314 	vorr.i32	d19, #13312	@ 0x00003400
    6b02:	9f42      	ldr	r7, [sp, #264]	@ 0x108
    6b04:	5d39      	ldrb	r1, [r7, r4]
    6b06:	6b7e      	ldr	r6, [r7, #52]	@ 0x34
    6b08:	4214      	tst	r4, r2
    6b0a:	0efe      	lsrs	r6, r7, #27
    6b0c:	c299      	stmia	r2!, {r0, r3, r4, r7}
    6b0e:	24e5      	movs	r4, #229	@ 0xe5
    6b10:	0286      	lsls	r6, r0, #10
    6b12:	f447 0c1e 	orr.w	ip, r7, #10354688	@ 0x9e0000
    6b16:	d804      	bhi.n	0x6b22
    6b18:	465d      	mov	r5, fp
    6b1a:	30c4      	adds	r0, #196	@ 0xc4
    6b1c:	1c80      	adds	r0, r0, #2
    6b1e:	b314      	cbz	r4, 0x6b66
    6b20:	c3ac      	stmia	r3!, {r2, r3, r5, r7}
    6b22:	001c      	movs	r4, r3
    6b24:	1b80      	subs	r0, r0, r6
    6b26:	4463      	add	r3, ip
    6b28:	2405      	movs	r4, #5
    6b2a:	24ec      	movs	r4, #236	@ 0xec
    6b2c:	e3ce      	b.n	0x72cc
    6b2e:	6d20      	ldr	r0, [r4, #80]	@ 0x50
    6b30:	0c25      	lsrs	r5, r4, #16
    6b32:	2466      	movs	r4, #102	@ 0x66
    6b34:	256c      	movs	r5, #108	@ 0x6c
    6b36:	420c      	tst	r4, r1
    6b38:	18ac      	adds	r4, r5, r2
    6b3a:	a333      	add	r3, pc, #204	@ (adr r3, 0x6c08)
    6b3c:	1993      	adds	r3, r2, r6
    6b3e:	7e56      	ldrb	r6, [r2, #25]
    6b40:	146b      	asrs	r3, r5, #17
    6b42:	fe42 990e 	vseleq.f16	s19, s4, s28
    6b46:	e550      	b.n	0x65ea
    6b48:	46b7      	mov	pc, r6
    6b4a:	e421      	b.n	0x6390
    6b4c:	90ef      	str	r0, [sp, #956]	@ 0x3bc
    6b4e:	53f9      	strh	r1, [r7, r7]
    6b50:	d1ef      	bne.n	0x6b32
    6b52:	c018      	stmia	r0!, {r3, r4}
    6b54:	c310      	stmia	r3!, {r4}
    6b56:	c551      	stmia	r5!, {r0, r4, r6}
    6b58:	c018      	stmia	r0!, {r3, r4}
    6b5a:	1ef0      	subs	r0, r6, #3
    6b5c:	040c      	lsls	r4, r1, #16
    6b5e:	4ad9      	ldr	r2, [pc, #868]	@ (0x6ec4)
    6b60:	24e1      	movs	r4, #225	@ 0xe1
    6b62:	0286      	lsls	r6, r0, #10
    6b64:	e447      	b.n	0x63f6
    6b66:	8624      	strh	r4, [r4, #48]	@ 0x30
    6b68:	0503      	lsls	r3, r0, #20
    6b6a:	6c02      	ldr	r2, [r0, #64]	@ 0x40
    6b6c:	d244      	bcs.n	0x6bf8
    6b6e:	7008      	strb	r0, [r1, #0]
    6b70:	500d      	str	r5, [r1, r0]
    6b72:	ac02      	add	r4, sp, #8
    6b74:	bd80      	pop	{r7, pc}
    6b76:	2501      	movs	r5, #1
    6b78:	0dc0      	lsrs	r0, r0, #23
    6b7a:	10c8      	asrs	r0, r1, #3
    6b7c:	0204      	lsls	r4, r0, #8
    6b7e:	531c      	strh	r4, [r3, r4]
    6b80:	93a2      	str	r3, [sp, #648]	@ 0x288
    6b82:	4d79      	ldr	r5, [pc, #484]	@ (0x6d68)
    6b84:	2ed3      	cmp	r6, #211	@ 0xd3
    6b86:	00c0      	lsls	r0, r0, #3
    6b88:	a150      	add	r1, pc, #320	@ (adr r1, 0x6ccc)
    6b8a:	d000      	beq.n	0x6b8e
    6b8c:	ecce d310 	stcl	3, cr13, [lr], {16}
    6b90:	9f3a      	ldr	r7, [sp, #232]	@ 0xe8
    6b92:	4b79      	ldr	r3, [pc, #484]	@ (0x6d78)
    6b94:	2ed3      	cmp	r6, #211	@ 0xd3
    6b96:	10c0      	asrs	r0, r0, #3
    6b98:	a150      	add	r1, pc, #320	@ (adr r1, 0x6cdc)
    6b9a:	d000      	beq.n	0x6b9e
    6b9c:	ec8e d310 	stc	3, cr13, [lr], {16}
    6ba0:	9f39      	ldr	r7, [sp, #228]	@ 0xe4
    6ba2:	4979      	ldr	r1, [pc, #484]	@ (0x6d88)
    6ba4:	2ed3      	cmp	r6, #211	@ 0xd3
    6ba6:	20c0      	movs	r0, #192	@ 0xc0
    6ba8:	a150      	add	r1, pc, #320	@ (adr r1, 0x6cec)
    6baa:	d000      	beq.n	0x6bae
    6bac:	ec4e d310 	mcrr	3, 1, sp, lr, cr0
    6bb0:	9f38      	ldr	r7, [sp, #224]	@ 0xe0
    6bb2:	4779      	bx	pc
    6bb4:	2ed3      	cmp	r6, #211	@ 0xd3
    6bb6:	30c0      	adds	r0, #192	@ 0xc0
    6bb8:	a150      	add	r1, pc, #320	@ (adr r1, 0x6cfc)
    6bba:	d000      	beq.n	0x6bbe
    6bbc:	ebae d310 			@ <UNDEFINED> instruction: 0xebaed310
    6bc0:	9f37      	ldr	r7, [sp, #220]	@ 0xdc
    6bc2:	4579      	cmp	r1, pc
    6bc4:	2ed3      	cmp	r6, #211	@ 0xd3
    6bc6:	40c0      	lsrs	r0, r0
    6bc8:	a150      	add	r1, pc, #320	@ (adr r1, 0x6d0c)
    6bca:	d000      	beq.n	0x6bce
    6bcc:	ebce d310 			@ <UNDEFINED> instruction: 0xebced310
    6bd0:	9f36      	ldr	r7, [sp, #216]	@ 0xd8
    6bd2:	4379      	muls	r1, r7
    6bd4:	6b7e      	ldr	r6, [r7, #52]	@ 0x34
    6bd6:	4214      	tst	r4, r2
    6bd8:	0efe      	lsrs	r6, r7, #27
    6bda:	2699      	movs	r6, #153	@ 0x99
    6bdc:	4464      	add	r4, ip
    6bde:	018d      	lsls	r5, r1, #6
    6be0:	2138      	movs	r1, #56	@ 0x38
    6be2:	5490      	strb	r0, [r2, r2]
    6be4:	018d      	lsls	r5, r1, #6
    6be6:	502c      	str	r4, [r5, r0]
    6be8:	dc02      	bgt.n	0x6bf0
    6bea:	0c81      	lsrs	r1, r0, #18
    6bec:	2041      	movs	r0, #65	@ 0x41
    6bee:	21c0      	movs	r1, #192	@ 0xc0
    6bf0:	56fd      	ldrsb	r5, [r7, r3]
    6bf2:	f699 b7e3 	b.w	0xffaa0bbc
    6bf6:	2146      	movs	r1, #70	@ 0x46
    6bf8:	efe4 5990 			@ <UNDEFINED> instruction: 0xefe45990
    6bfc:	7e3e      	ldrb	r6, [r7, #24]
    6bfe:	146b      	asrs	r3, r5, #17
    6c00:	fe42 990e 	vseleq.f16	s19, s4, s28
    6c04:	e3d4      	b.n	0x73b0
    6c06:	46b7      	mov	pc, r6
    6c08:	e421      	b.n	0x644e
    6c0a:	90ef      	str	r0, [sp, #956]	@ 0x3bc
    6c0c:	3c39      	subs	r4, #57	@ 0x39
    6c0e:	6321      	str	r1, [r4, #48]	@ 0x30
    6c10:	8c54      	ldrh	r4, [r2, #34]	@ 0x22
    6c12:	0b01      	lsrs	r1, r0, #12
    6c14:	c1ef      	stmia	r1!, {r0, r1, r2, r3, r5, r6, r7}
    6c16:	8040      	strh	r0, [r0, #2]
    6c18:	421d      	tst	r5, r3
    6c1a:	c330      	stmia	r3!, {r4, r5}
    6c1c:	008d      	lsls	r5, r1, #2
    6c1e:	210b      	movs	r1, #11
    6c20:	f343 9699 	b.w	0xf4a956
    6c24:	2313      	movs	r3, #19
    6c26:	9f34      	ldr	r7, [sp, #208]	@ 0xd0
    6c28:	38b9      	subs	r0, #185	@ 0xb9
    6c2a:	6b7e      	ldr	r6, [r7, #52]	@ 0x34
    6c2c:	4214      	tst	r4, r2
    6c2e:	0efe      	lsrs	r6, r7, #27
    6c30:	7a99      	ldrb	r1, [r3, #10]
    6c32:	24e3      	movs	r4, #227	@ 0xe3
    6c34:	0286      	lsls	r6, r0, #10
    6c36:	018d      	lsls	r5, r1, #6
    6c38:	2138      	movs	r1, #56	@ 0x38
    6c3a:	5438      	strb	r0, [r7, r0]
    6c3c:	018c      	lsls	r4, r1, #6
    6c3e:	ef0b 40c1 	vhadd.s8	q2, <illegal reg q13.5>, <illegal reg q0.5>
    6c42:	1d80      	adds	r0, r0, #6
    6c44:	cd32      	ldmia	r5, {r1, r4, r5}
    6c46:	0eb3      	lsrs	r3, r6, #26
    6c48:	0b00      	lsrs	r0, r0, #12
    6c4a:	2221      	movs	r2, #33	@ 0x21
    6c4c:	99f3      	ldr	r1, [sp, #972]	@ 0x3cc
    6c4e:	1340      	asrs	r0, r0, #13
    6c50:	3213      	adds	r2, #19
    6c52:	599f      	ldr	r7, [r3, r6]
    6c54:	7e33      	ldrb	r3, [r6, #24]
    6c56:	146b      	asrs	r3, r5, #17
    6c58:	fe42 990e 	vseleq.f16	s19, s4, s28
    6c5c:	a324      	add	r3, pc, #144	@ (adr r3, 0x6cf0)
    6c5e:	60c0      	str	r0, [r0, #12]
    6c60:	2115      	movs	r1, #21
    6c62:	131f      	asrs	r7, r3, #12
    6c64:	1299      	asrs	r1, r3, #10
    6c66:	24e3      	movs	r4, #227	@ 0xe3
    6c68:	0286      	lsls	r6, r0, #10
    6c6a:	f447 0c1e 	orr.w	ip, r7, #10354688	@ 0x9e0000
    6c6e:	2200      	movs	r2, #0
    6c70:	63d3      	str	r3, [r2, #60]	@ 0x3c
    6c72:	0c44      	lsrs	r4, r0, #17
    6c74:	2202      	movs	r2, #2
    6c76:	6312      	str	r2, [r2, #48]	@ 0x30
    6c78:	2144      	movs	r1, #68	@ 0x44
    6c7a:	3ac3      	subs	r2, #195	@ 0xc3
    6c7c:	6547      	str	r7, [r0, #84]	@ 0x54
    6c7e:	8d54      	ldrh	r4, [r2, #42]	@ 0x2a
    6c80:	0b01      	lsrs	r1, r0, #12
    6c82:	9921      	ldr	r1, [sp, #132]	@ 0x84
    6c84:	99f3      	ldr	r1, [sp, #972]	@ 0x3cc
    6c86:	e2d0      	b.n	0x722a
    6c88:	46b7      	mov	pc, r6
    6c8a:	e421      	b.n	0x64d0
    6c8c:	90ef      	str	r0, [sp, #956]	@ 0x3bc
    6c8e:	2bf9      	cmp	r3, #249	@ 0xf9
    6c90:	6b7e      	ldr	r6, [r7, #52]	@ 0x34
    6c92:	4214      	tst	r4, r2
    6c94:	0efe      	lsrs	r6, r7, #27
    6c96:	ae99      	add	r6, sp, #612	@ 0x264
    6c98:	d0a2      	beq.n	0x6be0
    6c9a:	1560      	asrs	r0, r4, #21
    6c9c:	e421      	b.n	0x64e2
    6c9e:	9912      	ldr	r1, [sp, #72]	@ 0x48
    6ca0:	129c      	asrs	r4, r3, #10
    6ca2:	37e3      	adds	r7, #227	@ 0xe3
    6ca4:	199f      	adds	r7, r3, r6
    6ca6:	4e29      	ldr	r6, [pc, #164]	@ (0x6d4c)
    6ca8:	2862      	cmp	r0, #98	@ 0x62
    6caa:	3050      	adds	r0, #80	@ 0x50
    6cac:	4ec4      	ldr	r6, [pc, #784]	@ (0x6fc0)
    6cae:	3862      	subs	r0, #98	@ 0x62
    6cb0:	4050      	eors	r0, r2
    6cb2:	4ec4      	ldr	r6, [pc, #784]	@ (0x6fc4)
    6cb4:	4862      	ldr	r0, [pc, #392]	@ (0x6e40)
    6cb6:	5050      	str	r0, [r2, r1]
    6cb8:	4ec4      	ldr	r6, [pc, #784]	@ (0x6fcc)
    6cba:	5862      	ldr	r2, [r4, r1]
    6cbc:	6050      	str	r0, [r2, #4]
    6cbe:	efc4 40c1 	vmla.i<illegal width 8>	d20, d20, d1[0]
    6cc2:	3d80      	subs	r5, #128	@ 0x80
    6cc4:	5313      	strh	r3, [r2, r4]
    6cc6:	c392      	stmia	r3!, {r1, r4, r7}
    6cc8:	001c      	movs	r4, r3
    6cca:	3b80      	subs	r3, #128	@ 0x80
    6ccc:	3ed2      	subs	r6, #210	@ 0xd2
    6cce:	10c4      	asrs	r4, r0, #3
    6cd0:	afd3      	add	r7, sp, #844	@ 0x34c
    6cd2:	18d3      	adds	r3, r2, r3
    6cd4:	d110      	bne.n	0x6cf8
    6cd6:	c43e      	stmia	r4!, {r1, r2, r3, r4, r5}
    6cd8:	b310      	cbz	r0, 0x6d20
    6cda:	93b2      	str	r3, [sp, #712]	@ 0x2c8
    6cdc:	2239      	movs	r2, #57	@ 0x39
    6cde:	6b7e      	ldr	r6, [r7, #52]	@ 0x34
    6ce0:	4214      	tst	r4, r2
    6ce2:	0efe      	lsrs	r6, r7, #27
    6ce4:	1299      	asrs	r1, r3, #10
    6ce6:	8312      	strh	r2, [r2, #24]
    6ce8:	9f34      	ldr	r7, [sp, #208]	@ 0xd0
    6cea:	2079      	movs	r0, #121	@ 0x79
    6cec:	624e      	str	r6, [r1, #36]	@ 0x24
    6cee:	d028      	beq.n	0x6d42
    6cf0:	a018      	add	r0, pc, #96	@ (adr r0, 0x6d54)
    6cf2:	1ef2      	subs	r2, r6, #3
    6cf4:	000c      	movs	r4, r1
    6cf6:	e322      	b.n	0x733e
    6cf8:	1311      	asrs	r1, r2, #12
    6cfa:	c38f      	stmia	r3!, {r0, r1, r2, r3, r7}
    6cfc:	001c      	movs	r4, r3
    6cfe:	7390      	strb	r0, [r2, #14]
    6d00:	00c0      	lsls	r0, r0, #3
    6d02:	af21      	add	r7, sp, #132	@ 0x84
    6d04:	9938      	ldr	r1, [sp, #224]	@ 0xe0
    6d06:	e1d0      	b.n	0x70aa
    6d08:	46b7      	mov	pc, r6
    6d0a:	e421      	b.n	0x6550
    6d0c:	90ef      	str	r0, [sp, #956]	@ 0x3bc
    6d0e:	1bf9      	subs	r1, r7, r7
    6d10:	624e      	str	r6, [r1, #36]	@ 0x24
    6d12:	7028      	strb	r0, [r5, #0]
    6d14:	ef44 00c1 	vhadd.s8	q8, q10, <illegal reg q0.5>
    6d18:	3220      	adds	r2, #32
    6d1a:	463d      	mov	r5, r7
    6d1c:	10c4      	asrs	r4, r0, #3
    6d1e:	2220      	movs	r2, #32
    6d20:	4631      	mov	r1, r6
    6d22:	a314      	add	r3, pc, #80	@ (adr r3, 0x6d74)
    6d24:	73a4      	strb	r4, [r4, #14]
    6d26:	4654      	mov	r4, sl
    6d28:	18d5      	adds	r5, r2, r3
    6d2a:	10b0      	asrs	r0, r6, #2
    6d2c:	3343      	adds	r3, #67	@ 0x43
    6d2e:	d99f      	bls.n	0x6c70
    6d30:	7e17      	ldrb	r7, [r2, #24]
    6d32:	146b      	asrs	r3, r5, #17
    6d34:	fe42 990e 	vseleq.f16	s19, s4, s28
    6d38:	e16c      	b.n	0x7014
    6d3a:	46b7      	mov	pc, r6
    6d3c:	e421      	b.n	0x6582
    6d3e:	90ef      	str	r0, [sp, #956]	@ 0x3bc
    6d40:	15b9      	asrs	r1, r7, #22
    6d42:	0e0a      	lsrs	r2, r1, #24
    6d44:	1156      	asrs	r6, r2, #5
    6d46:	23a3      	movs	r3, #163	@ 0xa3
    6d48:	9991      	ldr	r1, [sp, #580]	@ 0x244
    6d4a:	7e14      	ldrb	r4, [r2, #24]
    6d4c:	146b      	asrs	r3, r5, #17
    6d4e:	fe42 990e 	vseleq.f16	s19, s4, s28
    6d52:	e138      	b.n	0x6fc6
    6d54:	46b7      	mov	pc, r6
    6d56:	e421      	b.n	0x659c
    6d58:	90ef      	str	r0, [sp, #956]	@ 0x3bc
    6d5a:	1279      	asrs	r1, r7, #9
    6d5c:	6b7e      	ldr	r6, [r7, #52]	@ 0x34
    6d5e:	4214      	tst	r4, r2
    6d60:	0efe      	lsrs	r6, r7, #27
    6d62:	1699      	asrs	r1, r3, #26
    6d64:	24e1      	movs	r4, #225	@ 0xe1
    6d66:	0286      	lsls	r6, r0, #10
    6d68:	4447      	add	r7, r8
    6d6a:	ac20      	add	r4, sp, #128	@ 0x80
    6d6c:	3156      	adds	r1, #86	@ 0x56
    6d6e:	0942      	lsrs	r2, r0, #5
    6d70:	1ef6      	subs	r6, r6, #3
    6d72:	000c      	movs	r4, r1
    6d74:	c322      	stmia	r3!, {r1, r5}
    6d76:	2045      	movs	r0, #69	@ 0x45
    6d78:	56ac      	ldrsb	r4, [r5, r2]
    6d7a:	4231      	tst	r1, r6
    6d7c:	1cb8      	adds	r0, r7, #2
    6d7e:	5b51      	ldrh	r1, [r2, r5]
    6d80:	101c      	asrs	r4, r3, #32
    6d82:	c5c5      	stmia	r5!, {r0, r2, r6, r7}
    6d84:	5101      	str	r1, [r0, r4]
    6d86:	1c5d      	adds	r5, r3, #1
    6d88:	e510      	b.n	0x67ac
    6d8a:	01c5      	lsls	r5, r0, #7
    6d8c:	1446      	asrs	r6, r0, #17
    6d8e:	a103      	add	r1, pc, #12	@ (adr r1, 0x6d9c)
    6d90:	5473      	strb	r3, [r6, r1]
    6d92:	d546      	bpl.n	0x6e22
    6d94:	b018      	add	sp, #96	@ 0x60
    6d96:	5310      	strh	r0, [r2, r4]
    6d98:	9f30      	ldr	r7, [sp, #192]	@ 0xc0
    6d9a:	0a79      	lsrs	r1, r7, #9
    6d9c:	6b7e      	ldr	r6, [r7, #52]	@ 0x34
    6d9e:	4214      	tst	r4, r2
    6da0:	0efe      	lsrs	r6, r7, #27
    6da2:	9699      	str	r6, [sp, #612]	@ 0x264
    6da4:	b7e0      			@ <UNDEFINED> instruction: 0xb7e0
    6da6:	2146      	movs	r1, #70	@ 0x46
    6da8:	efe4 5990 			@ <UNDEFINED> instruction: 0xefe45990
    6dac:	0a08      	lsrs	r0, r1, #8
    6dae:	5611      	ldrsb	r1, [r2, r0]
    6db0:	f311 811c 	bgt.w	0x17fec
    6db4:	f749 0c1e 			@ <UNDEFINED> instruction: 0xf7490c1e
    6db8:	2200      	movs	r2, #0
    6dba:	e173      	b.n	0x70a4
    6dbc:	8624      	strh	r4, [r4, #48]	@ 0x30
    6dbe:	0502      	lsls	r2, r0, #20
    6dc0:	ac59      	add	r4, sp, #356	@ 0x164
    6dc2:	f220 988e 	b.w	0xa26ee2
    6dc6:	7e51      	ldrb	r1, [r2, #25]
    6dc8:	146b      	asrs	r3, r5, #17
    6dca:	fe42 980e 	vcmla.f16	d25, d2, d14[0], #0
    6dce:	ef41 00c1 	vhadd.s8	q8, <illegal reg q8.5>, <illegal reg q0.5>
    6dd2:	3220      	adds	r2, #32
    6dd4:	4e17      	ldr	r6, [pc, #92]	@ (0x6e34)
    6dd6:	2862      	cmp	r0, #98	@ 0x62
    6dd8:	a050      	add	r0, pc, #320	@ (adr r0, 0x6f1c)
    6dda:	0ac5      	lsrs	r5, r0, #11
    6ddc:	ef23 e988 	vmla.i32	d14, d19, d8
    6de0:	b7e1      			@ <UNDEFINED> instruction: 0xb7e1
    6de2:	2146      	movs	r1, #70	@ 0x46
    6de4:	efe4 7fe0 	vqrdmlsh.s32	d23, d20, d0[1]
    6de8:	6b7e      	ldr	r6, [r7, #52]	@ 0x34
    6dea:	4214      	tst	r4, r2
    6dec:	131e      	asrs	r6, r3, #12
    6dee:	e11e      	b.n	0x702e
    6df0:	cf67      	ldmia	r7!, {r0, r1, r2, r5, r6}
    6df2:	1008      	asrs	r0, r1, #32
    6df4:	fddf 4714 	ldc2l	7, cr4, [pc, #80]	@ 0x6e48
    6df8:	64e0      	str	r0, [r4, #76]	@ 0x4c
    6dfa:	6652      	str	r2, [r2, #100]	@ 0x64
    6dfc:	9fdf      	ldr	r7, [sp, #892]	@ 0x37c
    6dfe:	281a      	cmp	r0, #26
    6e00:	9fce      	ldr	r7, [sp, #824]	@ 0x338
    6e02:	3a8a      	subs	r2, #138	@ 0x8a
    6e04:	9bce      	ldr	r3, [sp, #824]	@ 0x338
    6e06:	698a      	ldr	r2, [r1, #24]
    6e08:	9ace      	ldr	r2, [sp, #824]	@ 0x338
    6e0a:	57ca      	ldrsb	r2, [r1, r7]
    6e0c:	c652      	stmia	r6!, {r1, r4, r6}
    6e0e:	9f80      	ldr	r7, [sp, #512]	@ 0x200
    6e10:	19ea      	adds	r2, r5, r7
    6e12:	9fce      	ldr	r7, [sp, #824]	@ 0x338
    6e14:	27aa      	movs	r7, #170	@ 0xaa
    6e16:	8ce2      	ldrh	r2, [r4, #38]	@ 0x26
    6e18:	ea9e ce68 			@ <UNDEFINED> instruction: 0xea9ece68
    6e1c:	aa9d      	add	r2, sp, #628	@ 0x274
    6e1e:	e27f      	b.n	0x7320
    6e20:	9eac      	ldr	r6, [sp, #688]	@ 0x2b0
    6e22:	530a      	strh	r2, [r1, r4]
    6e24:	4ce2      	ldr	r4, [pc, #904]	@ (0x71b0)
    6e26:	2a9f      	cmp	r2, #159	@ 0x9f
    6e28:	5260      	strh	r0, [r4, r1]
    6e2a:	c3e6      	stmia	r3!, {r1, r2, r5, r6, r7}
    6e2c:	1a9f      	subs	r7, r3, r2
    6e2e:	ce13      	ldmia	r6!, {r0, r1, r4}
    6e30:	ea9f e229 			@ <UNDEFINED> instruction: 0xea9fe229
    6e34:	9c1c      	ldr	r4, [sp, #112]	@ 0x70
    6e36:	670a      	str	r2, [r1, #112]	@ 0x70
    6e38:	0652      	lsls	r2, r2, #25
    6e3a:	9fc4      	ldr	r7, [sp, #784]	@ 0x310
    6e3c:	1bfa      	subs	r2, r7, r7
    6e3e:	9fce      	ldr	r7, [sp, #824]	@ 0x338
    6e40:	2e6a      	cmp	r6, #106	@ 0x6a
    6e42:	9bce      	ldr	r3, [sp, #824]	@ 0x338
    6e44:	757a      	strb	r2, [r7, #21]
    6e46:	ace2      	add	r4, sp, #904	@ 0x388
    6e48:	6a9e      	ldr	r6, [r3, #40]	@ 0x28
    6e4a:	523d      	strh	r5, [r7, r0]
    6e4c:	c1c6      	stmia	r1!, {r1, r2, r6, r7}
    6e4e:	6a9f      	ldr	r7, [r3, #40]	@ 0x28
    6e50:	ce16      	ldmia	r6!, {r1, r2, r4}
    6e52:	da9f      	bge.n	0x6d94
    6e54:	5228      	strh	r0, [r5, r0]
    6e56:	c096      	stmia	r0!, {r1, r2, r4, r7}
    6e58:	2a9f      	cmp	r2, #159	@ 0x9f
    6e5a:	ce45      	ldmia	r6, {r0, r2, r6}
    6e5c:	6a98      	ldr	r0, [r3, #40]	@ 0x28
    6e5e:	ce32      	ldmia	r6!, {r1, r4, r5}
    6e60:	aa9f      	add	r2, sp, #636	@ 0x27c
    6e62:	5233      	strh	r3, [r6, r0]
    6e64:	c076      	stmia	r0!, {r1, r2, r4, r5, r6}
    6e66:	0a9f      	lsrs	r7, r3, #10
    6e68:	5269      	strh	r1, [r5, r1]
    6e6a:	c006      	stmia	r0!, {r1, r2}
    6e6c:	6a9f      	ldr	r7, [r3, #40]	@ 0x28
    6e6e:	ce50      	ldmia	r6, {r4, r6}
    6e70:	ea9a ce34 			@ <UNDEFINED> instruction: 0xea9ace34
    6e74:	2a9f      	cmp	r2, #159	@ 0x9f
    6e76:	e236      	b.n	0x72e6
    6e78:	9f5c      	ldr	r7, [sp, #368]	@ 0x170
    6e7a:	594a      	ldr	r2, [r1, r5]
    6e7c:	c652      	stmia	r6!, {r1, r4, r6}
    6e7e:	9f80      	ldr	r7, [sp, #512]	@ 0x200
    6e80:	420a      	tst	r2, r1
    6e82:	9fce      	ldr	r7, [sp, #824]	@ 0x338
    6e84:	434a      	muls	r2, r1
    6e86:	5ce2      	ldrb	r2, [r4, r3]
    6e88:	2a9f      	cmp	r2, #159	@ 0x9f
    6e8a:	e252      	b.n	0x7332
    6e8c:	9cec      	ldr	r4, [sp, #944]	@ 0x3b0
    6e8e:	550a      	strb	r2, [r1, r4]
    6e90:	3652      	adds	r6, #82	@ 0x52
    6e92:	9f84      	ldr	r7, [sp, #528]	@ 0x210
    6e94:	3c0a      	subs	r4, #10
    6e96:	fce2 aa9e 	stc2l	10, cr10, [r2], #632	@ 0x278	@ <UNPREDICTABLE>
    6e9a:	524c      	strh	r4, [r1, r1]
    6e9c:	8006      	strh	r6, [r0, #0]
    6e9e:	aa9f      	add	r2, sp, #636	@ 0x27c
    6ea0:	524d      	strh	r5, [r1, r1]
    6ea2:	7f06      	ldrb	r6, [r0, #28]
    6ea4:	2a9f      	cmp	r2, #159	@ 0x9f
    6ea6:	5235      	strh	r5, [r6, r0]
    6ea8:	0106      	lsls	r6, r0, #4
    6eaa:	6a9e      	ldr	r6, [r3, #40]	@ 0x28
    6eac:	5245      	strh	r5, [r0, r1]
    6eae:	0006      	movs	r6, r0
    6eb0:	6a9f      	ldr	r7, [r3, #40]	@ 0x28
    6eb2:	523f      	strh	r7, [r7, r0]
    6eb4:	0006      	movs	r6, r0
    6eb6:	0a9f      	lsrs	r7, r3, #10
    6eb8:	526e      	strh	r6, [r5, r1]
    6eba:	80b6      	strh	r6, [r6, #4]
    6ebc:	fa9f 5267 			@ <UNDEFINED> instruction: 0xfa9f5267
    6ec0:	8006      	strh	r6, [r0, #0]
    6ec2:	4a9f      	ldr	r2, [pc, #636]	@ (0x7140)
    6ec4:	9969      	ldr	r1, [sp, #420]	@ 0x1a4
    6ec6:	46d8      	mov	r8, fp
    6ec8:	aaa0      	add	r2, sp, #640	@ 0x280
    6eca:	3056      	adds	r0, #86	@ 0x56
    6ecc:	b912      	cbnz	r2, 0x6ed4
    6ece:	e6c8      	b.n	0x6c62
    6ed0:	8614      	strh	r4, [r2, #48]	@ 0x30
    6ed2:	4e02      	ldr	r6, [pc, #8]	@ (0x6edc)
    6ed4:	3961      	subs	r1, #97	@ 0x61
    6ed6:	2310      	movs	r3, #16
    6ed8:	a229      	add	r2, pc, #164	@ (adr r2, 0x6f80)
    6eda:	1000      	asrs	r0, r0, #32
    6edc:	cfd3      	ldmia	r7, {r0, r1, r4, r6, r7}
    6ede:	5991      	ldr	r1, [r2, r6]
    6ee0:	046a      	lsls	r2, r5, #17
    6ee2:	6aaa      	ldr	r2, [r5, #40]	@ 0x28
    6ee4:	2305      	movs	r3, #5
    6ee6:	bb81      	cbnz	r1, 0x6f4a
    6ee8:	14e1      	asrs	r1, r4, #19
    6eea:	0286      	lsls	r6, r0, #10
    6eec:	015a      	lsls	r2, r3, #5
    6eee:	3021      	adds	r0, #33	@ 0x21
    6ef0:	0a22      	lsrs	r2, r4, #8
    6ef2:	2101      	movs	r1, #1
    6ef4:	1ce6      	adds	r6, r4, #3
    6ef6:	c204      	stmia	r2!, {r2}
    6ef8:	056a      	lsls	r2, r5, #21
    6efa:	9123      	str	r1, [sp, #140]	@ 0x8c
    6efc:	66bb      	str	r3, [r7, #104]	@ 0x68
    6efe:	060a      	lsls	r2, r1, #24
    6f00:	9aef      	ldr	r2, [sp, #956]	@ 0x3bc
    6f02:	65f9      	str	r1, [r7, #92]	@ 0x5c
    6f04:	aa04      	add	r2, sp, #16
    6f06:	056a      	lsls	r2, r5, #21
    6f08:	9123      	str	r1, [sp, #140]	@ 0x8c
    6f0a:	64fb      	str	r3, [r7, #76]	@ 0x4c
    6f0c:	614e      	str	r6, [r1, #20]
    6f0e:	e028      	b.n	0x6f62
    6f10:	9614      	str	r6, [sp, #80]	@ 0x50
    6f12:	2103      	movs	r1, #3
    6f14:	234e      	movs	r3, #78	@ 0x4e
    6f16:	050a      	lsls	r2, r1, #20
    6f18:	c121      	stmia	r1!, {r0, r5}
    6f1a:	991c      	ldr	r1, [sp, #112]	@ 0x70
    6f1c:	462c      	mov	r4, r5
    6f1e:	aaa0      	add	r2, sp, #640	@ 0x280
    6f20:	3056      	adds	r0, #86	@ 0x56
    6f22:	b812      			@ <UNDEFINED> instruction: 0xb812
    6f24:	4e1b      	ldr	r6, [pc, #108]	@ (0x6f94)
    6f26:	2861      	cmp	r0, #97	@ 0x61
    6f28:	15a0      	asrs	r0, r4, #22
    6f2a:	7310      	strb	r0, [r2, #12]
    6f2c:	a231      	add	r2, pc, #196	@ (adr r2, 0x6ff4)
    6f2e:	1060      	asrs	r0, r4, #1
    6f30:	ca93      	ldmia	r2!, {r0, r1, r4, r7}
    6f32:	2041      	movs	r0, #65	@ 0x41
    6f34:	56ac      	ldrsb	r4, [r5, r2]
    6f36:	1230      	asrs	r0, r6, #8
    6f38:	f2b9 80a5 	bge.w	0x40086
    6f3c:	aef0      	add	r6, sp, #960	@ 0x3c0
    6f3e:	e699      	b.n	0x6c74
    6f40:	a045      	add	r0, pc, #276	@ (adr r0, 0x7058)
    6f42:	56aa      	ldrsb	r2, [r5, r2]
    6f44:	1230      	asrs	r0, r6, #8
    6f46:	d6b9      	bvs.n	0x6ebc
    6f48:	9315      	str	r3, [sp, #84]	@ 0x54
    6f4a:	a1f5      	add	r1, pc, #980	@ (adr r1, 0x7320)
    6f4c:	1080      	asrs	r0, r0, #2
    6f4e:	c8b3      	ldmia	r0, {r0, r1, r4, r5, r7}
    6f50:	1991      	adds	r1, r2, r6
    6f52:	045c      	lsls	r4, r3, #17
    6f54:	6aad      	ldr	r5, [r5, #40]	@ 0x28
    6f56:	2305      	movs	r3, #5
    6f58:	bb81      	cbnz	r1, 0x6fbc
    6f5a:	14e1      	asrs	r1, r4, #19
    6f5c:	0286      	lsls	r6, r0, #10
    6f5e:	015a      	lsls	r2, r3, #5
    6f60:	3d21      	subs	r5, #33	@ 0x21
    6f62:	0a22      	lsrs	r2, r4, #8
    6f64:	2101      	movs	r1, #1
    6f66:	1c44      	adds	r4, r0, #1
    6f68:	aa04      	add	r2, sp, #16
    6f6a:	056a      	lsls	r2, r5, #21
    6f6c:	9123      	str	r1, [sp, #140]	@ 0x8c
    6f6e:	0a52      	lsrs	r2, r2, #9
    6f70:	2104      	movs	r1, #4
    6f72:	1c68      	adds	r0, r5, #1
    6f74:	c204      	stmia	r2!, {r2}
    6f76:	056a      	lsls	r2, r5, #21
    6f78:	9123      	str	r1, [sp, #140]	@ 0x8c
    6f7a:	56fb      	ldrsb	r3, [r7, r3]
    6f7c:	070a      	lsls	r2, r1, #28
    6f7e:	9aef      	ldr	r2, [sp, #956]	@ 0x3bc
    6f80:	5639      	ldrsb	r1, [r7, r0]
    6f82:	ad04      	add	r5, sp, #16
    6f84:	056a      	lsls	r2, r5, #21
    6f86:	9123      	str	r1, [sp, #140]	@ 0x8c
    6f88:	553b      	strb	r3, [r7, r4]
    6f8a:	614e      	str	r6, [r1, #20]
    6f8c:	e028      	b.n	0x6fe0
    6f8e:	9614      	str	r6, [sp, #80]	@ 0x50
    6f90:	2103      	movs	r1, #3
    6f92:	225e      	movs	r2, #94	@ 0x5e
    6f94:	000a      	movs	r2, r1
    6f96:	1321      	asrs	r1, r4, #12
    6f98:	991c      	ldr	r1, [sp, #112]	@ 0x70
    6f9a:	4530      	cmp	r0, r6
    6f9c:	aad0      	add	r2, sp, #832	@ 0x340
    6f9e:	3056      	adds	r0, #86	@ 0x56
    6fa0:	b912      	cbnz	r2, 0x6fa8
    6fa2:	e520      	b.n	0x69e6
    6fa4:	8614      	strh	r4, [r2, #48]	@ 0x30
    6fa6:	4e02      	ldr	r6, [pc, #8]	@ (0x6fb0)
    6fa8:	3961      	subs	r1, #97	@ 0x61
    6faa:	e310      	b.n	0x75ce
    6fac:	a22f      	add	r2, pc, #188	@ (adr r2, 0x706c)
    6fae:	1030      	asrs	r0, r6, #32
    6fb0:	bf93      	iteet	ls
    6fb2:	d991      	bls.n	0x6ed8	@ unpredictable <IT:ls>
    6fb4:	044f      	lslhi	r7, r1, #17
    6fb6:	6aad      	ldrhi	r5, [r5, #40]	@ 0x28
    6fb8:	2305      	movls	r3, #5
    6fba:	bb81      	cbnz	r1, 0x701e
    6fbc:	14e1      	asrs	r1, r4, #19
    6fbe:	0286      	lsls	r6, r0, #10
    6fc0:	015a      	lsls	r2, r3, #5
    6fc2:	c821      	ldmia	r0, {r0, r5}
    6fc4:	0a22      	lsrs	r2, r4, #8
    6fc6:	2104      	movs	r1, #4
    6fc8:	1be2      	subs	r2, r4, r7
    6fca:	c204      	stmia	r2!, {r2}
    6fcc:	056a      	lsls	r2, r5, #21
    6fce:	9123      	str	r1, [sp, #140]	@ 0x8c
    6fd0:	4c3b      	ldr	r4, [pc, #236]	@ (0x70c0)
    6fd2:	090a      	lsrs	r2, r1, #4
    6fd4:	9aef      	ldr	r2, [sp, #956]	@ 0x3bc
    6fd6:	4b79      	ldr	r3, [pc, #484]	@ (0x71bc)
    6fd8:	ad04      	add	r5, sp, #16
    6fda:	056a      	lsls	r2, r5, #21
    6fdc:	9123      	str	r1, [sp, #140]	@ 0x8c
    6fde:	0a52      	lsrs	r2, r2, #9
    6fe0:	2105      	movs	r1, #5
    6fe2:	1bc8      	subs	r0, r1, r7
    6fe4:	c204      	stmia	r2!, {r2}
    6fe6:	056a      	lsls	r2, r5, #21
    6fe8:	9123      	str	r1, [sp, #140]	@ 0x8c
    6fea:	48fb      	ldr	r0, [pc, #1004]	@ (0x73d8)
    6fec:	020a      	lsls	r2, r1, #8
    6fee:	9aef      	ldr	r2, [sp, #956]	@ 0x3bc
    6ff0:	4839      	ldr	r0, [pc, #228]	@ (0x70d8)
    6ff2:	c204      	stmia	r2!, {r2}
    6ff4:	056a      	lsls	r2, r5, #21
    6ff6:	9123      	str	r1, [sp, #140]	@ 0x8c
    6ff8:	473b      	bx	r7
    6ffa:	0a0a      	lsrs	r2, r1, #8
    6ffc:	9aef      	ldr	r2, [sp, #956]	@ 0x3bc
    6ffe:	4679      	mov	r1, pc
    7000:	aa04      	add	r2, sp, #16
    7002:	056a      	lsls	r2, r5, #21
    7004:	9123      	str	r1, [sp, #140]	@ 0x8c
    7006:	0a52      	lsrs	r2, r2, #9
    7008:	2107      	movs	r1, #7
    700a:	1bd0      	subs	r0, r2, r7
    700c:	c204      	stmia	r2!, {r2}
    700e:	056a      	lsls	r2, r5, #21
    7010:	9123      	str	r1, [sp, #140]	@ 0x8c
    7012:	43fb      	mvns	r3, r7
    7014:	0b0a      	lsrs	r2, r1, #12
    7016:	9aef      	ldr	r2, [sp, #956]	@ 0x3bc
    7018:	4339      	orrs	r1, r7
    701a:	c204      	stmia	r2!, {r2}
    701c:	056a      	lsls	r2, r5, #21
    701e:	9123      	str	r1, [sp, #140]	@ 0x8c
    7020:	423b      	tst	r3, r7
    7022:	0c0a      	lsrs	r2, r1, #16
    7024:	9aef      	ldr	r2, [sp, #956]	@ 0x3bc
    7026:	4179      	adcs	r1, r7
    7028:	c204      	stmia	r2!, {r2}
    702a:	056a      	lsls	r2, r5, #21
    702c:	9123      	str	r1, [sp, #140]	@ 0x8c
    702e:	407b      	eors	r3, r7
    7030:	0d0a      	lsrs	r2, r1, #20
    7032:	9aef      	ldr	r2, [sp, #956]	@ 0x3bc
    7034:	3fb9      	subs	r7, #185	@ 0xb9
    7036:	c204      	stmia	r2!, {r2}
    7038:	056a      	lsls	r2, r5, #21
    703a:	9123      	str	r1, [sp, #140]	@ 0x8c
    703c:	0a33      	lsrs	r3, r6, #8
    703e:	ef26 a04a 	vhadd.s32	q5, q3, q5
    7042:	56aa      	ldrsb	r2, [r5, r2]
    7044:	1230      	asrs	r0, r6, #8
    7046:	d6b9      	bvs.n	0x6fbc
    7048:	20a3      	movs	r0, #163	@ 0xa3
    704a:	e310      	b.n	0x766e
    704c:	91b8      	str	r1, [sp, #736]	@ 0x2e0
    704e:	3c79      	subs	r4, #121	@ 0x79
    7050:	c204      	stmia	r2!, {r2}
    7052:	056a      	lsls	r2, r5, #21
    7054:	9123      	str	r1, [sp, #140]	@ 0x8c
    7056:	0a33      	lsrs	r3, r6, #8
    7058:	ef03 a04a 	vhadd.s8	q5, <illegal reg q1.5>, q5
    705c:	56aa      	ldrsb	r2, [r5, r2]
    705e:	1230      	asrs	r0, r6, #8
    7060:	a529      	add	r5, pc, #164	@ (adr r5, 0x7108)
    7062:	1030      	asrs	r0, r6, #32
    7064:	b753      			@ <UNDEFINED> instruction: 0xb753
    7066:	d041      	beq.n	0x70ec
    7068:	56aa      	ldrsb	r2, [r5, r2]
    706a:	1230      	asrs	r0, r6, #8
    706c:	8ab9      	ldrh	r1, [r7, #20]
    706e:	20a3      	movs	r0, #163	@ 0xa3
    7070:	8310      	strh	r0, [r2, #24]
    7072:	91b3      	str	r1, [sp, #716]	@ 0x2cc
    7074:	37b9      	adds	r7, #185	@ 0xb9
    7076:	c204      	stmia	r2!, {r2}
    7078:	056a      	lsls	r2, r5, #21
    707a:	9123      	str	r1, [sp, #140]	@ 0x8c
    707c:	36bb      	adds	r6, #187	@ 0xbb
    707e:	010a      	lsls	r2, r1, #4
    7080:	9aef      	ldr	r2, [sp, #956]	@ 0x3bc
    7082:	35f9      	adds	r5, #249	@ 0xf9
    7084:	c204      	stmia	r2!, {r2}
    7086:	056a      	lsls	r2, r5, #21
    7088:	9123      	str	r1, [sp, #140]	@ 0x8c
    708a:	34fb      	adds	r4, #251	@ 0xfb
    708c:	0e0a      	lsrs	r2, r1, #24
    708e:	9aef      	ldr	r2, [sp, #956]	@ 0x3bc
    7090:	3439      	adds	r4, #57	@ 0x39
    7092:	c204      	stmia	r2!, {r2}
    7094:	056a      	lsls	r2, r5, #21
    7096:	9123      	str	r1, [sp, #140]	@ 0x8c
    7098:	333b      	adds	r3, #59	@ 0x3b
    709a:	0f0a      	lsrs	r2, r1, #28
    709c:	9aef      	ldr	r2, [sp, #956]	@ 0x3bc
    709e:	3279      	adds	r2, #121	@ 0x79
    70a0:	c204      	stmia	r2!, {r2}
    70a2:	056a      	lsls	r2, r5, #21
    70a4:	9123      	str	r1, [sp, #140]	@ 0x8c
    70a6:	317b      	adds	r1, #123	@ 0x7b
    70a8:	100a      	asrs	r2, r1, #32
    70aa:	9aef      	ldr	r2, [sp, #956]	@ 0x3bc
    70ac:	30b9      	adds	r0, #185	@ 0xb9
    70ae:	c204      	stmia	r2!, {r2}
    70b0:	056a      	lsls	r2, r5, #21
    70b2:	9123      	str	r1, [sp, #140]	@ 0x8c
    70b4:	2fbb      	cmp	r7, #187	@ 0xbb
    70b6:	160a      	asrs	r2, r1, #24
    70b8:	9aef      	ldr	r2, [sp, #956]	@ 0x3bc
    70ba:	2ef9      	cmp	r6, #249	@ 0xf9
    70bc:	c204      	stmia	r2!, {r2}
    70be:	056a      	lsls	r2, r5, #21
    70c0:	9123      	str	r1, [sp, #140]	@ 0x8c
    70c2:	2dfb      	cmp	r5, #251	@ 0xfb
    70c4:	170a      	asrs	r2, r1, #28
    70c6:	9aef      	ldr	r2, [sp, #956]	@ 0x3bc
    70c8:	2d39      	cmp	r5, #57	@ 0x39
    70ca:	c204      	stmia	r2!, {r2}
    70cc:	056a      	lsls	r2, r5, #21
    70ce:	9123      	str	r1, [sp, #140]	@ 0x8c
    70d0:	2c3b      	cmp	r4, #59	@ 0x3b
    70d2:	110a      	asrs	r2, r1, #4
    70d4:	9aef      	ldr	r2, [sp, #956]	@ 0x3bc
    70d6:	2b79      	cmp	r3, #121	@ 0x79
    70d8:	c204      	stmia	r2!, {r2}
    70da:	056a      	lsls	r2, r5, #21
    70dc:	8123      	strh	r3, [r4, #8]
    70de:	a13b      	add	r1, pc, #236	@ (adr r1, 0x71cc)
    70e0:	f120 51ae 			@ <UNDEFINED> instruction: 0xf12051ae
    70e4:	1c41      	adds	r1, r0, #1
    70e6:	5990      	ldr	r0, [r2, r6]
    70e8:	4629      	mov	r1, r5
    70ea:	15a0      	asrs	r0, r4, #22
    70ec:	c310      	stmia	r3!, {r4}
    70ee:	91b4      	str	r1, [sp, #720]	@ 0x2d0
    70f0:	2839      	cmp	r0, #57	@ 0x39
    70f2:	c204      	stmia	r2!, {r2}
    70f4:	056a      	lsls	r2, r5, #21
    70f6:	9123      	str	r1, [sp, #140]	@ 0x8c
    70f8:	273b      	movs	r7, #59	@ 0x3b
    70fa:	130a      	asrs	r2, r1, #12
    70fc:	9aef      	ldr	r2, [sp, #956]	@ 0x3bc
    70fe:	2679      	movs	r6, #121	@ 0x79
    7100:	c204      	stmia	r2!, {r2}
    7102:	056a      	lsls	r2, r5, #21
    7104:	9123      	str	r1, [sp, #140]	@ 0x8c
    7106:	257b      	movs	r5, #123	@ 0x7b
    7108:	180a      	adds	r2, r1, r0
    710a:	9aef      	ldr	r2, [sp, #956]	@ 0x3bc
    710c:	24b9      	movs	r4, #185	@ 0xb9
    710e:	c204      	stmia	r2!, {r2}
    7110:	056a      	lsls	r2, r5, #21
    7112:	9123      	str	r1, [sp, #140]	@ 0x8c
    7114:	23bb      	movs	r3, #187	@ 0xbb
    7116:	190a      	adds	r2, r1, r4
    7118:	9aef      	ldr	r2, [sp, #956]	@ 0x3bc
    711a:	22f9      	movs	r2, #249	@ 0xf9
    711c:	c204      	stmia	r2!, {r2}
    711e:	056a      	lsls	r2, r5, #21
    7120:	9123      	str	r1, [sp, #140]	@ 0x8c
    7122:	21fb      	movs	r1, #251	@ 0xfb
    7124:	1a0a      	subs	r2, r1, r0
    7126:	9aef      	ldr	r2, [sp, #956]	@ 0x3bc
    7128:	2139      	movs	r1, #57	@ 0x39
    712a:	c204      	stmia	r2!, {r2}
    712c:	056a      	lsls	r2, r5, #21
    712e:	9123      	str	r1, [sp, #140]	@ 0x8c
    7130:	203b      	movs	r0, #59	@ 0x3b
    7132:	1b0a      	subs	r2, r1, r4
    7134:	9aef      	ldr	r2, [sp, #956]	@ 0x3bc
    7136:	1f79      	subs	r1, r7, #5
    7138:	c204      	stmia	r2!, {r2}
    713a:	056a      	lsls	r2, r5, #21
    713c:	9123      	str	r1, [sp, #140]	@ 0x8c
    713e:	1e7b      	subs	r3, r7, #1
    7140:	1d0a      	adds	r2, r1, #4
    7142:	9aef      	ldr	r2, [sp, #956]	@ 0x3bc
    7144:	1db9      	adds	r1, r7, #6
    7146:	c204      	stmia	r2!, {r2}
    7148:	056a      	lsls	r2, r5, #21
    714a:	9123      	str	r1, [sp, #140]	@ 0x8c
    714c:	1cbb      	adds	r3, r7, #2
    714e:	1e0a      	subs	r2, r1, #0
    7150:	9aef      	ldr	r2, [sp, #956]	@ 0x3bc
    7152:	1bf9      	subs	r1, r7, r7
    7154:	c204      	stmia	r2!, {r2}
    7156:	056a      	lsls	r2, r5, #21
    7158:	9123      	str	r1, [sp, #140]	@ 0x8c
    715a:	1afb      	subs	r3, r7, r3
    715c:	1f0a      	subs	r2, r1, #4
    715e:	9aef      	ldr	r2, [sp, #956]	@ 0x3bc
    7160:	1a39      	subs	r1, r7, r0
    7162:	c204      	stmia	r2!, {r2}
    7164:	056a      	lsls	r2, r5, #21
    7166:	9123      	str	r1, [sp, #140]	@ 0x8c
    7168:	193b      	adds	r3, r7, r4
    716a:	270a      	movs	r7, #10
    716c:	9aef      	ldr	r2, [sp, #956]	@ 0x3bc
    716e:	1879      	adds	r1, r7, r1
    7170:	c204      	stmia	r2!, {r2}
    7172:	056a      	lsls	r2, r5, #21
    7174:	9123      	str	r1, [sp, #140]	@ 0x8c
    7176:	177b      	asrs	r3, r7, #29
    7178:	614e      	str	r6, [r1, #20]
    717a:	5028      	str	r0, [r5, r0]
    717c:	c100      	stmia	r1!, {}
    717e:	614e      	str	r6, [r1, #20]
    7180:	5038      	str	r0, [r7, r0]
    7182:	c110      	stmia	r1!, {r4}
    7184:	614e      	str	r6, [r1, #20]
    7186:	5048      	str	r0, [r1, r1]
    7188:	c120      	stmia	r1!, {r5}
    718a:	614e      	str	r6, [r1, #20]
    718c:	5058      	str	r0, [r3, r1]
    718e:	c130      	stmia	r1!, {r4, r5}
    7190:	614e      	str	r6, [r1, #20]
    7192:	5068      	str	r0, [r5, r1]
    7194:	c140      	stmia	r1!, {r6}
    7196:	614e      	str	r6, [r1, #20]
    7198:	5078      	str	r0, [r7, r1]
    719a:	c150      	stmia	r1!, {r4, r6}
    719c:	280a      	cmp	r0, #10
    719e:	1aef      	subs	r7, r5, r3
    71a0:	ed13 18d4 	ldc	8, cr1, [r3, #-848]	@ 0xfffffcb0
    71a4:	1060      	asrs	r0, r4, #1
    71a6:	87b3      	strh	r3, [r6, #60]	@ 0x3c
    71a8:	6314      	str	r4, [r2, #48]	@ 0x30
    71aa:	133f      	asrs	r7, r7, #12
    71ac:	c663      	stmia	r6!, {r0, r1, r5, r6}
    71ae:	599e      	ldr	r6, [r3, r6]
    71b0:	4e10      	ldr	r6, [pc, #64]	@ (0x71f4)
    71b2:	2861      	cmp	r0, #97	@ 0x61
    71b4:	28d0      	cmp	r0, #208	@ 0xd0
    71b6:	6330      	str	r0, [r6, #48]	@ 0x30
    71b8:	1404      	asrs	r4, r0, #16
    71ba:	3c3b      	subs	r4, #59	@ 0x3b
    71bc:	a842      	add	r0, sp, #264	@ 0x108
    71be:	0412      	lsls	r2, r2, #16
    71c0:	8c3c      	ldrh	r4, [r7, #32]
    71c2:	0d10      	lsrs	r0, r2, #20
    71c4:	5046      	str	r6, [r0, r1]
    71c6:	c3b0      	stmia	r3!, {r4, r5, r7}
    71c8:	400a      	ands	r2, r1
    71ca:	005a      	lsls	r2, r3, #1
    71cc:	db21      	blt.n	0x7212
    71ce:	9832      	ldr	r0, [sp, #200]	@ 0xc8
    71d0:	0418      	lsls	r0, r3, #16
    71d2:	8c3d      	ldrh	r5, [r7, #32]
    71d4:	0d10      	lsrs	r0, r2, #20
    71d6:	200a      	movs	r0, #10
    71d8:	005a      	lsls	r2, r3, #1
    71da:	cd21      	ldmia	r5, {r0, r5}
    71dc:	5032      	str	r2, [r6, r0]
    71de:	1c3c      	adds	r4, r7, #0
    71e0:	3220      	adds	r2, #32
    71e2:	0a0b      	lsrs	r3, r1, #8
    71e4:	5a0b      	ldrh	r3, [r1, r0]
    71e6:	ef01 046d 	vshl.s8	q0, <illegal reg q14.5>, <illegal reg q0.5>
    71ea:	005a      	lsls	r2, r3, #1
    71ec:	4d21      	ldr	r5, [pc, #132]	@ (0x7274)
    71ee:	991a      	ldr	r1, [sp, #104]	@ 0x68
    71f0:	4084      	lsls	r4, r0
    71f2:	ac20      	add	r4, sp, #128	@ 0x80
    71f4:	3056      	adds	r0, #86	@ 0x56
    71f6:	b812      			@ <UNDEFINED> instruction: 0xb812
    71f8:	0a75      	lsrs	r5, r6, #9
    71fa:	ef20 a98a 	vmla.i32	d10, d16, d10
    71fe:	2046      	movs	r0, #70	@ 0x46
    7200:	56ac      	ldrsb	r4, [r5, r2]
    7202:	1230      	asrs	r0, r6, #8
    7204:	5bb8      	ldrh	r0, [r7, r6]
    7206:	210a      	movs	r1, #10
    7208:	1aef      	subs	r7, r5, r3
    720a:	c425      	stmia	r4!, {r0, r2, r5}
    720c:	9801      	ldr	r0, [sp, #4]
    720e:	0449      	lsls	r1, r1, #17
    7210:	6ac2      	ldr	r2, [r0, #44]	@ 0x2c
    7212:	2305      	movs	r3, #5
    7214:	ab81      	add	r3, sp, #516	@ 0x204
    7216:	30a3      	adds	r0, #163	@ 0xa3
    7218:	aef2      	add	r6, sp, #968	@ 0x3c8
    721a:	2f98      	cmp	r7, #152	@ 0x98
    721c:	c204      	stmia	r2!, {r2}
    721e:	056a      	lsls	r2, r5, #21
    7220:	8123      	strh	r3, [r4, #8]
    7222:	a20b      	add	r2, pc, #44	@ (adr r2, 0x7250)
    7224:	f050 98ae 	b.w	0x857384
    7228:	0415      	lsls	r5, r2, #16
    722a:	6ac2      	ldr	r2, [r0, #44]	@ 0x2c
    722c:	2305      	movs	r3, #5
    722e:	3391      	adds	r3, #145	@ 0x91
    7230:	000a      	movs	r2, r1
    7232:	faef 103d 			@ <UNDEFINED> instruction: 0xfaef103d
    7236:	f7cf 714f 			@ <UNDEFINED> instruction: 0xf7cf714f
    723a:	4e04      	ldr	r6, [pc, #16]	@ (0x724c)
    723c:	652c      	str	r4, [r5, #80]	@ 0x50
    723e:	f5f6 43a8 			@ <UNDEFINED> instruction: 0xf5f643a8
    7242:	8fce      	ldrh	r6, [r1, #62]	@ 0x3e
    7244:	25fa      	movs	r5, #250	@ 0xfa
    7246:	0165      	lsls	r5, r4, #5
    7248:	a8f8      	add	r0, sp, #992	@ 0x3e0
    724a:	ce77      	ldmia	r6, {r0, r1, r2, r4, r5, r6}
    724c:	1a9f      	subs	r7, r3, r2
    724e:	5209      	strh	r1, [r1, r0]
    7250:	4076      	eors	r6, r6
    7252:	0a9f      	lsrs	r7, r3, #10
    7254:	520d      	strh	r5, [r1, r0]
    7256:	bee6      	bkpt	0x00e6
    7258:	aa9b      	add	r2, sp, #620	@ 0x26c
    725a:	5209      	strh	r1, [r1, r0]
    725c:	80b6      	strh	r6, [r6, #4]
    725e:	9a9d      	ldr	r2, [sp, #628]	@ 0x274
    7260:	990c      	ldr	r1, [sp, #48]	@ 0x30
    7262:	40d9      	lsrs	r1, r3
    7264:	aaa0      	add	r2, sp, #640	@ 0x280
    7266:	3056      	adds	r0, #86	@ 0x56
    7268:	b912      	cbnz	r2, 0x7270
    726a:	a0c9      	add	r0, pc, #804	@ (adr r0, 0x7590)
    726c:	a000      	add	r0, pc, #0	@ (adr r0, 0x7270)
    726e:	1005      	asrs	r5, r0, #32
    7270:	eae3 6991 			@ <UNDEFINED> instruction: 0xeae36991
    7274:	040b      	lsls	r3, r1, #16
    7276:	6aad      	ldr	r5, [r5, #40]	@ 0x28
    7278:	2305      	movs	r3, #5
    727a:	6b91      	ldr	r1, [r2, #56]	@ 0x38
    727c:	0a0a      	lsrs	r2, r1, #8
    727e:	5a00      	ldrh	r0, [r0, r0]
    7280:	2100      	movs	r1, #0
    7282:	1f1c      	subs	r4, r3, #4
    7284:	9399      	str	r3, [sp, #612]	@ 0x264
    7286:	a040      	add	r0, pc, #256	@ (adr r0, 0x7388)
    7288:	56aa      	ldrsb	r2, [r5, r2]
    728a:	1230      	asrs	r0, r6, #8
    728c:	83b9      	strh	r1, [r7, #28]
    728e:	00a0      	lsls	r0, r4, #2
    7290:	05a0      	lsls	r0, r4, #22
    7292:	f310 81fa 	bgt.w	0x1768a
    7296:	4719      	bx	r3
    7298:	aad0      	add	r2, sp, #832	@ 0x340
    729a:	3056      	adds	r0, #86	@ 0x56
    729c:	b812      			@ <UNDEFINED> instruction: 0xb812
    729e:	0a62      	lsrs	r2, r4, #9
    72a0:	5a00      	ldrh	r0, [r0, r0]
    72a2:	2100      	movs	r1, #0
    72a4:	1fe7      	subs	r7, r4, #7
    72a6:	5098      	str	r0, [r3, r2]
    72a8:	c204      	stmia	r2!, {r2}
    72aa:	056a      	lsls	r2, r5, #21
    72ac:	9123      	str	r1, [sp, #140]	@ 0x8c
    72ae:	5153      	str	r3, [r2, r5]
    72b0:	0c41      	lsrs	r1, r0, #17
    72b2:	7980      	ldrb	r0, [r0, #6]
    72b4:	0463      	lsls	r3, r4, #17
    72b6:	015a      	lsls	r2, r3, #5
    72b8:	8121      	strh	r1, [r4, #8]
    72ba:	9819      	ldr	r0, [sp, #100]	@ 0x64
    72bc:	4626      	mov	r6, r4
    72be:	05a0      	lsls	r0, r4, #22
    72c0:	8310      	strh	r0, [r2, #24]
    72c2:	8197      	strh	r7, [r2, #12]
    72c4:	4159      	adcs	r1, r3
    72c6:	ac20      	add	r4, sp, #128	@ 0x80
    72c8:	3056      	adds	r0, #86	@ 0x56
    72ca:	3912      	subs	r1, #18
    72cc:	2513      	movs	r5, #19
    72ce:	00c4      	lsls	r4, r0, #3
    72d0:	214e      	movs	r1, #78	@ 0x4e
    72d2:	efce 14a8 	vaddhn.i16	d17, q15, q12
    72d6:	8fce      	ldrh	r6, [r1, #62]	@ 0x3e
    72d8:	216a      	movs	r1, #106	@ 0x6a
    72da:	d2ce      	bcs.n	0x727a
    72dc:	16a8      	asrs	r0, r5, #26
    72de:	1898      	adds	r0, r3, r2
    72e0:	fc6e fe36 	stc2l	14, cr15, [lr], #-216	@ 0xffffff28
    72e4:	c6e7      	stmia	r6!, {r0, r1, r2, r5, r6, r7}
    72e6:	e56f      	b.n	0x6dc8
    72e8:	6e3e      	ldr	r6, [r7, #96]	@ 0x60
    72ea:	76fc      	strb	r4, [r7, #27]
    72ec:	09cf      	lsrs	r7, r1, #7
    72ee:	df10      	svc	16
    72f0:	167e      	asrs	r6, r7, #25
    72f2:	4047      	eors	r7, r0
    72f4:	aad0      	add	r2, sp, #832	@ 0x340
    72f6:	ff8c 4663 	vmlsl.u<illegal width 8>	q2, d12, d3[4]
    72fa:	35a0      	adds	r5, #160	@ 0xa0
    72fc:	ef20 01aa 	vrhadd.s32	d0, d16, d26
    7300:	e3ed      	b.n	0x7ade
    7302:	520a      	strh	r2, [r1, r0]
    7304:	6a58      	ldr	r0, [r3, #36]	@ 0x24
    7306:	5a04      	ldrh	r4, [r0, r0]
    7308:	f203 3ede 	addw	lr, r3, #990	@ 0x3de
    730c:	20ae      	movs	r0, #174	@ 0xae
    730e:	0a85      	lsrs	r5, r0, #10
    7310:	8700      	strh	r0, [r0, #56]	@ 0x38
    7312:	4601      	mov	r1, r0
    7314:	2580      	movs	r5, #128	@ 0x80
    7316:	5291      	strh	r1, [r2, r2]
    7318:	eed0 242f 	cdp	4, 13, cr2, cr0, cr15, {1}
    731c:	a685      	add	r6, pc, #532	@ (adr r6, 0x7534)
    731e:	4601      	mov	r1, r0
    7320:	35a0      	adds	r5, #160	@ 0xa0
    7322:	ef20 e3ed 	vcgt.s32	q7, q8, <illegal reg q14.5>
    7326:	520a      	strh	r2, [r1, r0]
    7328:	2a78      	cmp	r2, #120	@ 0x78
    732a:	1660      	asrs	r0, r4, #25
    732c:	02df      	lsls	r7, r3, #11
    732e:	dff1      	svc	241	@ 0xf1
    7330:	167e      	asrs	r6, r7, #25
    7332:	4047      	eors	r7, r0
    7334:	aaa0      	add	r2, sp, #640	@ 0x280
    7336:	ff8c 4663 	vmlsl.u<illegal width 8>	q2, d12, d3[4]
    733a:	35a0      	adds	r5, #160	@ 0xa0
    733c:	ef20 01aa 	vrhadd.s32	d0, d16, d26
    7340:	c8ed      	ldmia	r0, {r0, r2, r3, r5, r6, r7}
    7342:	520a      	strh	r2, [r1, r0]
    7344:	6a58      	ldr	r0, [r3, #36]	@ 0x24
    7346:	5a04      	ldrh	r4, [r0, r0]
    7348:	f203 8ede 	bhi.w	0x8b108
    734c:	20ac      	movs	r0, #172	@ 0xac
    734e:	0a85      	lsrs	r5, r0, #10
    7350:	8700      	strh	r0, [r0, #56]	@ 0x38
    7352:	4601      	mov	r1, r0
    7354:	2580      	movs	r5, #128	@ 0x80
    7356:	5291      	strh	r1, [r2, r2]
    7358:	aed0      	add	r6, sp, #832	@ 0x340
    735a:	242d      	movs	r4, #45	@ 0x2d
    735c:	a685      	add	r6, pc, #532	@ (adr r6, 0x7574)
    735e:	4601      	mov	r1, r0
    7360:	35a0      	adds	r5, #160	@ 0xa0
    7362:	ef20 c8ed 	vadd.i32	q6, q8, <illegal reg q14.5>
    7366:	520a      	strh	r2, [r1, r0]
    7368:	2a78      	cmp	r2, #120	@ 0x78
    736a:	1660      	asrs	r0, r4, #25
    736c:	02df      	lsls	r7, r3, #11
    736e:	dff1      	svc	241	@ 0xf1
    7370:	167e      	asrs	r6, r7, #25
    7372:	4047      	eors	r7, r0
    7374:	ac20      	add	r4, sp, #128	@ 0x80
    7376:	ff8c 4663 	vmlsl.u<illegal width 8>	q2, d12, d3[4]
    737a:	35a0      	adds	r5, #160	@ 0xa0
    737c:	ef20 01aa 	vrhadd.s32	d0, d16, d26
    7380:	f5ed 520a 			@ <UNDEFINED> instruction: 0xf5ed520a
    7384:	6a58      	ldr	r0, [r3, #36]	@ 0x24
    7386:	5a04      	ldrh	r4, [r0, r0]
    7388:	f203 5ede 	addw	lr, r3, #1502	@ 0x5de
    738c:	20af      	movs	r0, #175	@ 0xaf
    738e:	0a85      	lsrs	r5, r0, #10
    7390:	8700      	strh	r0, [r0, #56]	@ 0x38
    7392:	4601      	mov	r1, r0
    7394:	2580      	movs	r5, #128	@ 0x80
    7396:	5291      	strh	r1, [r2, r2]
    7398:	6ed0      	ldr	r0, [r2, #108]	@ 0x6c
    739a:	2431      	movs	r4, #49	@ 0x31
    739c:	a685      	add	r6, pc, #532	@ (adr r6, 0x75b4)
    739e:	4601      	mov	r1, r0
    73a0:	35a0      	adds	r5, #160	@ 0xa0
    73a2:	ef20 f5ed 	vrshl.s32	<illegal reg q7.5>, <illegal reg q14.5>, q8
    73a6:	520a      	strh	r2, [r1, r0]
    73a8:	2a78      	cmp	r2, #120	@ 0x78
    73aa:	1660      	asrs	r0, r4, #25
    73ac:	02df      	lsls	r7, r3, #11
    73ae:	dff1      	svc	241	@ 0xf1
    73b0:	37fb      	adds	r7, #251	@ 0xfb
    73b2:	7057      	strb	r7, [r2, #1]
    73b4:	4614      	mov	r4, r2
    73b6:	35a1      	adds	r5, #161	@ 0xa1
    73b8:	ef20 aaed 	vpmax.s32	q5, q8, <illegal reg q14.5>
    73bc:	520a      	strh	r2, [r1, r0]
    73be:	2848      	cmp	r0, #72	@ 0x48
    73c0:	ff8c 60a5 	vaddl.u8	q3, d28, d21
    73c4:	a214      	add	r2, pc, #80	@ (adr r2, 0x7418)
    73c6:	7020      	strb	r0, [r4, #0]
    73c8:	4624      	mov	r4, r4
    73ca:	65a2      	str	r2, [r4, #88]	@ 0x58
    73cc:	ef20 6182 	vrhadd.s32	d6, d16, d2
    73d0:	5a04      	ldrh	r4, [r0, r0]
    73d2:	f203 e42e 	blx	0x60ac30
    73d6:	a852      	add	r0, sp, #328	@ 0x148
    73d8:	2010      	movs	r0, #16
    73da:	7087      	strb	r7, [r0, #2]
    73dc:	460b      	mov	r3, r1
    73de:	65a2      	str	r2, [r4, #88]	@ 0x58
    73e0:	ef20 6182 	vrhadd.s32	d6, d16, d2
    73e4:	5a04      	ldrh	r4, [r0, r0]
    73e6:	f203 e42e 	blx	0x60ac44
    73ea:	2852      	cmp	r0, #82	@ 0x52
    73ec:	7065      	strb	r5, [r4, #1]
    73ee:	0a0b      	lsrs	r3, r1, #8
    73f0:	8700      	strh	r0, [r0, #56]	@ 0x38
    73f2:	4601      	mov	r1, r0
    73f4:	2580      	movs	r5, #128	@ 0x80
    73f6:	5291      	strh	r1, [r2, r2]
    73f8:	aed0      	add	r6, sp, #832	@ 0x340
    73fa:	243b      	movs	r4, #59	@ 0x3b
    73fc:	8685      	strh	r5, [r0, #52]	@ 0x34
    73fe:	4701      	bx	r0
    7400:	2461      	movs	r4, #97	@ 0x61
    7402:	065a      	lsls	r2, r3, #25
    7404:	2ef2      	cmp	r6, #242	@ 0xf2
    7406:	4618      	mov	r0, r3
    7408:	35a0      	adds	r5, #160	@ 0xa0
    740a:	ef20 2e42 			@ <UNDEFINED> instruction: 0xef202e42
    740e:	5285      	strh	r5, [r0, r2]
    7410:	b706      			@ <UNDEFINED> instruction: 0xb706
    7412:	1460      	asrs	r0, r4, #17
    7414:	0287      	lsls	r7, r0, #10
    7416:	f37e 105d 			@ <UNDEFINED> instruction: 0xf37e105d
    741a:	7fdf      	ldrb	r7, [r3, #31]
    741c:	0404      	lsls	r4, r0, #16
    741e:	cac5      	ldmia	r2, {r0, r2, r6, r7}
    7420:	2ff8      	cmp	r7, #248	@ 0xf8
    7422:	10a1      	asrs	r1, r4, #2
    7424:	4ed0      	ldr	r6, [pc, #832]	@ (0x7768)
    7426:	60b9      	str	r1, [r7, #8]
    7428:	8205      	strh	r5, [r0, #16]
    742a:	f859 101d 	ldr.w	r1, [r9, sp, lsl #1]
    742e:	f6cf f67f 	bl	0xffad7130
    7432:	0a85      	lsrs	r5, r0, #10
    7434:	4700      	bx	r0
    7436:	7994      	ldrb	r4, [r2, #6]
    7438:	4618      	mov	r0, r3
    743a:	35a4      	adds	r5, #164	@ 0xa4
    743c:	ef20 e3ed 	vcgt.s32	q7, q8, <illegal reg q14.5>
    7440:	520a      	strh	r2, [r1, r0]
    7442:	2848      	cmp	r0, #72	@ 0x48
    7444:	018d      	lsls	r5, r1, #6
    7446:	6162      	str	r2, [r4, #20]
    7448:	d244      	bcs.n	0x74d4
    744a:	6018      	str	r0, [r3, #0]
    744c:	210b      	movs	r1, #11
    744e:	31a6      	adds	r1, #166	@ 0xa6
    7450:	18d2      	adds	r2, r2, r3
    7452:	1490      	asrs	r0, r2, #18
    7454:	05c0      	lsls	r0, r0, #23
    7456:	42ef      	cmn	r7, r5
    7458:	aad3      	add	r2, sp, #844	@ 0x34c
    745a:	a446      	add	r4, pc, #280	@ (adr r4, 0x7574)
    745c:	2035      	movs	r0, #53	@ 0x35
    745e:	42ef      	cmn	r7, r5
    7460:	446d      	add	r5, sp
    7462:	1258      	asrs	r0, r3, #9
    7464:	0529      	lsls	r1, r5, #20
    7466:	feed 5242 	cdp2	2, 14, cr5, cr13, cr2, {2}
    746a:	6a48      	ldr	r0, [r1, #36]	@ 0x24
    746c:	5a44      	ldrh	r4, [r0, r1]
    746e:	f203 3ede 	addw	lr, r3, #990	@ 0x3de
    7472:	20ae      	movs	r0, #174	@ 0xae
    7474:	ce85      	ldmia	r6!, {r0, r2, r7}
    7476:	04f2      	lsls	r2, r6, #19
    7478:	8446      	strh	r6, [r0, #34]	@ 0x22
    747a:	9125      	str	r1, [sp, #148]	@ 0x94
    747c:	d052      	beq.n	0x7524
    747e:	2fee      	cmp	r7, #238	@ 0xee
    7480:	8524      	strh	r4, [r4, #40]	@ 0x28
    7482:	22ce      	movs	r2, #206	@ 0xce
    7484:	4f8e      	ldr	r7, [pc, #568]	@ (0x76c0)
    7486:	7522      	strb	r2, [r4, #20]
    7488:	0ae3      	lsrs	r3, r4, #11
    748a:	a1de      	add	r1, pc, #888	@ (adr r1, 0x7804)
    748c:	2029      	movs	r0, #41	@ 0x29
    748e:	21ca      	movs	r1, #202	@ 0xca
    7490:	e73e      	b.n	0x7310
    7492:	6547      	str	r7, [r0, #84]	@ 0x54
    7494:	d254      	bcs.n	0x7540
    7496:	f028 460b 	bic.w	r6, r8, #2332033024	@ 0x8b000000
    749a:	35a4      	adds	r5, #164	@ 0xa4
    749c:	ef20 00aa 	vhadd.s32	d0, d16, d26
    74a0:	e3ed      	b.n	0x7c7e
    74a2:	520a      	strh	r2, [r1, r0]
    74a4:	9a58      	ldr	r2, [sp, #352]	@ 0x160
    74a6:	0a19      	lsrs	r1, r3, #8
    74a8:	05c0      	lsls	r0, r0, #23
    74aa:	42ef      	cmn	r7, r5
    74ac:	aad3      	add	r2, sp, #844	@ 0x34c
    74ae:	a446      	add	r4, pc, #280	@ (adr r4, 0x75c8)
    74b0:	2035      	movs	r0, #53	@ 0x35
    74b2:	42ef      	cmn	r7, r5
    74b4:	446d      	add	r5, sp
    74b6:	1258      	asrs	r0, r3, #9
    74b8:	0529      	lsls	r1, r5, #20
    74ba:	feed 5242 	cdp2	2, 14, cr5, cr13, cr2, {2}
    74be:	6a48      	ldr	r0, [r1, #36]	@ 0x24
    74c0:	5a44      	ldrh	r4, [r0, r1]
    74c2:	f203 3ede 	addw	lr, r3, #990	@ 0x3de
    74c6:	20ae      	movs	r0, #174	@ 0xae
    74c8:	ce85      	ldmia	r6!, {r0, r2, r7}
    74ca:	04f2      	lsls	r2, r6, #19
    74cc:	8446      	strh	r6, [r0, #34]	@ 0x22
    74ce:	9125      	str	r1, [sp, #148]	@ 0x94
    74d0:	d052      	beq.n	0x7578
    74d2:	2fee      	cmp	r7, #238	@ 0xee
    74d4:	8524      	strh	r4, [r4, #40]	@ 0x28
    74d6:	22ce      	movs	r2, #206	@ 0xce
    74d8:	4f8e      	ldr	r7, [pc, #568]	@ (0x7714)
    74da:	7522      	strb	r2, [r4, #20]
    74dc:	0ae3      	lsrs	r3, r4, #11
    74de:	a1de      	add	r1, pc, #888	@ (adr r1, 0x7858)
    74e0:	2029      	movs	r0, #41	@ 0x29
    74e2:	21ca      	movs	r1, #202	@ 0xca
    74e4:	e6ea      	b.n	0x72bc
    74e6:	6547      	str	r7, [r0, #84]	@ 0x54
    74e8:	8d54      	ldrh	r4, [r2, #42]	@ 0x2a
    74ea:	1902      	adds	r2, r0, r4
    74ec:	a446      	add	r4, pc, #280	@ (adr r4, 0x7608)
    74ee:	2035      	movs	r0, #53	@ 0x35
    74f0:	aaef      	add	r2, sp, #956	@ 0x3bc
    74f2:	ed00 0ae3 	vstr	s0, [r0, #-908]	@ 0xfffffc74
    74f6:	5852      	ldr	r2, [r2, r1]
    74f8:	446a      	add	r2, sp
    74fa:	d108      	bne.n	0x750e
    74fc:	4460      	add	r0, ip
    74fe:	060c      	lsls	r4, r1, #24
    7500:	6dd9      	ldr	r1, [r3, #92]	@ 0x5c
    7502:	67ee      	str	r6, [r5, #124]	@ 0x7c
    7504:	f85e 00ac 	ldr.w	r0, [lr, ip, lsl #2]
    7508:	cff1      	ldmia	r7, {r0, r4, r5, r6, r7}
    750a:	7ff6      	ldrb	r6, [r6, #31]
    750c:	85f6      	strh	r6, [r6, #46]	@ 0x2e
    750e:	000a      	movs	r2, r1
    7510:	9447      	str	r4, [sp, #284]	@ 0x11c
    7512:	1879      	adds	r1, r7, r1
    7514:	a446      	add	r4, pc, #280	@ (adr r4, 0x7630)
    7516:	2035      	movs	r0, #53	@ 0x35
    7518:	edef 0ac8 			@ <UNDEFINED> instruction: 0xedef0ac8
    751c:	4852      	ldr	r0, [pc, #328]	@ (0x7668)
    751e:	8d28      	ldrh	r0, [r5, #40]	@ 0x28
    7520:	6201      	str	r1, [r0, #32]
    7522:	4461      	add	r1, ip
    7524:	18d2      	adds	r2, r2, r3
    7526:	0b60      	lsrs	r0, r4, #13
    7528:	c721      	stmia	r7!, {r0, r5}
    752a:	d230      	bcs.n	0x758e
    752c:	9018      	str	r0, [sp, #96]	@ 0x60
    752e:	c014      	stmia	r0!, {r2, r4}
    7530:	ef05 a342 	vcgt.s8	q5, <illegal reg q2.5>, q1
    7534:	46aa      	mov	sl, r5
    7536:	35a4      	adds	r5, #164	@ 0xa4
    7538:	ef20 6d42 	vsub.f32	q3, q0, q1
    753c:	5844      	ldr	r4, [r0, r1]
    753e:	2912      	cmp	r1, #18
    7540:	ed05 42da 	sfm	f4, 4, [r5, #-872]	@ 0xfffffc98
    7544:	4852      	ldr	r0, [pc, #328]	@ (0x7690)
    7546:	446a      	add	r2, sp
    7548:	035a      	lsls	r2, r3, #13
    754a:	def2      	udf	#242	@ 0xf2
    754c:	ac8e      	add	r4, sp, #568	@ 0x238
    754e:	8520      	strh	r0, [r4, #40]	@ 0x28
    7550:	f2ce 4604 	movt	r6, #58372	@ 0xe404
    7554:	2584      	movs	r5, #132	@ 0x84
    7556:	5291      	strh	r1, [r2, r2]
    7558:	aed0      	add	r6, sp, #832	@ 0x340
    755a:	242d      	movs	r4, #45	@ 0x2d
    755c:	ce85      	ldmia	r6!, {r0, r2, r7}
    755e:	8e22      	ldrh	r2, [r4, #48]	@ 0x30
    7560:	224f      	movs	r2, #79	@ 0x4f
    7562:	c875      	ldmia	r0, {r0, r2, r4, r5, r6}
    7564:	de0a      	udf	#10
    7566:	29a1      	cmp	r1, #161	@ 0xa1
    7568:	ca20      	ldmia	r2!, {r5}
    756a:	6321      	str	r1, [r4, #48]	@ 0x30
    756c:	47e6      			@ <UNDEFINED> instruction: 0x47e6
    756e:	5465      	strb	r5, [r4, r1]
    7570:	28d2      	cmp	r0, #210	@ 0xd2
    7572:	0bf0      	lsrs	r0, r6, #15
    7574:	a446      	add	r4, pc, #280	@ (adr r4, 0x7690)
    7576:	2035      	movs	r0, #53	@ 0x35
    7578:	aaef      	add	r2, sp, #956	@ 0x3bc
    757a:	ed00 0ac8 	vstr	s0, [r0, #-800]	@ 0xfffffce0
    757e:	5852      	ldr	r2, [r2, r1]
    7580:	199a      	adds	r2, r3, r6
    7582:	c00a      	stmia	r0!, {r1, r3}
    7584:	ef05 a342 	vcgt.s8	q5, <illegal reg q2.5>, q1
    7588:	46aa      	mov	sl, r5
    758a:	35a4      	adds	r5, #164	@ 0xa4
    758c:	ef20 6d42 	vsub.f32	q3, q0, q1
    7590:	5844      	ldr	r4, [r0, r1]
    7592:	2912      	cmp	r1, #18
    7594:	ed05 42da 	sfm	f4, 4, [r5, #-872]	@ 0xfffffc98
    7598:	4852      	ldr	r0, [pc, #328]	@ (0x76e4)
    759a:	446a      	add	r2, sp
    759c:	035a      	lsls	r2, r3, #13
    759e:	def2      	udf	#242	@ 0xf2
    75a0:	ac8e      	add	r4, sp, #568	@ 0x238
    75a2:	8520      	strh	r0, [r4, #40]	@ 0x28
    75a4:	f2ce 4604 	movt	r6, #58372	@ 0xe404
    75a8:	2584      	movs	r5, #132	@ 0x84
    75aa:	5291      	strh	r1, [r2, r2]
    75ac:	aed0      	add	r6, sp, #832	@ 0x340
    75ae:	242d      	movs	r4, #45	@ 0x2d
    75b0:	ce85      	ldmia	r6!, {r0, r2, r7}
    75b2:	8e22      	ldrh	r2, [r4, #48]	@ 0x30
    75b4:	224f      	movs	r2, #79	@ 0x4f
    75b6:	c875      	ldmia	r0, {r0, r2, r4, r5, r6}
    75b8:	de0a      	udf	#10
    75ba:	29a1      	cmp	r1, #161	@ 0xa1
    75bc:	ca20      	ldmia	r2!, {r5}
    75be:	0f21      	lsrs	r1, r4, #28
    75c0:	47e6      			@ <UNDEFINED> instruction: 0x47e6
    75c2:	5465      	strb	r5, [r4, r1]
    75c4:	028d      	lsls	r5, r1, #10
    75c6:	4619      	mov	r1, r3
    75c8:	35a4      	adds	r5, #164	@ 0xa4
    75ca:	ef20 00aa 	vhadd.s32	d0, d16, d26
    75ce:	c8ed      	ldmia	r0, {r0, r2, r3, r5, r6, r7}
    75d0:	520a      	strh	r2, [r1, r0]
    75d2:	6a58      	ldr	r0, [r3, #36]	@ 0x24
    75d4:	0844      	lsrs	r4, r0, #1
    75d6:	60d1      	str	r1, [r2, #12]
    75d8:	0c44      	lsrs	r4, r0, #17
    75da:	d909      	bls.n	0x75f0
    75dc:	ee6d 5e67 	cdp	14, 6, cr5, cr13, cr7, {3}
    75e0:	acf8      	add	r4, sp, #992	@ 0x3e0
    75e2:	f100 f6cf 	bl	0x508384
    75e6:	f67f 0a85 			@ <UNDEFINED> instruction: 0xf67f0a85
    75ea:	4700      	bx	r0
    75ec:	7994      	ldrb	r4, [r2, #6]
    75ee:	4618      	mov	r0, r3
    75f0:	35a4      	adds	r5, #164	@ 0xa4
    75f2:	ef20 f5ed 	vrshl.s32	<illegal reg q7.5>, <illegal reg q14.5>, q8
    75f6:	520a      	strh	r2, [r1, r0]
    75f8:	2848      	cmp	r0, #72	@ 0x48
    75fa:	018d      	lsls	r5, r1, #6
    75fc:	6162      	str	r2, [r4, #20]
    75fe:	d244      	bcs.n	0x768a
    7600:	8048      	strh	r0, [r1, #2]
    7602:	c00a      	stmia	r0!, {r1, r3}
    7604:	ef05 2342 	vcgt.s8	q1, <illegal reg q2.5>, q1
    7608:	46ac      	mov	ip, r5
    760a:	35a4      	adds	r5, #164	@ 0xa4
    760c:	ef20 6d42 	vsub.f32	q3, q0, q1
    7610:	5844      	ldr	r4, [r0, r1]
    7612:	2912      	cmp	r1, #18
    7614:	ed05 4316 	stc	3, cr4, [r5, #-88]	@ 0xffffffa8
    7618:	4852      	ldr	r0, [pc, #328]	@ (0x7764)
    761a:	446a      	add	r2, sp
    761c:	035a      	lsls	r2, r3, #13
    761e:	def2      	udf	#242	@ 0xf2
    7620:	af5e      	add	r7, sp, #376	@ 0x178
    7622:	8520      	strh	r0, [r4, #40]	@ 0x28
    7624:	f2ce 4604 	movt	r6, #58372	@ 0xe404
    7628:	2584      	movs	r5, #132	@ 0x84
    762a:	5291      	strh	r1, [r2, r2]
    762c:	6ed0      	ldr	r0, [r2, #108]	@ 0x6c
    762e:	2431      	movs	r4, #49	@ 0x31
    7630:	ce85      	ldmia	r6!, {r0, r2, r7}
    7632:	8e22      	ldrh	r2, [r4, #48]	@ 0x30
    7634:	224f      	movs	r2, #79	@ 0x4f
    7636:	f575 de0a 	bl	0xff57d24e
    763a:	29a1      	cmp	r1, #161	@ 0xa1
    763c:	ca20      	ldmia	r2!, {r5}
    763e:	8f21      	ldrh	r1, [r4, #56]	@ 0x38
    7640:	47e5      			@ <UNDEFINED> instruction: 0x47e5
    7642:	5465      	strb	r5, [r4, r1]
    7644:	28d2      	cmp	r0, #210	@ 0xd2
    7646:	0cd0      	lsrs	r0, r2, #19
    7648:	a446      	add	r4, pc, #280	@ (adr r4, 0x7764)
    764a:	2035      	movs	r0, #53	@ 0x35
    764c:	aaef      	add	r2, sp, #956	@ 0x3bc
    764e:	ed00 0af5 	vstr	s0, [r0, #-980]	@ 0xfffffc2c
    7652:	5852      	ldr	r2, [r2, r1]
    7654:	f99a 210a 	ldrsb.w	r2, [sl, #266]	@ 0x10a
    7658:	4a1a      	ldr	r2, [pc, #104]	@ (0x76c4)
    765a:	08c2      	lsrs	r2, r0, #3
    765c:	0a10      	lsrs	r0, r2, #8
    765e:	05c0      	lsls	r0, r0, #23
    7660:	42ef      	cmn	r7, r5
    7662:	ac23      	add	r4, sp, #140	@ 0x8c
    7664:	a446      	add	r4, pc, #280	@ (adr r4, 0x7780)
    7666:	2035      	movs	r0, #53	@ 0x35
    7668:	42ef      	cmn	r7, r5
    766a:	446d      	add	r5, sp
    766c:	1258      	asrs	r0, r3, #9
    766e:	0529      	lsls	r1, r5, #20
    7670:	16ed      	asrs	r5, r5, #27
    7672:	5243      	strh	r3, [r0, r1]
    7674:	6a48      	ldr	r0, [r1, #36]	@ 0x24
    7676:	5a44      	ldrh	r4, [r0, r1]
    7678:	f203 5ede 	addw	lr, r3, #1502	@ 0x5de
    767c:	20af      	movs	r0, #175	@ 0xaf
    767e:	ce85      	ldmia	r6!, {r0, r2, r7}
    7680:	04f2      	lsls	r2, r6, #19
    7682:	8446      	strh	r6, [r0, #34]	@ 0x22
    7684:	9125      	str	r1, [sp, #148]	@ 0x94
    7686:	d052      	beq.n	0x772e
    7688:	316e      	adds	r1, #110	@ 0x6e
    768a:	8524      	strh	r4, [r4, #40]	@ 0x28
    768c:	22ce      	movs	r2, #206	@ 0xce
    768e:	4f8e      	ldr	r7, [pc, #568]	@ (0x78c8)
    7690:	7522      	strb	r2, [r4, #20]
    7692:	0af5      	lsrs	r5, r6, #11
    7694:	a1de      	add	r1, pc, #888	@ (adr r1, 0x7a10)
    7696:	2029      	movs	r0, #41	@ 0x29
    7698:	21ca      	movs	r1, #202	@ 0xca
    769a:	e534      	b.n	0x7106
    769c:	6547      	str	r7, [r0, #84]	@ 0x54
    769e:	8d54      	ldrh	r4, [r2, #42]	@ 0x2a
    76a0:	1902      	adds	r2, r0, r4
    76a2:	a446      	add	r4, pc, #280	@ (adr r4, 0x77bc)
    76a4:	2035      	movs	r0, #53	@ 0x35
    76a6:	aaef      	add	r2, sp, #956	@ 0x3bc
    76a8:	ed00 0af5 	vstr	s0, [r0, #-980]	@ 0xfffffc2c
    76ac:	5852      	ldr	r2, [r2, r1]
    76ae:	446a      	add	r2, sp
    76b0:	d108      	bne.n	0x76c4
    76b2:	4460      	add	r0, ip
    76b4:	290c      	cmp	r1, #12
    76b6:	6dd9      	ldr	r1, [r3, #92]	@ 0x5c
    76b8:	67ee      	str	r6, [r5, #124]	@ 0x7c
    76ba:	f85e 00ac 	ldr.w	r0, [lr, ip, lsl #2]
    76be:	cff1      	ldmia	r7, {r0, r4, r5, r6, r7}
    76c0:	7ff0      	ldrb	r0, [r6, #31]
    76c2:	e5fc      	b.n	0x72be
    76c4:	6447      	str	r7, [r0, #68]	@ 0x44
    76c6:	a244      	add	r2, pc, #272	@ (adr r2, 0x77d8)
    76c8:	7020      	strb	r0, [r4, #0]
    76ca:	0a94      	lsrs	r4, r2, #10
    76cc:	4700      	bx	r0
    76ce:	099a      	lsrs	r2, r3, #6
    76d0:	4612      	mov	r2, r2
    76d2:	65a9      	str	r1, [r5, #88]	@ 0x58
    76d4:	ef20 6182 	vrhadd.s32	d6, d16, d2
    76d8:	5aa4      	ldrh	r4, [r4, r2]
    76da:	f203 e42e 	blx	0x60af38
    76de:	2852      	cmp	r0, #82	@ 0x52
    76e0:	7086      	strb	r6, [r0, #2]
    76e2:	d20b      	bcs.n	0x76fc
    76e4:	c018      	stmia	r0!, {r3, r4}
    76e6:	c00e      	stmia	r0!, {r1, r2, r3}
    76e8:	ef05 4462 	vshl.s8	q2, q9, <illegal reg q2.5>
    76ec:	035a      	lsls	r2, r3, #13
    76ee:	def2      	udf	#242	@ 0xf2
    76f0:	aaae      	add	r2, sp, #696	@ 0x2b8
    76f2:	8520      	strh	r0, [r4, #40]	@ 0x28
    76f4:	4784      	blxns	r0
    76f6:	9466      	str	r4, [sp, #408]	@ 0x198
    76f8:	065a      	lsls	r2, r3, #25
    76fa:	fef2 4676 	mrc2	6, 7, r4, cr2, cr6, {3}
    76fe:	35aa      	adds	r5, #170	@ 0xaa
    7700:	ef20 6d42 	vsub.f32	q3, q0, q1
    7704:	58a4      	ldr	r4, [r4, r2]
    7706:	2912      	cmp	r1, #18
    7708:	ed05 43ba 	stc	3, cr4, [r5, #-744]	@ 0xfffffd18
    770c:	4852      	ldr	r0, [pc, #328]	@ (0x7858)
    770e:	5478      	strb	r0, [r7, r1]
    7710:	a946      	add	r1, sp, #280	@ 0x118
    7712:	2065      	movs	r0, #101	@ 0x65
    7714:	82ef      	strh	r7, [r5, #22]
    7716:	a461      	add	r4, pc, #388	@ (adr r4, 0x789c)
    7718:	035a      	lsls	r2, r3, #13
    771a:	2ef2      	cmp	r6, #242	@ 0xf2
    771c:	52e4      	strh	r4, [r4, r3]
    771e:	6528      	str	r0, [r5, #80]	@ 0x50
    7720:	0b70      	lsrs	r0, r6, #13
    7722:	f2ce 4604 	movt	r6, #58372	@ 0xe404
    7726:	258a      	movs	r5, #138	@ 0x8a
    7728:	5291      	strh	r1, [r2, r2]
    772a:	aed0      	add	r6, sp, #832	@ 0x340
    772c:	243b      	movs	r4, #59	@ 0x3b
    772e:	ce85      	ldmia	r6!, {r0, r2, r7}
    7730:	8e22      	ldrh	r2, [r4, #48]	@ 0x30
    7732:	624f      	str	r7, [r1, #36]	@ 0x24
    7734:	4e64      	ldr	r6, [pc, #400]	@ (0x78c8)
    7736:	fc27 2a52 	stc2	10, cr2, [r7], #-328	@ 0xfffffeb8	@ <UNPREDICTABLE>
    773a:	7065      	strb	r5, [r4, #1]
    773c:	ce0b      	ldmia	r6!, {r0, r1, r3}
    773e:	5561      	strb	r1, [r4, r5]
    7740:	8d21      	ldrh	r1, [r4, #40]	@ 0x28
    7742:	47e4      	blxns	ip
    7744:	b46b      	push	{r0, r1, r3, r5, r6}
    7746:	028d      	lsls	r5, r1, #10
    7748:	4628      	mov	r0, r5
    774a:	65a9      	str	r1, [r5, #88]	@ 0x58
    774c:	ef20 6182 	vrhadd.s32	d6, d16, d2
    7750:	5aa4      	ldrh	r4, [r4, r2]
    7752:	f203 e42e 	blx	0x60afb0
    7756:	a852      	add	r0, sp, #328	@ 0x148
    7758:	2000      	movs	r0, #0
    775a:	7087      	strb	r7, [r0, #2]
    775c:	460b      	mov	r3, r1
    775e:	108a      	asrs	r2, r1, #2
    7760:	460d      	mov	r5, r1
    7762:	20ca      	movs	r0, #202	@ 0xca
    7764:	4d90      	ldr	r5, [pc, #576]	@ (0x79a8)
    7766:	7eed      	ldrb	r5, [r5, #27]
    7768:	e5ec      	b.n	0x7344
    776a:	10cf      	asrs	r7, r1, #3
    776c:	df10      	svc	16
    776e:	267d      	movs	r6, #125	@ 0x7d
    7770:	000a      	movs	r2, r1
    7772:	8047      	strh	r7, [r0, #2]
    7774:	d629      	bvs.n	0x77ca
    7776:	b94e      	cbnz	r6, 0x778c
    7778:	0460      	lsls	r0, r4, #17
    777a:	4882      	ldr	r0, [pc, #520]	@ (0x7984)
    777c:	18d8      	adds	r0, r3, r3
    777e:	0460      	lsls	r0, r4, #17
    7780:	f05c 242e 	orrs.w	r4, ip, #771763712	@ 0x2e002e00
    7784:	6ac5      	ldr	r5, [r0, #44]	@ 0x2c
    7786:	5804      	ldr	r4, [r0, r0]
    7788:	d052      	beq.n	0x7830
    778a:	3c2e      	subs	r4, #46	@ 0x2e
    778c:	8524      	strh	r4, [r4, #40]	@ 0x28
    778e:	a8e2      	add	r0, sp, #904	@ 0x388
    7790:	0318      	lsls	r0, r3, #12
    7792:	7e41      	ldrb	r1, [r0, #25]
    7794:	4614      	mov	r4, r2
    7796:	28d1      	cmp	r0, #209	@ 0xd1
    7798:	a120      	add	r1, pc, #128	@ (adr r1, 0x781c)
    779a:	d000      	beq.n	0x779e
    779c:	b94e      	cbnz	r6, 0x77b2
    779e:	0560      	lsls	r0, r4, #21
    77a0:	5982      	ldr	r2, [r0, r6]
    77a2:	0468      	lsls	r0, r5, #17
    77a4:	d108      	bne.n	0x77b8
    77a6:	0460      	lsls	r0, r4, #17
    77a8:	240c      	movs	r4, #12
    77aa:	93d8      	str	r3, [sp, #864]	@ 0x360
    77ac:	f266 103d 			@ <UNDEFINED> instruction: 0xf266103d
    77b0:	7ddf      	ldrb	r7, [r3, #23]
    77b2:	0a26      	lsrs	r6, r4, #8
    77b4:	4700      	bx	r0
    77b6:	5980      	ldr	r0, [r0, r6]
    77b8:	0467      	lsls	r7, r4, #17
    77ba:	5258      	strh	r0, [r3, r1]
    77bc:	8ed0      	ldrh	r0, [r2, #54]	@ 0x36
    77be:	20bb      	movs	r0, #187	@ 0xbb
    77c0:	8485      	strh	r5, [r0, #36]	@ 0x24
    77c2:	018d      	lsls	r5, r1, #6
    77c4:	4654      	mov	r4, sl
    77c6:	2580      	movs	r5, #128	@ 0x80
    77c8:	ed05 0bb8 	vstr	d0, [r5, #-736]	@ 0xfffffd20
    77cc:	6852      	ldr	r2, [r2, #4]
    77ce:	601a      	str	r2, [r3, #0]
    77d0:	5804      	ldr	r4, [r0, r0]
    77d2:	d052      	beq.n	0x787a
    77d4:	40ae      	lsls	r6, r5
    77d6:	8524      	strh	r4, [r4, #40]	@ 0x28
    77d8:	a8e2      	add	r0, sp, #904	@ 0x388
    77da:	6318      	str	r0, [r3, #48]	@ 0x30
    77dc:	7e3c      	ldrb	r4, [r7, #24]
    77de:	4614      	mov	r4, r2
    77e0:	28d1      	cmp	r0, #209	@ 0xd1
    77e2:	6170      	str	r0, [r6, #20]
    77e4:	5804      	ldr	r4, [r0, r0]
    77e6:	a052      	add	r0, pc, #328	@ (adr r0, 0x7930)
    77e8:	d00a      	beq.n	0x7800
    77ea:	bb8e      	cbnz	r6, 0x7850
    77ec:	8520      	strh	r0, [r4, #40]	@ 0x28
    77ee:	46a5      	mov	sp, r4
    77f0:	1080      	asrs	r0, r0, #2
    77f2:	460d      	mov	r5, r1
    77f4:	30c0      	adds	r0, #192	@ 0xc0
    77f6:	0d81      	lsrs	r1, r0, #22
    77f8:	2668      	movs	r6, #104	@ 0x68
    77fa:	03df      	lsls	r7, r3, #15
    77fc:	dff1      	svc	241	@ 0xf1
    77fe:	37fb      	adds	r7, #251	@ 0xfb
    7800:	7047      	strb	r7, [r0, #1]
    7802:	0415      	lsls	r5, r2, #16
    7804:	6ab0      	ldr	r0, [r6, #40]	@ 0x28
    7806:	2385      	movs	r3, #133	@ 0x85
    7808:	6291      	str	r1, [r2, #40]	@ 0x28
    780a:	000a      	movs	r2, r1
    780c:	9247      	str	r2, [sp, #284]	@ 0x11c
    780e:	0839      	lsrs	r1, r7, #32
    7810:	b304      	cbz	r4, 0x7854
    7812:	856a      	strh	r2, [r5, #42]	@ 0x2a
    7814:	9123      	str	r1, [sp, #140]	@ 0x8c
    7816:	0a53      	lsrs	r3, r2, #9
    7818:	4701      	bx	r0
    781a:	a982      	add	r1, sp, #520	@ 0x208
    781c:	6046      	str	r6, [r0, #4]
    781e:	56ab      	ldrsb	r3, [r5, r2]
    7820:	1238      	asrs	r0, r7, #8
    7822:	a539      	add	r5, pc, #228	@ (adr r5, 0x7908)
    7824:	7020      	strb	r0, [r4, #0]
    7826:	9824      	ldr	r0, [sp, #144]	@ 0x90
    7828:	0451      	lsls	r1, r2, #17
    782a:	6ab9      	ldr	r1, [r7, #40]	@ 0x28
    782c:	2385      	movs	r3, #133	@ 0x85
    782e:	5391      	strh	r1, [r2, r6]
    7830:	030a      	lsls	r2, r1, #12
    7832:	8247      	strh	r7, [r0, #18]
    7834:	4389      	bics	r1, r1
    7836:	abc0      	add	r3, sp, #768	@ 0x300
    7838:	3856      	subs	r0, #86	@ 0x56
    783a:	3912      	subs	r1, #18
    783c:	40a5      	lsls	r5, r4
    783e:	2470      	movs	r4, #112	@ 0x70
    7840:	1f98      	subs	r0, r3, #6
    7842:	bf04      	itt	eq
    7844:	856a      	strheq	r2, [r5, #42]	@ 0x2a
    7846:	9123      	streq	r1, [sp, #140]	@ 0x8c
    7848:	0a52      	lsrs	r2, r2, #9
    784a:	4705      	bx	r0
    784c:	3fe2      	subs	r7, #226	@ 0xe2
    784e:	060a      	lsls	r2, r1, #24
    7850:	6247      	str	r7, [r0, #36]	@ 0x24
    7852:	c214      	stmia	r2!, {r2, r4}
    7854:	5028      	str	r0, [r5, r0]
    7856:	4609      	mov	r1, r1
    7858:	8c21      	ldrh	r1, [r4, #32]
    785a:	1d03      	adds	r3, r0, #4
    785c:	1461      	asrs	r1, r4, #17
    785e:	48c2      	ldr	r0, [pc, #776]	@ (0x7b68)
    7860:	1a10      	subs	r0, r2, r0
    7862:	2146      	movs	r1, #70	@ 0x46
    7864:	058c      	lsls	r4, r1, #22
    7866:	6229      	str	r1, [r5, #32]
    7868:	c214      	stmia	r2!, {r2, r4}
    786a:	80b8      	strh	r0, [r7, #4]
    786c:	462a      	mov	r2, r5
    786e:	8c21      	ldrh	r1, [r4, #32]
    7870:	270c      	movs	r7, #12
    7872:	1463      	asrs	r3, r4, #17
    7874:	d8c2      	bhi.n	0x77fc
    7876:	3a60      	subs	r2, #96	@ 0x60
    7878:	2146      	movs	r1, #70	@ 0x46
    787a:	0e8c      	lsrs	r4, r1, #26
    787c:	6425      	str	r5, [r4, #64]	@ 0x40
    787e:	c214      	stmia	r2!, {r2, r4}
    7880:	4068      	eors	r0, r5
    7882:	464a      	mov	r2, r9
    7884:	8c21      	ldrh	r1, [r4, #32]
    7886:	c407      	stmia	r4!, {r0, r1, r2}
    7888:	1465      	asrs	r5, r4, #17
    788a:	88c2      	ldrh	r2, [r0, #6]
    788c:	6e40      	ldr	r0, [r0, #100]	@ 0x64
    788e:	d146      	bne.n	0x791e
    7890:	70a8      	strb	r0, [r5, #2]
    7892:	1930      	adds	r0, r6, r4
    7894:	bcac      	pop	{r2, r3, r5, r7}
    7896:	d146      	bne.n	0x7926
    7898:	7018      	strb	r0, [r3, #0]
    789a:	0930      	lsrs	r0, r6, #4
    789c:	bd3c      	pop	{r2, r3, r4, r5, pc}
    789e:	d093      	beq.n	0x77c8
    78a0:	6bd7      	ldr	r7, [r2, #60]	@ 0x3c
    78a2:	8d04      	ldrh	r4, [r0, #40]	@ 0x28
    78a4:	4a10      	ldr	r2, [pc, #64]	@ (0x78e8)
    78a6:	a246      	add	r2, pc, #280	@ (adr r2, 0x79c0)
    78a8:	20d5      	movs	r0, #213	@ 0xd5
    78aa:	edef 0a4f 			@ <UNDEFINED> instruction: 0xedef0a4f
    78ae:	a852      	add	r0, sp, #328	@ 0x148
    78b0:	7000      	strb	r0, [r0, #0]
    78b2:	a018      	add	r0, pc, #96	@ (adr r0, 0x7914)
    78b4:	1010      	asrs	r0, r2, #32
    78b6:	29c3      	cmp	r1, #195	@ 0xc3
    78b8:	08c1      	lsrs	r1, r0, #3
    78ba:	3070      	adds	r0, #112	@ 0x70
    78bc:	7d09      	ldrb	r1, [r1, #20]
    78be:	d0bd      	beq.n	0x783c
    78c0:	c000      	stmia	r0!, {}
    78c2:	4201      	tst	r1, r0
    78c4:	282c      	cmp	r0, #44	@ 0x2c
    78c6:	35ef      	adds	r5, #239	@ 0xef
    78c8:	7d09      	ldrb	r1, [r1, #20]
    78ca:	ecbd 0096 	ldc	0, cr0, [sp], #600	@ 0x258
    78ce:	76d2      	strb	r2, [r2, #27]
    78d0:	60a3      	str	r3, [r4, #8]
    78d2:	5a24      	ldrh	r4, [r4, r0]
    78d4:	f20d fede 	bl	0x215694
    78d8:	20a4      	movs	r0, #164	@ 0xa4
    78da:	0a85      	lsrs	r5, r0, #10
    78dc:	8701      	strh	r1, [r0, #56]	@ 0x38
    78de:	d001      	beq.n	0x78e4
    78e0:	c000      	stmia	r0!, {}
    78e2:	4202      	tst	r2, r0
    78e4:	282c      	cmp	r0, #44	@ 0x2c
    78e6:	35ef      	adds	r5, #239	@ 0xef
    78e8:	7d09      	ldrb	r1, [r1, #20]
    78ea:	46bd      	mov	sp, r7
    78ec:	08d0      	lsrs	r0, r2, #3
    78ee:	6481      	str	r1, [r0, #72]	@ 0x48
    78f0:	5a24      	ldrh	r4, [r4, r0]
    78f2:	f20d 0aae 	addw	sl, sp, #174	@ 0xae
    78f6:	fed0 20a4 	cdp2	0, 13, cr2, cr0, cr4, {5}
    78fa:	a585      	add	r5, pc, #532	@ (adr r5, 0x7b10)
    78fc:	000a      	movs	r2, r1
    78fe:	5421      	strb	r1, [r4, r0]
    7900:	8c12      	ldrh	r2, [r2, #32]
    7902:	0700      	lsls	r0, r0, #28
    7904:	d093      	beq.n	0x782e
    7906:	0bd7      	lsrs	r7, r2, #15
    7908:	001d      	movs	r5, r3
    790a:	201c      	movs	r0, #28
    790c:	82c4      	strh	r4, [r0, #22]
    790e:	5ef2      	ldrsh	r2, [r6, r3]
    7910:	d093      	beq.n	0x783a
    7912:	cbd7      	ldmia	r3!, {r0, r1, r2, r4, r6, r7}
    7914:	096e      	lsrs	r6, r5, #5
    7916:	6d20      	ldr	r0, [r4, #80]	@ 0x50
    7918:	0a35      	lsrs	r5, r6, #8
    791a:	a246      	add	r2, pc, #280	@ (adr r2, 0x7a34)
    791c:	20d5      	movs	r0, #213	@ 0xd5
    791e:	aaef      	add	r2, sp, #956	@ 0x3bc
    7920:	ed01 0a4f 	vstr	s0, [r1, #-316]	@ 0xfffffec4
    7924:	5852      	ldr	r2, [r2, r1]
    7926:	1d0a      	adds	r2, r1, #4
    7928:	2c00      	cmp	r4, #0
    792a:	c420      	stmia	r4!, {r5}
    792c:	f282 935e 	b.w	0xe89fec
    7930:	d7d0      	bvc.n	0x78d4
    7932:	046b      	lsls	r3, r5, #17
    7934:	108d      	asrs	r5, r1, #2
    7936:	464a      	mov	r2, r9
    7938:	d5a2      	bpl.n	0x7880
    793a:	ef20 4fed 	vmin.f32	q2, q8, <illegal reg q14.5>
    793e:	520a      	strh	r2, [r1, r0]
    7940:	00a8      	lsls	r0, r5, #2
    7942:	3870      	subs	r0, #112	@ 0x70
    7944:	30a0      	adds	r0, #160	@ 0xa0
    7946:	b310      	cbz	r0, 0x798e
    7948:	c120      	stmia	r1!, {r5}
    794a:	7008      	strb	r0, [r1, #0]
    794c:	0930      	lsrs	r0, r6, #4
    794e:	bd7d      	pop	{r0, r2, r3, r4, r5, r6, pc}
    7950:	02d0      	lsls	r0, r2, #11
    7952:	01c0      	lsls	r0, r0, #7
    7954:	2c42      	cmp	r4, #66	@ 0x42
    7956:	ef28 0935 	vmul.i32	d0, d8, d21
    795a:	bd7d      	pop	{r0, r2, r3, r4, r5, r6, pc}
    795c:	96ec      	str	r6, [sp, #944]	@ 0x3b0
    795e:	d200      	bcs.n	0x7962
    7960:	a3b6      	add	r3, pc, #728	@ (adr r3, 0x7c3c)
    7962:	2460      	movs	r4, #96	@ 0x60
    7964:	0d5a      	lsrs	r2, r3, #21
    7966:	def2      	udf	#242	@ 0xf2
    7968:	a4fe      	add	r4, pc, #1016	@ (adr r4, 0x7d64)
    796a:	8520      	strh	r0, [r4, #40]	@ 0x28
    796c:	010a      	lsls	r2, r1, #4
    796e:	0387      	lsls	r7, r0, #14
    7970:	02d0      	lsls	r0, r2, #11
    7972:	02c0      	lsls	r0, r0, #11
    7974:	2c42      	cmp	r4, #66	@ 0x42
    7976:	ef28 0935 	vmul.i32	d0, d8, d21
    797a:	bd7d      	pop	{r0, r2, r3, r4, r5, r6, pc}
    797c:	d046      	beq.n	0x7a0c
    797e:	3108      	adds	r1, #8
    7980:	2464      	movs	r4, #100	@ 0x64
    7982:	0d5a      	lsrs	r2, r3, #21
    7984:	def2      	udf	#242	@ 0xf2
    7986:	a4fe      	add	r4, pc, #1016	@ (adr r4, 0x7d80)
    7988:	8520      	strh	r0, [r4, #40]	@ 0x28
    798a:	000a      	movs	r2, r1
    798c:	0287      	lsls	r7, r0, #10
    798e:	020a      	lsls	r2, r1, #8
    7990:	c221      	stmia	r2!, {r0, r5}
    7992:	d211      	bcs.n	0x79b8
    7994:	c008      	stmia	r0!, {r3}
    7996:	d07c      	beq.n	0x7a92
    7998:	c003      	stmia	r0!, {r0, r1}
    799a:	4201      	tst	r1, r0
    799c:	282c      	cmp	r0, #44	@ 0x2c
    799e:	95ef      	str	r5, [sp, #956]	@ 0x3bc
    79a0:	7b69      	ldrb	r1, [r5, #13]
    79a2:	96ec      	str	r6, [sp, #944]	@ 0x3b0
    79a4:	d200      	bcs.n	0x79a8
    79a6:	a396      	add	r3, pc, #600	@ (adr r3, 0x7c00)
    79a8:	2460      	movs	r4, #96	@ 0x60
    79aa:	0d5a      	lsrs	r2, r3, #21
    79ac:	def2      	udf	#242	@ 0xf2
    79ae:	a4fe      	add	r4, pc, #1016	@ (adr r4, 0x7da8)
    79b0:	8520      	strh	r0, [r4, #40]	@ 0x28
    79b2:	010a      	lsls	r2, r1, #4
    79b4:	0287      	lsls	r7, r0, #10
    79b6:	03d0      	lsls	r0, r2, #15
    79b8:	02c0      	lsls	r0, r0, #11
    79ba:	2c42      	cmp	r4, #66	@ 0x42
    79bc:	ef28 8995 	vmul.i32	d8, d24, d5
    79c0:	4677      	mov	r7, lr
    79c2:	08d0      	lsrs	r0, r2, #3
    79c4:	6431      	str	r1, [r6, #64]	@ 0x40
    79c6:	5a24      	ldrh	r4, [r4, r0]
    79c8:	f20d fede 	bl	0x215788
    79cc:	20a4      	movs	r0, #164	@ 0xa4
    79ce:	0a85      	lsrs	r5, r0, #10
    79d0:	8700      	strh	r0, [r0, #56]	@ 0x38
    79d2:	0a05      	lsrs	r5, r0, #8
    79d4:	2105      	movs	r1, #5
    79d6:	117d      	asrs	r5, r7, #5
    79d8:	08d2      	lsrs	r2, r2, #3
    79da:	7420      	strb	r0, [r4, #16]
    79dc:	04d0      	lsls	r0, r2, #19
    79de:	01c0      	lsls	r0, r0, #7
    79e0:	2c42      	cmp	r4, #66	@ 0x42
    79e2:	ef28 c995 	vmul.i32	d12, d24, d5
    79e6:	ec72 0096 	ldcl	0, cr0, [r2], #-600	@ 0xfffffda8
    79ea:	f6d2 60a3 			@ <UNDEFINED> instruction: 0xf6d260a3
    79ee:	5a24      	ldrh	r4, [r4, r0]
    79f0:	f20d fede 	bl	0x2157b0
    79f4:	20a4      	movs	r0, #164	@ 0xa4
    79f6:	0a85      	lsrs	r5, r0, #10
    79f8:	8701      	strh	r1, [r0, #56]	@ 0x38
    79fa:	d005      	beq.n	0x7a08
    79fc:	c004      	stmia	r0!, {r2}
    79fe:	4202      	tst	r2, r0
    7a00:	282c      	cmp	r0, #44	@ 0x2c
    7a02:	95ef      	str	r5, [sp, #956]	@ 0x3bc
    7a04:	6ee9      	ldr	r1, [r5, #108]	@ 0x6c
    7a06:	d046      	beq.n	0x7a96
    7a08:	3108      	adds	r1, #8
    7a0a:	2464      	movs	r4, #100	@ 0x64
    7a0c:	0d5a      	lsrs	r2, r3, #21
    7a0e:	def2      	udf	#242	@ 0xf2
    7a10:	a4fe      	add	r4, pc, #1016	@ (adr r4, 0x7e0c)
    7a12:	8520      	strh	r0, [r4, #40]	@ 0x28
    7a14:	000a      	movs	r2, r1
    7a16:	0487      	lsls	r7, r0, #18
    7a18:	040a      	lsls	r2, r1, #16
    7a1a:	3821      	subs	r0, #33	@ 0x21
    7a1c:	d211      	bcs.n	0x7a42
    7a1e:	8008      	strh	r0, [r1, #0]
    7a20:	d06b      	beq.n	0x7afa
    7a22:	c005      	stmia	r0!, {r0, r2}
    7a24:	4201      	tst	r1, r0
    7a26:	282c      	cmp	r0, #44	@ 0x2c
    7a28:	95ef      	str	r5, [sp, #956]	@ 0x3bc
    7a2a:	6a29      	ldr	r1, [r5, #32]
    7a2c:	96ec      	str	r6, [sp, #944]	@ 0x3b0
    7a2e:	d200      	bcs.n	0x7a32
    7a30:	a3d6      	add	r3, pc, #856	@ (adr r3, 0x7d8c)
    7a32:	2460      	movs	r4, #96	@ 0x60
    7a34:	0d5a      	lsrs	r2, r3, #21
    7a36:	def2      	udf	#242	@ 0xf2
    7a38:	a4fe      	add	r4, pc, #1016	@ (adr r4, 0x7e34)
    7a3a:	8520      	strh	r0, [r4, #40]	@ 0x28
    7a3c:	010a      	lsls	r2, r1, #4
    7a3e:	0487      	lsls	r7, r0, #18
    7a40:	05d0      	lsls	r0, r2, #23
    7a42:	02c0      	lsls	r0, r0, #11
    7a44:	2c42      	cmp	r4, #66	@ 0x42
    7a46:	ef28 4995 	vmul.i32	d4, d24, d5
    7a4a:	4666      	mov	r6, ip
    7a4c:	08d0      	lsrs	r0, r2, #3
    7a4e:	6431      	str	r1, [r6, #64]	@ 0x40
    7a50:	5a24      	ldrh	r4, [r4, r0]
    7a52:	f20d fede 	bl	0x215812
    7a56:	20a4      	movs	r0, #164	@ 0xa4
    7a58:	0a85      	lsrs	r5, r0, #10
    7a5a:	8700      	strh	r0, [r0, #56]	@ 0x38
    7a5c:	0a07      	lsrs	r7, r0, #8
    7a5e:	2107      	movs	r1, #7
    7a60:	10f3      	asrs	r3, r6, #3
    7a62:	08d2      	lsrs	r2, r2, #3
    7a64:	62e0      	str	r0, [r4, #44]	@ 0x2c
    7a66:	06d0      	lsls	r0, r2, #27
    7a68:	01c0      	lsls	r0, r0, #7
    7a6a:	2c42      	cmp	r4, #66	@ 0x42
    7a6c:	ef28 8995 	vmul.i32	d8, d24, d5
    7a70:	ec61 0096 	stcl	0, cr0, [r1], #-600	@ 0xfffffda8
    7a74:	36d2      	adds	r6, #210	@ 0xd2
    7a76:	60a4      	str	r4, [r4, #8]
    7a78:	5a24      	ldrh	r4, [r4, r0]
    7a7a:	f20d fede 	bl	0x21583a
    7a7e:	20a4      	movs	r0, #164	@ 0xa4
    7a80:	0a85      	lsrs	r5, r0, #10
    7a82:	8701      	strh	r1, [r0, #56]	@ 0x38
    7a84:	d007      	beq.n	0x7a96
    7a86:	c006      	stmia	r0!, {r1, r2}
    7a88:	4202      	tst	r2, r0
    7a8a:	282c      	cmp	r0, #44	@ 0x2c
    7a8c:	95ef      	str	r5, [sp, #956]	@ 0x3bc
    7a8e:	5da9      	ldrb	r1, [r5, r6]
    7a90:	d046      	beq.n	0x7b20
    7a92:	3108      	adds	r1, #8
    7a94:	2464      	movs	r4, #100	@ 0x64
    7a96:	0d5a      	lsrs	r2, r3, #21
    7a98:	def2      	udf	#242	@ 0xf2
    7a9a:	a4fe      	add	r4, pc, #1016	@ (adr r4, 0x7e94)
    7a9c:	8520      	strh	r0, [r4, #40]	@ 0x28
    7a9e:	000a      	movs	r2, r1
    7aa0:	0687      	lsls	r7, r0, #26
    7aa2:	060a      	lsls	r2, r1, #24
    7aa4:	ae21      	add	r6, sp, #132	@ 0x84
    7aa6:	d210      	bcs.n	0x7aca
    7aa8:	4008      	ands	r0, r1
    7aaa:	d05a      	beq.n	0x7b62
    7aac:	c007      	stmia	r0!, {r0, r1, r2}
    7aae:	4201      	tst	r1, r0
    7ab0:	282c      	cmp	r0, #44	@ 0x2c
    7ab2:	95ef      	str	r5, [sp, #956]	@ 0x3bc
    7ab4:	58e9      	ldr	r1, [r5, r3]
    7ab6:	96ec      	str	r6, [sp, #944]	@ 0x3b0
    7ab8:	d200      	bcs.n	0x7abc
    7aba:	a416      	add	r4, pc, #88	@ (adr r4, 0x7b14)
    7abc:	2460      	movs	r4, #96	@ 0x60
    7abe:	0d5a      	lsrs	r2, r3, #21
    7ac0:	def2      	udf	#242	@ 0xf2
    7ac2:	a4fe      	add	r4, pc, #1016	@ (adr r4, 0x7ebc)
    7ac4:	8520      	strh	r0, [r4, #40]	@ 0x28
    7ac6:	010a      	lsls	r2, r1, #4
    7ac8:	0687      	lsls	r7, r0, #26
    7aca:	07d0      	lsls	r0, r2, #31
    7acc:	02c0      	lsls	r0, r0, #11
    7ace:	2c42      	cmp	r4, #66	@ 0x42
    7ad0:	ef28 0995 	vmul.i32	d0, d24, d5
    7ad4:	4655      	mov	r5, sl
    7ad6:	08d0      	lsrs	r0, r2, #3
    7ad8:	6631      	str	r1, [r6, #96]	@ 0x60
    7ada:	5a24      	ldrh	r4, [r4, r0]
    7adc:	f20d fede 	bl	0x21589c
    7ae0:	20a4      	movs	r0, #164	@ 0xa4
    7ae2:	0a85      	lsrs	r5, r0, #10
    7ae4:	8700      	strh	r0, [r0, #56]	@ 0x38
    7ae6:	0a09      	lsrs	r1, r1, #8
    7ae8:	2109      	movs	r1, #9
    7aea:	1069      	asrs	r1, r5, #1
    7aec:	08d2      	lsrs	r2, r2, #3
    7aee:	51a0      	str	r0, [r4, r6]
    7af0:	08d0      	lsrs	r0, r2, #3
    7af2:	01c0      	lsls	r0, r0, #7
    7af4:	2c42      	cmp	r4, #66	@ 0x42
    7af6:	ef28 c515 	vqrshl.s32	d12, d5, d8
    7afa:	00c5      	lsls	r5, r0, #3
    7afc:	dfd3      	svc	211	@ 0xd3
    7afe:	10bf      	asrs	r7, r7, #2
    7b00:	4f60      	ldr	r7, [pc, #384]	@ (0x7c84)
    7b02:	100a      	asrs	r2, r1, #32
    7b04:	065a      	lsls	r2, r3, #25
    7b06:	7811      	ldrb	r1, [r2, #0]
    7b08:	4992      	ldr	r1, [pc, #584]	@ (0x7d54)
    7b0a:	ec4e 0096 	mcrr	0, 9, r0, lr, cr6
    7b0e:	76d2      	strb	r2, [r2, #27]
    7b10:	30a4      	adds	r0, #164	@ 0xa4
    7b12:	fded 010b 	stc2l	1, cr0, [sp, #44]!	@ 0x2c
    7b16:	4676      	mov	r6, lr
    7b18:	d5a2      	bpl.n	0x7a60
    7b1a:	ef20 4fed 	vmin.f32	q2, q8, <illegal reg q14.5>
    7b1e:	520a      	strh	r2, [r1, r0]
    7b20:	9868      	ldr	r0, [sp, #416]	@ 0x1a0
    7b22:	08d0      	lsrs	r0, r2, #3
    7b24:	6330      	str	r0, [r6, #48]	@ 0x30
    7b26:	5a24      	ldrh	r4, [r4, r0]
    7b28:	f20d fede 	bl	0x2158e8
    7b2c:	20a4      	movs	r0, #164	@ 0xa4
    7b2e:	0a85      	lsrs	r5, r0, #10
    7b30:	8701      	strh	r1, [r0, #56]	@ 0x38
    7b32:	5109      	str	r1, [r1, r4]
    7b34:	0c5c      	lsrs	r4, r3, #17
    7b36:	00a0      	lsls	r0, r4, #2
    7b38:	65a0      	str	r0, [r4, #88]	@ 0x58
    7b3a:	4010      	ands	r0, r2
    7b3c:	9824      	ldr	r0, [sp, #144]	@ 0x90
    7b3e:	0418      	lsls	r0, r3, #16
    7b40:	dc5c      	bgt.n	0x7bfc
    7b42:	d008      	beq.n	0x7b56
    7b44:	00a0      	lsls	r0, r4, #2
    7b46:	65a2      	str	r2, [r4, #88]	@ 0x58
    7b48:	6010      	str	r0, [r2, #0]
    7b4a:	ec23 02ee 	sfm	f0, 4, [r3], #-952	@ 0xfffffc48
    7b4e:	92ef      	str	r2, [sp, #956]	@ 0x3bc
    7b50:	4569      	cmp	r1, sp
    7b52:	a246      	add	r2, pc, #280	@ (adr r2, 0x7c6c)
    7b54:	20d5      	movs	r0, #213	@ 0xd5
    7b56:	edef 0a4f 			@ <UNDEFINED> instruction: 0xedef0a4f
    7b5a:	a852      	add	r0, sp, #328	@ 0x148
    7b5c:	7010      	strb	r0, [r2, #0]
    7b5e:	0098      	lsls	r0, r3, #2
    7b60:	008d      	lsls	r5, r1, #2
    7b62:	202c      	movs	r0, #44	@ 0x2c
    7b64:	82c4      	strh	r4, [r0, #22]
    7b66:	5ef2      	ldrsh	r2, [r6, r3]
    7b68:	2599      	movs	r5, #153	@ 0x99
    7b6a:	0464      	lsls	r4, r4, #17
    7b6c:	108d      	asrs	r5, r1, #2
    7b6e:	4663      	mov	r3, ip
    7b70:	d5a2      	bpl.n	0x7ab8
    7b72:	ef20 4fed 	vmin.f32	q2, q8, <illegal reg q14.5>
    7b76:	520a      	strh	r2, [r1, r0]
    7b78:	00a8      	lsls	r0, r5, #2
    7b7a:	8870      	ldrh	r0, [r6, #2]
    7b7c:	80a0      	strh	r0, [r4, #4]
    7b7e:	3310      	adds	r3, #16
    7b80:	20fd      	movs	r0, #253	@ 0xfd
    7b82:	008d      	lsls	r5, r1, #2
    7b84:	03ef      	lsls	r7, r5, #15
    7b86:	009d      	lsls	r5, r3, #2
    7b88:	201c      	movs	r0, #28
    7b8a:	82c4      	strh	r4, [r0, #22]
    7b8c:	5ef2      	ldrsh	r2, [r6, r3]
    7b8e:	5b51      	ldrh	r1, [r2, r5]
    7b90:	300c      	adds	r0, #12
    7b92:	fdfd 010b 	ldc2l	1, cr0, [sp, #44]!	@ 0x2c
    7b96:	a3cb      	add	r3, pc, #812	@ (adr r3, 0x7ec4)
    7b98:	a100      	add	r1, pc, #0	@ (adr r1, 0x7b9c)
    7b9a:	1075      	asrs	r5, r6, #1
    7b9c:	1e30      	subs	r0, r6, #0
    7b9e:	b999      	cbnz	r1, 0x7bc8
    7ba0:	6ec3      	ldr	r3, [r0, #108]	@ 0x6c
    7ba2:	2009      	movs	r0, #9
    7ba4:	456d      	cmp	r5, sp
    7ba6:	d30a      	bcc.n	0x7bbe
    7ba8:	bfde      	ittt	le
    7baa:	6010      	strle	r0, [r2, #0]
    7bac:	2467      	movle	r4, #103	@ 0x67
    7bae:	0d5a      	lsrle	r2, r3, #21
    7bb0:	def2      	udf	#242	@ 0xf2
    7bb2:	a4fe      	add	r4, pc, #1016	@ (adr r4, 0x7fac)
    7bb4:	8520      	strh	r0, [r4, #40]	@ 0x28
    7bb6:	0886      	lsrs	r6, r0, #2
    7bb8:	008d      	lsls	r5, r1, #2
    7bba:	4633      	mov	r3, r6
    7bbc:	d5a2      	bpl.n	0x7b04
    7bbe:	ef20 4fed 	vmin.f32	q2, q8, <illegal reg q14.5>
    7bc2:	520a      	strh	r2, [r1, r0]
    7bc4:	10a8      	asrs	r0, r5, #2
    7bc6:	8870      	ldrh	r0, [r6, #2]
    7bc8:	b510      	push	{r4, lr}
    7bca:	00c5      	lsls	r5, r0, #3
    7bcc:	000a      	movs	r2, r1
    7bce:	075a      	lsls	r2, r3, #29
    7bd0:	ae11      	add	r6, sp, #68	@ 0x44
    7bd2:	8981      	ldrh	r1, [r0, #12]
    7bd4:	b041      	add	sp, #260	@ 0x104
    7bd6:	8dc5      	ldrh	r5, [r0, #46]	@ 0x2e
    7bd8:	0d00      	lsrs	r0, r0, #20
    7bda:	200a      	movs	r0, #10
    7bdc:	075a      	lsls	r2, r3, #29
    7bde:	a011      	add	r0, pc, #68	@ (adr r0, 0x7c24)
    7be0:	eec1 f02e 	cdp	0, 12, cr15, cr1, cr14, {1}
    7be4:	992e      	ldr	r1, [sp, #184]	@ 0xb8
    7be6:	632b      	str	r3, [r5, #48]	@ 0x30
    7be8:	5a24      	ldrh	r4, [r4, r0]
    7bea:	f20d fede 	bl	0x2159aa
    7bee:	20a4      	movs	r0, #164	@ 0xa4
    7bf0:	0a85      	lsrs	r5, r0, #10
    7bf2:	8701      	strh	r1, [r0, #56]	@ 0x38
    7bf4:	d008      	beq.n	0x7c08
    7bf6:	c009      	stmia	r0!, {r0, r3}
    7bf8:	4202      	tst	r2, r0
    7bfa:	282c      	cmp	r0, #44	@ 0x2c
    7bfc:	95ef      	str	r5, [sp, #956]	@ 0x3bc
    7bfe:	2fa9      	cmp	r7, #169	@ 0xa9
    7c00:	2046      	movs	r0, #70	@ 0x46
    7c02:	108d      	asrs	r5, r1, #2
    7c04:	608e      	str	r6, [r1, #8]
    7c06:	5a24      	ldrh	r4, [r4, r0]
    7c08:	f20d fede 	bl	0x2159c8
    7c0c:	20a4      	movs	r0, #164	@ 0xa4
    7c0e:	0a85      	lsrs	r5, r0, #10
    7c10:	8700      	strh	r0, [r0, #56]	@ 0x38
    7c12:	0a0a      	lsrs	r2, r1, #8
    7c14:	210a      	movs	r1, #10
    7c16:	0f3d      	lsrs	r5, r7, #28
    7c18:	08d2      	lsrs	r2, r2, #3
    7c1a:	2c20      	cmp	r4, #32
    7c1c:	0bd0      	lsrs	r0, r2, #15
    7c1e:	01c0      	lsls	r0, r0, #7
    7c20:	2c42      	cmp	r4, #66	@ 0x42
    7c22:	ef28 d515 	vqrshl.s32	d13, d5, d8
    7c26:	00c5      	lsls	r5, r0, #3
    7c28:	0621      	lsls	r1, r4, #24
    7c2a:	c2e5      	stmia	r2!, {r0, r2, r5, r6, r7}
    7c2c:	c018      	stmia	r0!, {r3, r4}
    7c2e:	0a29      	lsrs	r1, r5, #8
    7c30:	5a10      	ldrh	r0, [r2, r0]
    7c32:	1108      	asrs	r0, r1, #4
    7c34:	314b      	adds	r1, #75	@ 0x4b
    7c36:	40dd      	lsrs	r5, r3
    7c38:	ff0c 4283 	vhsub.u8	d4, d28, d3
    7c3c:	c400      	stmia	r4!, {}
    7c3e:	6821      	ldr	r1, [r4, #0]
    7c40:	0417      	lsls	r7, r2, #16
    7c42:	1c40      	adds	r0, r0, #1
    7c44:	6cb3      	ldr	r3, [r6, #72]	@ 0x48
    7c46:	0512      	lsls	r2, r2, #20
    7c48:	ffc4 6199 	vsra.u64	d22, d9, #60
    7c4c:	6ec2      	ldr	r2, [r0, #108]	@ 0x6c
    7c4e:	2009      	movs	r0, #9
    7c50:	496d      	ldr	r1, [pc, #436]	@ (0x7e08)
    7c52:	210a      	movs	r1, #10
    7c54:	e4db      	b.n	0x760e
    7c56:	018c      	lsls	r4, r1, #6
    7c58:	4676      	mov	r6, lr
    7c5a:	d5a2      	bpl.n	0x7ba2
    7c5c:	ef20 4fed 	vmin.f32	q2, q8, <illegal reg q14.5>
    7c60:	520a      	strh	r2, [r1, r0]
    7c62:	a868      	add	r0, sp, #416	@ 0x1a0
    7c64:	08d0      	lsrs	r0, r2, #3
    7c66:	6330      	str	r0, [r6, #48]	@ 0x30
    7c68:	5a24      	ldrh	r4, [r4, r0]
    7c6a:	f20d fede 	bl	0x215a2a
    7c6e:	20a4      	movs	r0, #164	@ 0xa4
    7c70:	0a85      	lsrs	r5, r0, #10
    7c72:	8701      	strh	r1, [r0, #56]	@ 0x38
    7c74:	510a      	str	r2, [r1, r4]
    7c76:	0c5d      	lsrs	r5, r3, #17
    7c78:	00a0      	lsls	r0, r4, #2
    7c7a:	85a0      	strh	r0, [r4, #44]	@ 0x2c
    7c7c:	2010      	movs	r0, #16
    7c7e:	9810      	ldr	r0, [sp, #64]	@ 0x40
    7c80:	0418      	lsls	r0, r3, #16
    7c82:	dc5d      	bgt.n	0x7d40
    7c84:	d008      	beq.n	0x7c98
    7c86:	00a0      	lsls	r0, r4, #2
    7c88:	85a2      	strh	r2, [r4, #44]	@ 0x2c
    7c8a:	4010      	ands	r0, r2
    7c8c:	ec0f 02ee 	sfm	f0, 4, [pc], {238}	@ 0xee
    7c90:	92ef      	str	r2, [sp, #956]	@ 0x3bc
    7c92:	1d29      	adds	r1, r5, #4
    7c94:	a246      	add	r2, pc, #280	@ (adr r2, 0x7db0)
    7c96:	20d5      	movs	r0, #213	@ 0xd5
    7c98:	edef 0a4f 			@ <UNDEFINED> instruction: 0xedef0a4f
    7c9c:	a852      	add	r0, sp, #328	@ 0x148
    7c9e:	7010      	strb	r0, [r2, #0]
    7ca0:	00a8      	lsls	r0, r5, #2
    7ca2:	00bd      	lsls	r5, r7, #2
    7ca4:	202c      	movs	r0, #44	@ 0x2c
    7ca6:	82c4      	strh	r4, [r0, #22]
    7ca8:	5ef2      	ldrsh	r2, [r6, r3]
    7caa:	a199      	add	r1, pc, #612	@ (adr r1, 0x7f10)
    7cac:	0461      	lsls	r1, r4, #17
    7cae:	08d2      	lsrs	r2, r2, #3
    7cb0:	0801      	lsrs	r1, r0, #32
    7cb2:	a246      	add	r2, pc, #280	@ (adr r2, 0x7dcc)
    7cb4:	20d5      	movs	r0, #213	@ 0xd5
    7cb6:	edef 0a4f 			@ <UNDEFINED> instruction: 0xedef0a4f
    7cba:	a852      	add	r0, sp, #328	@ 0x148
    7cbc:	7000      	strb	r0, [r0, #0]
    7cbe:	a0b8      	add	r0, pc, #736	@ (adr r0, 0x7fa0)
    7cc0:	10b0      	asrs	r0, r6, #2
    7cc2:	e903 8d20 	stmdb	r3, {r5, r8, sl, fp, pc}
    7cc6:	6900      	ldr	r0, [r0, #16]
    7cc8:	ad01      	add	r5, sp, #4
    7cca:	1c00      	adds	r0, r0, #0
    7ccc:	c420      	stmia	r4!, {r5}
    7cce:	f282 515e 			@ <UNDEFINED> instruction: 0xf282515e
    7cd2:	0c5e      	lsrs	r6, r3, #17
    7cd4:	00a0      	lsls	r0, r4, #2
    7cd6:	a5a1      	add	r5, pc, #644	@ (adr r5, 0x7f5c)
    7cd8:	6010      	str	r0, [r2, #0]
    7cda:	d30a      	bcc.n	0x7cf2
    7cdc:	c40d      	stmia	r4!, {r0, r2, r3}
    7cde:	8ff0      	ldrh	r0, [r6, #62]	@ 0x3e
    7ce0:	0413      	lsls	r3, r2, #16
    7ce2:	1c40      	adds	r0, r0, #1
    7ce4:	6c23      	ldr	r3, [r4, #64]	@ 0x40
    7ce6:	0041      	lsls	r1, r0, #1
    7ce8:	21c4      	movs	r1, #196	@ 0xc4
    7cea:	2626      	movs	r6, #38	@ 0x26
    7cec:	4051      	eors	r1, r2
    7cee:	9ffc      	ldr	r7, [sp, #1008]	@ 0x3f0
    7cf0:	1169      	asrs	r1, r5, #5
    7cf2:	96ec      	str	r6, [sp, #944]	@ 0x3b0
    7cf4:	d200      	bcs.n	0x7cf8
    7cf6:	a4b6      	add	r4, pc, #728	@ (adr r4, 0x7fd0)
    7cf8:	ad00      	add	r5, sp, #0
    7cfa:	2c00      	cmp	r4, #0
    7cfc:	c420      	stmia	r4!, {r5}
    7cfe:	f282 465e 			@ <UNDEFINED> instruction: 0xf282465e
    7d02:	d5a2      	bpl.n	0x7c4a
    7d04:	ef20 4fed 	vmin.f32	q2, q8, <illegal reg q14.5>
    7d08:	520a      	strh	r2, [r1, r0]
    7d0a:	b868      			@ <UNDEFINED> instruction: 0xb868
    7d0c:	08d0      	lsrs	r0, r2, #3
    7d0e:	6330      	str	r0, [r6, #48]	@ 0x30
    7d10:	5a24      	ldrh	r4, [r4, r0]
    7d12:	f20d fede 	bl	0x215ad2
    7d16:	20a4      	movs	r0, #164	@ 0xa4
    7d18:	0a85      	lsrs	r5, r0, #10
    7d1a:	8701      	strh	r1, [r0, #56]	@ 0x38
    7d1c:	510b      	str	r3, [r1, r4]
    7d1e:	0c5e      	lsrs	r6, r3, #17
    7d20:	00a0      	lsls	r0, r4, #2
    7d22:	a5a0      	add	r5, pc, #640	@ (adr r5, 0x7fa4)
    7d24:	a010      	add	r0, pc, #64	@ (adr r0, 0x7d68)
    7d26:	9805      	ldr	r0, [sp, #20]
    7d28:	0418      	lsls	r0, r3, #16
    7d2a:	dc5e      	bgt.n	0x7dea
    7d2c:	d008      	beq.n	0x7d40
    7d2e:	00a0      	lsls	r0, r4, #2
    7d30:	a5a2      	add	r5, pc, #648	@ (adr r5, 0x7fbc)
    7d32:	c010      	stmia	r0!, {r4}
    7d34:	ec04 02ee 	sfm	f0, 4, [r4], {238}	@ 0xee
    7d38:	92ef      	str	r2, [sp, #956]	@ 0x3bc
    7d3a:	0829      	lsrs	r1, r5, #32
    7d3c:	d046      	beq.n	0x7dcc
    7d3e:	0108      	lsls	r0, r1, #4
    7d40:	2464      	movs	r4, #100	@ 0x64
    7d42:	0d5a      	lsrs	r2, r3, #21
    7d44:	def2      	udf	#242	@ 0xf2
    7d46:	a4fe      	add	r4, pc, #1016	@ (adr r4, 0x8140)
    7d48:	8520      	strh	r0, [r4, #40]	@ 0x28
    7d4a:	000a      	movs	r2, r1
    7d4c:	0c87      	lsrs	r7, r0, #18
    7d4e:	0c0a      	lsrs	r2, r1, #16
    7d50:	0221      	lsls	r1, r4, #8
    7d52:	8d0e      	ldrh	r6, [r1, #40]	@ 0x28
    7d54:	4e00      	ldr	r6, [pc, #0]	@ (0x7d58)
    7d56:	0cd0      	lsrs	r0, r2, #19
    7d58:	01c0      	lsls	r0, r0, #7
    7d5a:	2c42      	cmp	r4, #66	@ 0x42
    7d5c:	ef28 9985 	vmla.i32	d9, d24, d5
    7d60:	6ec3      	ldr	r3, [r0, #108]	@ 0x6c
    7d62:	2009      	movs	r0, #9
    7d64:	4d6d      	ldr	r5, [pc, #436]	@ (0x7f1c)
    7d66:	460a      	mov	r2, r1
    7d68:	d5a2      	bpl.n	0x7cb0
    7d6a:	ef20 4fed 	vmin.f32	q2, q8, <illegal reg q14.5>
    7d6e:	520a      	strh	r2, [r1, r0]
    7d70:	10a8      	asrs	r0, r5, #2
    7d72:	c870      	ldmia	r0!, {r4, r5, r6}
    7d74:	cd00      	ldmia	r5!, {}
    7d76:	2c00      	cmp	r4, #0
    7d78:	c420      	stmia	r4!, {r5}
    7d7a:	f282 7e5e 			@ <UNDEFINED> instruction: 0xf2827e5e
    7d7e:	5df3      	ldrb	r3, [r6, r7]
    7d80:	df10      	svc	16
    7d82:	057e      	lsls	r6, r7, #21
    7d84:	4147      	adcs	r7, r0
    7d86:	ac20      	add	r4, sp, #128	@ 0x80
    7d88:	ff8c 212b 	vaddw.u8	q1, q6, d27
    7d8c:	42e6      	cmn	r6, r4
    7d8e:	018d      	lsls	r5, r1, #6
    7d90:	461f      	mov	r7, r3
    7d92:	0561      	lsls	r1, r4, #21
    7d94:	5463      	strb	r3, [r4, r1]
    7d96:	bf30      	wfi
    7d98:	c204      	stmia	r2!, {r2}
    7d9a:	4eda      	ldr	r6, [pc, #872]	@ (0x8104)
    7d9c:	1c6c      	adds	r4, r5, #1
    7d9e:	e033      	b.n	0x7e08
    7da0:	2dfd      	cmp	r5, #253	@ 0xfd
    7da2:	0a10      	lsrs	r0, r2, #8
    7da4:	ef0e 5c04 			@ <UNDEFINED> instruction: 0xef0e5c04
    7da8:	2ef0      	cmp	r6, #240	@ 0xf0
    7daa:	2110      	movs	r1, #16
    7dac:	12b3      	asrs	r3, r6, #10
    7dae:	ba21      	rev	r1, r4
    7db0:	0adf      	lsrs	r7, r3, #11
    7db2:	5a10      	ldrh	r0, [r2, r0]
    7db4:	2100      	movs	r1, #0
    7db6:	26f2      	movs	r6, #242	@ 0xf2
    7db8:	2110      	movs	r1, #16
    7dba:	12c2      	asrs	r2, r0, #11
    7dbc:	e551      	b.n	0x7862
    7dbe:	100b      	asrs	r3, r1, #32
    7dc0:	be75      	bkpt	0x0075
    7dc2:	5100      	str	r0, [r0, r4]
    7dc4:	0be9      	lsrs	r1, r5, #15
    7dc6:	b510      	push	{r4, lr}
    7dc8:	00be      	lsls	r6, r7, #2
    7dca:	ed51 100b 	ldcl	0, cr1, [r1, #-44]	@ 0xffffffd4
    7dce:	bef5      	bkpt	0x00f5
    7dd0:	5100      	str	r0, [r0, r4]
    7dd2:	0bf1      	lsrs	r1, r6, #15
    7dd4:	e310      	b.n	0x83f8
    7dd6:	d2a6      	bcs.n	0x7d26
    7dd8:	e008      	b.n	0x7dec
    7dda:	00a0      	lsls	r0, r4, #2
    7ddc:	15a1      	asrs	r1, r4, #22
    7dde:	8310      	strh	r0, [r2, #24]
    7de0:	026c      	lsls	r4, r5, #9
    7de2:	21f1      	movs	r1, #241	@ 0xf1
    7de4:	12bc      	asrs	r4, r7, #10
    7de6:	8221      	strh	r1, [r4, #16]
    7de8:	0adf      	lsrs	r7, r3, #11
    7dea:	5a08      	ldrh	r0, [r1, r0]
    7dec:	2100      	movs	r1, #0
    7dee:	26ba      	movs	r6, #186	@ 0xba
    7df0:	2110      	movs	r1, #16
    7df2:	12b5      	asrs	r5, r6, #10
    7df4:	e651      	b.n	0x7a9a
    7df6:	100b      	asrs	r3, r1, #32
    7df8:	be85      	bkpt	0x0085
    7dfa:	5100      	str	r0, [r0, r4]
    7dfc:	0bea      	lsrs	r2, r5, #15
    7dfe:	c510      	stmia	r5!, {r4}
    7e00:	00be      	lsls	r6, r7, #2
    7e02:	ee51 100b 	cdp	0, 5, cr1, cr1, cr11, {0}
    7e06:	bf05      	ittet	eq
    7e08:	5100      	streq	r0, [r0, r4]
    7e0a:	0bf2      	lsreq	r2, r6, #15
    7e0c:	6310      	strne	r0, [r2, #48]	@ 0x30
    7e0e:	d2a3      	bcs.n	0x7d58	@ unpredictable <IT:eq>
    7e10:	e008      	b.n	0x7e24
    7e12:	80a0      	strh	r0, [r4, #4]
    7e14:	15a0      	asrs	r0, r4, #22
    7e16:	0310      	lsls	r0, r2, #12
    7e18:	0269      	lsls	r1, r5, #9
    7e1a:	21f1      	movs	r1, #241	@ 0xf1
    7e1c:	0e87      	lsrs	r7, r0, #26
    7e1e:	fa04 e31b 			@ <UNDEFINED> instruction: 0xfa04e31b
    7e22:	0e1b      	lsrs	r3, r3, #24
    7e24:	21f1      	movs	r1, #241	@ 0xf1
    7e26:	0e7d      	lsrs	r5, r7, #25
    7e28:	fa04 431b 			@ <UNDEFINED> instruction: 0xfa04431b
    7e2c:	0e1b      	lsrs	r3, r3, #24
    7e2e:	21f1      	movs	r1, #241	@ 0xf1
    7e30:	0e73      	lsrs	r3, r6, #25
    7e32:	fa04 a31b 			@ <UNDEFINED> instruction: 0xfa04a31b
    7e36:	0e1a      	lsrs	r2, r3, #24
    7e38:	21f1      	movs	r1, #241	@ 0xf1
    7e3a:	0e69      	lsrs	r1, r5, #25
    7e3c:	fa04 031b 			@ <UNDEFINED> instruction: 0xfa04031b
    7e40:	0e1a      	lsrs	r2, r3, #24
    7e42:	21f1      	movs	r1, #241	@ 0xf1
    7e44:	0e5f      	lsrs	r7, r3, #25
    7e46:	fa04 631b 			@ <UNDEFINED> instruction: 0xfa04631b
    7e4a:	0e19      	lsrs	r1, r3, #24
    7e4c:	21f1      	movs	r1, #241	@ 0xf1
    7e4e:	0e55      	lsrs	r5, r2, #25
    7e50:	fa04 c31b 			@ <UNDEFINED> instruction: 0xfa04c31b
    7e54:	0e18      	lsrs	r0, r3, #24
    7e56:	dff1      	svc	241	@ 0xf1
    7e58:	b04e      	add	sp, #312	@ 0x138
    7e5a:	47c3      			@ <UNDEFINED> instruction: 0x47c3
    7e5c:	c040      	stmia	r0!, {r6}
    7e5e:	47c3      			@ <UNDEFINED> instruction: 0x47c3
    7e60:	2311      	movs	r3, #17
    7e62:	d29e      	bcs.n	0x7da2
    7e64:	a008      	add	r0, pc, #32	@ (adr r0, 0x7e88)
    7e66:	1463      	asrs	r3, r4, #17
    7e68:	010c      	lsls	r4, r1, #4
    7e6a:	e222      	b.n	0x82b2
    7e6c:	0462      	lsls	r2, r4, #17
    7e6e:	3e14      	subs	r6, #20
    7e70:	423c      	tst	r4, r7
    7e72:	11b8      	asrs	r0, r7, #6
    7e74:	400a      	ands	r2, r1
    7e76:	015a      	lsls	r2, r3, #5
    7e78:	2f21      	cmp	r7, #33	@ 0x21
    7e7a:	ee26 00a7 	cdp	0, 2, cr0, cr6, cr7, {5}
    7e7e:	15a2      	asrs	r2, r4, #22
    7e80:	6310      	str	r0, [r2, #48]	@ 0x30
    7e82:	1262      	asrs	r2, r4, #9
    7e84:	e1e3      	b.n	0x824e
    7e86:	4ec0      	ldr	r6, [pc, #768]	@ (0x8188)
    7e88:	f01f df2e 	bl	0x827ce8
    7e8c:	f102 fcdf 	bl	0x10a84e
    7e90:	5127      	str	r7, [r4, r4]
    7e92:	0bfb      	lsrs	r3, r7, #15
    7e94:	1510      	asrs	r0, r2, #20
    7e96:	00c4      	lsls	r4, r0, #3
    7e98:	4251      	negs	r1, r2
    7e9a:	100c      	asrs	r4, r1, #32
    7e9c:	1bf3      	subs	r3, r6, r7
    7e9e:	e31e      	b.n	0x84de
    7ea0:	c0f8      	stmia	r0!, {r3, r4, r5, r6, r7}
    7ea2:	c008      	stmia	r0!, {r3}
    7ea4:	18c1      	adds	r1, r0, r3
    7ea6:	c240      	stmia	r2!, {r6}
    7ea8:	c028      	stmia	r0!, {r3, r5}
    7eaa:	38c2      	subs	r0, #194	@ 0xc2
    7eac:	c260      	stmia	r2!, {r5, r6}
    7eae:	d048      	beq.n	0x7f42
    7eb0:	3982      	subs	r1, #130	@ 0x82
    7eb2:	00a3      	lsls	r3, r4, #2
    7eb4:	6310      	str	r0, [r2, #48]	@ 0x30
    7eb6:	8dea      	ldrh	r2, [r5, #46]	@ 0x2e
    7eb8:	a259      	add	r2, pc, #356	@ (adr r2, 0x8020)
    7eba:	1020      	asrs	r0, r4, #32
    7ebc:	e9f3 798d 	ldrd	r7, r9, [r3, #564]!	@ 0x234
    7ec0:	10a1      	asrs	r1, r4, #2
    7ec2:	8310      	strh	r0, [r2, #24]
    7ec4:	ede9 0a5e 			@ <UNDEFINED> instruction: 0xede90a5e
    7ec8:	2103      	movs	r1, #3
    7eca:	de92      	udf	#146	@ 0x92
    7ecc:	6d21      	ldr	r1, [r4, #80]	@ 0x50
    7ece:	2114      	movs	r1, #20
    7ed0:	11fb      	asrs	r3, r7, #7
    7ed2:	040a      	lsls	r2, r1, #16
    7ed4:	005a      	lsls	r2, r3, #1
    7ed6:	d121      	bne.n	0x7f1c
    7ed8:	0a25      	lsrs	r5, r4, #8
    7eda:	2100      	movs	r1, #0
    7edc:	24eb      	movs	r4, #235	@ 0xeb
    7ede:	000a      	movs	r2, r1
    7ee0:	f321 2124 			@ <UNDEFINED> instruction: 0xf3212124
    7ee4:	261c      	movs	r6, #28
    7ee6:	000a      	movs	r2, r1
    7ee8:	5a21      	ldrh	r1, [r4, r0]
    7eea:	0adf      	lsrs	r7, r3, #11
    7eec:	2100      	movs	r1, #0
    7eee:	e0f2      	b.n	0x80d6
    7ef0:	ff04 331b 	vcge.u8	d3, d4, d11
    7ef4:	1e08      	subs	r0, r1, #0
    7ef6:	f733 e04d 	bfcsel	1c, 0x6f92, 20, gt
    7efa:	21bf      	movs	r1, #191	@ 0xbf
    7efc:	df54      	svc	84	@ 0x54
    7efe:	2721      	movs	r7, #33	@ 0x21
    7f00:	21e1      	movs	r1, #225	@ 0xe1
    7f02:	df19      	svc	25
    7f04:	1b21      	subs	r1, r4, r4
    7f06:	21df      	movs	r1, #223	@ 0xdf
    7f08:	df1d      	svc	29
    7f0a:	1f21      	subs	r1, r4, #4
    7f0c:	21df      	movs	r1, #223	@ 0xdf
    7f0e:	df21      	svc	33	@ 0x21
    7f10:	2821      	cmp	r0, #33	@ 0x21
    7f12:	21df      	movs	r1, #223	@ 0xdf
    7f14:	df2a      	svc	42	@ 0x2a
    7f16:	f221 04e0 			@ <UNDEFINED> instruction: 0xf22104e0
    7f1a:	7c51      	ldrb	r1, [r2, #17]
    7f1c:	c204      	stmia	r2!, {r2}
    7f1e:	c4d7      	stmia	r4!, {r0, r1, r2, r4, r6, r7}
    7f20:	f040 14c4 	orr.w	r4, r0, #12845252	@ 0xc400c4
    7f24:	2c50      	cmp	r4, #80	@ 0x50
    7f26:	21e4      	movs	r1, #228	@ 0xe4
    7f28:	e143      	b.n	0x81b2
    7f2a:	8a21      	ldrh	r1, [r4, #16]
    7f2c:	21e0      	movs	r1, #224	@ 0xe0
    7f2e:	de4c      	udf	#76	@ 0x4c
    7f30:	000a      	movs	r2, r1
    7f32:	8147      	strh	r7, [r0, #10]
    7f34:	d349      	bcc.n	0x7fca
    7f36:	c2de      	stmia	r2!, {r1, r2, r3, r4, r6, r7}
    7f38:	1460      	asrs	r0, r4, #17
    7f3a:	4882      	ldr	r0, [pc, #520]	@ (0x8144)
    7f3c:	18d8      	adds	r0, r3, r3
    7f3e:	6180      	str	r0, [r0, #24]
    7f40:	5a14      	ldrh	r4, [r2, r0]
    7f42:	ef00 146d 	vshl.s8	<illegal reg q0.5>, <illegal reg q14.5>, q0
    7f46:	015a      	lsls	r2, r3, #5
    7f48:	8def      	ldrh	r7, [r5, #46]	@ 0x2e
    7f4a:	6139      	str	r1, [r7, #16]
    7f4c:	0814      	lsrs	r4, r2, #32
    7f4e:	60d1      	str	r1, [r2, #12]
    7f50:	0c14      	lsrs	r4, r2, #16
    7f52:	d80c      	bhi.n	0x7f6e
    7f54:	7ec1      	ldrb	r1, [r0, #27]
    7f56:	4df2      	ldr	r5, [pc, #968]	@ (0x8320)
    7f58:	5110      	str	r0, [r2, r4]
    7f5a:	0bfb      	lsrs	r3, r7, #15
    7f5c:	c310      	stmia	r3!, {r4}
    7f5e:	a13d      	add	r1, pc, #244	@ (adr r1, 0x8054)
    7f60:	a050      	add	r0, pc, #320	@ (adr r0, 0x80a4)
    7f62:	f005 0ade 	and.w	sl, r5, #222	@ 0xde
    7f66:	5a07      	ldrh	r7, [r0, r0]
    7f68:	ef00 831d 	vcge.s8	d8, d0, d13
    7f6c:	d28d      	bcs.n	0x7e8a
    7f6e:	e008      	b.n	0x7f82
    7f70:	40a0      	lsls	r0, r4
    7f72:	15a0      	asrs	r0, r4, #22
    7f74:	2310      	movs	r3, #16
    7f76:	0253      	lsls	r3, r2, #9
    7f78:	0af1      	lsrs	r1, r6, #11
    7f7a:	ef01 f108 	vrhadd.s8	d15, d1, d8
    7f7e:	000a      	movs	r2, r1
    7f80:	08ef      	lsrs	r7, r5, #3
    7f82:	dff1      	svc	241	@ 0xf1
    7f84:	367c      	adds	r6, #124	@ 0x7c
    7f86:	7057      	strb	r7, [r2, #1]
    7f88:	4614      	mov	r4, r2
    7f8a:	2581      	movs	r5, #129	@ 0x81
    7f8c:	ed05 440a 	cfstrs	mvf4, [r5, #-40]	@ 0xffffffd8
    7f90:	2852      	cmp	r0, #82	@ 0x52
    7f92:	468e      	mov	lr, r1
    7f94:	c310      	stmia	r3!, {r4}
    7f96:	7dc0      	ldrb	r0, [r0, #23]
    7f98:	4624      	mov	r4, r4
    7f9a:	28c2      	cmp	r0, #194	@ 0xc2
    7f9c:	62f0      	str	r0, [r6, #44]	@ 0x2c
    7f9e:	5814      	ldr	r4, [r2, r0]
    7fa0:	a052      	add	r0, pc, #328	@ (adr r0, 0x80ec)
    7fa2:	d01a      	beq.n	0x7fda
    7fa4:	bb8e      	cbnz	r6, 0x800a
    7fa6:	8520      	strh	r0, [r4, #40]	@ 0x28
    7fa8:	46a5      	mov	sp, r4
    7faa:	2581      	movs	r5, #129	@ 0x81
    7fac:	ed05 0bb8 	vstr	d0, [r5, #-736]	@ 0xfffffd20
    7fb0:	6852      	ldr	r2, [r2, #4]
    7fb2:	8704      	strh	r4, [r0, #56]	@ 0x38
    7fb4:	6601      	str	r1, [r0, #96]	@ 0x60
    7fb6:	4df3      	ldr	r5, [pc, #972]	@ (0x8384)
    7fb8:	df10      	svc	16
    7fba:	047d      	lsls	r5, r7, #17
    7fbc:	e14f      	b.n	0x825e
    7fbe:	8116      	strh	r6, [r2, #8]
    7fc0:	9100      	str	r1, [sp, #0]
    7fc2:	d202      	bcs.n	0x7fca
    7fc4:	bde6      	pop	{r1, r2, r5, r6, r7, pc}
    7fc6:	0460      	lsls	r0, r4, #17
    7fc8:	d3ed      	bcc.n	0x7fa6
    7fca:	21c6      	movs	r1, #198	@ 0xc6
    7fcc:	dbd6      	blt.n	0x7f7c
    7fce:	03df      	lsls	r7, r3, #15
    7fd0:	dff1      	svc	241	@ 0xf1
    7fd2:	047d      	lsls	r5, r7, #17
    7fd4:	e14f      	b.n	0x8276
    7fd6:	8116      	strh	r6, [r2, #8]
    7fd8:	9100      	str	r1, [sp, #0]
    7fda:	d202      	bcs.n	0x7fe2
    7fdc:	be06      	bkpt	0x0006
    7fde:	0460      	lsls	r0, r4, #17
    7fe0:	e8ed 21c6 	strd	r2, r1, [sp], #792	@ 0x318
    7fe4:	dbbe      	blt.n	0x7f64
    7fe6:	03df      	lsls	r7, r3, #15
    7fe8:	dff1      	svc	241	@ 0xf1
    7fea:	047f      	lsls	r7, r7, #17
    7fec:	d046      	beq.n	0x807c
    7fee:	6fde      	ldr	r6, [r3, #124]	@ 0x7c
    7ff0:	031c      	lsls	r4, r3, #12
    7ff2:	fdbb 101d 	ldc2	0, cr1, [fp, #116]!	@ 0x74
    7ff6:	2751      	movs	r7, #81	@ 0x51
    7ff8:	c03a      	stmia	r0!, {r1, r3, r4, r5}
    7ffa:	c0ae      	stmia	r0!, {r1, r2, r3, r5, r7}
    7ffc:	6d20      	ldr	r0, [r4, #80]	@ 0x50
    7ffe:	0a29      	lsrs	r1, r5, #8
    8000:	5110      	str	r0, [r2, r4]
    8002:	3a27      	subs	r2, #39	@ 0x27
    8004:	aec0      	add	r6, sp, #768	@ 0x300
    8006:	2080      	movs	r0, #128	@ 0x80
    8008:	296d      	cmp	r1, #109	@ 0x6d
    800a:	040a      	lsls	r2, r1, #16
    800c:	5be5      	ldrh	r5, [r4, r7]
    800e:	a2b0      	add	r2, pc, #704	@ (adr r2, 0x82d0)
    8010:	5110      	str	r0, [r2, r4]
    8012:	3a27      	subs	r2, #39	@ 0x27
    8014:	aec0      	add	r6, sp, #768	@ 0x300
    8016:	2080      	movs	r0, #128	@ 0x80
    8018:	296d      	cmp	r1, #109	@ 0x6d
    801a:	040a      	lsls	r2, r1, #16
    801c:	5be9      	ldrh	r1, [r5, r7]
    801e:	a2b0      	add	r2, pc, #704	@ (adr r2, 0x82e0)
    8020:	5110      	str	r0, [r2, r4]
    8022:	6a27      	ldr	r7, [r4, #32]
    8024:	aec0      	add	r6, sp, #768	@ 0x300
    8026:	2180      	movs	r1, #128	@ 0x80
    8028:	296d      	cmp	r1, #109	@ 0x6d
    802a:	510a      	str	r2, [r1, r4]
    802c:	1a2b      	subs	r3, r5, r0
    802e:	b040      	add	sp, #256	@ 0x100
    8030:	05be      	lsls	r6, r7, #22
    8032:	0a2c      	lsrs	r4, r5, #8
    8034:	51f1      	str	r1, [r6, r7]
    8036:	3a27      	subs	r2, #39	@ 0x27
    8038:	bec0      	bkpt	0x00c0
    803a:	20c0      	movs	r0, #192	@ 0xc0
    803c:	296d      	cmp	r1, #109	@ 0x6d
    803e:	100a      	asrs	r2, r1, #32
    8040:	2751      	movs	r7, #81	@ 0x51
    8042:	c03a      	stmia	r0!, {r1, r3, r4, r5}
    8044:	80be      	strh	r6, [r7, #4]
    8046:	6d20      	ldr	r0, [r4, #80]	@ 0x50
    8048:	0a29      	lsrs	r1, r5, #8
    804a:	e604      	b.n	0x7c56
    804c:	b05b      	add	sp, #364	@ 0x16c
    804e:	10a2      	asrs	r2, r4, #2
    8050:	2751      	movs	r7, #81	@ 0x51
    8052:	c03a      	stmia	r0!, {r1, r3, r4, r5}
    8054:	80be      	strh	r6, [r7, #4]
    8056:	6d20      	ldr	r0, [r4, #80]	@ 0x50
    8058:	0a29      	lsrs	r1, r5, #8
    805a:	e804 b05b 			@ <UNDEFINED> instruction: 0xe804b05b
    805e:	10a2      	asrs	r2, r4, #2
    8060:	2751      	movs	r7, #81	@ 0x51
    8062:	c03a      	stmia	r0!, {r1, r3, r4, r5}
    8064:	80be      	strh	r6, [r7, #4]
    8066:	6d20      	ldr	r0, [r4, #80]	@ 0x50
    8068:	0a29      	lsrs	r1, r5, #8
    806a:	ea04 b05b 			@ <UNDEFINED> instruction: 0xea04b05b
    806e:	10a2      	asrs	r2, r4, #2
    8070:	2751      	movs	r7, #81	@ 0x51
    8072:	c06a      	stmia	r0!, {r1, r3, r5, r6}
    8074:	80be      	strh	r6, [r7, #4]
    8076:	6d21      	ldr	r1, [r4, #80]	@ 0x50
    8078:	0a29      	lsrs	r1, r5, #8
    807a:	2b51      	cmp	r3, #81	@ 0x51
    807c:	401a      	ands	r2, r3
    807e:	bec0      	bkpt	0x00c0
    8080:	2c05      	cmp	r4, #5
    8082:	f10a 2751 	add.w	r7, sl, #1358975232	@ 0x51005100
    8086:	c03a      	stmia	r0!, {r1, r3, r4, r5}
    8088:	40ae      	lsls	r6, r5
    808a:	6d21      	ldr	r1, [r4, #80]	@ 0x50
    808c:	0a29      	lsrs	r1, r5, #8
    808e:	5110      	str	r0, [r2, r4]
    8090:	3a27      	subs	r2, #39	@ 0x27
    8092:	aec0      	add	r6, sp, #768	@ 0x300
    8094:	2100      	movs	r1, #0
    8096:	296d      	cmp	r1, #109	@ 0x6d
    8098:	040a      	lsls	r2, r1, #16
    809a:	5bed      	ldrh	r5, [r5, r7]
    809c:	a2b0      	add	r2, pc, #704	@ (adr r2, 0x8360)
    809e:	5110      	str	r0, [r2, r4]
    80a0:	3a27      	subs	r2, #39	@ 0x27
    80a2:	aec0      	add	r6, sp, #768	@ 0x300
    80a4:	2100      	movs	r1, #0
    80a6:	296d      	cmp	r1, #109	@ 0x6d
    80a8:	040a      	lsls	r2, r1, #16
    80aa:	5bef      	ldrh	r7, [r5, r7]
    80ac:	a2b0      	add	r2, pc, #704	@ (adr r2, 0x8370)
    80ae:	5110      	str	r0, [r2, r4]
    80b0:	6a27      	ldr	r7, [r4, #32]
    80b2:	aec0      	add	r6, sp, #768	@ 0x300
    80b4:	2200      	movs	r2, #0
    80b6:	296d      	cmp	r1, #109	@ 0x6d
    80b8:	0a0a      	lsrs	r2, r1, #8
    80ba:	1400      	asrs	r0, r0, #16
    80bc:	2bf1      	cmp	r3, #241	@ 0xf1
    80be:	054a      	lsls	r2, r1, #21
    80c0:	4a2b      	ldr	r2, [pc, #172]	@ (0x8170)
    80c2:	bf10      	yield
    80c4:	2c05      	cmp	r4, #5
    80c6:	f10a 2751 	add.w	r7, sl, #1358975232	@ 0x51005100
    80ca:	c03a      	stmia	r0!, {r1, r3, r4, r5}
    80cc:	40be      	lsls	r6, r7
    80ce:	6d21      	ldr	r1, [r4, #80]	@ 0x50
    80d0:	0a29      	lsrs	r1, r5, #8
    80d2:	5110      	str	r0, [r2, r4]
    80d4:	3a27      	subs	r2, #39	@ 0x27
    80d6:	bec0      	bkpt	0x00c0
    80d8:	2100      	movs	r1, #0
    80da:	296d      	cmp	r1, #109	@ 0x6d
    80dc:	040a      	lsls	r2, r1, #16
    80de:	5bee      	ldrh	r6, [r5, r7]
    80e0:	a2b0      	add	r2, pc, #704	@ (adr r2, 0x83a4)
    80e2:	5110      	str	r0, [r2, r4]
    80e4:	3a27      	subs	r2, #39	@ 0x27
    80e6:	bec0      	bkpt	0x00c0
    80e8:	2100      	movs	r1, #0
    80ea:	296d      	cmp	r1, #109	@ 0x6d
    80ec:	040a      	lsls	r2, r1, #16
    80ee:	5bf0      	ldrh	r0, [r6, r7]
    80f0:	a2b0      	add	r2, pc, #704	@ (adr r2, 0x83b4)
    80f2:	5110      	str	r0, [r2, r4]
    80f4:	6a27      	ldr	r7, [r4, #32]
    80f6:	bec0      	bkpt	0x00c0
    80f8:	2200      	movs	r2, #0
    80fa:	296d      	cmp	r1, #109	@ 0x6d
    80fc:	0a0a      	lsrs	r2, r1, #8
    80fe:	1400      	asrs	r0, r0, #16
    8100:	2bf2      	cmp	r3, #242	@ 0xf2
    8102:	054a      	lsls	r2, r1, #21
    8104:	4a2b      	ldr	r2, [pc, #172]	@ (0x81b4)
    8106:	bf20      	wfe
    8108:	2c05      	cmp	r4, #5
    810a:	f10a 2751 	add.w	r7, sl, #1358975232	@ 0x51005100
    810e:	003a      	movs	r2, r7
    8110:	20ac      	movs	r0, #172	@ 0xac
    8112:	296d      	cmp	r1, #109	@ 0x6d
    8114:	040a      	lsls	r2, r1, #16
    8116:	5be4      	ldrh	r4, [r4, r7]
    8118:	a2b0      	add	r2, pc, #704	@ (adr r2, 0x83dc)
    811a:	5110      	str	r0, [r2, r4]
    811c:	3a27      	subs	r2, #39	@ 0x27
    811e:	bc00      	pop	{}
    8120:	6d20      	ldr	r0, [r4, #80]	@ 0x50
    8122:	0a29      	lsrs	r1, r5, #8
    8124:	e404      	b.n	0x7930
    8126:	b05b      	add	sp, #364	@ 0x16c
    8128:	10a2      	asrs	r2, r4, #2
    812a:	2751      	movs	r7, #81	@ 0x51
    812c:	c06a      	stmia	r0!, {r1, r3, r5, r6}
    812e:	005e      	lsls	r6, r3, #1
    8130:	6d23      	ldr	r3, [r4, #80]	@ 0x50
    8132:	0a29      	lsrs	r1, r5, #8
    8134:	3a21      	subs	r2, #33	@ 0x21
    8136:	1008      	asrs	r0, r1, #32
    8138:	2751      	movs	r7, #81	@ 0x51
    813a:	c06a      	stmia	r0!, {r1, r3, r5, r6}
    813c:	83ce      	strh	r6, [r1, #30]
    813e:	6d20      	ldr	r0, [r4, #80]	@ 0x50
    8140:	0a29      	lsrs	r1, r5, #8
    8142:	66c2      	str	r2, [r0, #108]	@ 0x6c
    8144:	20eb      	movs	r0, #235	@ 0xeb
    8146:	2b6d      	cmp	r3, #109	@ 0x6d
    8148:	040a      	lsls	r2, r1, #16
    814a:	5ed0      	ldrsh	r0, [r2, r3]
    814c:	a2d0      	add	r2, pc, #832	@ (adr r2, 0x8490)
    814e:	5110      	str	r0, [r2, r4]
    8150:	3a27      	subs	r2, #39	@ 0x27
    8152:	aec0      	add	r6, sp, #768	@ 0x300
    8154:	2280      	movs	r2, #128	@ 0x80
    8156:	296d      	cmp	r1, #109	@ 0x6d
    8158:	040a      	lsls	r2, r1, #16
    815a:	5be9      	ldrh	r1, [r5, r7]
    815c:	a2b0      	add	r2, pc, #704	@ (adr r2, 0x8420)
    815e:	5110      	str	r0, [r2, r4]
    8160:	3a27      	subs	r2, #39	@ 0x27
    8162:	bec0      	bkpt	0x00c0
    8164:	2280      	movs	r2, #128	@ 0x80
    8166:	296d      	cmp	r1, #109	@ 0x6d
    8168:	040a      	lsls	r2, r1, #16
    816a:	5bea      	ldrh	r2, [r5, r7]
    816c:	a2b0      	add	r2, pc, #704	@ (adr r2, 0x8430)
    816e:	5110      	str	r0, [r2, r4]
    8170:	6a27      	ldr	r7, [r4, #32]
    8172:	6ec0      	ldr	r0, [r0, #108]	@ 0x6c
    8174:	2301      	movs	r3, #1
    8176:	296d      	cmp	r1, #109	@ 0x6d
    8178:	c20a      	stmia	r2!, {r1, r3}
    817a:	eba6 6d20 	sub.w	sp, r6, r0, asr #24
    817e:	0a2b      	lsrs	r3, r5, #8
    8180:	5110      	str	r0, [r2, r4]
    8182:	6a27      	ldr	r7, [r4, #32]
    8184:	6ec0      	ldr	r0, [r0, #108]	@ 0x6c
    8186:	2381      	movs	r3, #129	@ 0x81
    8188:	296d      	cmp	r1, #109	@ 0x6d
    818a:	c20a      	stmia	r2!, {r1, r3}
    818c:	ebc6 6d20 	rsb	sp, r6, r0, asr #24
    8190:	0a2b      	lsrs	r3, r5, #8
    8192:	5110      	str	r0, [r2, r4]
    8194:	6a27      	ldr	r7, [r4, #32]
    8196:	6ec0      	ldr	r0, [r0, #108]	@ 0x6c
    8198:	2281      	movs	r2, #129	@ 0x81
    819a:	296d      	cmp	r1, #109	@ 0x6d
    819c:	c20a      	stmia	r2!, {r1, r3}
    819e:	ec46 6d20 	mcrr	13, 2, r6, r6, cr0
    81a2:	0a2b      	lsrs	r3, r5, #8
    81a4:	66c2      	str	r2, [r0, #108]	@ 0x6c
    81a6:	20ec      	movs	r0, #236	@ 0xec
    81a8:	2d6d      	cmp	r5, #109	@ 0x6d
    81aa:	100a      	asrs	r2, r1, #32
    81ac:	2751      	movs	r7, #81	@ 0x51
    81ae:	c06a      	stmia	r0!, {r1, r3, r5, r6}
    81b0:	848e      	strh	r6, [r1, #36]	@ 0x24
    81b2:	6d20      	ldr	r0, [r4, #80]	@ 0x50
    81b4:	0a29      	lsrs	r1, r5, #8
    81b6:	86c2      	strh	r2, [r0, #54]	@ 0x36
    81b8:	20ec      	movs	r0, #236	@ 0xec
    81ba:	2b6d      	cmp	r3, #109	@ 0x6d
    81bc:	c20a      	stmia	r2!, {r1, r3}
    81be:	eca6 6d20 	stc	13, cr6, [r6], #128	@ 0x80
    81c2:	0a2d      	lsrs	r5, r5, #8
    81c4:	5110      	str	r0, [r2, r4]
    81c6:	3a27      	subs	r2, #39	@ 0x27
    81c8:	8ec0      	ldrh	r0, [r0, #54]	@ 0x36
    81ca:	2024      	movs	r0, #36	@ 0x24
    81cc:	296d      	cmp	r1, #109	@ 0x6d
    81ce:	510a      	str	r2, [r1, r4]
    81d0:	0a2b      	lsrs	r3, r5, #8
    81d2:	f100 2751 	add.w	r7, r0, #1358975232	@ 0x51005100
    81d6:	c06a      	stmia	r0!, {r1, r3, r5, r6}
    81d8:	848e      	strh	r6, [r1, #36]	@ 0x24
    81da:	6d22      	ldr	r2, [r4, #80]	@ 0x50
    81dc:	0a29      	lsrs	r1, r5, #8
    81de:	c6c2      	stmia	r6!, {r1, r6, r7}
    81e0:	20ec      	movs	r0, #236	@ 0xec
    81e2:	2b6d      	cmp	r3, #109	@ 0x6d
    81e4:	c20a      	stmia	r2!, {r1, r3}
    81e6:	ece6 6d20 	stcl	13, cr6, [r6], #128	@ 0x80
    81ea:	0a2d      	lsrs	r5, r5, #8
    81ec:	5110      	str	r0, [r2, r4]
    81ee:	9a27      	ldr	r2, [sp, #156]	@ 0x9c
    81f0:	6ec0      	ldr	r0, [r0, #108]	@ 0x6c
    81f2:	2201      	movs	r2, #1
    81f4:	296d      	cmp	r1, #109	@ 0x6d
    81f6:	c20a      	stmia	r2!, {r1, r3}
    81f8:	ebe6 6d20 			@ <UNDEFINED> instruction: 0xebe66d20
    81fc:	0a2b      	lsrs	r3, r5, #8
    81fe:	06c2      	lsls	r2, r0, #27
    8200:	20ec      	movs	r0, #236	@ 0xec
    8202:	2d6d      	cmp	r5, #109	@ 0x6d
    8204:	c20a      	stmia	r2!, {r1, r3}
    8206:	ec26 6d20 	stc	13, cr6, [r6], #-128	@ 0xffffff80
    820a:	0a2f      	lsrs	r7, r5, #8
    820c:	5110      	str	r0, [r2, r4]
    820e:	3a27      	subs	r2, #39	@ 0x27
    8210:	6c00      	ldr	r0, [r0, #64]	@ 0x40
    8212:	6d21      	ldr	r1, [r4, #80]	@ 0x50
    8214:	0a29      	lsrs	r1, r5, #8
    8216:	f904 b05b 	vst4.16	{d11-d14}, [r4 :64], fp
    821a:	10a2      	asrs	r2, r4, #2
    821c:	2751      	movs	r7, #81	@ 0x51
    821e:	c03a      	stmia	r0!, {r1, r3, r4, r5}
    8220:	016e      	lsls	r6, r5, #5
    8222:	6d26      	ldr	r6, [r4, #80]	@ 0x50
    8224:	0a29      	lsrs	r1, r5, #8
    8226:	fa04 b05b 			@ <UNDEFINED> instruction: 0xfa04b05b
    822a:	10a2      	asrs	r2, r4, #2
    822c:	2751      	movs	r7, #81	@ 0x51
    822e:	c03a      	stmia	r0!, {r1, r3, r4, r5}
    8230:	004e      	lsls	r6, r1, #1
    8232:	6d22      	ldr	r2, [r4, #80]	@ 0x50
    8234:	0a29      	lsrs	r1, r5, #8
    8236:	2b51      	cmp	r3, #81	@ 0x51
    8238:	000a      	movs	r2, r1
    823a:	51f1      	str	r1, [r6, r7]
    823c:	3a27      	subs	r2, #39	@ 0x27
    823e:	4ec0      	ldr	r6, [pc, #768]	@ (0x8540)
    8240:	2220      	movs	r2, #32
    8242:	296d      	cmp	r1, #109	@ 0x6d
    8244:	510a      	str	r2, [r1, r4]
    8246:	2a2b      	cmp	r2, #43	@ 0x2b
    8248:	f100 2751 	add.w	r7, r0, #1358975232	@ 0x51005100
    824c:	c03a      	stmia	r0!, {r1, r3, r4, r5}
    824e:	c04e      	stmia	r0!, {r1, r2, r3, r6}
    8250:	6d21      	ldr	r1, [r4, #80]	@ 0x50
    8252:	0a29      	lsrs	r1, r5, #8
    8254:	5110      	str	r0, [r2, r4]
    8256:	3a27      	subs	r2, #39	@ 0x27
    8258:	5ec0      	ldrsh	r0, [r0, r3]
    825a:	23a0      	movs	r3, #160	@ 0xa0
    825c:	296d      	cmp	r1, #109	@ 0x6d
    825e:	040a      	lsls	r2, r1, #16
    8260:	5bfb      	ldrh	r3, [r7, r7]
    8262:	a2b0      	add	r2, pc, #704	@ (adr r2, 0x8524)
    8264:	5110      	str	r0, [r2, r4]
    8266:	3a27      	subs	r2, #39	@ 0x27
    8268:	bec0      	bkpt	0x00c0
    826a:	23a0      	movs	r3, #160	@ 0xa0
    826c:	296d      	cmp	r1, #109	@ 0x6d
    826e:	040a      	lsls	r2, r1, #16
    8270:	5bfc      	ldrh	r4, [r7, r7]
    8272:	a2b0      	add	r2, pc, #704	@ (adr r2, 0x8534)
    8274:	5110      	str	r0, [r2, r4]
    8276:	3a27      	subs	r2, #39	@ 0x27
    8278:	0c00      	lsrs	r0, r0, #16
    827a:	6d21      	ldr	r1, [r4, #80]	@ 0x50
    827c:	0a29      	lsrs	r1, r5, #8
    827e:	fe04 b05b 	mcr2	0, 0, fp, cr4, cr11, {2}
    8282:	10a2      	asrs	r2, r4, #2
    8284:	2751      	movs	r7, #81	@ 0x51
    8286:	c03a      	stmia	r0!, {r1, r3, r4, r5}
    8288:	a26e      	add	r2, pc, #440	@ (adr r2, 0x8444)
    828a:	6d20      	ldr	r0, [r4, #80]	@ 0x50
    828c:	0a29      	lsrs	r1, r5, #8
    828e:	4b04      	ldr	r3, [pc, #16]	@ (0x82a0)
    8290:	b05c      	add	sp, #368	@ 0x170
    8292:	10a2      	asrs	r2, r4, #2
    8294:	2751      	movs	r7, #81	@ 0x51
    8296:	c03a      	stmia	r0!, {r1, r3, r4, r5}
    8298:	010e      	lsls	r6, r1, #4
    829a:	6d21      	ldr	r1, [r4, #80]	@ 0x50
    829c:	0a29      	lsrs	r1, r5, #8
    829e:	5821      	ldr	r1, [r4, r0]
    82a0:	0544      	lsls	r4, r0, #21
    82a2:	0a2b      	lsrs	r3, r5, #8
    82a4:	51f1      	str	r1, [r6, r7]
    82a6:	3a27      	subs	r2, #39	@ 0x27
    82a8:	0ec0      	lsrs	r0, r0, #27
    82aa:	2121      	movs	r1, #33	@ 0x21
    82ac:	296d      	cmp	r1, #109	@ 0x6d
    82ae:	210a      	movs	r1, #10
    82b0:	4447      	add	r7, r8
    82b2:	2b05      	cmp	r3, #5
    82b4:	f10a 2751 	add.w	r7, sl, #1358975232	@ 0x51005100
    82b8:	c03a      	stmia	r0!, {r1, r3, r4, r5}
    82ba:	610e      	str	r6, [r1, #16]
    82bc:	6d21      	ldr	r1, [r4, #80]	@ 0x50
    82be:	0a29      	lsrs	r1, r5, #8
    82c0:	3621      	adds	r6, #33	@ 0x21
    82c2:	0544      	lsls	r4, r0, #21
    82c4:	0a2b      	lsrs	r3, r5, #8
    82c6:	51f1      	str	r1, [r6, r7]
    82c8:	6a27      	ldr	r7, [r4, #32]
    82ca:	6ec0      	ldr	r0, [r0, #108]	@ 0x6c
    82cc:	25a1      	movs	r5, #161	@ 0xa1
    82ce:	296d      	cmp	r1, #109	@ 0x6d
    82d0:	210a      	movs	r1, #10
    82d2:	23b2      	movs	r3, #178	@ 0xb2
    82d4:	b6d2      			@ <UNDEFINED> instruction: 0xb6d2
    82d6:	00a2      	lsls	r2, r4, #2
    82d8:	51f1      	str	r1, [r6, r7]
    82da:	6a27      	ldr	r7, [r4, #32]
    82dc:	6ec0      	ldr	r0, [r0, #108]	@ 0x6c
    82de:	25e1      	movs	r5, #225	@ 0xe1
    82e0:	296d      	cmp	r1, #109	@ 0x6d
    82e2:	210a      	movs	r1, #10
    82e4:	23a0      	movs	r3, #160	@ 0xa0
    82e6:	b6d2      			@ <UNDEFINED> instruction: 0xb6d2
    82e8:	00a2      	lsls	r2, r4, #2
    82ea:	51f1      	str	r1, [r6, r7]
    82ec:	6a27      	ldr	r7, [r4, #32]
    82ee:	5ec0      	ldrsh	r0, [r0, r3]
    82f0:	2023      	movs	r0, #35	@ 0x23
    82f2:	296d      	cmp	r1, #109	@ 0x6d
    82f4:	210a      	movs	r1, #10
    82f6:	23d0      	movs	r3, #208	@ 0xd0
    82f8:	b6d2      			@ <UNDEFINED> instruction: 0xb6d2
    82fa:	00a2      	lsls	r2, r4, #2
    82fc:	51f1      	str	r1, [r6, r7]
    82fe:	6a27      	ldr	r7, [r4, #32]
    8300:	5ec0      	ldrsh	r0, [r0, r3]
    8302:	2063      	movs	r0, #99	@ 0x63
    8304:	296d      	cmp	r1, #109	@ 0x6d
    8306:	210a      	movs	r1, #10
    8308:	23be      	movs	r3, #190	@ 0xbe
    830a:	b6d2      			@ <UNDEFINED> instruction: 0xb6d2
    830c:	00a2      	lsls	r2, r4, #2
    830e:	51f1      	str	r1, [r6, r7]
    8310:	6a27      	ldr	r7, [r4, #32]
    8312:	aec0      	add	r6, sp, #768	@ 0x300
    8314:	24a0      	movs	r4, #160	@ 0xa0
    8316:	296d      	cmp	r1, #109	@ 0x6d
    8318:	510a      	str	r2, [r1, r4]
    831a:	1a2b      	subs	r3, r5, r0
    831c:	a310      	add	r3, pc, #64	@ (adr r3, 0x8360)
    831e:	523d      	strh	r5, [r7, r0]
    8320:	a2c0      	add	r2, pc, #768	@ (adr r2, 0x8624)
    8322:	5110      	str	r0, [r2, r4]
    8324:	6a27      	ldr	r7, [r4, #32]
    8326:	aec0      	add	r6, sp, #768	@ 0x300
    8328:	24e0      	movs	r4, #224	@ 0xe0
    832a:	296d      	cmp	r1, #109	@ 0x6d
    832c:	510a      	str	r2, [r1, r4]
    832e:	1a2b      	subs	r3, r5, r0
    8330:	6310      	str	r0, [r2, #48]	@ 0x30
    8332:	523c      	strh	r4, [r7, r0]
    8334:	a2c0      	add	r2, pc, #768	@ (adr r2, 0x8638)
    8336:	5110      	str	r0, [r2, r4]
    8338:	6a27      	ldr	r7, [r4, #32]
    833a:	bec0      	bkpt	0x00c0
    833c:	24a0      	movs	r4, #160	@ 0xa0
    833e:	296d      	cmp	r1, #109	@ 0x6d
    8340:	510a      	str	r2, [r1, r4]
    8342:	1a2b      	subs	r3, r5, r0
    8344:	3310      	adds	r3, #16
    8346:	523e      	strh	r6, [r7, r0]
    8348:	a2c0      	add	r2, pc, #768	@ (adr r2, 0x864c)
    834a:	5110      	str	r0, [r2, r4]
    834c:	6a27      	ldr	r7, [r4, #32]
    834e:	bec0      	bkpt	0x00c0
    8350:	24e0      	movs	r4, #224	@ 0xe0
    8352:	296d      	cmp	r1, #109	@ 0x6d
    8354:	510a      	str	r2, [r1, r4]
    8356:	1a2b      	subs	r3, r5, r0
    8358:	f310 523c 			@ <UNDEFINED> instruction: 0xf310523c
    835c:	a2c0      	add	r2, pc, #768	@ (adr r2, 0x8660)
    835e:	df10      	svc	16
    8360:	25fc      	movs	r5, #252	@ 0xfc
    8362:	2902      	cmp	r1, #2
    8364:	ce80      	ldmia	r6!, {r7}
    8366:	cc21      	ldmia	r4!, {r0, r5}
    8368:	1202      	asrs	r2, r0, #8
    836a:	2ce3      	cmp	r4, #227	@ 0xe3
    836c:	7512      	strb	r2, [r2, #20]
    836e:	06a2      	lsls	r2, r4, #26
    8370:	0bec      	lsrs	r4, r5, #15
    8372:	d282      	bcs.n	0x827a
    8374:	a296      	add	r2, pc, #600	@ (adr r2, 0x85d0)
    8376:	0460      	lsls	r0, r4, #17
    8378:	2b05      	cmp	r3, #5
    837a:	146a      	asrs	r2, r5, #17
    837c:	2c05      	cmp	r4, #5
    837e:	25ea      	movs	r5, #234	@ 0xea
    8380:	04df      	lsls	r7, r3, #19
    8382:	dff1      	svc	241	@ 0xf1
    8384:	25fc      	movs	r5, #252	@ 0xfc
    8386:	2902      	cmp	r1, #2
    8388:	ce80      	ldmia	r6!, {r7}
    838a:	cc21      	ldmia	r4!, {r0, r5}
    838c:	1202      	asrs	r2, r0, #8
    838e:	2aa3      	cmp	r2, #163	@ 0xa3
    8390:	7512      	strb	r2, [r2, #20]
    8392:	06a2      	lsls	r2, r4, #26
    8394:	0bec      	lsrs	r4, r5, #15
    8396:	d286      	bcs.n	0x82a6
    8398:	a296      	add	r2, pc, #600	@ (adr r2, 0x85f4)
    839a:	0460      	lsls	r0, r4, #17
    839c:	2b05      	cmp	r3, #5
    839e:	146a      	asrs	r2, r5, #17
    83a0:	2c05      	cmp	r4, #5
    83a2:	25ea      	movs	r5, #234	@ 0xea
    83a4:	04df      	lsls	r7, r3, #19
    83a6:	51f1      	str	r1, [r6, r7]
    83a8:	3a27      	subs	r2, #39	@ 0x27
    83aa:	3ec0      	subs	r6, #192	@ 0xc0
    83ac:	2082      	movs	r0, #130	@ 0x82
    83ae:	296d      	cmp	r1, #109	@ 0x6d
    83b0:	040a      	lsls	r2, r1, #16
    83b2:	5c16      	ldrb	r6, [r2, r0]
    83b4:	a2b0      	add	r2, pc, #704	@ (adr r2, 0x8678)
    83b6:	5110      	str	r0, [r2, r4]
    83b8:	3a27      	subs	r2, #39	@ 0x27
    83ba:	aec0      	add	r6, sp, #768	@ 0x300
    83bc:	20c4      	movs	r0, #196	@ 0xc4
    83be:	296d      	cmp	r1, #109	@ 0x6d
    83c0:	100a      	asrs	r2, r1, #32
    83c2:	2751      	movs	r7, #81	@ 0x51
    83c4:	c09a      	stmia	r0!, {r1, r3, r4, r7}
    83c6:	802e      	strh	r6, [r5, #0]
    83c8:	6d21      	ldr	r1, [r4, #80]	@ 0x50
    83ca:	0a29      	lsrs	r1, r5, #8
    83cc:	f404 b05b 	b.w	0xff80c486
    83d0:	c2a2      	stmia	r2!, {r1, r5, r7}
    83d2:	bf56      	itet	pl
    83d4:	6d20      	ldrpl	r0, [r4, #80]	@ 0x50
    83d6:	0a2c      	lsrmi	r4, r5, #8
    83d8:	76c2      	strbpl	r2, [r0, #27]
    83da:	20bf      	movs	r0, #191	@ 0xbf
    83dc:	2e6d      	cmp	r6, #109	@ 0x6d
    83de:	100a      	asrs	r2, r1, #32
    83e0:	2751      	movs	r7, #81	@ 0x51
    83e2:	c09a      	stmia	r0!, {r1, r3, r4, r7}
    83e4:	e02e      	b.n	0x8444
    83e6:	6d21      	ldr	r1, [r4, #80]	@ 0x50
    83e8:	0a29      	lsrs	r1, r5, #8
    83ea:	f404 b05b 	b.w	0xff80c4a4
    83ee:	c2a2      	stmia	r2!, {r1, r5, r7}
    83f0:	bf56      	itet	pl
    83f2:	6d20      	ldrpl	r0, [r4, #80]	@ 0x50
    83f4:	0a2c      	lsrmi	r4, r5, #8
    83f6:	76c2      	strbpl	r2, [r0, #27]
    83f8:	20bf      	movs	r0, #191	@ 0xbf
    83fa:	2e6d      	cmp	r6, #109	@ 0x6d
    83fc:	100a      	asrs	r2, r1, #32
    83fe:	2751      	movs	r7, #81	@ 0x51
    8400:	c03a      	stmia	r0!, {r1, r3, r4, r5}
    8402:	a32e      	add	r3, pc, #184	@ (adr r3, 0x84bc)
    8404:	6d22      	ldr	r2, [r4, #80]	@ 0x50
    8406:	0a29      	lsrs	r1, r5, #8
    8408:	e204      	b.n	0x8814
    840a:	b05b      	add	sp, #364	@ 0x16c
    840c:	10a2      	asrs	r2, r4, #2
    840e:	2751      	movs	r7, #81	@ 0x51
    8410:	c03a      	stmia	r0!, {r1, r3, r4, r5}
    8412:	a32e      	add	r3, pc, #184	@ (adr r3, 0x84cc)
    8414:	6d27      	ldr	r7, [r4, #80]	@ 0x50
    8416:	0a29      	lsrs	r1, r5, #8
    8418:	df10      	svc	16
    841a:	a31f      	add	r3, pc, #124	@ (adr r3, 0x8498)
    841c:	7436      	strb	r6, [r6, #16]
    841e:	5104      	str	r4, [r0, r4]
    8420:	3a27      	subs	r2, #39	@ 0x27
    8422:	6ec0      	ldr	r0, [r0, #108]	@ 0x6c
    8424:	2402      	movs	r4, #2
    8426:	296d      	cmp	r1, #109	@ 0x6d
    8428:	460a      	mov	r2, r1
    842a:	b050      	add	sp, #320	@ 0x140
    842c:	dfa2      	svc	162	@ 0xa2
    842e:	f101 2751 	add.w	r7, r1, #1358975232	@ 0x51005100
    8432:	c03a      	stmia	r0!, {r1, r3, r4, r5}
    8434:	626e      	str	r6, [r5, #36]	@ 0x24
    8436:	6d24      	ldr	r4, [r4, #80]	@ 0x50
    8438:	0a29      	lsrs	r1, r5, #8
    843a:	ff04 b05b 	vqadd.u8	<illegal reg q5.5>, q2, <illegal reg q5.5>
    843e:	10a2      	asrs	r2, r4, #2
    8440:	2751      	movs	r7, #81	@ 0x51
    8442:	c03a      	stmia	r0!, {r1, r3, r4, r5}
    8444:	026e      	lsls	r6, r5, #9
    8446:	6d21      	ldr	r1, [r4, #80]	@ 0x50
    8448:	0a29      	lsrs	r1, r5, #8
    844a:	2b51      	cmp	r3, #81	@ 0x51
    844c:	064a      	lsls	r2, r1, #25
    844e:	dff1      	svc	241	@ 0xf1
    8450:	f50f 05bf 	add.w	r5, pc, #6258688	@ 0x5f8000
    8454:	a222      	add	r2, pc, #136	@ (adr r2, 0x84e0)
    8456:	00a0      	lsls	r0, r4, #2
    8458:	0470      	lsls	r0, r6, #17
    845a:	a3fe      	add	r3, pc, #1016	@ (adr r3, 0x8854)
    845c:	7640      	strb	r0, [r0, #25]
    845e:	5104      	str	r4, [r0, r4]
    8460:	3a27      	subs	r2, #39	@ 0x27
    8462:	6ec0      	ldr	r0, [r0, #108]	@ 0x6c
    8464:	2162      	movs	r1, #98	@ 0x62
    8466:	296d      	cmp	r1, #109	@ 0x6d
    8468:	460a      	mov	r2, r1
    846a:	b050      	add	sp, #320	@ 0x140
    846c:	dfa2      	svc	162	@ 0xa2
    846e:	f101 2751 	add.w	r7, r1, #1358975232	@ 0x51005100
    8472:	c03a      	stmia	r0!, {r1, r3, r4, r5}
    8474:	232e      	movs	r3, #46	@ 0x2e
    8476:	6d22      	ldr	r2, [r4, #80]	@ 0x50
    8478:	0a29      	lsrs	r1, r5, #8
    847a:	0004      	movs	r4, r0
    847c:	b05c      	add	sp, #368	@ 0x170
    847e:	10a2      	asrs	r2, r4, #2
    8480:	2751      	movs	r7, #81	@ 0x51
    8482:	409a      	lsls	r2, r3
    8484:	c0a0      	stmia	r0!, {r5, r7}
    8486:	f081 2905 	eor.w	r9, r1, #83887360	@ 0x5000500
    848a:	b04a      	add	sp, #296	@ 0x128
    848c:	05c0      	lsls	r0, r0, #23
    848e:	4a2a      	ldr	r2, [pc, #168]	@ (0x8538)
    8490:	c0c0      	stmia	r0!, {r6, r7}
    8492:	2b05      	cmp	r3, #5
    8494:	d04a      	beq.n	0x852c
    8496:	05c0      	lsls	r0, r0, #23
    8498:	4a2c      	ldr	r2, [pc, #176]	@ (0x854c)
    849a:	c0e0      	stmia	r0!, {r5, r6, r7}
    849c:	2d05      	cmp	r5, #5
    849e:	f04a 05c0 	orr.w	r5, sl, #192	@ 0xc0
    84a2:	0a2e      	lsrs	r6, r5, #8
    84a4:	51f1      	str	r1, [r6, r7]
    84a6:	6a27      	ldr	r7, [r4, #32]
    84a8:	0ec0      	lsrs	r0, r0, #27
    84aa:	20a1      	movs	r0, #161	@ 0xa1
    84ac:	296d      	cmp	r1, #109	@ 0x6d
    84ae:	040a      	lsls	r2, r1, #16
    84b0:	5bfe      	ldrh	r6, [r7, r7]
    84b2:	a2b0      	add	r2, pc, #704	@ (adr r2, 0x8774)
    84b4:	2c51      	cmp	r4, #81	@ 0x51
    84b6:	000a      	movs	r2, r1
    84b8:	51f1      	str	r1, [r6, r7]
    84ba:	9a27      	ldr	r2, [sp, #156]	@ 0x9c
    84bc:	6ec0      	ldr	r0, [r0, #108]	@ 0x6c
    84be:	2521      	movs	r5, #33	@ 0x21
    84c0:	296d      	cmp	r1, #109	@ 0x6d
    84c2:	040a      	lsls	r2, r1, #16
    84c4:	5c17      	ldrb	r7, [r2, r0]
    84c6:	a2b0      	add	r2, pc, #704	@ (adr r2, 0x8788)
    84c8:	1804      	adds	r4, r0, r0
    84ca:	c05c      	stmia	r0!, {r2, r3, r4, r6}
    84cc:	c2a2      	stmia	r2!, {r1, r5, r7}
    84ce:	c196      	stmia	r1!, {r1, r2, r4, r7}
    84d0:	6d20      	ldr	r0, [r4, #80]	@ 0x50
    84d2:	0a2d      	lsrs	r5, r5, #8
    84d4:	1b04      	subs	r4, r0, r4
    84d6:	f05c 10a2 	orrs.w	r0, ip, #10616994	@ 0xa200a2
    84da:	2751      	movs	r7, #81	@ 0x51
    84dc:	c06a      	stmia	r0!, {r1, r3, r5, r6}
    84de:	238e      	movs	r3, #142	@ 0x8e
    84e0:	6d20      	ldr	r0, [r4, #80]	@ 0x50
    84e2:	0a29      	lsrs	r1, r5, #8
    84e4:	1c04      	adds	r4, r0, #0
    84e6:	b05c      	add	sp, #368	@ 0x170
    84e8:	04a2      	lsls	r2, r4, #18
    84ea:	5c1d      	ldrb	r5, [r3, r0]
    84ec:	a2c0      	add	r2, pc, #768	@ (adr r2, 0x87f0)
    84ee:	e6c2      	b.n	0x8276
    84f0:	20c1      	movs	r0, #193	@ 0xc1
    84f2:	2d6d      	cmp	r5, #109	@ 0x6d
    84f4:	100a      	asrs	r2, r1, #32
    84f6:	2751      	movs	r7, #81	@ 0x51
    84f8:	c06a      	stmia	r0!, {r1, r3, r5, r6}
    84fa:	23ce      	movs	r3, #206	@ 0xce
    84fc:	6d20      	ldr	r0, [r4, #80]	@ 0x50
    84fe:	0a29      	lsrs	r1, r5, #8
    8500:	2004      	movs	r0, #4
    8502:	b05c      	add	sp, #368	@ 0x170
    8504:	04a2      	lsls	r2, r4, #18
    8506:	5c21      	ldrb	r1, [r4, r0]
    8508:	a2c0      	add	r2, pc, #768	@ (adr r2, 0x880c)
    850a:	5110      	str	r0, [r2, r4]
    850c:	6a27      	ldr	r7, [r4, #32]
    850e:	bec0      	bkpt	0x00c0
    8510:	2023      	movs	r0, #35	@ 0x23
    8512:	296d      	cmp	r1, #109	@ 0x6d
    8514:	040a      	lsls	r2, r1, #16
    8516:	5c22      	ldrb	r2, [r4, r0]
    8518:	a2b0      	add	r2, pc, #704	@ (adr r2, 0x87dc)
    851a:	2304      	movs	r3, #4
    851c:	c05c      	stmia	r0!, {r2, r3, r4, r6}
    851e:	10a2      	asrs	r2, r4, #2
    8520:	0edf      	lsrs	r7, r3, #27
    8522:	f00c 0406 	and.w	r4, ip, #6
    8526:	dc30      	bgt.n	0x858a
    8528:	9018      	str	r0, [sp, #96]	@ 0x60
    852a:	06e0      	lsls	r0, r4, #27
    852c:	0181      	lsls	r1, r0, #6
    852e:	2149      	movs	r1, #73	@ 0x49
    8530:	2209      	movs	r2, #9
    8532:	008d      	lsls	r5, r1, #2
    8534:	6e09      	ldr	r1, [r1, #96]	@ 0x60
    8536:	0810      	lsrs	r0, r2, #32
    8538:	1491      	asrs	r1, r2, #18
    853a:	a275      	add	r2, pc, #468	@ (adr r2, 0x8710)
    853c:	ec06 1a26 			@ <UNDEFINED> instruction: 0xec061a26
    8540:	96d2      	str	r6, [sp, #840]	@ 0x348
    8542:	e0a2      	b.n	0x868a
    8544:	d206      	bcs.n	0x8554
    8546:	a2b6      	add	r2, pc, #728	@ (adr r2, 0x8820)
    8548:	2df0      	cmp	r5, #240	@ 0xf0
    854a:	df10      	svc	16
    854c:	35fb      	adds	r5, #251	@ 0xfb
    854e:	2902      	cmp	r1, #2
    8550:	ce80      	ldmia	r6!, {r7}
    8552:	cc21      	ldmia	r4!, {r0, r5}
    8554:	1202      	asrs	r2, r0, #8
    8556:	4d63      	ldr	r5, [pc, #396]	@ (0x86e4)
    8558:	7513      	strb	r3, [r2, #20]
    855a:	06a2      	lsls	r2, r4, #26
    855c:	26ec      	movs	r6, #236	@ 0xec
    855e:	d202      	bcs.n	0x8566
    8560:	a296      	add	r2, pc, #600	@ (adr r2, 0x87bc)
    8562:	0460      	lsls	r0, r4, #17
    8564:	2b05      	cmp	r3, #5
    8566:	16ea      	asrs	r2, r5, #27
    8568:	c6d2      	stmia	r6!, {r1, r4, r6, r7}
    856a:	e0a2      	b.n	0x86b2
    856c:	df35      	svc	53	@ 0x35
    856e:	f105 2751 	add.w	r7, r5, #1358975232	@ 0x51005100
    8572:	c06a      	stmia	r0!, {r1, r3, r5, r6}
    8574:	a16e      	add	r1, pc, #440	@ (adr r1, 0x8730)
    8576:	6d24      	ldr	r4, [r4, #80]	@ 0x50
    8578:	0a29      	lsrs	r1, r5, #8
    857a:	2404      	movs	r4, #4
    857c:	b05c      	add	sp, #368	@ 0x170
    857e:	c2a2      	stmia	r2!, {r1, r5, r7}
    8580:	c256      	stmia	r2!, {r1, r2, r4, r6}
    8582:	6d20      	ldr	r0, [r4, #80]	@ 0x50
    8584:	0a2c      	lsrs	r4, r5, #8
    8586:	2704      	movs	r7, #4
    8588:	e05c      	b.n	0x8644
    858a:	10a2      	asrs	r2, r4, #2
    858c:	2751      	movs	r7, #81	@ 0x51
    858e:	c09a      	stmia	r0!, {r1, r3, r4, r7}
    8590:	e32e      	b.n	0x8bf0
    8592:	6d2b      	ldr	r3, [r5, #80]	@ 0x50
    8594:	0a29      	lsrs	r1, r5, #8
    8596:	0104      	lsls	r4, r0, #4
    8598:	b05c      	add	sp, #368	@ 0x170
    859a:	04a2      	lsls	r2, r4, #18
    859c:	5c02      	ldrb	r2, [r0, r0]
    859e:	a2c0      	add	r2, pc, #768	@ (adr r2, 0x88a0)
    85a0:	0504      	lsls	r4, r0, #20
    85a2:	d05c      	beq.n	0x865e
    85a4:	04a2      	lsls	r2, r4, #18
    85a6:	5c06      	ldrb	r6, [r0, r0]
    85a8:	a2e0      	add	r2, pc, #896	@ (adr r2, 0x892c)
    85aa:	0704      	lsls	r4, r0, #28
    85ac:	f05c 04a2 	orrs.w	r4, ip, #162	@ 0xa2
    85b0:	5c08      	ldrb	r0, [r1, r0]
    85b2:	a300      	add	r3, pc, #0	@ (adr r3, 0x85b4)
    85b4:	df10      	svc	16
    85b6:	37fb      	adds	r7, #251	@ 0xfb
    85b8:	10c2      	asrs	r2, r0, #3
    85ba:	440c      	add	r4, r1
    85bc:	eb31 8423 			@ <UNDEFINED> instruction: 0xeb318423
    85c0:	260d      	movs	r6, #13
    85c2:	c10c      	stmia	r1!, {r2, r3}
    85c4:	1440      	asrs	r0, r0, #17
    85c6:	3eb3      	subs	r6, #179	@ 0xb3
    85c8:	b842      			@ <UNDEFINED> instruction: 0xb842
    85ca:	c213      	stmia	r2!, {r0, r1, r4}
    85cc:	0c20      	lsrs	r0, r4, #16
    85ce:	4144      	adcs	r4, r0
    85d0:	23eb      	movs	r3, #235	@ 0xeb
    85d2:	ad84      	add	r5, sp, #528	@ 0x210
    85d4:	0c23      	lsrs	r3, r4, #16
    85d6:	40c1      	lsrs	r1, r0
    85d8:	b314      	cbz	r4, 0x8620
    85da:	423e      	tst	r6, r7
    85dc:	69b8      	ldr	r0, [r7, #24]
    85de:	20c2      	movs	r0, #194	@ 0xc2
    85e0:	440c      	add	r4, r1
    85e2:	eb41 8423 			@ <UNDEFINED> instruction: 0xeb418423
    85e6:	256b      	movs	r5, #107	@ 0x6b
    85e8:	c30c      	stmia	r3!, {r2, r3}
    85ea:	1440      	asrs	r0, r0, #17
    85ec:	3eb5      	subs	r6, #181	@ 0xb5
    85ee:	2242      	movs	r2, #66	@ 0x42
    85f0:	4422      	add	r2, r4
    85f2:	eb30 4258 			@ <UNDEFINED> instruction: 0xeb304258
    85f6:	8aac      	ldrh	r4, [r5, #20]
    85f8:	4040      	eors	r0, r0
    85fa:	58eb      	ldr	r3, [r5, r3]
    85fc:	002c      	movs	r4, r5
    85fe:	0df8      	lsrs	r0, r7, #23
    8600:	2052      	movs	r0, #82	@ 0x52
    8602:	01aa      	lsls	r2, r5, #6
    8604:	3122      	adds	r1, #34	@ 0x22
    8606:	dc2f      	bgt.n	0x8668
    8608:	3863      	subs	r0, #99	@ 0x63
    860a:	6fd6      	ldr	r6, [r2, #124]	@ 0x7c
    860c:	5041      	str	r1, [r0, r1]
    860e:	47eb      			@ <UNDEFINED> instruction: 0x47eb
    8610:	4980      	ldr	r1, [pc, #512]	@ (0x8814)
    8612:	6c21      	ldr	r1, [r4, #64]	@ 0x40
    8614:	40c1      	lsrs	r1, r0
    8616:	216f      	movs	r1, #111	@ 0x6f
    8618:	c30c      	stmia	r3!, {r2, r3}
    861a:	4740      	bx	r8
    861c:	7510      	strb	r0, [r2, #20]
    861e:	06a2      	lsls	r2, r4, #26
    8620:	01ec      	lsls	r4, r5, #7
    8622:	d22e      	bcs.n	0x8682
    8624:	a296      	add	r2, pc, #600	@ (adr r2, 0x8880)
    8626:	16e0      	asrs	r0, r4, #27
    8628:	b6d2      			@ <UNDEFINED> instruction: 0xb6d2
    862a:	60a2      	str	r2, [r4, #8]
    862c:	0504      	lsls	r4, r0, #20
    862e:	ea2d df37 			@ <UNDEFINED> instruction: 0xea2ddf37
    8632:	f105 2751 	add.w	r7, r5, #1358975232	@ 0x51005100
    8636:	c06a      	stmia	r0!, {r1, r3, r5, r6}
    8638:	e01e      	b.n	0x8678
    863a:	6d22      	ldr	r2, [r4, #80]	@ 0x50
    863c:	0a29      	lsrs	r1, r5, #8
    863e:	a0c3      	add	r0, pc, #780	@ (adr r0, 0x894c)
    8640:	00a2      	lsls	r2, r4, #2
    8642:	239c      	movs	r3, #156	@ 0x9c
    8644:	2b6d      	cmp	r3, #109	@ 0x6d
    8646:	100a      	asrs	r2, r1, #32
    8648:	fbdf 0437 			@ <UNDEFINED> instruction: 0xfbdf0437
    864c:	8eb3      	ldrh	r3, [r6, #52]	@ 0x34
    864e:	c425      	stmia	r4!, {r0, r2, r5}
    8650:	08aa      	lsrs	r2, r5, #2
    8652:	b404      	push	{r2}
    8654:	c58e      	stmia	r5!, {r1, r2, r3, r7}
    8656:	8002      	strh	r2, [r0, #0]
    8658:	20df      	movs	r0, #223	@ 0xdf
    865a:	a205      	add	r2, pc, #20	@ (adr r2, 0x8670)
    865c:	201a      	movs	r0, #26
    865e:	f312 3dc2 			@ <UNDEFINED> instruction: 0xf3123dc2
    8662:	6386      	str	r6, [r0, #56]	@ 0x38
    8664:	16fd      	asrs	r5, r7, #27
    8666:	b504      	push	{r2, lr}
    8668:	047e      	lsls	r6, r7, #17
    866a:	2751      	movs	r7, #81	@ 0x51
    866c:	c06a      	stmia	r0!, {r1, r3, r5, r6}
    866e:	601e      	str	r6, [r3, #0]
    8670:	6d28      	ldr	r0, [r5, #80]	@ 0x50
    8672:	0a29      	lsrs	r1, r5, #8
    8674:	216e      	movs	r1, #110	@ 0x6e
    8676:	2b6d      	cmp	r3, #109	@ 0x6d
    8678:	460a      	mov	r2, r1
    867a:	d050      	beq.n	0x871e
    867c:	51a2      	str	r2, [r4, r6]
    867e:	1a2e      	subs	r6, r5, r0
    8680:	37e0      	adds	r7, #224	@ 0xe0
    8682:	05df      	lsls	r7, r3, #23
    8684:	51f1      	str	r1, [r6, r7]
    8686:	6a27      	ldr	r7, [r4, #32]
    8688:	1ec0      	subs	r0, r0, #3
    868a:	2860      	cmp	r0, #96	@ 0x60
    868c:	296d      	cmp	r1, #109	@ 0x6d
    868e:	c30a      	stmia	r3!, {r1, r3}
    8690:	a2a0      	add	r2, pc, #640	@ (adr r2, 0x8914)
    8692:	9c00      	ldr	r4, [sp, #0]
    8694:	6d23      	ldr	r3, [r4, #80]	@ 0x50
    8696:	0a2b      	lsrs	r3, r5, #8
    8698:	5110      	str	r0, [r2, r4]
    869a:	3a27      	subs	r2, #39	@ 0x27
    869c:	6ec0      	ldr	r0, [r0, #108]	@ 0x6c
    869e:	2402      	movs	r4, #2
    86a0:	296d      	cmp	r1, #109	@ 0x6d
    86a2:	040a      	lsls	r2, r1, #16
    86a4:	5bff      	ldrh	r7, [r7, r7]
    86a6:	a2b0      	add	r2, pc, #704	@ (adr r2, 0x8968)
    86a8:	5110      	str	r0, [r2, r4]
    86aa:	9a27      	ldr	r2, [sp, #156]	@ 0x9c
    86ac:	ac00      	add	r4, sp, #0
    86ae:	6d24      	ldr	r4, [r4, #80]	@ 0x50
    86b0:	0a29      	lsrs	r1, r5, #8
    86b2:	7b11      	ldrb	r1, [r2, #12]
    86b4:	f102 2751 	add.w	r7, r2, #1358975232	@ 0x51005100
    86b8:	c09a      	stmia	r0!, {r1, r3, r4, r7}
    86ba:	64ae      	str	r6, [r5, #72]	@ 0x48
    86bc:	6d20      	ldr	r0, [r4, #80]	@ 0x50
    86be:	0a29      	lsrs	r1, r5, #8
    86c0:	6d11      	ldr	r1, [r2, #80]	@ 0x50
    86c2:	f102 2751 	add.w	r7, r2, #1358975232	@ 0x51005100
    86c6:	003a      	movs	r2, r7
    86c8:	204c      	movs	r0, #76	@ 0x4c
    86ca:	296d      	cmp	r1, #109	@ 0x6d
    86cc:	040a      	lsls	r2, r1, #16
    86ce:	5bf3      	ldrh	r3, [r6, r7]
    86d0:	a2b0      	add	r2, pc, #704	@ (adr r2, 0x8994)
    86d2:	5110      	str	r0, [r2, r4]
    86d4:	6a27      	ldr	r7, [r4, #32]
    86d6:	6c20      	ldr	r0, [r4, #64]	@ 0x40
    86d8:	0bde      	lsrs	r6, r3, #15
    86da:	96d2      	str	r6, [sp, #840]	@ 0x348
    86dc:	30a2      	adds	r0, #162	@ 0xa2
    86de:	2a0c      	cmp	r2, #12
    86e0:	c00a      	stmia	r0!, {r1, r3}
    86e2:	d23a      	bcs.n	0x875a
    86e4:	a2b6      	add	r2, pc, #728	@ (adr r2, 0x89c0)
    86e6:	f100 2751 	add.w	r7, r0, #1358975232	@ 0x51005100
    86ea:	206a      	movs	r0, #106	@ 0x6a
    86ec:	e06c      	b.n	0x87c8
    86ee:	d20b      	bcs.n	0x8708
    86f0:	a296      	add	r2, pc, #600	@ (adr r2, 0x894c)
    86f2:	0c30      	lsrs	r0, r6, #16
    86f4:	0a2a      	lsrs	r2, r5, #8
    86f6:	3bc0      	subs	r3, #192	@ 0xc0
    86f8:	b6d2      			@ <UNDEFINED> instruction: 0xb6d2
    86fa:	00a2      	lsls	r2, r4, #2
    86fc:	51f1      	str	r1, [r6, r7]
    86fe:	6a27      	ldr	r7, [r4, #32]
    8700:	9510      	str	r5, [sp, #64]	@ 0x40
    8702:	f2a2 2a51 	subw	sl, r2, #593	@ 0x251
    8706:	100a      	asrs	r2, r1, #32
    8708:	a2b5      	add	r2, pc, #724	@ (adr r2, 0x89e0)
    870a:	5132      	str	r2, [r6, r4]
    870c:	9a2c      	ldr	r2, [sp, #176]	@ 0xb0
    870e:	f100 3fdf 	add.w	pc, r0, #3755991007	@ 0xdfdfdfdf
    8712:	40ed      	lsrs	r5, r5
    8714:	ff0c 210c 	vrhadd.u8	d2, d12, d12
    8718:	0cba      	lsrs	r2, r7, #18
    871a:	e047      	b.n	0x87ac
    871c:	044e      	lsls	r6, r1, #17
    871e:	7c40      	ldrb	r0, [r0, #17]
    8720:	5104      	str	r4, [r0, r4]
    8722:	3a27      	subs	r2, #39	@ 0x27
    8724:	bec0      	bkpt	0x00c0
    8726:	2880      	cmp	r0, #128	@ 0x80
    8728:	296d      	cmp	r1, #109	@ 0x6d
    872a:	460a      	mov	r2, r1
    872c:	b050      	add	sp, #320	@ 0x140
    872e:	dfa2      	svc	162	@ 0xa2
    8730:	f101 3fdf 	add.w	pc, r1, #3755991007	@ 0xdfdfdfdf
    8734:	40ed      	lsrs	r5, r5
    8736:	ff0c 210c 	vrhadd.u8	d2, d12, d12
    873a:	0c98      	lsrs	r0, r3, #18
    873c:	e047      	b.n	0x87ce
    873e:	044e      	lsls	r6, r1, #17
    8740:	7c40      	ldrb	r0, [r0, #17]
    8742:	5104      	str	r4, [r0, r4]
    8744:	3a27      	subs	r2, #39	@ 0x27
    8746:	bec0      	bkpt	0x00c0
    8748:	28a0      	cmp	r0, #160	@ 0xa0
    874a:	296d      	cmp	r1, #109	@ 0x6d
    874c:	460a      	mov	r2, r1
    874e:	b050      	add	sp, #320	@ 0x140
    8750:	dfa2      	svc	162	@ 0xa2
    8752:	f101 2751 	add.w	r7, r1, #1358975232	@ 0x51005100
    8756:	c03a      	stmia	r0!, {r1, r3, r4, r5}
    8758:	e0be      	b.n	0x88d8
    875a:	6d28      	ldr	r0, [r5, #80]	@ 0x50
    875c:	0a29      	lsrs	r1, r5, #8
    875e:	7321      	strb	r1, [r4, #12]
    8760:	050c      	lsls	r4, r1, #20
    8762:	0a2b      	lsrs	r3, r5, #8
    8764:	51f1      	str	r1, [r6, r7]
    8766:	3a27      	subs	r2, #39	@ 0x27
    8768:	6ec0      	ldr	r0, [r0, #108]	@ 0x6c
    876a:	26a1      	movs	r6, #161	@ 0xa1
    876c:	296d      	cmp	r1, #109	@ 0x6d
    876e:	210a      	movs	r1, #10
    8770:	1ffa      	subs	r2, r7, #7
    8772:	2b05      	cmp	r3, #5
    8774:	f10a 2751 	add.w	r7, sl, #1358975232	@ 0x51005100
    8778:	c03a      	stmia	r0!, {r1, r3, r4, r5}
    877a:	e16e      	b.n	0x8a5a
    877c:	6d26      	ldr	r6, [r4, #80]	@ 0x50
    877e:	0a29      	lsrs	r1, r5, #8
    8780:	e921 051f 	stmdb	r1!, {r0, r1, r2, r3, r4, r8, sl}
    8784:	0a2b      	lsrs	r3, r5, #8
    8786:	51f1      	str	r1, [r6, r7]
    8788:	3a27      	subs	r2, #39	@ 0x27
    878a:	6ec0      	ldr	r0, [r0, #108]	@ 0x6c
    878c:	24e2      	movs	r4, #226	@ 0xe2
    878e:	296d      	cmp	r1, #109	@ 0x6d
    8790:	210a      	movs	r1, #10
    8792:	3ba1      	subs	r3, #161	@ 0xa1
    8794:	2b05      	cmp	r3, #5
    8796:	f10a 2751 	add.w	r7, sl, #1358975232	@ 0x51005100
    879a:	c03a      	stmia	r0!, {r1, r3, r4, r5}
    879c:	016e      	lsls	r6, r5, #5
    879e:	6d27      	ldr	r7, [r4, #80]	@ 0x50
    87a0:	0a29      	lsrs	r1, r5, #8
    87a2:	9d21      	ldr	r5, [sp, #132]	@ 0x84
    87a4:	0520      	lsls	r0, r4, #20
    87a6:	0a2b      	lsrs	r3, r5, #8
    87a8:	51f1      	str	r1, [r6, r7]
    87aa:	9a27      	ldr	r2, [sp, #156]	@ 0x9c
    87ac:	6ec0      	ldr	r0, [r0, #108]	@ 0x6c
    87ae:	27a1      	movs	r7, #161	@ 0xa1
    87b0:	296d      	cmp	r1, #109	@ 0x6d
    87b2:	110a      	asrs	r2, r1, #4
    87b4:	0199      	lsls	r1, r3, #6
    87b6:	51f1      	str	r1, [r6, r7]
    87b8:	9a27      	ldr	r2, [sp, #156]	@ 0x9c
    87ba:	6ec0      	ldr	r0, [r0, #108]	@ 0x6c
    87bc:	27e1      	movs	r7, #225	@ 0xe1
    87be:	296d      	cmp	r1, #109	@ 0x6d
    87c0:	110a      	asrs	r2, r1, #4
    87c2:	018b      	lsls	r3, r1, #6
    87c4:	dff1      	svc	241	@ 0xf1
    87c6:	751c      	strb	r4, [r3, #20]
    87c8:	09a2      	lsrs	r2, r4, #6
    87ca:	32ec      	adds	r2, #236	@ 0xec
    87cc:	d206      	bcs.n	0x87dc
    87ce:	a296      	add	r2, pc, #600	@ (adr r2, 0x8a28)
    87d0:	6c20      	ldr	r0, [r4, #64]	@ 0x40
    87d2:	0c03      	lsrs	r3, r0, #16
    87d4:	b6d2      			@ <UNDEFINED> instruction: 0xb6d2
    87d6:	20a2      	movs	r0, #162	@ 0xa2
    87d8:	056c      	lsls	r4, r5, #21
    87da:	6f0c      	ldr	r4, [r1, #112]	@ 0x70
    87dc:	6c20      	ldr	r0, [r4, #64]	@ 0x40
    87de:	0c07      	lsrs	r7, r0, #16
    87e0:	e26f      	b.n	0x8cc2
    87e2:	d206      	bcs.n	0x87f2
    87e4:	a2d6      	add	r2, pc, #856	@ (adr r2, 0x8b40)
    87e6:	26e0      	movs	r6, #224	@ 0xe0
    87e8:	f6d2 f0a2 	bl	0xffada930
    87ec:	104d      	asrs	r5, r1, #1
    87ee:	2751      	movs	r7, #81	@ 0x51
    87f0:	c06a      	stmia	r0!, {r1, r3, r5, r6}
    87f2:	016e      	lsls	r6, r5, #5
    87f4:	6d28      	ldr	r0, [r5, #80]	@ 0x50
    87f6:	0a29      	lsrs	r1, r5, #8
    87f8:	ae11      	add	r6, sp, #68	@ 0x44
    87fa:	f101 2751 	add.w	r7, r1, #1358975232	@ 0x51005100
    87fe:	c06a      	stmia	r0!, {r1, r3, r5, r6}
    8800:	216e      	movs	r1, #110	@ 0x6e
    8802:	6d28      	ldr	r0, [r5, #80]	@ 0x50
    8804:	0a29      	lsrs	r1, r5, #8
    8806:	a011      	add	r0, pc, #68	@ (adr r0, 0x884c)
    8808:	f101 2751 	add.w	r7, r1, #1358975232	@ 0x51005100
    880c:	c06a      	stmia	r0!, {r1, r3, r5, r6}
    880e:	616e      	str	r6, [r5, #20]
    8810:	6d28      	ldr	r0, [r5, #80]	@ 0x50
    8812:	0a29      	lsrs	r1, r5, #8
    8814:	9211      	str	r2, [sp, #68]	@ 0x44
    8816:	f101 2751 	add.w	r7, r1, #1358975232	@ 0x51005100
    881a:	c03a      	stmia	r0!, {r1, r3, r4, r5}
    881c:	20be      	movs	r0, #190	@ 0xbe
    881e:	6d20      	ldr	r0, [r4, #80]	@ 0x50
    8820:	0a29      	lsrs	r1, r5, #8
    8822:	fe11 b056 	mrc2	0, 0, fp, cr1, cr6, {2}
    8826:	10a2      	asrs	r2, r4, #2
    8828:	2751      	movs	r7, #81	@ 0x51
    882a:	c03a      	stmia	r0!, {r1, r3, r4, r5}
    882c:	60be      	str	r6, [r7, #8]
    882e:	6d20      	ldr	r0, [r4, #80]	@ 0x50
    8830:	0a29      	lsrs	r1, r5, #8
    8832:	ee11 b056 	mrc	0, 0, fp, cr1, cr6, {2}
    8836:	10a2      	asrs	r2, r4, #2
    8838:	2751      	movs	r7, #81	@ 0x51
    883a:	c09a      	stmia	r0!, {r1, r3, r4, r7}
    883c:	00be      	lsls	r6, r7, #2
    883e:	6d29      	ldr	r1, [r5, #80]	@ 0x50
    8840:	0a29      	lsrs	r1, r5, #8
    8842:	7511      	strb	r1, [r2, #20]
    8844:	f101 2751 	add.w	r7, r1, #1358975232	@ 0x51005100
    8848:	c09a      	stmia	r0!, {r1, r3, r4, r7}
    884a:	20be      	movs	r0, #190	@ 0xbe
    884c:	6d29      	ldr	r1, [r5, #80]	@ 0x50
    884e:	0a29      	lsrs	r1, r5, #8
    8850:	6711      	str	r1, [r2, #112]	@ 0x70
    8852:	f101 2751 	add.w	r7, r1, #1358975232	@ 0x51005100
    8856:	c09a      	stmia	r0!, {r1, r3, r4, r7}
    8858:	60be      	str	r6, [r7, #8]
    885a:	6d29      	ldr	r1, [r5, #80]	@ 0x50
    885c:	0a29      	lsrs	r1, r5, #8
    885e:	5911      	ldr	r1, [r2, r4]
    8860:	f101 2751 	add.w	r7, r1, #1358975232	@ 0x51005100
    8864:	c03a      	stmia	r0!, {r1, r3, r4, r5}
    8866:	a16e      	add	r1, pc, #440	@ (adr r1, 0x8a20)
    8868:	6d28      	ldr	r0, [r5, #80]	@ 0x50
    886a:	0a29      	lsrs	r1, r5, #8
    886c:	5d21      	ldrb	r1, [r4, r4]
    886e:	051f      	lsls	r7, r3, #20
    8870:	0a2b      	lsrs	r3, r5, #8
    8872:	51f1      	str	r1, [r6, r7]
    8874:	3a27      	subs	r2, #39	@ 0x27
    8876:	6ec0      	ldr	r0, [r0, #108]	@ 0x6c
    8878:	28e1      	cmp	r0, #225	@ 0xe1
    887a:	296d      	cmp	r1, #109	@ 0x6d
    887c:	210a      	movs	r1, #10
    887e:	1f4c      	subs	r4, r1, #5
    8880:	2b05      	cmp	r3, #5
    8882:	f10a 2751 	add.w	r7, sl, #1358975232	@ 0x51005100
    8886:	c03a      	stmia	r0!, {r1, r3, r4, r5}
    8888:	826e      	strh	r6, [r5, #18]
    888a:	6d20      	ldr	r0, [r4, #80]	@ 0x50
    888c:	0a29      	lsrs	r1, r5, #8
    888e:	4c04      	ldr	r4, [pc, #16]	@ (0x88a0)
    8890:	b05c      	add	sp, #368	@ 0x170
    8892:	10a2      	asrs	r2, r4, #2
    8894:	2751      	movs	r7, #81	@ 0x51
    8896:	c06a      	stmia	r0!, {r1, r3, r5, r6}
    8898:	205e      	movs	r0, #94	@ 0x5e
    889a:	6d23      	ldr	r3, [r4, #80]	@ 0x50
    889c:	0a29      	lsrs	r1, r5, #8
    889e:	d011      	beq.n	0x88c4
    88a0:	f100 fbdf 	bl	0x109062
    88a4:	0a37      	lsrs	r7, r6, #8
    88a6:	4719      	bx	r3
    88a8:	10a1      	asrs	r1, r4, #2
    88aa:	2470      	movs	r4, #112	@ 0x70
    88ac:	9cd3      	ldr	r4, [sp, #844]	@ 0x34c
    88ae:	00c5      	lsls	r5, r0, #3
    88b0:	30f0      	adds	r0, #240	@ 0xf0
    88b2:	59cd      	ldr	r5, [r1, r7]
    88b4:	010c      	lsls	r4, r1, #4
    88b6:	980e      	ldr	r0, [sp, #56]	@ 0x38
    88b8:	0a11      	lsrs	r1, r2, #8
    88ba:	4700      	bx	r0
    88bc:	3fe1      	subs	r7, #225	@ 0xe1
    88be:	030a      	lsls	r2, r1, #12
    88c0:	6147      	str	r7, [r0, #20]
    88c2:	4724      	bxns	r4
    88c4:	2fc0      	cmp	r7, #192	@ 0xc0
    88c6:	4c63      	ldr	r4, [pc, #396]	@ (0x8a54)
    88c8:	c590      	stmia	r5!, {r4, r7}
    88ca:	2156      	movs	r1, #86	@ 0x56
    88cc:	11e4      	asrs	r4, r4, #7
    88ce:	e101      	b.n	0x8ad4
    88d0:	df37      	svc	55	@ 0x37
    88d2:	f105 fbdf 	bl	0x10e094
    88d6:	0a37      	lsrs	r7, r6, #8
    88d8:	4719      	bx	r3
    88da:	10a1      	asrs	r1, r4, #2
    88dc:	2470      	movs	r4, #112	@ 0x70
    88de:	acd3      	add	r4, sp, #844	@ 0x34c
    88e0:	00c5      	lsls	r5, r0, #3
    88e2:	33b0      	adds	r3, #176	@ 0xb0
    88e4:	5acd      	ldrh	r5, [r1, r3]
    88e6:	010c      	lsls	r4, r1, #4
    88e8:	d330      	bcc.n	0x894c
    88ea:	c5ac      	stmia	r5!, {r2, r3, r5, r7}
    88ec:	7020      	strb	r0, [r4, #0]
    88ee:	cd33      	ldmia	r5, {r0, r1, r4, r5}
    88f0:	0c5a      	lsrs	r2, r3, #17
    88f2:	3727      	adds	r7, #39	@ 0x27
    88f4:	acd3      	add	r4, sp, #844	@ 0x34c
    88f6:	b0c5      	sub	sp, #276	@ 0x114
    88f8:	3372      	adds	r3, #114	@ 0x72
    88fa:	5acd      	ldrh	r5, [r1, r3]
    88fc:	2c0c      	cmp	r4, #12
    88fe:	9836      	ldr	r0, [sp, #216]	@ 0xd8
    8900:	0a39      	lsrs	r1, r7, #8
    8902:	4709      	bx	r1
    8904:	00a1      	lsls	r1, r4, #2
    8906:	2470      	movs	r4, #112	@ 0x70
    8908:	2798      	movs	r7, #152	@ 0x98
    890a:	060a      	lsls	r2, r1, #24
    890c:	8147      	strh	r7, [r0, #10]
    890e:	a1c9      	add	r1, pc, #804	@ (adr r1, 0x8c34)
    8910:	7070      	strb	r0, [r6, #1]
    8912:	9814      	ldr	r0, [sp, #80]	@ 0x50
    8914:	0a11      	lsrs	r1, r2, #8
    8916:	4704      	bxns	r0
    8918:	3fe1      	subs	r7, #225	@ 0xe1
    891a:	050a      	lsls	r2, r1, #20
    891c:	6147      	str	r7, [r0, #20]
    891e:	4724      	bxns	r4
    8920:	2fc0      	cmp	r7, #192	@ 0xc0
    8922:	4ce3      	ldr	r4, [pc, #908]	@ (0x8cb0)
    8924:	c5a0      	stmia	r5!, {r5, r7}
    8926:	2156      	movs	r1, #86	@ 0x56
    8928:	11e4      	asrs	r4, r4, #7
    892a:	e0a5      	b.n	0x8a78
    892c:	df37      	svc	55	@ 0x37
    892e:	f105 1004 	add.w	r0, r5, #262148	@ 0x40004
    8932:	b05c      	add	sp, #368	@ 0x170
    8934:	04a2      	lsls	r2, r4, #18
    8936:	5c11      	ldrb	r1, [r2, r0]
    8938:	a2c0      	add	r2, pc, #768	@ (adr r2, 0x8c3c)
    893a:	1204      	asrs	r4, r0, #8
    893c:	d05c      	beq.n	0x89f8
    893e:	04a2      	lsls	r2, r4, #18
    8940:	5c13      	ldrb	r3, [r2, r0]
    8942:	a2e0      	add	r2, pc, #896	@ (adr r2, 0x8cc4)
    8944:	1404      	asrs	r4, r0, #16
    8946:	f05c 04a2 	orrs.w	r4, ip, #162	@ 0xa2
    894a:	5c15      	ldrb	r5, [r2, r0]
    894c:	a300      	add	r3, pc, #0	@ (adr r3, 0x8950)
    894e:	ed10 0c43 	ldc	12, cr0, [r0, #-268]	@ 0xfffffef4
    8952:	c921      	ldmia	r1!, {r0, r5}
    8954:	041e      	lsls	r6, r3, #16
    8956:	5c43      	ldrb	r3, [r0, r1]
    8958:	a2b0      	add	r2, pc, #704	@ (adr r2, 0x8c1c)
    895a:	4404      	add	r4, r0
    895c:	c05c      	stmia	r0!, {r2, r3, r4, r6}
    895e:	04a2      	lsls	r2, r4, #18
    8960:	5c45      	ldrb	r5, [r0, r1]
    8962:	a2d0      	add	r2, pc, #832	@ (adr r2, 0x8ca4)
    8964:	4604      	mov	r4, r0
    8966:	e05c      	b.n	0x8a22
    8968:	51a2      	str	r2, [r4, r6]
    896a:	0a2f      	lsrs	r7, r5, #8
    896c:	0510      	lsls	r0, r2, #20
    896e:	00a3      	lsls	r3, r4, #2
    8970:	ed10 0c2d 	ldc	12, cr0, [r0, #-180]	@ 0xffffff4c
    8974:	2c04      	cmp	r4, #4
    8976:	882c      	ldrh	r4, [r5, #0]
    8978:	0584      	lsls	r4, r0, #22
    897a:	4a2b      	ldr	r2, [pc, #172]	@ (0x8a28)
    897c:	c2c0      	stmia	r2!, {r6, r7}
    897e:	035a      	lsls	r2, r3, #13
    8980:	def2      	udf	#242	@ 0xf2
    8982:	4b0e      	ldr	r3, [pc, #56]	@ (0x89bc)
    8984:	8524      	strh	r4, [r4, #40]	@ 0x28
    8986:	0584      	lsls	r4, r0, #22
    8988:	4a2c      	ldr	r2, [pc, #176]	@ (0x8a3c)
    898a:	c2c0      	stmia	r2!, {r6, r7}
    898c:	035a      	lsls	r2, r3, #13
    898e:	def2      	udf	#242	@ 0xf2
    8990:	4b0e      	ldr	r3, [pc, #56]	@ (0x89cc)
    8992:	8524      	strh	r4, [r4, #40]	@ 0x28
    8994:	0186      	lsls	r6, r0, #6
    8996:	2d05      	cmp	r5, #5
    8998:	c04a      	stmia	r0!, {r1, r3, r6}
    899a:	5ac2      	ldrh	r2, [r0, r3]
    899c:	f203 0ede 	addw	lr, r3, #222	@ 0xde
    89a0:	244b      	movs	r4, #75	@ 0x4b
    89a2:	8685      	strh	r5, [r0, #52]	@ 0x34
    89a4:	0502      	lsls	r2, r0, #20
    89a6:	0a2e      	lsrs	r6, r5, #8
    89a8:	21f1      	movs	r1, #241	@ 0xf1
    89aa:	1df1      	adds	r1, r6, #7
    89ac:	2b05      	cmp	r3, #5
    89ae:	c51a      	stmia	r5!, {r1, r3, r4}
    89b0:	00a2      	lsls	r2, r4, #2
    89b2:	2d51      	cmp	r5, #81	@ 0x51
    89b4:	100a      	asrs	r2, r1, #32
    89b6:	a2e5      	add	r2, pc, #916	@ (adr r2, 0x8d4c)
    89b8:	1000      	asrs	r0, r0, #32
    89ba:	d6c2      	bvs.n	0x8942
    89bc:	20c4      	movs	r0, #196	@ 0xc4
    89be:	2b6d      	cmp	r3, #109	@ 0x6d
    89c0:	040a      	lsls	r2, r1, #16
    89c2:	5c4f      	ldrb	r7, [r1, r1]
    89c4:	a2d0      	add	r2, pc, #832	@ (adr r2, 0x8d08)
    89c6:	5004      	str	r4, [r0, r0]
    89c8:	e05c      	b.n	0x8a84
    89ca:	04a2      	lsls	r2, r4, #18
    89cc:	5c51      	ldrb	r1, [r2, r1]
    89ce:	a2f0      	add	r2, pc, #960	@ (adr r2, 0x8d90)
    89d0:	cf10      	ldmia	r7!, {r4}
    89d2:	47f3      			@ <UNDEFINED> instruction: 0x47f3
    89d4:	24f0      	movs	r4, #240	@ 0xf0
    89d6:	6157      	str	r7, [r2, #20]
    89d8:	c214      	stmia	r2!, {r2, r4}
    89da:	c198      	stmia	r1!, {r3, r4, r7}
    89dc:	461a      	mov	r2, r3
    89de:	2581      	movs	r5, #129	@ 0x81
    89e0:	52a1      	strh	r1, [r4, r2]
    89e2:	ded0      	udf	#208	@ 0xd0
    89e4:	24a5      	movs	r4, #165	@ 0xa5
    89e6:	8685      	strh	r5, [r0, #52]	@ 0x34
    89e8:	a204      	add	r2, pc, #16	@ (adr r2, 0x89fc)
    89ea:	7010      	strb	r0, [r2, #0]
    89ec:	4644      	mov	r4, r8
    89ee:	a311      	add	r3, pc, #68	@ (adr r3, 0x8a34)
    89f0:	fbd5 6e54 			@ <UNDEFINED> instruction: 0xfbd56e54
    89f4:	0cc5      	lsrs	r5, r0, #19
    89f6:	9000      	str	r0, [sp, #0]
    89f8:	14aa      	asrs	r2, r5, #18
    89fa:	2751      	movs	r7, #81	@ 0x51
    89fc:	e09a      	b.n	0x8b34
    89fe:	d226      	bcs.n	0x8a4e
    8a00:	a296      	add	r2, pc, #600	@ (adr r2, 0x8c5c)
    8a02:	0460      	lsls	r0, r4, #17
    8a04:	2b05      	cmp	r3, #5
    8a06:	146a      	asrs	r2, r5, #17
    8a08:	098d      	lsrs	r5, r1, #6
    8a0a:	4668      	mov	r0, sp
    8a0c:	08d0      	lsrs	r0, r2, #3
    8a0e:	e3f0      	b.n	0x91f2
    8a10:	8454      	strh	r4, [r2, #34]	@ 0x22
    8a12:	2c05      	cmp	r4, #5
    8a14:	54ea      	strb	r2, [r5, r3]
    8a16:	0186      	lsls	r6, r0, #6
    8a18:	2d05      	cmp	r5, #5
    8a1a:	54ea      	strb	r2, [r5, r3]
    8a1c:	0286      	lsls	r6, r0, #10
    8a1e:	2e05      	cmp	r6, #5
    8a20:	54ea      	strb	r2, [r5, r3]
    8a22:	0386      	lsls	r6, r0, #14
    8a24:	2f05      	cmp	r7, #5
    8a26:	54ea      	strb	r2, [r5, r3]
    8a28:	0486      	lsls	r6, r0, #18
    8a2a:	3005      	adds	r0, #5
    8a2c:	699a      	ldr	r2, [r3, #24]
    8a2e:	4e24      	ldr	r6, [pc, #144]	@ (0x8ac0)
    8a30:	5ce5      	ldrb	r5, [r4, r3]
    8a32:	d20e      	bcs.n	0x8a52
    8a34:	a2c6      	add	r2, pc, #792	@ (adr r2, 0x8d50)
    8a36:	54e0      	strb	r0, [r4, r3]
    8a38:	0786      	lsls	r6, r0, #30
    8a3a:	2e05      	cmp	r6, #5
    8a3c:	699a      	ldr	r2, [r3, #24]
    8a3e:	6222      	str	r2, [r4, #32]
    8a40:	d104      	bne.n	0x8a4c
    8a42:	7008      	strb	r0, [r1, #0]
    8a44:	4467      	add	r7, ip
    8a46:	cc58      	ldmia	r4, {r3, r4, r6}
    8a48:	0002      	movs	r2, r0
    8a4a:	9322      	str	r3, [sp, #136]	@ 0x88
    8a4c:	54e2      	strb	r2, [r4, r3]
    8a4e:	6f0e      	ldr	r6, [r1, #112]	@ 0x70
    8a50:	2ce9      	cmp	r4, #233	@ 0xe9
    8a52:	6f0e      	ldr	r6, [r1, #112]	@ 0x70
    8a54:	96eb      	str	r6, [sp, #940]	@ 0x3ac
    8a56:	c6d2      	stmia	r6!, {r1, r4, r6, r7}
    8a58:	e0a2      	b.n	0x8ba0
    8a5a:	d2b6      	bcs.n	0x89ca
    8a5c:	a2e6      	add	r2, pc, #920	@ (adr r2, 0x8df8)
    8a5e:	2990      	cmp	r1, #144	@ 0x90
    8a60:	461e      	mov	r6, r3
    8a62:	c584      	stmia	r5!, {r2, r7}
    8a64:	001c      	movs	r4, r3
    8a66:	3220      	adds	r2, #32
    8a68:	5118      	str	r0, [r3, r4]
    8a6a:	6a27      	ldr	r7, [r4, #32]
    8a6c:	54e0      	strb	r0, [r4, r3]
    8a6e:	d20e      	bcs.n	0x8a8e
    8a70:	a2c6      	add	r2, pc, #792	@ (adr r2, 0x8d8c)
    8a72:	a990      	add	r1, sp, #576	@ 0x240
    8a74:	511b      	str	r3, [r3, r4]
    8a76:	6a27      	ldr	r7, [r4, #32]
    8a78:	54e0      	strb	r0, [r4, r3]
    8a7a:	0584      	lsls	r4, r0, #22
    8a7c:	9a2c      	ldr	r2, [sp, #176]	@ 0xb0
    8a7e:	1a49      	subs	r1, r1, r1
    8a80:	8446      	strh	r6, [r0, #34]	@ 0x22
    8a82:	1cc5      	adds	r5, r0, #3
    8a84:	2000      	movs	r0, #0
    8a86:	0b32      	lsrs	r2, r6, #12
    8a88:	e54e      	b.n	0x8528
    8a8a:	76f0      	strb	r0, [r6, #27]
    8a8c:	e5ee      	b.n	0x866c
    8a8e:	8454      	strh	r4, [r2, #34]	@ 0x22
    8a90:	6f58      	ldr	r0, [r3, #116]	@ 0x74
    8a92:	4627      	mov	r7, r4
    8a94:	0510      	lsls	r0, r2, #20
    8a96:	ea2c d276 			@ <UNDEFINED> instruction: 0xea2cd276
    8a9a:	a2d6      	add	r2, pc, #856	@ (adr r2, 0x8df4)
    8a9c:	6990      	ldr	r0, [r2, #24]
    8a9e:	5116      	str	r6, [r2, r4]
    8aa0:	6a27      	ldr	r7, [r4, #32]
    8aa2:	26e0      	movs	r6, #224	@ 0xe0
    8aa4:	96d2      	str	r6, [sp, #840]	@ 0x348
    8aa6:	30a2      	adds	r0, #162	@ 0xa2
    8aa8:	2a0c      	cmp	r2, #12
    8aaa:	c00a      	stmia	r0!, {r1, r3}
    8aac:	d242      	bcs.n	0x8b34
    8aae:	a2b6      	add	r2, pc, #728	@ (adr r2, 0x8d88)
    8ab0:	e990 2113 			@ <UNDEFINED> instruction: 0xe9902113
    8ab4:	1b37      	subs	r7, r6, r4
    8ab6:	01cc      	lsls	r4, r1, #7
    8ab8:	b900      	cbnz	r0, 0x8abc
    8aba:	610a      	str	r2, [r1, #16]
    8abc:	0c04      	lsrs	r4, r0, #16
    8abe:	d90a      	bls.n	0x8ad6
    8ac0:	60fe      	str	r6, [r7, #12]
    8ac2:	0c04      	lsrs	r4, r0, #16
    8ac4:	320e      	adds	r2, #14
    8ac6:	0f12      	lsrs	r2, r2, #28
    8ac8:	2751      	movs	r7, #81	@ 0x51
    8aca:	e09a      	b.n	0x8c02
    8acc:	d226      	bcs.n	0x8b1c
    8ace:	a296      	add	r2, pc, #600	@ (adr r2, 0x8d28)
    8ad0:	0460      	lsls	r0, r4, #17
    8ad2:	2b05      	cmp	r3, #5
    8ad4:	046a      	lsls	r2, r5, #17
    8ad6:	0a8c      	lsrs	r4, r1, #10
    8ad8:	4629      	mov	r1, r5
    8ada:	b8c0      			@ <UNDEFINED> instruction: 0xb8c0
    8adc:	6410      	str	r0, [r2, #64]	@ 0x40
    8ade:	8c04      	ldrh	r4, [r0, #32]
    8ae0:	590c      	ldr	r4, [r1, r4]
    8ae2:	c046      	stmia	r0!, {r1, r2, r6}
    8ae4:	00d8      	lsls	r0, r3, #3
    8ae6:	0467      	lsls	r7, r4, #17
    8ae8:	0e8c      	lsrs	r4, r1, #26
    8aea:	9979      	ldr	r1, [sp, #484]	@ 0x1e4
    8aec:	2086      	movs	r0, #134	@ 0x86
    8aee:	c46c      	stmia	r4!, {r2, r3, r5, r6}
    8af0:	d20e      	bcs.n	0x8b10
    8af2:	a2c6      	add	r2, pc, #792	@ (adr r2, 0x8e0c)
    8af4:	6c20      	ldr	r0, [r4, #64]	@ 0x40
    8af6:	0ec6      	lsrs	r6, r0, #27
    8af8:	e6d2      	b.n	0x88a0
    8afa:	90a2      	str	r0, [sp, #648]	@ 0x288
    8afc:	0a89      	lsrs	r1, r1, #10
    8afe:	86c2      	strh	r2, [r0, #54]	@ 0x36
    8b00:	20ec      	movs	r0, #236	@ 0xec
    8b02:	2c6d      	cmp	r4, #109	@ 0x6d
    8b04:	c20a      	stmia	r2!, {r1, r3}
    8b06:	eca6 6d20 	stc	13, cr6, [r6], #128	@ 0x80
    8b0a:	0a2e      	lsrs	r6, r5, #8
    8b0c:	8799      	strh	r1, [r3, #60]	@ 0x3c
    8b0e:	6c20      	ldr	r0, [r4, #64]	@ 0x40
    8b10:	0ecc      	lsrs	r4, r1, #27
    8b12:	c6d2      	stmia	r6!, {r1, r4, r6, r7}
    8b14:	20a2      	movs	r0, #162	@ 0xa2
    8b16:	ce6c      	ldmia	r6, {r2, r3, r5, r6}
    8b18:	d20e      	bcs.n	0x8b38
    8b1a:	a2e6      	add	r2, pc, #920	@ (adr r2, 0x8eb4)
    8b1c:	7980      	ldrb	r0, [r0, #6]
    8b1e:	6c26      	ldr	r6, [r4, #64]	@ 0x40
    8b20:	0eba      	lsrs	r2, r7, #26
    8b22:	c6d2      	stmia	r6!, {r1, r4, r6, r7}
    8b24:	80a2      	strh	r2, [r4, #4]
    8b26:	2559      	movs	r5, #89	@ 0x59
    8b28:	bc6c      	pop	{r2, r3, r5, r6}
    8b2a:	d20e      	bcs.n	0x8b4a
    8b2c:	a2c6      	add	r2, pc, #792	@ (adr r2, 0x8e48)
    8b2e:	3980      	subs	r1, #128	@ 0x80
    8b30:	26e4      	movs	r6, #228	@ 0xe4
    8b32:	96d2      	str	r6, [sp, #840]	@ 0x348
    8b34:	30a2      	adds	r0, #162	@ 0xa2
    8b36:	2a0c      	cmp	r2, #12
    8b38:	c00a      	stmia	r0!, {r1, r3}
    8b3a:	d23a      	bcs.n	0x8bb2
    8b3c:	a2b6      	add	r2, pc, #728	@ (adr r2, 0x8e18)
    8b3e:	3980      	subs	r1, #128	@ 0x80
    8b40:	7512      	strb	r2, [r2, #20]
    8b42:	06a2      	lsls	r2, r4, #26
    8b44:	226e      	movs	r2, #110	@ 0x6e
    8b46:	296d      	cmp	r1, #109	@ 0x6d
    8b48:	c30a      	stmia	r3!, {r1, r3}
    8b4a:	a2a0      	add	r2, pc, #640	@ (adr r2, 0x8dcc)
    8b4c:	ac00      	add	r4, sp, #0
    8b4e:	6d23      	ldr	r3, [r4, #80]	@ 0x50
    8b50:	0a2b      	lsrs	r3, r5, #8
    8b52:	0dcf      	lsrs	r7, r1, #23
    8b54:	df10      	svc	16
    8b56:	047e      	lsls	r6, r7, #17
    8b58:	4fed      	ldr	r7, [pc, #948]	@ (0x8f10)
    8b5a:	460a      	mov	r2, r1
    8b5c:	8820      	ldrh	r0, [r4, #0]
    8b5e:	d284      	bcs.n	0x8a6a
    8b60:	2008      	movs	r0, #8
    8b62:	ed08 0a5c 	vstr	s0, [r8, #-368]	@ 0xfffffe90
    8b66:	2046      	movs	r0, #70	@ 0x46
    8b68:	8488      	strh	r0, [r1, #36]	@ 0x24
    8b6a:	008d      	lsls	r5, r1, #2
    8b6c:	ed6e 0a69 	vstmdb	lr!, {s1-s105}
    8b70:	2046      	movs	r0, #70	@ 0x46
    8b72:	8488      	strh	r0, [r1, #36]	@ 0x24
    8b74:	008d      	lsls	r5, r1, #2
    8b76:	ed5a 0a76 	vldr	s1, [sl, #-472]	@ 0xfffffe28
    8b7a:	2046      	movs	r0, #70	@ 0x46
    8b7c:	8488      	strh	r0, [r1, #36]	@ 0x24
    8b7e:	008d      	lsls	r5, r1, #2
    8b80:	ed46 0a83 	vstr	s1, [r6, #-524]	@ 0xfffffdf4
    8b84:	2046      	movs	r0, #70	@ 0x46
    8b86:	8488      	strh	r0, [r1, #36]	@ 0x24
    8b88:	008d      	lsls	r5, r1, #2
    8b8a:	ed32 0a90 	vldmdb	r2!, {s0-s143}
    8b8e:	2046      	movs	r0, #70	@ 0x46
    8b90:	8488      	strh	r0, [r1, #36]	@ 0x24
    8b92:	008d      	lsls	r5, r1, #2
    8b94:	ed1e 0a9d 	vldr	s0, [lr, #-628]	@ 0xfffffd8c
    8b98:	2046      	movs	r0, #70	@ 0x46
    8b9a:	8488      	strh	r0, [r1, #36]	@ 0x24
    8b9c:	008d      	lsls	r5, r1, #2
    8b9e:	0a0a      	lsrs	r2, r1, #8
    8ba0:	4700      	bx	r0
    8ba2:	3fe1      	subs	r7, #225	@ 0xe1
    8ba4:	010a      	lsls	r2, r1, #4
    8ba6:	6147      	str	r7, [r0, #20]
    8ba8:	df14      	svc	20
    8baa:	f102 7edf 	add.w	lr, r2, #29229056	@ 0x1be0000
    8bae:	4716      	bx	r2
    8bb0:	0460      	lsls	r0, r4, #17
    8bb2:	035a      	lsls	r2, r3, #13
    8bb4:	def2      	udf	#242	@ 0xf2
    8bb6:	ae3e      	add	r6, sp, #248	@ 0xf8
    8bb8:	8520      	strh	r0, [r4, #40]	@ 0x28
    8bba:	02a6      	lsls	r6, r4, #10
    8bbc:	8046      	strh	r6, [r0, #2]
    8bbe:	9125      	str	r1, [sp, #148]	@ 0x94
    8bc0:	d052      	beq.n	0x8c68
    8bc2:	2fee      	cmp	r7, #238	@ 0xee
    8bc4:	8524      	strh	r4, [r4, #40]	@ 0x28
    8bc6:	0186      	lsls	r6, r0, #6
    8bc8:	8223      	strh	r3, [r4, #16]
    8bca:	619a      	str	r2, [r3, #24]
    8bcc:	5a04      	ldrh	r4, [r0, r0]
    8bce:	f203 0aae 	addw	sl, r3, #174	@ 0xae
    8bd2:	3ed0      	subs	r6, #208	@ 0xd0
    8bd4:	20ae      	movs	r0, #174	@ 0xae
    8bd6:	a585      	add	r5, pc, #532	@ (adr r5, 0x8dec)
    8bd8:	f166 102d 	sbc.w	r0, r6, #2949165	@ 0x2d002d
    8bdc:	7edf      	ldrb	r7, [r3, #27]
    8bde:	4716      	bx	r2
    8be0:	0460      	lsls	r0, r4, #17
    8be2:	035a      	lsls	r2, r3, #13
    8be4:	def2      	udf	#242	@ 0xf2
    8be6:	ac8e      	add	r4, sp, #568	@ 0x238
    8be8:	8520      	strh	r0, [r4, #40]	@ 0x28
    8bea:	02a6      	lsls	r6, r4, #10
    8bec:	8046      	strh	r6, [r0, #2]
    8bee:	9125      	str	r1, [sp, #148]	@ 0x94
    8bf0:	d052      	beq.n	0x8c98
    8bf2:	2dae      	cmp	r5, #174	@ 0xae
    8bf4:	8524      	strh	r4, [r4, #40]	@ 0x28
    8bf6:	0186      	lsls	r6, r0, #6
    8bf8:	8223      	strh	r3, [r4, #16]
    8bfa:	619a      	str	r2, [r3, #24]
    8bfc:	5a04      	ldrh	r4, [r0, r0]
    8bfe:	f203 0aae 	addw	sl, r3, #174	@ 0xae
    8c02:	8ed0      	ldrh	r0, [r2, #54]	@ 0x36
    8c04:	20ac      	movs	r0, #172	@ 0xac
    8c06:	a585      	add	r5, pc, #532	@ (adr r5, 0x8e1c)
    8c08:	f166 102d 	sbc.w	r0, r6, #2949165	@ 0x2d002d
    8c0c:	7edf      	ldrb	r7, [r3, #27]
    8c0e:	4716      	bx	r2
    8c10:	0460      	lsls	r0, r4, #17
    8c12:	035a      	lsls	r2, r3, #13
    8c14:	def2      	udf	#242	@ 0xf2
    8c16:	af5e      	add	r7, sp, #376	@ 0x178
    8c18:	8520      	strh	r0, [r4, #40]	@ 0x28
    8c1a:	02a6      	lsls	r6, r4, #10
    8c1c:	8046      	strh	r6, [r0, #2]
    8c1e:	9125      	str	r1, [sp, #148]	@ 0x94
    8c20:	d052      	beq.n	0x8cc8
    8c22:	316e      	adds	r1, #110	@ 0x6e
    8c24:	8524      	strh	r4, [r4, #40]	@ 0x28
    8c26:	0186      	lsls	r6, r0, #6
    8c28:	8223      	strh	r3, [r4, #16]
    8c2a:	619a      	str	r2, [r3, #24]
    8c2c:	5a04      	ldrh	r4, [r0, r0]
    8c2e:	f203 0aae 	addw	sl, r3, #174	@ 0xae
    8c32:	5ed0      	ldrsh	r0, [r2, r3]
    8c34:	20af      	movs	r0, #175	@ 0xaf
    8c36:	a585      	add	r5, pc, #532	@ (adr r5, 0x8e4c)
    8c38:	f166 102d 	sbc.w	r0, r6, #2949165	@ 0x2d002d
    8c3c:	fbdf 5737 			@ <UNDEFINED> instruction: 0xfbdf5737
    8c40:	1470      	asrs	r0, r6, #17
    8c42:	020a      	lsls	r2, r1, #8
    8c44:	9247      	str	r2, [sp, #284]	@ 0x11c
    8c46:	0a49      	lsrs	r1, r1, #9
    8c48:	a246      	add	r2, pc, #280	@ (adr r2, 0x8d64)
    8c4a:	2035      	movs	r0, #53	@ 0x35
    8c4c:	edef 0aaa 			@ <UNDEFINED> instruction: 0xedef0aaa
    8c50:	4852      	ldr	r0, [pc, #328]	@ (0x8d9c)
    8c52:	1568      	asrs	r0, r5, #21
    8c54:	8123      	strh	r3, [r4, #8]
    8c56:	67db      	str	r3, [r3, #124]	@ 0x7c
    8c58:	a224      	add	r2, pc, #144	@ (adr r2, 0x8cec)
    8c5a:	a020      	add	r0, pc, #128	@ (adr r0, 0x8cdc)
    8c5c:	2065      	movs	r0, #101	@ 0x65
    8c5e:	82ef      	strh	r7, [r5, #22]
    8c60:	0461      	lsls	r1, r4, #17
    8c62:	035a      	lsls	r2, r3, #13
    8c64:	2ef2      	cmp	r6, #242	@ 0xf2
    8c66:	52e4      	strh	r4, [r4, r3]
    8c68:	6528      	str	r0, [r5, #80]	@ 0x50
    8c6a:	0b70      	lsrs	r0, r6, #13
    8c6c:	02a6      	lsls	r6, r4, #10
    8c6e:	8046      	strh	r6, [r0, #2]
    8c70:	9125      	str	r1, [sp, #148]	@ 0x94
    8c72:	d052      	beq.n	0x8d1a
    8c74:	3bae      	subs	r3, #174	@ 0xae
    8c76:	8524      	strh	r4, [r4, #40]	@ 0x28
    8c78:	0186      	lsls	r6, r0, #6
    8c7a:	8223      	strh	r3, [r4, #16]
    8c7c:	631a      	str	r2, [r3, #48]	@ 0x30
    8c7e:	a224      	add	r2, pc, #144	@ (adr r2, 0x8d10)
    8c80:	a020      	add	r0, pc, #128	@ (adr r0, 0x8d04)
    8c82:	2065      	movs	r0, #101	@ 0x65
    8c84:	82ef      	strh	r7, [r5, #22]
    8c86:	0461      	lsls	r1, r4, #17
    8c88:	035a      	lsls	r2, r3, #13
    8c8a:	2ef2      	cmp	r6, #242	@ 0xf2
    8c8c:	52e4      	strh	r4, [r4, r3]
    8c8e:	00a8      	lsls	r0, r5, #2
    8c90:	8720      	strh	r0, [r4, #56]	@ 0x38
    8c92:	0b70      	lsrs	r0, r6, #13
    8c94:	1598      	asrs	r0, r3, #22
    8c96:	8246      	strh	r6, [r0, #18]
    8c98:	0d10      	lsrs	r0, r2, #20
    8c9a:	c246      	stmia	r2!, {r1, r2, r6}
    8c9c:	2070      	movs	r0, #112	@ 0x70
    8c9e:	4f33      	ldr	r7, [pc, #204]	@ (0x8d6c)
    8ca0:	37ef      	adds	r7, #239	@ 0xef
    8ca2:	05df      	lsls	r7, r3, #23
    8ca4:	51f1      	str	r1, [r6, r7]
    8ca6:	fc3b c51f 	ldc2	5, cr12, [fp], #-124	@ 0xffffff84
    8caa:	00c3      	lsls	r3, r0, #3
    8cac:	3d51      	subs	r5, #81	@ 0x51
    8cae:	100c      	asrs	r4, r1, #32
    8cb0:	c3a5      	stmia	r3!, {r0, r2, r5, r7}
    8cb2:	9802      	ldr	r0, [sp, #8]
    8cb4:	0432      	lsls	r2, r6, #16
    8cb6:	ac3a      	add	r4, sp, #232	@ 0xe8
    8cb8:	2035      	movs	r0, #53	@ 0x35
    8cba:	edef 0aaa 			@ <UNDEFINED> instruction: 0xedef0aaa
    8cbe:	4852      	ldr	r0, [pc, #328]	@ (0x8e08)
    8cc0:	f8c8 40bf 	str.w	r4, [r8, #191]	@ 0xbf
    8cc4:	c3a0      	stmia	r3!, {r5, r7}
    8cc6:	0d21      	lsrs	r1, r4, #20
    8cc8:	04d3      	lsls	r3, r2, #19
    8cca:	8c3a      	ldrh	r2, [r7, #32]
    8ccc:	0d10      	lsrs	r0, r2, #20
    8cce:	3a50      	subs	r2, #80	@ 0x50
    8cd0:	207c      	movs	r0, #124	@ 0x7c
    8cd2:	c232      	stmia	r2!, {r1, r4, r5}
    8cd4:	3951      	subs	r1, #81	@ 0x51
    8cd6:	0c8c      	lsrs	r4, r1, #18
    8cd8:	cff1      	ldmia	r7, {r0, r4, r5, r6, r7}
    8cda:	02f4      	lsls	r4, r6, #11
    8cdc:	ce28      	ldmia	r6!, {r3, r5}
    8cde:	c208      	stmia	r2!, {r3}
    8ce0:	06fc      	lsls	r4, r7, #27
    8ce2:	1921      	adds	r1, r4, r4
    8ce4:	6e84      	ldr	r4, [r0, #104]	@ 0x68
    8ce6:	46f8      	mov	r8, pc
    8ce8:	fa6e 6e66 			@ <UNDEFINED> instruction: 0xfa6e6e66
    8cec:	26f4      	movs	r6, #244	@ 0xf4
    8cee:	126e      	asrs	r6, r5, #9
    8cf0:	101c      	asrs	r4, r3, #32
    8cf2:	c02d      	stmia	r0!, {r0, r2, r3, r5}
    8cf4:	201c      	movs	r0, #28
    8cf6:	5290      	strh	r0, [r2, r2]
    8cf8:	5251      	strh	r1, [r2, r1]
    8cfa:	e01c      	b.n	0x8d36
    8cfc:	513f      	str	r7, [r7, r4]
    8cfe:	0c52      	lsrs	r2, r2, #17
    8d00:	26e0      	movs	r6, #224	@ 0xe0
    8d02:	08c1      	lsrs	r1, r0, #3
    8d04:	cc58      	ldmia	r4, {r3, r4, r6}
    8d06:	0008      	movs	r0, r1
    8d08:	1529      	asrs	r1, r5, #20
    8d0a:	c535      	stmia	r5!, {r0, r2, r4, r5}
    8d0c:	fe01 3513 	mcr2	5, 0, r3, cr1, cr3, {0}
    8d10:	00c5      	lsls	r5, r0, #3
    8d12:	126e      	asrs	r6, r5, #9
    8d14:	828c      	strh	r4, [r1, #20]
    8d16:	8cc5      	ldrh	r5, [r0, #38]	@ 0x26
    8d18:	9002      	str	r0, [sp, #8]
    8d1a:	5152      	str	r2, [r2, r5]
    8d1c:	1c54      	adds	r4, r2, #1
    8d1e:	3fe0      	subs	r7, #224	@ 0xe0
    8d20:	5451      	strb	r1, [r2, r1]
    8d22:	e00c      	b.n	0x8d3e
    8d24:	c126      	stmia	r1!, {r1, r2, r5}
    8d26:	5840      	ldr	r0, [r0, r1]
    8d28:	40cc      	lsrs	r4, r1
    8d2a:	2900      	cmp	r1, #0
    8d2c:	5515      	strb	r5, [r2, r4]
    8d2e:	01c5      	lsls	r5, r0, #7
    8d30:	13fe      	asrs	r6, r7, #15
    8d32:	c555      	stmia	r5!, {r0, r2, r4, r6}
    8d34:	6e00      	ldr	r0, [r0, #96]	@ 0x60
    8d36:	0c12      	lsrs	r2, r2, #16
    8d38:	0d10      	lsrs	r0, r2, #20
    8d3a:	0cc1      	lsrs	r1, r0, #19
    8d3c:	9100      	str	r1, [sp, #0]
    8d3e:	5152      	str	r2, [r2, r5]
    8d40:	1c56      	adds	r6, r2, #1
    8d42:	3fe0      	subs	r7, #224	@ 0xe0
    8d44:	5651      	ldrsb	r1, [r2, r1]
    8d46:	e00c      	b.n	0x8d62
    8d48:	c126      	stmia	r1!, {r1, r2, r5}
    8d4a:	d100      	bne.n	0x8d4e
    8d4c:	cc20      	ldmia	r4!, {r5}
    8d4e:	2000      	movs	r0, #0
    8d50:	1529      	asrs	r1, r5, #20
    8d52:	c575      	stmia	r5!, {r0, r2, r4, r5, r6}
    8d54:	fe01 7513 	mcr2	5, 0, r7, cr1, cr3, {0}
    8d58:	00c5      	lsls	r5, r0, #3
    8d5a:	126e      	asrs	r6, r5, #9
    8d5c:	100c      	asrs	r4, r1, #32
    8d5e:	c40d      	stmia	r4!, {r0, r2, r3}
    8d60:	000c      	movs	r4, r1
    8d62:	5294      	strh	r4, [r2, r2]
    8d64:	5851      	ldr	r1, [r2, r1]
    8d66:	e01c      	b.n	0x8da2
    8d68:	513f      	str	r7, [r7, r4]
    8d6a:	0c58      	lsrs	r0, r3, #17
    8d6c:	ccf0      	ldmia	r4, {r4, r5, r6, r7}
    8d6e:	f100 aedf 	bmi.w	0xc9b30
    8d72:	10a0      	asrs	r0, r4, #2
    8d74:	9d53      	ldr	r5, [sp, #332]	@ 0x14c
    8d76:	04fb      	lsls	r3, r7, #19
    8d78:	c06e      	stmia	r0!, {r1, r2, r3, r5, r6}
    8d7a:	000c      	movs	r4, r1
    8d7c:	6190      	str	r0, [r2, #24]
    8d7e:	404e      	eors	r6, r1
    8d80:	3058      	adds	r0, #88	@ 0x58
    8d82:	fec6 3513 	mcr2	5, 6, r3, cr6, cr3, {0}
    8d86:	00c6      	lsls	r6, r0, #3
    8d88:	6304      	str	r4, [r0, #48]	@ 0x30
    8d8a:	405c      	eors	r4, r3
    8d8c:	d3c6      	bcc.n	0x8d1c
    8d8e:	c64e      	stmia	r6!, {r1, r2, r3, r6}
    8d90:	a020      	add	r0, pc, #128	@ (adr r0, 0x8e14)
    8d92:	f510 01c5 	adds.w	r1, r0, #6455296	@ 0x628000
    8d96:	13fe      	asrs	r6, r7, #15
    8d98:	c5f5      	stmia	r5!, {r0, r2, r4, r5, r6, r7}
    8d9a:	0400      	lsls	r0, r0, #16
    8d9c:	5c5f      	ldrb	r7, [r3, r1]
    8d9e:	c600      	stmia	r6!, {}
    8da0:	00c0      	lsls	r0, r0, #3
    8da2:	16d2      	asrs	r2, r2, #27
    8da4:	f0c6 102d 			@ <UNDEFINED> instruction: 0xf0c6102d
    8da8:	fcd3 00c5 	ldc2l	0, cr0, [r3], {197}	@ 0xc5
    8dac:	3320      	adds	r3, #32
    8dae:	5fcd      	ldrsh	r5, [r1, r7]
    8db0:	010c      	lsls	r4, r1, #4
    8db2:	d359      	bcc.n	0x8e68
    8db4:	c5fc      	stmia	r5!, {r2, r3, r4, r5, r6, r7}
    8db6:	0020      	movs	r0, r4
    8db8:	cd37      	ldmia	r5, {r0, r1, r2, r4, r5}
    8dba:	0c5f      	lsrs	r7, r3, #17
    8dbc:	6503      	str	r3, [r0, #80]	@ 0x50
    8dbe:	fdd3 40c5 	ldc2l	0, cr4, [r3, #788]	@ 0x314
    8dc2:	09c0      	lsrs	r0, r0, #7
    8dc4:	ca99      	ldmia	r2!, {r0, r3, r4, r7}
    8dc6:	fd30 0c64 	ldc2	12, cr0, [r0, #-400]!	@ 0xfffffe70
    8dca:	c502      	stmia	r5!, {r1}
    8dcc:	1310      	asrs	r0, r2, #12
    8dce:	2d36      	cmp	r5, #54	@ 0x36
    8dd0:	018d      	lsls	r5, r1, #6
    8dd2:	10b7      	asrs	r7, r6, #2
    8dd4:	33a3      	adds	r3, #163	@ 0xa3
    8dd6:	8d2d      	ldrh	r5, [r5, #40]	@ 0x28
    8dd8:	a900      	add	r1, sp, #0
    8dda:	1010      	asrs	r0, r2, #32
    8ddc:	9917      	ldr	r1, [sp, #92]	@ 0x5c
    8dde:	309f      	adds	r0, #159	@ 0x9f
    8de0:	64cd      	str	r5, [r1, #76]	@ 0x4c
    8de2:	000c      	movs	r4, r1
    8de4:	210e      	movs	r1, #14
    8de6:	d349      	bcc.n	0x8e7c
    8de8:	18c2      	adds	r2, r0, r3
    8dea:	0860      	lsrs	r0, r4, #1
    8dec:	4a11      	ldr	r2, [pc, #68]	@ (0x8e34)
    8dee:	d981      	bls.n	0x8cf4
    8df0:	eec7 f02e 	cdp	0, 12, cr15, cr7, cr14, {1}
    8df4:	212e      	movs	r1, #46	@ 0x2e
    8df6:	d335      	bcc.n	0x8e64
    8df8:	018d      	lsls	r5, r1, #6
    8dfa:	c211      	stmia	r2!, {r0, r4}
    8dfc:	c616      	stmia	r6!, {r1, r2, r4}
    8dfe:	0cc0      	lsrs	r0, r0, #19
    8e00:	8000      	strh	r0, [r0, #0]
    8e02:	357b      	adds	r5, #123	@ 0x7b
    8e04:	60ed      	str	r5, [r5, #12]
    8e06:	010c      	lsls	r4, r1, #4
    8e08:	1109      	asrs	r1, r1, #4
    8e0a:	8142      	strh	r2, [r0, #10]
    8e0c:	1439      	asrs	r1, r7, #16
    8e0e:	1290      	asrs	r0, r2, #10
    8e10:	3a98      	subs	r2, #152	@ 0x98
    8e12:	05c0      	lsls	r0, r0, #23
    8e14:	22ef      	movs	r2, #239	@ 0xef
    8e16:	616c      	str	r4, [r5, #20]
    8e18:	cc0c      	ldmia	r4!, {r2, r3}
    8e1a:	0000      	movs	r0, r0
    8e1c:	22b8      	movs	r2, #184	@ 0xb8
    8e1e:	0ed3      	lsrs	r3, r2, #27
    8e20:	10c6      	asrs	r6, r0, #3
    8e22:	1080      	asrs	r0, r0, #2
    8e24:	1280      	asrs	r0, r0, #10
    8e26:	17fe      	asrs	r6, r7, #31
    8e28:	10f0      	asrs	r0, r6, #3
    8e2a:	13fe      	asrs	r6, r7, #15
    8e2c:	c5f5      	stmia	r5!, {r0, r2, r4, r5, r6, r7}
    8e2e:	1000      	asrs	r0, r0, #32
    8e30:	5f04      	ldrsh	r4, [r0, r4]
    8e32:	f10c 7fdf 	add.w	pc, ip, #29229056	@ 0x1be0000
    8e36:	4604      	mov	r4, r0
    8e38:	08c0      	lsrs	r0, r0, #3
    8e3a:	6280      	str	r0, [r0, #40]	@ 0x28
    8e3c:	8c04      	ldrh	r4, [r0, #32]
    8e3e:	1f07      	subs	r7, r0, #4
    8e40:	c046      	stmia	r0!, {r1, r2, r6}
    8e42:	a028      	add	r0, pc, #160	@ (adr r0, 0x8ee4)
    8e44:	0462      	lsls	r2, r4, #17
    8e46:	018c      	lsls	r4, r1, #6
    8e48:	4635      	mov	r5, r6
    8e4a:	38c0      	subs	r0, #192	@ 0xc0
    8e4c:	8500      	strh	r0, [r0, #40]	@ 0x28
    8e4e:	3679      	adds	r6, #121	@ 0x79
    8e50:	5fcd      	ldrsh	r5, [r1, r7]
    8e52:	000c      	movs	r4, r1
    8e54:	115c      	asrs	r4, r3, #5
    8e56:	80e1      	strh	r1, [r4, #6]
    8e58:	3539      	adds	r5, #57	@ 0x39
    8e5a:	5fcd      	ldrsh	r5, [r1, r7]
    8e5c:	010c      	lsls	r4, r1, #4
    8e5e:	1148      	asrs	r0, r1, #5
    8e60:	80ec      	strh	r4, [r5, #6]
    8e62:	33f9      	adds	r3, #249	@ 0xf9
    8e64:	5fcd      	ldrsh	r5, [r1, r7]
    8e66:	020c      	lsls	r4, r1, #8
    8e68:	d334      	bcc.n	0x8ed4
    8e6a:	c5fc      	stmia	r5!, {r2, r3, r4, r5, r6, r7}
    8e6c:	9030      	str	r0, [sp, #192]	@ 0xc0
    8e6e:	0012      	movs	r2, r2
    8e70:	114c      	asrs	r4, r1, #5
    8e72:	80ef      	strh	r7, [r5, #6]
    8e74:	31b9      	adds	r1, #185	@ 0xb9
    8e76:	5fcd      	ldrsh	r5, [r1, r7]
    8e78:	020c      	lsls	r4, r1, #8
    8e7a:	d30b      	bcc.n	0x8e94
    8e7c:	c5fe      	stmia	r5!, {r1, r2, r3, r4, r5, r6, r7}
    8e7e:	5030      	str	r0, [r6, r0]
    8e80:	0010      	movs	r0, r2
    8e82:	df0f      	svc	15
    8e84:	f101 fcd3 	bl	0x10a82e
    8e88:	00c5      	lsls	r5, r0, #3
    8e8a:	30b0      	adds	r0, #176	@ 0xb0
    8e8c:	5fed      	ldrsh	r5, [r5, r7]
    8e8e:	010c      	lsls	r4, r1, #4
    8e90:	110e      	asrs	r6, r1, #4
    8e92:	149d      	asrs	r5, r3, #18
    8e94:	0cd0      	lsrs	r0, r2, #19
    8e96:	1898      	adds	r0, r3, r2
    8e98:	0ed3      	lsrs	r3, r2, #27
    8e9a:	10c6      	asrs	r6, r0, #3
    8e9c:	1080      	asrs	r0, r0, #2
    8e9e:	0ae0      	lsrs	r0, r4, #11
    8ea0:	12fe      	asrs	r6, r7, #11
    8ea2:	0950      	lsrs	r0, r2, #5
    8ea4:	d310      	bcc.n	0x8ec8
    8ea6:	c5fe      	stmia	r5!, {r1, r2, r3, r4, r5, r6, r7}
    8ea8:	7020      	strb	r0, [r4, #0]
    8eaa:	f510 03c5 	adds.w	r3, r0, #6455296	@ 0x628000
    8eae:	d310      	bcc.n	0x8ed2
    8eb0:	c5fc      	stmia	r5!, {r2, r3, r4, r5, r6, r7}
    8eb2:	b020      	add	sp, #128	@ 0x80
    8eb4:	ed30 0c5f 	ldc	12, cr0, [r0, #-380]!	@ 0xfffffe84
    8eb8:	0503      	lsls	r3, r0, #20
    8eba:	b611      			@ <UNDEFINED> instruction: 0xb611
    8ebc:	f100 30ec 	add.w	r0, r0, #3974950124	@ 0xecececec
    8ec0:	d275      	bcs.n	0x8fae
    8ec2:	c616      	stmia	r6!, {r1, r2, r4}
    8ec4:	f100 0cd3 	add.w	ip, r0, #211	@ 0xd3
    8ec8:	00c6      	lsls	r6, r0, #3
    8eca:	30f0      	adds	r0, #240	@ 0xf0
    8ecc:	60cd      	str	r5, [r1, #12]
    8ece:	010c      	lsls	r4, r1, #4
    8ed0:	980c      	ldr	r0, [sp, #48]	@ 0x30
    8ed2:	1110      	asrs	r0, r2, #4
    8ed4:	e063      	b.n	0x8f9e
    8ed6:	116f      	asrs	r7, r5, #5
    8ed8:	e074      	b.n	0x8fc4
    8eda:	112f      	asrs	r7, r5, #4
    8edc:	005b      	lsls	r3, r3, #1
    8ede:	dff1      	svc	241	@ 0xf1
    8ee0:	147d      	asrs	r5, r7, #17
    8ee2:	6057      	str	r7, [r2, #4]
    8ee4:	1414      	asrs	r4, r2, #16
    8ee6:	3c63      	subs	r4, #99	@ 0x63
    8ee8:	a842      	add	r0, sp, #264	@ 0x108
    8eea:	0a60      	lsrs	r0, r4, #9
    8eec:	020a      	lsls	r2, r1, #8
    8eee:	1ce8      	adds	r0, r5, #3
    8ef0:	6fef      	ldr	r7, [r5, #124]	@ 0x7c
    8ef2:	8d04      	ldrh	r4, [r0, #40]	@ 0x28
    8ef4:	3001      	adds	r0, #1
    8ef6:	2921      	cmp	r1, #33	@ 0x21
    8ef8:	0ab8      	lsrs	r0, r7, #10
    8efa:	210a      	movs	r1, #10
    8efc:	b830      			@ <UNDEFINED> instruction: 0xb830
    8efe:	6247      	str	r7, [r0, #36]	@ 0x24
    8f00:	8d24      	ldrh	r4, [r4, #40]	@ 0x28
    8f02:	3501      	adds	r5, #1
    8f04:	5146      	str	r6, [r0, r5]
    8f06:	c630      	stmia	r6!, {r4, r5}
    8f08:	5146      	str	r6, [r0, r5]
    8f0a:	c640      	stmia	r6!, {r6}
    8f0c:	2198      	movs	r1, #152	@ 0x98
    8f0e:	5146      	str	r6, [r0, r5]
    8f10:	c630      	stmia	r6!, {r4, r5}
    8f12:	5146      	str	r6, [r0, r5]
    8f14:	c640      	stmia	r6!, {r6}
    8f16:	010a      	lsls	r2, r1, #4
    8f18:	e247      	b.n	0x93aa
    8f1a:	0a3f      	lsrs	r7, r7, #8
    8f1c:	4701      	bx	r0
    8f1e:	2462      	movs	r4, #98	@ 0x62
    8f20:	03df      	lsls	r7, r3, #15
    8f22:	04f1      	lsls	r1, r6, #19
    8f24:	0c63      	lsrs	r3, r4, #17
    8f26:	dff1      	svc	241	@ 0xf1
    8f28:	047f      	lsls	r7, r7, #17
    8f2a:	5046      	str	r6, [r0, r1]
    8f2c:	c640      	stmia	r6!, {r6}
    8f2e:	01df      	lsls	r7, r3, #7
    8f30:	04f1      	lsls	r1, r6, #19
    8f32:	ac64      	add	r4, sp, #400	@ 0x190
    8f34:	1005      	asrs	r5, r0, #32
    8f36:	fa70 5110 			@ <UNDEFINED> instruction: 0xfa705110
    8f3a:	0c5f      	lsrs	r7, r3, #17
    8f3c:	0510      	lsls	r0, r2, #20
    8f3e:	00c6      	lsls	r6, r0, #3
    8f40:	b511      	push	{r0, r4, lr}
    8f42:	00a3      	lsls	r3, r4, #2
    8f44:	f310 acdf 	bgt.w	0xd9906
    8f48:	1000      	asrs	r0, r0, #32
    8f4a:	4963      	ldr	r1, [pc, #396]	@ (0x90d8)
    8f4c:	f101 5f51 	add.w	pc, r1, #876609536	@ 0x34400000
    8f50:	101c      	asrs	r4, r3, #32
    8f52:	c605      	stmia	r6!, {r0, r2}
    8f54:	1101      	asrs	r1, r0, #4
    8f56:	a3a0      	add	r3, pc, #640	@ (adr r3, 0x91d8)
    8f58:	1020      	asrs	r0, r4, #32
    8f5a:	dea3      	udf	#163	@ 0xa3
    8f5c:	10ac      	asrs	r4, r5, #2
    8f5e:	1310      	asrs	r0, r2, #12
    8f60:	0148      	lsls	r0, r1, #5
    8f62:	51f1      	str	r1, [r6, r7]
    8f64:	2c5f      	cmp	r4, #95	@ 0x5f
    8f66:	0ec0      	lsrs	r0, r0, #27
    8f68:	2753      	movs	r7, #83	@ 0x53
    8f6a:	616d      	str	r5, [r5, #20]
    8f6c:	0a0c      	lsrs	r4, r1, #8
    8f6e:	2101      	movs	r1, #1
    8f70:	cdd5      	ldmia	r5!, {r0, r2, r4, r6, r7}
    8f72:	5110      	str	r0, [r2, r4]
    8f74:	4c5f      	ldr	r4, [pc, #380]	@ (0x90f4)
    8f76:	0ec0      	lsrs	r0, r0, #27
    8f78:	2753      	movs	r7, #83	@ 0x53
    8f7a:	616d      	str	r5, [r5, #20]
    8f7c:	0a0c      	lsrs	r4, r1, #8
    8f7e:	2103      	movs	r1, #3
    8f80:	cdc5      	ldmia	r5!, {r0, r2, r6, r7}
    8f82:	df10      	svc	16
    8f84:	00ad      	lsls	r5, r5, #2
    8f86:	0470      	lsls	r0, r6, #17
    8f88:	1a98      	subs	r0, r3, r2
    8f8a:	000a      	movs	r2, r1
    8f8c:	6ded      	ldr	r5, [r5, #92]	@ 0x5c
    8f8e:	560c      	ldrsb	r4, [r1, r0]
    8f90:	9820      	ldr	r0, [sp, #128]	@ 0x80
    8f92:	4685      	mov	sp, r0
    8f94:	1080      	asrs	r0, r0, #2
    8f96:	460d      	mov	r5, r1
    8f98:	70c0      	strb	r0, [r0, #3]
    8f9a:	bd80      	pop	{r7, pc}
    8f9c:	2c0d      	cmp	r4, #13
    8f9e:	6d23      	ldr	r3, [r4, #80]	@ 0x50
    8fa0:	0c65      	lsrs	r5, r4, #17
    8fa2:	00c0      	lsls	r0, r0, #3
    8fa4:	76d2      	strb	r2, [r2, #27]
    8fa6:	00c6      	lsls	r6, r0, #3
    8fa8:	200c      	movs	r0, #12
    8faa:	696d      	ldr	r5, [r5, #20]
    8fac:	c00c      	stmia	r0!, {r2, r3}
    8fae:	d200      	bcs.n	0x8fb2
    8fb0:	c6b6      	stmia	r6!, {r1, r2, r4, r5, r7}
    8fb2:	4510      	cmp	r0, r2
    8fb4:	ffc7 7551 	vorr.i32	<illegal reg q11.5>, #15794176	@ 0x00f10000
    8fb8:	1ffc      	subs	r4, r7, #7
    8fba:	c765      	stmia	r7!, {r0, r2, r5, r6}
    8fbc:	51ff      	str	r7, [r7, r7]
    8fbe:	fc77 851f 	ldc2l	5, cr8, [r7], #-124	@ 0xffffff84
    8fc2:	ffc7 7951 	vorr.i16	<illegal reg q11.5>, #241	@ 0x00f1
    8fc6:	1ffc      	subs	r4, r7, #7
    8fc8:	c7f5      	stmia	r7!, {r0, r2, r4, r5, r6, r7}
    8fca:	5180      	str	r0, [r0, r6]
    8fcc:	0c80      	lsrs	r0, r0, #18
    8fce:	1518      	asrs	r0, r3, #20
    8fd0:	80c8      	strh	r0, [r1, #6]
    8fd2:	8251      	strh	r1, [r2, #18]
    8fd4:	180c      	adds	r4, r1, r0
    8fd6:	c835      	ldmia	r0, {r0, r2, r4, r5}
    8fd8:	5180      	str	r0, [r0, r6]
    8fda:	0c7a      	lsrs	r2, r7, #17
    8fdc:	b518      	push	{r3, r4, lr}
    8fde:	80c7      	strh	r7, [r0, #6]
    8fe0:	7c51      	ldrb	r1, [r2, #17]
    8fe2:	180c      	adds	r4, r1, r0
    8fe4:	c7d5      	stmia	r7!, {r0, r2, r4, r6, r7}
    8fe6:	5180      	str	r0, [r0, r6]
    8fe8:	0c7e      	lsrs	r6, r7, #17
    8fea:	7518      	strb	r0, [r3, #20]
    8fec:	01c8      	lsls	r0, r1, #7
    8fee:	100a      	asrs	r2, r1, #32
    8ff0:	5921      	ldr	r1, [r4, r4]
    8ff2:	4fb7      	ldr	r7, [pc, #732]	@ (0x92d0)
    8ff4:	16e1      	asrs	r1, r4, #27
    8ff6:	00cc      	lsls	r4, r1, #3
    8ff8:	1900      	adds	r0, r0, r4
    8ffa:	14e6      	asrs	r6, r4, #19
    8ffc:	0584      	lsls	r4, r0, #22
    8ffe:	ec84 513f 	stfs	f5, [r4], {63}	@ 0x3f
    9002:	4c84      	ldr	r4, [pc, #528]	@ (0x9214)
    9004:	b0a0      	sub	sp, #128	@ 0x80
    9006:	2310      	movs	r3, #16
    9008:	fb74 6e14 			@ <UNDEFINED> instruction: 0xfb746e14
    900c:	0cc1      	lsrs	r1, r0, #19
    900e:	9000      	str	r0, [sp, #0]
    9010:	4e71      	ldr	r6, [pc, #452]	@ (0x91d8)
    9012:	20e1      	movs	r0, #225	@ 0xe1
    9014:	856d      	strh	r5, [r5, #42]	@ 0x2a
    9016:	fe0c 0c05 	cdp2	12, 0, cr0, cr12, cr5, {0}
    901a:	6d20      	ldr	r0, [r4, #80]	@ 0x50
    901c:	0c85      	lsrs	r5, r0, #18
    901e:	03df      	lsls	r7, r3, #15
    9020:	dff1      	svc	241	@ 0xf1
    9022:	431f      	orrs	r7, r3
    9024:	1088      	asrs	r0, r1, #2
    9026:	aa53      	add	r2, sp, #332	@ 0x14c
    9028:	3310      	adds	r3, #16
    902a:	a0a4      	add	r0, pc, #656	@ (adr r0, 0x92bc)
    902c:	7000      	strb	r0, [r0, #0]
    902e:	9804      	ldr	r0, [sp, #16]
    9030:	ed3a 0c6d 	ldc	12, cr0, [sl, #-436]!	@ 0xfffffe4c
    9034:	2046      	movs	r0, #70	@ 0x46
    9036:	8488      	strh	r0, [r1, #36]	@ 0x24
    9038:	000c      	movs	r4, r1
    903a:	b322      	cbz	r2, 0x9086
    903c:	0461      	lsls	r1, r4, #17
    903e:	5258      	strh	r0, [r3, r1]
    9040:	4ed0      	ldr	r6, [pc, #832]	@ (0x9384)
    9042:	244d      	movs	r4, #77	@ 0x4d
    9044:	e285      	b.n	0x9552
    9046:	1128      	asrs	r0, r5, #4
    9048:	1398      	asrs	r0, r3, #14
    904a:	8046      	strh	r6, [r0, #2]
    904c:	0d10      	lsrs	r0, r2, #20
    904e:	c046      	stmia	r0!, {r1, r2, r6}
    9050:	8070      	strh	r0, [r6, #2]
    9052:	1bbd      	subs	r5, r7, r6
    9054:	28e0      	cmp	r0, #224	@ 0xe0
    9056:	018d      	lsls	r5, r1, #6
    9058:	c20a      	stmia	r2!, {r1, r3}
    905a:	c656      	stmia	r6!, {r1, r2, r4, r6}
    905c:	2ef0      	cmp	r6, #240	@ 0xf0
    905e:	01df      	lsls	r7, r3, #7
    9060:	21f1      	movs	r1, #241	@ 0xf1
    9062:	cc09      	ldmia	r4!, {r0, r3}
    9064:	4e21      	ldr	r6, [pc, #132]	@ (0x90ec)
    9066:	d3cc      	bcc.n	0x9002
    9068:	c75c      	stmia	r7!, {r2, r3, r4, r6}
    906a:	bff0      	nop	{15}
    906c:	5040      	str	r0, [r0, r1]
    906e:	21c7      	movs	r1, #199	@ 0xc7
    9070:	cc34      	ldmia	r4, {r2, r4, r5}
    9072:	6cd3      	ldr	r3, [r2, #76]	@ 0x4c
    9074:	f0c7 40bf 			@ <UNDEFINED> instruction: 0xf0c740bf
    9078:	c760      	stmia	r7!, {r5, r6}
    907a:	ab21      	add	r3, sp, #132	@ 0x84
    907c:	10cc      	asrs	r4, r1, #3
    907e:	7751      	strb	r1, [r2, #29]
    9080:	1ffc      	subs	r4, r7, #7
    9082:	c785      	stmia	r7!, {r0, r2, r7}
    9084:	51ff      	str	r7, [r7, r7]
    9086:	fc79 a51f 	ldc2l	5, cr10, [r9], #-124	@ 0xffffff84
    908a:	80c7      	strh	r7, [r0, #6]
    908c:	7b51      	ldrb	r1, [r2, #13]
    908e:	180c      	adds	r4, r1, r0
    9090:	c7c5      	stmia	r7!, {r0, r2, r6, r7}
    9092:	5180      	str	r0, [r0, r6]
    9094:	0c7d      	lsrs	r5, r7, #17
    9096:	e518      	b.n	0x8aca
    9098:	80c7      	strh	r7, [r0, #6]
    909a:	000a      	movs	r2, r1
    909c:	005a      	lsls	r2, r3, #1
    909e:	bf21      	itttt	cs
    90a0:	1013      	asrcs	r3, r2, #32
    90a2:	4c21      	ldrcs	r4, [pc, #132]	@ (0x9128)
    90a4:	21cc      	movcs	r1, #204	@ 0xcc
    90a6:	cc5e      	ldmiacs	r4, {r1, r2, r3, r4, r6}
    90a8:	5110      	str	r0, [r2, r4]
    90aa:	fc74 551f 	ldc2l	5, cr5, [r4], #-124	@ 0xffffff84
    90ae:	ffc7 7651 	vmov.i32	<illegal reg q11.5>, #-251658240	@ 0xf1000000
    90b2:	1ffc      	subs	r4, r7, #7
    90b4:	c7f5      	stmia	r7!, {r0, r2, r4, r5, r6, r7}
    90b6:	5180      	str	r0, [r0, r6]
    90b8:	0c80      	lsrs	r0, r0, #18
    90ba:	1518      	asrs	r0, r3, #20
    90bc:	80c8      	strh	r0, [r1, #6]
    90be:	8251      	strh	r1, [r2, #18]
    90c0:	180c      	adds	r4, r1, r0
    90c2:	c835      	ldmia	r0, {r0, r2, r4, r5}
    90c4:	0a80      	lsrs	r0, r0, #10
    90c6:	5a00      	ldrh	r0, [r0, r0]
    90c8:	2100      	movs	r1, #0
    90ca:	13b9      	asrs	r1, r7, #14
    90cc:	0410      	lsls	r0, r2, #16
    90ce:	1c78      	adds	r0, r7, #1
    90d0:	8ca3      	ldrh	r3, [r4, #36]	@ 0x24
    90d2:	5040      	str	r0, [r0, r1]
    90d4:	21c7      	movs	r1, #199	@ 0xc7
    90d6:	08d4      	lsrs	r4, r2, #3
    90d8:	7804      	ldrb	r4, [r0, #0]
    90da:	131c      	asrs	r4, r3, #12
    90dc:	408a      	lsls	r2, r1
    90de:	c750      	stmia	r7!, {r4, r6}
    90e0:	ab21      	add	r3, sp, #132	@ 0x84
    90e2:	0408      	lsls	r0, r1, #16
    90e4:	1c7b      	adds	r3, r7, #1
    90e6:	8d23      	ldrh	r3, [r4, #40]	@ 0x28
    90e8:	0040      	lsls	r0, r0, #1
    90ea:	21c8      	movs	r1, #200	@ 0xc8
    90ec:	08df      	lsrs	r7, r3, #3
    90ee:	9cd3      	ldr	r4, [sp, #844]	@ 0x34c
    90f0:	f0c7 40bf 			@ <UNDEFINED> instruction: 0xf0c740bf
    90f4:	c790      	stmia	r7!, {r4, r7}
    90f6:	de21      	udf	#33	@ 0x21
    90f8:	d3cb      	bcc.n	0x9092
    90fa:	c76c      	stmia	r7!, {r2, r3, r5, r6}
    90fc:	bff0      	nop	{15}
    90fe:	6040      	str	r0, [r0, #4]
    9100:	21c7      	movs	r1, #199	@ 0xc7
    9102:	cc24      	ldmia	r4!, {r2, r5}
    9104:	7d04      	ldrb	r4, [r0, #20]
    9106:	092c      	lsrs	r4, r5, #4
    9108:	80cc      	strh	r4, [r1, #6]
    910a:	19ff      	adds	r7, r7, r7
    910c:	d045      	beq.n	0x919a
    910e:	21c7      	movs	r1, #199	@ 0xc7
    9110:	cbd2      	ldmia	r3!, {r1, r4, r6, r7}
    9112:	8204      	strh	r4, [r0, #16]
    9114:	092c      	lsrs	r4, r5, #4
    9116:	80cc      	strh	r4, [r1, #6]
    9118:	19ff      	adds	r7, r7, r7
    911a:	2045      	movs	r0, #69	@ 0x45
    911c:	21c8      	movs	r1, #200	@ 0xc8
    911e:	cc1a      	ldmia	r4, {r1, r3, r4}
    9120:	df10      	svc	16
    9122:	047e      	lsls	r6, r7, #17
    9124:	6157      	str	r7, [r2, #20]
    9126:	8d14      	ldrh	r4, [r2, #40]	@ 0x28
    9128:	4901      	ldr	r1, [pc, #4]	@ (0x9130)
    912a:	7904      	ldrb	r4, [r0, #4]
    912c:	108c      	asrs	r4, r1, #2
    912e:	3056      	adds	r0, #86	@ 0x56
    9130:	a812      	add	r0, sp, #72	@ 0x48
    9132:	466c      	mov	r4, sp
    9134:	8050      	strh	r0, [r2, #2]
    9136:	04c7      	lsls	r7, r0, #19
    9138:	1c78      	adds	r0, r7, #1
    913a:	b523      	push	{r0, r1, r5, lr}
    913c:	804c      	strh	r4, [r1, #2]
    913e:	5ac7      	ldrh	r7, [r0, r3]
    9140:	2100      	movs	r1, #0
    9142:	131c      	asrs	r4, r3, #12
    9144:	e621      	b.n	0x8d8a
    9146:	0411      	lsls	r1, r2, #16
    9148:	1c78      	adds	r0, r7, #1
    914a:	8503      	strh	r3, [r0, #40]	@ 0x28
    914c:	5980      	ldr	r0, [r0, r6]
    914e:	8043      	strh	r3, [r0, #2]
    9150:	05c7      	lsls	r7, r0, #23
    9152:	4c77      	ldr	r4, [pc, #476]	@ (0x9330)
    9154:	c770      	stmia	r7!, {r4, r5, r6}
    9156:	015a      	lsls	r2, r3, #5
    9158:	0521      	lsls	r1, r4, #20
    915a:	2113      	movs	r1, #19
    915c:	11cf      	asrs	r7, r1, #7
    915e:	7704      	strb	r4, [r0, #28]
    9160:	931c      	str	r3, [sp, #112]	@ 0x70
    9162:	4083      	lsls	r3, r0
    9164:	c770      	stmia	r7!, {r4, r5, r6}
    9166:	1621      	asrs	r1, r4, #24
    9168:	df08      	svc	8
    916a:	f102 7edf 	add.w	lr, r2, #29229056	@ 0x1be0000
    916e:	4705      	bx	r0
    9170:	1461      	asrs	r1, r4, #17
    9172:	7805      	ldrb	r5, [r0, #0]
    9174:	146c      	asrs	r4, r5, #17
    9176:	7705      	strb	r5, [r0, #28]
    9178:	046c      	lsls	r4, r5, #17
    917a:	7905      	ldrb	r5, [r0, #4]
    917c:	804c      	strh	r4, [r1, #2]
    917e:	21c7      	movs	r1, #199	@ 0xc7
    9180:	cb0d      	ldmia	r3, {r0, r2, r3}
    9182:	7804      	ldrb	r4, [r0, #0]
    9184:	05ac      	lsls	r4, r5, #22
    9186:	6310      	str	r0, [r2, #48]	@ 0x30
    9188:	412d      	asrs	r5, r5
    918a:	c780      	stmia	r7!, {r7}
    918c:	0e21      	lsrs	r1, r4, #24
    918e:	0408      	lsls	r0, r1, #16
    9190:	1c77      	adds	r7, r6, #1
    9192:	7eb0      	ldrb	r0, [r6, #26]
    9194:	7904      	ldrb	r4, [r0, #4]
    9196:	d31c      	bcc.n	0x91d2
    9198:	fcb3 102d 	ldc2	0, cr1, [r3], #180	@ 0xb4
    919c:	7804      	ldrb	r4, [r0, #0]
    919e:	f10c 7edf 	add.w	lr, ip, #29229056	@ 0x1be0000
    91a2:	5704      	ldrsb	r4, [r0, r4]
    91a4:	1461      	asrs	r1, r4, #17
    91a6:	018d      	lsls	r5, r1, #6
    91a8:	045a      	lsls	r2, r3, #17
    91aa:	6c75      	ldr	r5, [r6, #68]	@ 0x44
    91ac:	2305      	movs	r3, #5
    91ae:	ea84 0467 	eor.w	r4, r4, r7, asr #1
    91b2:	7505      	strb	r5, [r0, #20]
    91b4:	504c      	str	r4, [r1, r1]
    91b6:	21c7      	movs	r1, #199	@ 0xc7
    91b8:	caec      	ldmia	r2, {r2, r3, r5, r6, r7}
    91ba:	7504      	strb	r4, [r0, #20]
    91bc:	05ac      	lsls	r4, r5, #22
    91be:	3310      	adds	r3, #16
    91c0:	112c      	asrs	r4, r5, #4
    91c2:	1683      	asrs	r3, r0, #26
    91c4:	5041      	str	r1, [r0, r1]
    91c6:	11c7      	asrs	r7, r0, #7
    91c8:	17e2      	asrs	r2, r4, #31
    91ca:	c640      	stmia	r6!, {r6}
    91cc:	048d      	lsls	r5, r1, #18
    91ce:	0441      	lsls	r1, r0, #17
    91d0:	1c75      	adds	r5, r6, #1
    91d2:	7ba0      	ldrb	r0, [r4, #14]
    91d4:	3398      	adds	r3, #152	@ 0x98
    91d6:	7504      	strb	r4, [r0, #20]
    91d8:	405c      	eors	r4, r3
    91da:	04c7      	lsls	r7, r0, #19
    91dc:	ac74      	add	r4, sp, #464	@ 0x1d0
    91de:	1015      	asrs	r5, r2, #32
    91e0:	2a23      	cmp	r2, #35	@ 0x23
    91e2:	7311      	strb	r1, [r2, #12]
    91e4:	4114      	asrs	r4, r2
    91e6:	c740      	stmia	r7!, {r6}
    91e8:	c111      	stmia	r1!, {r0, r4}
    91ea:	4047      	eors	r7, r0
    91ec:	11c7      	asrs	r7, r0, #7
    91ee:	f79e 102d 			@ <UNDEFINED> instruction: 0xf79e102d
    91f2:	fadf 5745 			@ <UNDEFINED> instruction: 0xfadf5745
    91f6:	1470      	asrs	r0, r6, #17
    91f8:	5146      	str	r6, [r0, r5]
    91fa:	c750      	stmia	r7!, {r4, r6}
    91fc:	5146      	str	r6, [r0, r5]
    91fe:	c740      	stmia	r7!, {r6}
    9200:	5046      	str	r6, [r0, r1]
    9202:	c760      	stmia	r7!, {r5, r6}
    9204:	7504      	strb	r4, [r0, #20]
    9206:	c31c      	stmia	r3!, {r2, r3, r4}
    9208:	2ca9      	cmp	r4, #169	@ 0xa9
    920a:	de90      	udf	#144	@ 0x90
    920c:	8022      	strh	r2, [r4, #0]
    920e:	23ce      	movs	r3, #206	@ 0xce
    9210:	02cc      	lsls	r4, r1, #11
    9212:	5312      	strh	r2, [r2, r4]
    9214:	6142      	str	r2, [r0, #20]
    9216:	c124      	stmia	r1!, {r2, r5}
    9218:	0902      	lsrs	r2, r0, #4
    921a:	0466      	lsls	r6, r4, #17
    921c:	3356      	adds	r3, #86	@ 0x56
    921e:	1942      	adds	r2, r0, r5
    9220:	40a5      	lsls	r5, r4
    9222:	15a0      	asrs	r0, r4, #22
    9224:	def0      	udf	#240	@ 0xf0
    9226:	7504      	strb	r4, [r0, #20]
    9228:	05ac      	lsls	r4, r5, #22
    922a:	7310      	strb	r0, [r2, #12]
    922c:	4125      	asrs	r5, r4
    922e:	c750      	stmia	r7!, {r4, r6}
    9230:	7911      	ldrb	r1, [r2, #4]
    9232:	4047      	eors	r7, r0
    9234:	11c7      	asrs	r7, r0, #7
    9236:	4756      	bx	sl
    9238:	c760      	stmia	r7!, {r5, r6}
    923a:	eb21 5eca 			@ <UNDEFINED> instruction: 0xeb215eca
    923e:	6df4      	ldr	r4, [r6, #92]	@ 0x5c
    9240:	0410      	lsls	r0, r2, #16
    9242:	0c75      	lsrs	r5, r6, #17
    9244:	dff1      	svc	241	@ 0xf1
    9246:	047e      	lsls	r6, r7, #17
    9248:	6157      	str	r7, [r2, #20]
    924a:	8d14      	ldrh	r4, [r2, #40]	@ 0x28
    924c:	0c01      	lsrs	r1, r0, #16
    924e:	5046      	str	r6, [r0, r1]
    9250:	c7b0      	stmia	r7!, {r4, r5, r7}
    9252:	1b98      	subs	r0, r3, r6
    9254:	030a      	lsls	r2, r1, #12
    9256:	4cef      	ldr	r4, [pc, #956]	@ (0x9614)
    9258:	c7b0      	stmia	r7!, {r4, r5, r7}
    925a:	7a05      	ldrb	r5, [r0, #8]
    925c:	a04c      	add	r0, pc, #304	@ (adr r0, 0x9390)
    925e:	11c7      	asrs	r7, r0, #7
    9260:	f759 102d 			@ <UNDEFINED> instruction: 0xf759102d
    9264:	7edf      	ldrb	r7, [r3, #27]
    9266:	4705      	bx	r0
    9268:	1461      	asrs	r1, r4, #17
    926a:	7b05      	ldrb	r5, [r0, #12]
    926c:	146c      	asrs	r4, r5, #17
    926e:	7c05      	ldrb	r5, [r0, #16]
    9270:	146c      	asrs	r4, r5, #17
    9272:	7a05      	ldrb	r5, [r0, #8]
    9274:	046c      	lsls	r4, r5, #17
    9276:	7d05      	ldrb	r5, [r0, #20]
    9278:	046c      	lsls	r4, r5, #17
    927a:	8822      	ldrh	r2, [r4, #0]
    927c:	0510      	lsls	r0, r2, #20
    927e:	4c7e      	ldr	r4, [pc, #504]	@ (0x9478)
    9280:	c7a0      	stmia	r7!, {r5, r7}
    9282:	3611      	adds	r6, #17
    9284:	d047      	beq.n	0x9316
    9286:	21c7      	movs	r1, #199	@ 0xc7
    9288:	ca5a      	ldmia	r2!, {r1, r3, r4, r6}
    928a:	02df      	lsls	r7, r3, #11
    928c:	dff1      	svc	241	@ 0xf1
    928e:	047e      	lsls	r6, r7, #17
    9290:	6157      	str	r7, [r2, #20]
    9292:	8d14      	ldrh	r4, [r2, #40]	@ 0x28
    9294:	0c01      	lsrs	r1, r0, #16
    9296:	5046      	str	r6, [r0, r1]
    9298:	c800      	ldmia	r0!, {}
    929a:	1b98      	subs	r0, r3, r6
    929c:	030a      	lsls	r2, r1, #12
    929e:	4cef      	ldr	r4, [pc, #956]	@ (0x965c)
    92a0:	c800      	ldmia	r0!, {}
    92a2:	7f05      	ldrb	r5, [r0, #28]
    92a4:	f04c 11c7 	orr.w	r1, ip, #13041863	@ 0xc700c7
    92a8:	f723 102d 			@ <UNDEFINED> instruction: 0xf723102d
    92ac:	7edf      	ldrb	r7, [r3, #27]
    92ae:	4705      	bx	r0
    92b0:	1461      	asrs	r1, r4, #17
    92b2:	8005      	strh	r5, [r0, #0]
    92b4:	146c      	asrs	r4, r5, #17
    92b6:	8105      	strh	r5, [r0, #8]
    92b8:	146c      	asrs	r4, r5, #17
    92ba:	7f05      	ldrb	r5, [r0, #28]
    92bc:	046c      	lsls	r4, r5, #17
    92be:	8205      	strh	r5, [r0, #16]
    92c0:	046c      	lsls	r4, r5, #17
    92c2:	8822      	ldrh	r2, [r4, #0]
    92c4:	0510      	lsls	r0, r2, #20
    92c6:	4c83      	ldr	r4, [pc, #524]	@ (0x94d4)
    92c8:	c7f0      	stmia	r7!, {r4, r5, r6, r7}
    92ca:	0011      	movs	r1, r2
    92cc:	2047      	movs	r0, #71	@ 0x47
    92ce:	21c8      	movs	r1, #200	@ 0xc8
    92d0:	ca68      	ldmia	r2!, {r3, r5, r6}
    92d2:	02df      	lsls	r7, r3, #11
    92d4:	dff1      	svc	241	@ 0xf1
    92d6:	047f      	lsls	r7, r7, #17
    92d8:	c046      	stmia	r0!, {r1, r2, r6}
    92da:	8070      	strh	r0, [r6, #2]
    92dc:	608c      	str	r4, [r1, #8]
    92de:	1104      	asrs	r4, r0, #4
    92e0:	f724 101d 			@ <UNDEFINED> instruction: 0xf724101d
    92e4:	1fdf      	subs	r7, r3, #7
    92e6:	5920      	ldr	r0, [r4, r4]
    92e8:	018d      	lsls	r5, r1, #6
    92ea:	0a0a      	lsrs	r2, r1, #8
    92ec:	4701      	bx	r0
    92ee:	3fe0      	subs	r7, #224	@ 0xe0
    92f0:	000a      	movs	r2, r1
    92f2:	6047      	str	r7, [r0, #4]
    92f4:	df04      	svc	4
    92f6:	f101 7504 	add.w	r5, r1, #34603008	@ 0x2100000
    92fa:	405c      	eors	r4, r3
    92fc:	04c7      	lsls	r7, r0, #19
    92fe:	5c78      	ldrb	r0, [r7, r1]
    9300:	c770      	stmia	r7!, {r4, r5, r6}
    9302:	7704      	strb	r4, [r0, #28]
    9304:	05ac      	lsls	r4, r5, #22
    9306:	6310      	str	r0, [r2, #48]	@ 0x30
    9308:	4115      	asrs	r5, r2
    930a:	c740      	stmia	r7!, {r6}
    930c:	005a      	lsls	r2, r3, #1
    930e:	7421      	strb	r1, [r4, #16]
    9310:	0411      	lsls	r1, r2, #16
    9312:	1c77      	adds	r7, r6, #1
    9314:	6870      	ldr	r0, [r6, #4]
    9316:	7404      	strb	r4, [r0, #16]
    9318:	101c      	asrs	r4, r3, #32
    931a:	0469      	lsls	r1, r5, #17
    931c:	1c77      	adds	r7, r6, #1
    931e:	65f0      	str	r0, [r6, #92]	@ 0x5c
    9320:	7404      	strb	r4, [r0, #16]
    9322:	901c      	str	r0, [sp, #112]	@ 0x70
    9324:	1066      	asrs	r6, r4, #1
    9326:	fedf 6e06 	cdp2	14, 13, cr6, cr15, cr6, {0}
    932a:	6d20      	ldr	r0, [r4, #80]	@ 0x50
    932c:	0c65      	lsrs	r5, r4, #17
    932e:	02df      	lsls	r7, r3, #11
    9330:	04f1      	lsls	r1, r6, #19
    9332:	5c7b      	ldrb	r3, [r7, r1]
    9334:	c7c0      	stmia	r7!, {r6, r7}
    9336:	8004      	strh	r4, [r0, #0]
    9338:	105c      	asrs	r4, r3, #1
    933a:	10c8      	asrs	r0, r1, #3
    933c:	1fdf      	subs	r7, r3, #7
    933e:	af00      	add	r7, sp, #0
    9340:	6047      	str	r7, [r0, #4]
    9342:	8c04      	ldrh	r4, [r0, #32]
    9344:	0b02      	lsrs	r2, r0, #12
    9346:	2046      	movs	r0, #70	@ 0x46
    9348:	038d      	lsls	r5, r1, #14
    934a:	40b6      	lsls	r6, r6
    934c:	c7c0      	stmia	r7!, {r6, r7}
    934e:	7b05      	ldrb	r5, [r0, #12]
    9350:	104c      	asrs	r4, r1, #1
    9352:	05c8      	lsls	r0, r1, #23
    9354:	4c80      	ldr	r4, [pc, #512]	@ (0x9558)
    9356:	c7c0      	stmia	r7!, {r6, r7}
    9358:	7a05      	ldrb	r5, [r0, #8]
    935a:	104c      	asrs	r4, r1, #1
    935c:	05c8      	lsls	r0, r1, #23
    935e:	1c7f      	adds	r7, r7, #1
    9360:	4253      	negs	r3, r2
    9362:	50c3      	str	r3, [r0, r3]
    9364:	9d80      	ldr	r5, [sp, #512]	@ 0x200
    9366:	f043 92c7 	b.w	0xc4c8f8
    936a:	0cc0      	lsrs	r0, r0, #19
    936c:	8ff8      	ldrh	r0, [r7, #62]	@ 0x3e
    936e:	427a      	negs	r2, r7
    9370:	c7f0      	stmia	r7!, {r4, r5, r6, r7}
    9372:	9721      	str	r7, [sp, #132]	@ 0x84
    9374:	04c9      	lsls	r1, r1, #19
    9376:	1c7f      	adds	r7, r7, #1
    9378:	6530      	str	r0, [r6, #80]	@ 0x50
    937a:	4111      	asrs	r1, r2
    937c:	2ecb      	cmp	r6, #203	@ 0xcb
    937e:	2148      	movs	r1, #72	@ 0x48
    9380:	676d      	str	r5, [r5, #116]	@ 0x74
    9382:	210c      	movs	r1, #12
    9384:	3402      	adds	r4, #2
    9386:	0a0c      	lsrs	r4, r1, #8
    9388:	39d8      	subs	r1, #216	@ 0xd8
    938a:	7a04      	ldrb	r4, [r0, #8]
    938c:	092c      	lsrs	r4, r5, #4
    938e:	80cc      	strh	r4, [r1, #6]
    9390:	a8ff      	add	r0, sp, #1020	@ 0x3fc
    9392:	0427      	lsls	r7, r4, #16
    9394:	1c7a      	adds	r2, r7, #1
    9396:	9223      	str	r2, [sp, #140]	@ 0x8c
    9398:	a04c      	add	r0, pc, #304	@ (adr r0, 0x94cc)
    939a:	11c7      	asrs	r7, r0, #7
    939c:	161d      	asrs	r5, r3, #24
    939e:	b1e0      	cbz	r0, 0x93da
    93a0:	82ec      	strh	r4, [r5, #22]
    93a2:	d214      	bcs.n	0x93ce
    93a4:	c676      	stmia	r6!, {r1, r2, r4, r5, r6}
    93a6:	1df0      	adds	r0, r6, #7
    93a8:	df10      	svc	16
    93aa:	047e      	lsls	r6, r7, #17
    93ac:	4046      	eors	r6, r0
    93ae:	c841      	ldmia	r0, {r0, r6}
    93b0:	8423      	strh	r3, [r4, #32]
    93b2:	a31a      	add	r3, pc, #104	@ (adr r3, 0x941c)
    93b4:	2100      	movs	r1, #0
    93b6:	ef80 631f 	vorr.i32	d6, #3840	@ 0x00000f00
    93ba:	ab36      	add	r3, sp, #216	@ 0xd8
    93bc:	1100      	asrs	r0, r0, #4
    93be:	36d3      	adds	r6, #211	@ 0xd3
    93c0:	147b      	asrs	r3, r7, #17
    93c2:	d146      	bne.n	0x9452
    93c4:	2018      	movs	r0, #24
    93c6:	0461      	lsls	r1, r4, #17
    93c8:	8405      	strh	r5, [r0, #32]
    93ca:	3fec      	subs	r7, #236	@ 0xec
    93cc:	010a      	lsls	r2, r1, #4
    93ce:	6147      	str	r7, [r0, #20]
    93d0:	df14      	svc	20
    93d2:	f102 8404 	bmi.w	0xbbde
    93d6:	f10c fbdf 	bl	0x115b98
    93da:	6f37      	ldr	r7, [r6, #112]	@ 0x70
    93dc:	16e1      	asrs	r1, r4, #27
    93de:	57c2      	ldrsb	r2, [r0, r7]
    93e0:	20c8      	movs	r0, #200	@ 0xc8
    93e2:	a868      	add	r0, sp, #416	@ 0x1a0
    93e4:	0a36      	lsrs	r6, r6, #8
    93e6:	020b      	lsls	r3, r1, #8
    93e8:	1ce8      	adds	r0, r5, #3
    93ea:	1fef      	subs	r7, r5, #7
    93ec:	3333      	adds	r3, #51	@ 0x33
    93ee:	b0ab      	sub	sp, #172	@ 0xac
    93f0:	a310      	add	r3, pc, #64	@ (adr r3, 0x9434)
    93f2:	7b33      	ldrb	r3, [r6, #12]
    93f4:	4604      	mov	r4, r0
    93f6:	18d0      	adds	r0, r2, r3
    93f8:	e140      	b.n	0x967c
    93fa:	d216      	bcs.n	0x942a
    93fc:	c856      	ldmia	r0!, {r1, r2, r4, r6}
    93fe:	3fe0      	subs	r7, #224	@ 0xe0
    9400:	010a      	lsls	r2, r1, #4
    9402:	6047      	str	r7, [r0, #4]
    9404:	7e04      	ldrb	r4, [r0, #24]
    9406:	5df3      	ldrb	r3, [r6, r7]
    9408:	c210      	stmia	r2!, {r4}
    940a:	c856      	ldmia	r0!, {r1, r2, r4, r6}
    940c:	f100 7fdf 	add.w	pc, r0, #29229056	@ 0x1be0000
    9410:	4604      	mov	r4, r0
    9412:	7050      	strb	r0, [r2, #1]
    9414:	dfc8      	svc	200	@ 0xc8
    9416:	f101 2110 	add.w	r1, r1, #268439552	@ 0x10001000
    941a:	cd0d      	ldmia	r5!, {r0, r2, r3}
    941c:	018c      	lsls	r4, r1, #6
    941e:	1105      	asrs	r5, r0, #4
    9420:	0699      	lsls	r1, r3, #26
    9422:	dff1      	svc	241	@ 0xf1
    9424:	00ae      	lsls	r6, r5, #2
    9426:	0470      	lsls	r0, r6, #17
    9428:	000a      	movs	r2, r1
    942a:	4147      	adcs	r7, r0
    942c:	c6e0      	stmia	r6!, {r5, r6, r7}
    942e:	1047      	asrs	r7, r0, #1
    9430:	c6e5      	stmia	r6!, {r0, r2, r5, r6, r7}
    9432:	1100      	asrs	r0, r0, #4
    9434:	c9fa      	ldmia	r1, {r1, r3, r4, r5, r6, r7}
    9436:	b008      	add	sp, #32
    9438:	18c1      	adds	r1, r0, r3
    943a:	2150      	movs	r1, #80	@ 0x50
    943c:	028c      	lsls	r4, r1, #10
    943e:	2144      	movs	r1, #68	@ 0x44
    9440:	038c      	lsls	r4, r1, #14
    9442:	913c      	str	r1, [sp, #240]	@ 0xf0
    9444:	1c79      	adds	r1, r7, #1
    9446:	3f21      	subs	r7, #33	@ 0x21
    9448:	0c33      	lsrs	r3, r6, #16
    944a:	d905      	bls.n	0x9458
    944c:	311c      	adds	r1, #28
    944e:	74dd      	strb	r5, [r3, #19]
    9450:	ff0c 20fe 	vqadd.u8	q1, q14, q15
    9454:	696c      	ldr	r4, [r5, #20]
    9456:	cc0c      	ldmia	r4!, {r2, r3}
    9458:	0000      	movs	r0, r0
    945a:	deb9      	udf	#185	@ 0xb9
    945c:	4040      	eors	r0, r0
    945e:	14c7      	asrs	r7, r0, #19
    9460:	3c75      	subs	r4, #117	@ 0x75
    9462:	2242      	movs	r2, #66	@ 0x42
    9464:	40e3      	lsrs	r3, r4
    9466:	c750      	stmia	r7!, {r4, r6}
    9468:	7405      	strb	r5, [r0, #16]
    946a:	a98c      	add	r1, sp, #560	@ 0x230
    946c:	4504      	cmp	r4, r0
    946e:	01c7      	lsls	r7, r0, #7
    9470:	0322      	lsls	r2, r4, #12
    9472:	0463      	lsls	r3, r4, #17
    9474:	4108      	asrs	r0, r1
    9476:	c741      	stmia	r7!, {r0, r6}
    9478:	8423      	strh	r3, [r4, #32]
    947a:	414c      	adcs	r4, r1
    947c:	c740      	stmia	r7!, {r6}
    947e:	2056      	movs	r0, #86	@ 0x56
    9480:	054a      	lsls	r2, r1, #21
    9482:	8c74      	ldrh	r4, [r6, #34]	@ 0x22
    9484:	1189      	asrs	r1, r1, #6
    9486:	c745      	stmia	r7!, {r0, r2, r6}
    9488:	ee01 4517 	mcr	5, 0, r4, cr1, cr7, {0}
    948c:	01c7      	lsls	r7, r0, #7
    948e:	030a      	lsls	r2, r1, #12
    9490:	4147      	adcs	r7, r0
    9492:	c6e0      	stmia	r6!, {r5, r6, r7}
    9494:	08d2      	lsrs	r2, r2, #3
    9496:	1230      	asrs	r0, r6, #8
    9498:	7404      	strb	r4, [r0, #16]
    949a:	714c      	strb	r4, [r1, #5]
    949c:	21c8      	movs	r1, #200	@ 0xc8
    949e:	0f83      	lsrs	r3, r0, #30
    94a0:	7404      	strb	r4, [r0, #16]
    94a2:	514c      	str	r4, [r1, r5]
    94a4:	23c7      	movs	r3, #199	@ 0xc7
    94a6:	7394      	strb	r4, [r2, #14]
    94a8:	7504      	strb	r4, [r0, #20]
    94aa:	05ac      	lsls	r4, r5, #22
    94ac:	5310      	strh	r0, [r2, r4]
    94ae:	40fd      	lsrs	r5, r7
    94b0:	c740      	stmia	r7!, {r6}
    94b2:	4221      	tst	r1, r4
    94b4:	04c8      	lsls	r0, r1, #19
    94b6:	1c74      	adds	r4, r6, #1
    94b8:	4d40      	ldr	r5, [pc, #256]	@ (0x95bc)
    94ba:	f146 c0ce 	blx	0xd4f658
    94be:	d219      	bcs.n	0x94f4
    94c0:	c6b6      	stmia	r6!, {r1, r2, r4, r5, r7}
    94c2:	2ec0      	cmp	r6, #192	@ 0xc0
    94c4:	2148      	movs	r1, #72	@ 0x48
    94c6:	676d      	str	r5, [r5, #116]	@ 0x74
    94c8:	990c      	ldr	r1, [sp, #48]	@ 0x30
    94ca:	a0bc      	add	r0, pc, #752	@ (adr r0, 0x97bc)
    94cc:	1010      	asrs	r0, r2, #32
    94ce:	e050      	b.n	0x9572
    94d0:	ae99      	add	r6, sp, #612	@ 0x264
    94d2:	b310      	cbz	r0, 0x951a
    94d4:	ac81      	add	r4, sp, #516	@ 0x204
    94d6:	f030 99ce 	b.w	0x839876
    94da:	a09c      	add	r0, pc, #624	@ (adr r0, 0x974c)
    94dc:	f030 99ce 	b.w	0x83987c
    94e0:	1090      	asrs	r0, r2, #2
    94e2:	2a33      	cmp	r2, #51	@ 0x33
    94e4:	50c3      	str	r3, [r0, r3]
    94e6:	5d80      	ldrb	r0, [r0, r6]
    94e8:	f047 92c7 	b.w	0xc50a7a
    94ec:	0cc0      	lsrs	r0, r0, #19
    94ee:	8ff8      	ldrh	r0, [r7, #62]	@ 0x3e
    94f0:	453a      	cmp	r2, r7
    94f2:	c7f0      	stmia	r7!, {r4, r5, r6, r7}
    94f4:	8314      	strh	r4, [r2, #24]
    94f6:	423c      	tst	r4, r7
    94f8:	37f8      	adds	r7, #248	@ 0xf8
    94fa:	7f04      	ldrb	r4, [r0, #28]
    94fc:	0a2c      	lsrs	r4, r5, #8
    94fe:	0d01      	lsrs	r1, r0, #20
    9500:	7f04      	ldrb	r4, [r0, #28]
    9502:	631c      	str	r4, [r3, #48]	@ 0x30
    9504:	4c80      	ldr	r4, [pc, #512]	@ (0x9708)
    9506:	c7f0      	stmia	r7!, {r4, r5, r6, r7}
    9508:	c211      	stmia	r2!, {r0, r4}
    950a:	1014      	asrs	r4, r2, #32
    950c:	ec9b 1482 	cfldrs	mvf1, [fp], {130}	@ 0x82
    9510:	76d2      	strb	r2, [r2, #27]
    9512:	80c6      	strh	r6, [r0, #6]
    9514:	a229      	add	r2, pc, #164	@ (adr r2, 0x95bc)
    9516:	7030      	strb	r0, [r6, #0]
    9518:	9814      	ldr	r0, [sp, #80]	@ 0x50
    951a:	2117      	movs	r1, #23
    951c:	c7e8      	stmia	r7!, {r3, r5, r6, r7}
    951e:	030a      	lsls	r2, r1, #12
    9520:	e147      	b.n	0x97b2
    9522:	0a3f      	lsrs	r7, r7, #8
    9524:	4703      	bx	r0
    9526:	1461      	asrs	r1, r4, #17
    9528:	fcef 102d 	stc2l	0, cr1, [pc], #180	@ 0x95e0
    952c:	aedf      	add	r6, sp, #892	@ 0x37c
    952e:	7000      	strb	r0, [r0, #0]
    9530:	0a04      	lsrs	r4, r0, #8
    9532:	4700      	bx	r0
    9534:	d041      	beq.n	0x95ba
    9536:	47c6      			@ <UNDEFINED> instruction: 0x47c6
    9538:	d510      	bpl.n	0x955c
    953a:	00c6      	lsls	r6, r0, #3
    953c:	f111 08c8 	adds.w	r8, r1, #200	@ 0xc8
    9540:	c1b0      	stmia	r1!, {r4, r5, r7}
    9542:	5018      	str	r0, [r3, r0]
    9544:	8c21      	ldrh	r1, [r4, #32]
    9546:	5402      	strb	r2, [r0, r0]
    9548:	8c21      	ldrh	r1, [r4, #32]
    954a:	4c03      	ldr	r4, [pc, #12]	@ (0x9558)
    954c:	5991      	ldr	r1, [r2, r6]
    954e:	211d      	movs	r1, #29
    9550:	3236      	adds	r2, #54	@ 0x36
    9552:	050c      	lsls	r4, r1, #20
    9554:	2cd9      	cmp	r4, #217	@ 0xd9
    9556:	dd31      	ble.n	0x95bc
    9558:	0c74      	lsrs	r4, r6, #17
    955a:	0eff      	lsrs	r7, r7, #27
    955c:	6c21      	ldr	r1, [r4, #64]	@ 0x40
    955e:	0c69      	lsrs	r1, r5, #17
    9560:	00cc      	lsls	r4, r1, #3
    9562:	b900      	cbnz	r0, 0x9566
    9564:	40ee      	lsrs	r6, r5
    9566:	c740      	stmia	r7!, {r6}
    9568:	7514      	strb	r4, [r2, #20]
    956a:	423c      	tst	r4, r7
    956c:	0ec8      	lsrs	r0, r1, #27
    956e:	7504      	strb	r4, [r0, #20]
    9570:	405c      	eors	r4, r3
    9572:	98c7      	ldr	r0, [sp, #796]	@ 0x31c
    9574:	045b      	lsls	r3, r3, #17
    9576:	4c74      	ldr	r4, [pc, #464]	@ (0x9748)
    9578:	c761      	stmia	r7!, {r0, r5, r6}
    957a:	8423      	strh	r3, [r4, #32]
    957c:	439c      	bics	r4, r3
    957e:	c740      	stmia	r7!, {r6}
    9580:	3056      	adds	r0, #86	@ 0x56
    9582:	1443      	asrs	r3, r0, #17
    9584:	3c76      	subs	r4, #118	@ 0x76
    9586:	c842      	ldmia	r0!, {r1, r6}
    9588:	0414      	lsls	r4, r2, #16
    958a:	6c74      	ldr	r4, [r6, #68]	@ 0x44
    958c:	3305      	adds	r3, #5
    958e:	4054      	eors	r4, r2
    9590:	98c7      	ldr	r0, [sp, #796]	@ 0x31c
    9592:	041f      	lsls	r7, r3, #16
    9594:	5c76      	ldrb	r6, [r6, r1]
    9596:	c740      	stmia	r7!, {r6}
    9598:	1198      	asrs	r0, r3, #6
    959a:	7604      	strb	r4, [r0, #24]
    959c:	405c      	eors	r4, r3
    959e:	0ac7      	lsrs	r7, r0, #11
    95a0:	4703      	bx	r0
    95a2:	d041      	beq.n	0x9628
    95a4:	d2c6      	bcs.n	0x9534
    95a6:	1008      	asrs	r0, r1, #32
    95a8:	0412      	lsls	r2, r2, #16
    95aa:	4c74      	ldr	r4, [pc, #464]	@ (0x977c)
    95ac:	c871      	ldmia	r0, {r0, r4, r5, r6}
    95ae:	7221      	strb	r1, [r4, #8]
    95b0:	040e      	lsls	r6, r1, #16
    95b2:	4c74      	ldr	r4, [pc, #464]	@ (0x9784)
    95b4:	c751      	stmia	r7!, {r0, r4, r6}
    95b6:	9423      	str	r4, [sp, #140]	@ 0x8c
    95b8:	0473      	lsls	r3, r6, #17
    95ba:	ac75      	add	r4, sp, #468	@ 0x1d4
    95bc:	1005      	asrs	r5, r0, #32
    95be:	ec43 4040 	mcrr	0, 4, r4, r3, cr0
    95c2:	21c7      	movs	r1, #199	@ 0xc7
    95c4:	c731      	stmia	r7!, {r0, r4, r5}
    95c6:	7404      	strb	r4, [r0, #16]
    95c8:	301c      	adds	r0, #28
    95ca:	463c      	mov	r4, r7
    95cc:	cef1      	ldmia	r6, {r0, r4, r5, r6, r7}
    95ce:	19c0      	adds	r0, r0, r7
    95d0:	b6d2      			@ <UNDEFINED> instruction: 0xb6d2
    95d2:	c0c6      	stmia	r0!, {r1, r2, r6, r7}
    95d4:	482e      	ldr	r0, [pc, #184]	@ (0x9690)
    95d6:	6d21      	ldr	r1, [r4, #80]	@ 0x50
    95d8:	0c67      	lsrs	r7, r4, #17
    95da:	ba99      	hlt	0x0019
    95dc:	00a0      	lsls	r0, r4, #2
    95de:	4010      	ands	r0, r2
    95e0:	99cf      	ldr	r1, [sp, #828]	@ 0x33c
    95e2:	10ac      	asrs	r4, r5, #2
    95e4:	70a3      	strb	r3, [r4, #2]
    95e6:	30ac      	adds	r0, #172	@ 0xac
    95e8:	cef0      	ldmia	r6, {r4, r5, r6, r7}
    95ea:	9a99      	ldr	r2, [sp, #612]	@ 0x264
    95ec:	30a0      	adds	r0, #160	@ 0xa0
    95ee:	cef0      	ldmia	r6, {r4, r5, r6, r7}
    95f0:	8e99      	ldrh	r1, [r3, #52]	@ 0x34
    95f2:	2310      	movs	r3, #16
    95f4:	c319      	stmia	r3!, {r0, r3, r4}
    95f6:	8050      	strh	r0, [r2, #2]
    95f8:	473d      	bx	r7
    95fa:	c7f0      	stmia	r7!, {r4, r5, r6, r7}
    95fc:	c092      	stmia	r0!, {r1, r4, r7}
    95fe:	f80c 1a8f 	strb.w	r1, [ip, <undefined>]
    9602:	f045 14c7 	orr.w	r4, r5, #13041863	@ 0xc700c7
    9606:	3c82      	subs	r4, #130	@ 0x82
    9608:	8842      	ldrh	r2, [r0, #2]
    960a:	0435      	lsls	r5, r6, #16
    960c:	8c7f      	ldrh	r7, [r7, #34]	@ 0x22
    960e:	0d10      	lsrs	r0, r2, #20
    9610:	7f04      	ldrb	r4, [r0, #28]
    9612:	631c      	str	r4, [r3, #48]	@ 0x30
    9614:	4c6f      	ldr	r4, [pc, #444]	@ (0x97d4)
    9616:	c7f0      	stmia	r7!, {r4, r5, r6, r7}
    9618:	b211      	sxth	r1, r2
    961a:	1013      	asrs	r3, r2, #32
    961c:	ec8a 1482 	cfstrs	mvf1, [sl], {130}	@ 0x82
    9620:	76d2      	strb	r2, [r2, #27]
    9622:	80c6      	strh	r6, [r0, #6]
    9624:	a229      	add	r2, pc, #164	@ (adr r2, 0x96cc)
    9626:	7030      	strb	r0, [r6, #0]
    9628:	9814      	ldr	r0, [sp, #80]	@ 0x50
    962a:	2117      	movs	r1, #23
    962c:	c6d8      	stmia	r6!, {r3, r4, r6, r7}
    962e:	030a      	lsls	r2, r1, #12
    9630:	e147      	b.n	0x98c2
    9632:	0a3f      	lsrs	r7, r7, #8
    9634:	4703      	bx	r0
    9636:	1461      	asrs	r1, r4, #17
    9638:	fcef 102d 	stc2l	0, cr1, [pc], #180	@ 0x96f0
    963c:	aedf      	add	r6, sp, #892	@ 0x37c
    963e:	7000      	strb	r0, [r0, #0]
    9640:	0a04      	lsrs	r4, r0, #8
    9642:	4700      	bx	r0
    9644:	0041      	lsls	r1, r0, #1
    9646:	47c7      			@ <UNDEFINED> instruction: 0x47c7
    9648:	0510      	lsls	r0, r2, #20
    964a:	00c7      	lsls	r7, r0, #3
    964c:	e121      	b.n	0x9892
    964e:	8cf7      	ldrh	r7, [r6, #38]	@ 0x26
    9650:	1900      	adds	r0, r0, r4
    9652:	018c      	lsls	r4, r1, #6
    9654:	8c13      	ldrh	r3, [r2, #32]
    9656:	0d02      	lsrs	r2, r0, #20
    9658:	38c2      	subs	r0, #194	@ 0xc2
    965a:	13b0      	asrs	r0, r6, #14
    965c:	c799      	stmia	r7!, {r0, r3, r4, r7}
    965e:	6311      	str	r1, [r2, #48]	@ 0x30
    9660:	c312      	stmia	r3!, {r1, r4}
    9662:	9050      	str	r0, [sp, #320]	@ 0x140
    9664:	11bd      	asrs	r5, r7, #6
    9666:	7dd3      	ldrb	r3, [r2, #23]
    9668:	f0c7 0fdf 			@ <UNDEFINED> instruction: 0xf0c70fdf
    966c:	b6c2      			@ <UNDEFINED> instruction: 0xb6c2
    966e:	c0c6      	stmia	r0!, {r1, r2, r6, r7}
    9670:	000c      	movs	r4, r1
    9672:	db90      	blt.n	0x9596
    9674:	040d      	lsls	r5, r1, #16
    9676:	4c77      	ldr	r4, [pc, #476]	@ (0x9854)
    9678:	c781      	stmia	r7!, {r0, r7}
    967a:	2423      	movs	r4, #35	@ 0x23
    967c:	0e32      	lsrs	r2, r6, #24
    967e:	7804      	ldrb	r4, [r0, #0]
    9680:	705c      	strb	r4, [r3, #1]
    9682:	98c7      	ldr	r0, [sp, #796]	@ 0x31c
    9684:	504a      	str	r2, [r1, r1]
    9686:	1c77      	adds	r7, r6, #1
    9688:	3220      	adds	r2, #32
    968a:	4630      	mov	r0, r6
    968c:	1080      	asrs	r0, r0, #2
    968e:	7714      	strb	r4, [r2, #28]
    9690:	423c      	tst	r4, r7
    9692:	14c8      	asrs	r0, r1, #19
    9694:	7704      	strb	r4, [r0, #28]
    9696:	056c      	lsls	r4, r5, #21
    9698:	54a2      	strb	r2, [r4, r2]
    969a:	c770      	stmia	r7!, {r4, r5, r6}
    969c:	1898      	adds	r0, r3, r2
    969e:	7751      	strb	r1, [r2, #29]
    96a0:	e01c      	b.n	0x96dc
    96a2:	517e      	str	r6, [r7, r5]
    96a4:	1c77      	adds	r7, r6, #1
    96a6:	30a0      	adds	r0, #160	@ 0xa0
    96a8:	1470      	asrs	r0, r6, #17
    96aa:	7004      	strb	r4, [r0, #0]
    96ac:	8d2c      	ldrh	r4, [r5, #40]	@ 0x28
    96ae:	2300      	movs	r3, #0
    96b0:	7041      	strb	r1, [r0, #1]
    96b2:	5ac7      	ldrh	r7, [r0, r3]
    96b4:	2101      	movs	r1, #1
    96b6:	0d38      	lsrs	r0, r7, #20
    96b8:	7704      	strb	r4, [r0, #28]
    96ba:	814c      	strh	r4, [r1, #10]
    96bc:	23c7      	movs	r3, #199	@ 0xc7
    96be:	7394      	strb	r4, [r2, #14]
    96c0:	7804      	ldrb	r4, [r0, #0]
    96c2:	05ac      	lsls	r4, r5, #22
    96c4:	8310      	strh	r0, [r2, #24]
    96c6:	40d9      	lsrs	r1, r3
    96c8:	c770      	stmia	r7!, {r4, r5, r6}
    96ca:	a621      	add	r6, pc, #132	@ (adr r6, 0x9750)
    96cc:	04c5      	lsls	r5, r0, #19
    96ce:	1c77      	adds	r7, r6, #1
    96d0:	2ad0      	cmp	r2, #208	@ 0xd0
    96d2:	f146 c0ce 	blx	0xd4f870
    96d6:	d219      	bcs.n	0x970c
    96d8:	c696      	stmia	r6!, {r1, r2, r4, r7}
    96da:	2ec0      	cmp	r6, #192	@ 0xc0
    96dc:	2148      	movs	r1, #72	@ 0x48
    96de:	676d      	str	r5, [r5, #116]	@ 0x74
    96e0:	990c      	ldr	r1, [sp, #48]	@ 0x30
    96e2:	a0bd      	add	r0, pc, #756	@ (adr r0, 0x99d8)
    96e4:	1030      	asrs	r0, r6, #32
    96e6:	bed0      	bkpt	0x00d0
    96e8:	af99      	add	r7, sp, #612	@ 0x264
    96ea:	f310 ac57 	bgt.w	0xd9f9c
    96ee:	f030 99ce 	b.w	0x839a8e
    96f2:	a09d      	add	r0, pc, #628	@ (adr r0, 0x9968)
    96f4:	f030 99ce 	b.w	0x839a94
    96f8:	1091      	asrs	r1, r2, #2
    96fa:	08b3      	lsrs	r3, r6, #2
    96fc:	a0c3      	add	r0, pc, #780	@ (adr r0, 0x9a0c)
    96fe:	6d80      	ldr	r0, [r0, #88]	@ 0x58
    9700:	a047      	add	r0, pc, #284	@ (adr r0, 0x9820)
    9702:	92c7      	str	r2, [sp, #796]	@ 0x31c
    9704:	0cc0      	lsrs	r0, r0, #19
    9706:	8ff8      	ldrh	r0, [r7, #62]	@ 0x3e
    9708:	454a      	cmp	r2, r9
    970a:	c7a0      	stmia	r7!, {r5, r7}
    970c:	7e14      	ldrb	r4, [r2, #24]
    970e:	423c      	tst	r4, r7
    9710:	38f8      	subs	r0, #248	@ 0xf8
    9712:	7a04      	ldrb	r4, [r0, #8]
    9714:	0a2c      	lsrs	r4, r5, #8
    9716:	0d01      	lsrs	r1, r0, #20
    9718:	7a04      	ldrb	r4, [r0, #8]
    971a:	d31c      	bcc.n	0x9756
    971c:	4c59      	ldr	r4, [pc, #356]	@ (0x9884)
    971e:	c7a0      	stmia	r7!, {r5, r7}
    9720:	9811      	ldr	r0, [sp, #68]	@ 0x44
    9722:	8312      	strh	r2, [r2, #24]
    9724:	cf79      	ldmia	r7!, {r0, r3, r4, r5, r6}
    9726:	482e      	ldr	r0, [pc, #184]	@ (0x97e0)
    9728:	6d21      	ldr	r1, [r4, #80]	@ 0x50
    972a:	0c67      	lsrs	r7, r4, #17
    972c:	2298      	movs	r2, #152	@ 0x98
    972e:	030a      	lsls	r2, r1, #12
    9730:	8147      	strh	r7, [r0, #10]
    9732:	a179      	add	r1, pc, #484	@ (adr r1, 0x9918)
    9734:	7030      	strb	r0, [r6, #0]
    9736:	2114      	movs	r1, #20
    9738:	c57b      	stmia	r5!, {r0, r1, r3, r4, r5, r6}
    973a:	a3fe      	add	r3, pc, #1016	@ (adr r3, 0x9b34)
    973c:	7030      	strb	r0, [r6, #0]
    973e:	4614      	mov	r4, r2
    9740:	cef1      	ldmia	r6, {r0, r4, r5, r6, r7}
    9742:	02df      	lsls	r7, r3, #11
    9744:	dff1      	svc	241	@ 0xf1
    9746:	00ae      	lsls	r6, r5, #2
    9748:	0470      	lsls	r0, r6, #17
    974a:	000a      	movs	r2, r1
    974c:	4147      	adcs	r7, r0
    974e:	c6f0      	stmia	r6!, {r4, r5, r6, r7}
    9750:	1047      	asrs	r7, r0, #1
    9752:	c6f5      	stmia	r6!, {r0, r2, r4, r5, r6, r7}
    9754:	2100      	movs	r1, #0
    9756:	f6d8 008c 			@ <UNDEFINED> instruction: 0xf6d8008c
    975a:	8c19      	ldrh	r1, [r3, #32]
    975c:	1301      	asrs	r1, r0, #12
    975e:	028c      	lsls	r4, r1, #10
    9760:	c20d      	stmia	r2!, {r0, r2, r3}
    9762:	b038      	add	sp, #224	@ 0xe0
    9764:	9914      	ldr	r1, [sp, #80]	@ 0x50
    9766:	11d5      	asrs	r5, r2, #7
    9768:	01d3      	lsls	r3, r2, #7
    976a:	a0c3      	add	r0, pc, #780	@ (adr r0, 0x9a78)
    976c:	bd90      	pop	{r4, r7, pc}
    976e:	d312      	bcc.n	0x9796
    9770:	c77d      	stmia	r7!, {r0, r2, r3, r4, r5, r6}
    9772:	dff0      	svc	240	@ 0xf0
    9774:	c210      	stmia	r2!, {r4}
    9776:	c6b6      	stmia	r6!, {r1, r2, r4, r5, r7}
    9778:	0cc0      	lsrs	r0, r0, #19
    977a:	9000      	str	r0, [sp, #0]
    977c:	0edb      	lsrs	r3, r3, #27
    977e:	7704      	strb	r4, [r0, #28]
    9780:	814c      	strh	r4, [r1, #10]
    9782:	23c7      	movs	r3, #199	@ 0xc7
    9784:	ec84 8040 	stc	0, cr8, [r4], {64}	@ 0x40
    9788:	05c7      	lsls	r7, r0, #23
    978a:	8c77      	ldrh	r7, [r6, #34]	@ 0x22
    978c:	45b9      	cmp	r9, r7
    978e:	c770      	stmia	r7!, {r4, r5, r6}
    9790:	7914      	ldrb	r4, [r2, #4]
    9792:	423c      	tst	r4, r7
    9794:	39c8      	subs	r1, #200	@ 0xc8
    9796:	7704      	strb	r4, [r0, #28]
    9798:	056c      	lsls	r4, r5, #21
    979a:	4433      	add	r3, r6
    979c:	c791      	stmia	r7!, {r0, r4, r7}
    979e:	8423      	strh	r3, [r4, #32]
    97a0:	414c      	adcs	r4, r1
    97a2:	c770      	stmia	r7!, {r4, r5, r6}
    97a4:	3056      	adds	r0, #86	@ 0x56
    97a6:	0543      	lsls	r3, r0, #21
    97a8:	8c77      	ldrh	r7, [r6, #34]	@ 0x22
    97aa:	41f9      	rors	r1, r7
    97ac:	c790      	stmia	r7!, {r4, r7}
    97ae:	7705      	strb	r5, [r0, #28]
    97b0:	198c      	adds	r4, r1, r6
    97b2:	9041      	str	r0, [sp, #260]	@ 0x104
    97b4:	05c7      	lsls	r7, r0, #23
    97b6:	ac77      	add	r4, sp, #476	@ 0x1dc
    97b8:	7030      	strb	r0, [r6, #0]
    97ba:	0414      	lsls	r4, r2, #16
    97bc:	2c6f      	cmp	r4, #111	@ 0x6f
    97be:	008d      	lsls	r5, r1, #2
    97c0:	4121      	asrs	r1, r4
    97c2:	c770      	stmia	r7!, {r4, r5, r6}
    97c4:	015a      	lsls	r2, r3, #5
    97c6:	2721      	movs	r7, #33	@ 0x21
    97c8:	040c      	lsls	r4, r1, #16
    97ca:	4c77      	ldr	r4, [pc, #476]	@ (0x99a8)
    97cc:	c781      	stmia	r7!, {r0, r7}
    97ce:	9423      	str	r4, [sp, #140]	@ 0x8c
    97d0:	0473      	lsls	r3, r6, #17
    97d2:	ac78      	add	r4, sp, #480	@ 0x1e0
    97d4:	1005      	asrs	r5, r0, #32
    97d6:	c873      	ldmia	r0, {r0, r1, r4, r5, r6}
    97d8:	7040      	strb	r0, [r0, #1]
    97da:	21c7      	movs	r1, #199	@ 0xc7
    97dc:	c495      	stmia	r4!, {r0, r2, r4, r7}
    97de:	7704      	strb	r4, [r0, #28]
    97e0:	c01c      	stmia	r0!, {r2, r3, r4}
    97e2:	4619      	mov	r1, r3
    97e4:	cef1      	ldmia	r6, {r0, r4, r5, r6, r7}
    97e6:	19c0      	adds	r0, r0, r7
    97e8:	96d2      	str	r6, [sp, #840]	@ 0x348
    97ea:	c0c6      	stmia	r0!, {r1, r2, r6, r7}
    97ec:	482e      	ldr	r0, [pc, #184]	@ (0x98a8)
    97ee:	6d21      	ldr	r1, [r4, #80]	@ 0x50
    97f0:	0c67      	lsrs	r7, r4, #17
    97f2:	bb99      	cbnz	r1, 0x985c
    97f4:	20a0      	movs	r0, #160	@ 0xa0
    97f6:	c010      	stmia	r0!, {r4}
    97f8:	99ad      	ldr	r1, [sp, #692]	@ 0x2b4
    97fa:	10ad      	asrs	r5, r5, #2
    97fc:	46e3      	mov	fp, ip
    97fe:	30ac      	adds	r0, #172	@ 0xac
    9800:	cef0      	ldmia	r6, {r4, r5, r6, r7}
    9802:	9b99      	ldr	r3, [sp, #612]	@ 0x264
    9804:	30a0      	adds	r0, #160	@ 0xa0
    9806:	cef0      	ldmia	r6, {r4, r5, r6, r7}
    9808:	8f99      	ldrh	r1, [r3, #60]	@ 0x3c
    980a:	a310      	add	r3, pc, #64	@ (adr r3, 0x984c)
    980c:	c2f7      	stmia	r2!, {r0, r1, r2, r4, r5, r6, r7}
    980e:	80a0      	strh	r0, [r4, #4]
    9810:	474d      	bx	r9
    9812:	c7a0      	stmia	r7!, {r5, r7}
    9814:	c092      	stmia	r0!, {r1, r4, r7}
    9816:	f80c 2a8f 	strb.w	r2, [ip, <undefined>]
    981a:	a045      	add	r0, pc, #276	@ (adr r0, 0x9930)
    981c:	14c7      	asrs	r7, r0, #19
    981e:	3c7d      	subs	r4, #125	@ 0x7d
    9820:	8842      	ldrh	r2, [r0, #2]
    9822:	0436      	lsls	r6, r6, #16
    9824:	8c7a      	ldrh	r2, [r7, #34]	@ 0x22
    9826:	0d10      	lsrs	r0, r2, #20
    9828:	7a04      	ldrb	r4, [r0, #8]
    982a:	d31c      	bcc.n	0x9866
    982c:	4c48      	ldr	r4, [pc, #288]	@ (0x9950)
    982e:	c7a0      	stmia	r7!, {r5, r7}
    9830:	8811      	ldrh	r1, [r2, #0]
    9832:	8311      	strh	r1, [r2, #24]
    9834:	cf68      	ldmia	r7!, {r3, r5, r6}
    9836:	482e      	ldr	r0, [pc, #184]	@ (0x98f0)
    9838:	6d21      	ldr	r1, [r4, #80]	@ 0x50
    983a:	0c67      	lsrs	r7, r4, #17
    983c:	2298      	movs	r2, #152	@ 0x98
    983e:	030a      	lsls	r2, r1, #12
    9840:	8147      	strh	r7, [r0, #10]
    9842:	a179      	add	r1, pc, #484	@ (adr r1, 0x9a28)
    9844:	7030      	strb	r0, [r6, #0]
    9846:	2114      	movs	r1, #20
    9848:	c46b      	stmia	r4!, {r0, r1, r3, r5, r6}
    984a:	a3fe      	add	r3, pc, #1016	@ (adr r3, 0x9c44)
    984c:	7030      	strb	r0, [r6, #0]
    984e:	4614      	mov	r4, r2
    9850:	cef1      	ldmia	r6, {r0, r4, r5, r6, r7}
    9852:	02df      	lsls	r7, r3, #11
    9854:	21f1      	movs	r1, #241	@ 0xf1
    9856:	f5d8 008c 	rsbs	r0, r8, #4587520	@ 0x460000
    985a:	8c0c      	ldrh	r4, [r1, #32]
    985c:	0601      	lsls	r1, r0, #24
    985e:	028d      	lsls	r5, r1, #10
    9860:	212c      	movs	r1, #44	@ 0x2c
    9862:	2f24      	cmp	r7, #36	@ 0x24
    9864:	0a0c      	lsrs	r4, r1, #8
    9866:	1ed8      	subs	r0, r3, #3
    9868:	7704      	strb	r4, [r0, #28]
    986a:	914c      	str	r1, [sp, #304]	@ 0x130
    986c:	23c7      	movs	r3, #199	@ 0xc7
    986e:	7294      	strb	r4, [r2, #10]
    9870:	7904      	ldrb	r4, [r0, #4]
    9872:	108c      	asrs	r4, r1, #2
    9874:	fc21 10c3 	stc2	0, cr1, [r1], #-780	@ 0xfffffcf4
    9878:	1010      	asrs	r0, r2, #32
    987a:	4fdf      	ldr	r7, [pc, #892]	@ (0x9bf8)
    987c:	c740      	stmia	r7!, {r6}
    987e:	7514      	strb	r4, [r2, #20]
    9880:	423c      	tst	r4, r7
    9882:	32b8      	adds	r2, #184	@ 0xb8
    9884:	7704      	strb	r4, [r0, #28]
    9886:	814c      	strh	r4, [r1, #10]
    9888:	23c7      	movs	r3, #199	@ 0xc7
    988a:	1b84      	subs	r4, r0, r6
    988c:	f042 14c7 	orr.w	r4, r2, #13041863	@ 0xc700c7
    9890:	3c80      	subs	r4, #128	@ 0x80
    9892:	b842      			@ <UNDEFINED> instruction: 0xb842
    9894:	0410      	lsls	r0, r2, #16
    9896:	4c7a      	ldr	r4, [pc, #488]	@ (0x9a80)
    9898:	c7b1      	stmia	r7!, {r0, r4, r5, r7}
    989a:	9423      	str	r4, [sp, #140]	@ 0x8c
    989c:	0a50      	lsrs	r0, r2, #9
    989e:	4701      	bx	r0
    98a0:	3fe0      	subs	r7, #224	@ 0xe0
    98a2:	000a      	movs	r2, r1
    98a4:	6047      	str	r7, [r0, #4]
    98a6:	df04      	svc	4
    98a8:	f101 96c2 	b.w	0xd0b630
    98ac:	c0c6      	stmia	r0!, {r1, r2, r6, r7}
    98ae:	000c      	movs	r4, r1
    98b0:	3220      	adds	r2, #32
    98b2:	c210      	stmia	r2!, {r4}
    98b4:	c696      	stmia	r6!, {r1, r2, r4, r7}
    98b6:	4420      	add	r0, r4
    98b8:	0001      	movs	r1, r0
    98ba:	c249      	stmia	r2!, {r0, r3, r6}
    98bc:	c6b6      	stmia	r6!, {r1, r2, r4, r5, r7}
    98be:	0cc0      	lsrs	r0, r0, #19
    98c0:	2000      	movs	r0, #0
    98c2:	1032      	asrs	r2, r6, #32
    98c4:	b6c2      			@ <UNDEFINED> instruction: 0xb6c2
    98c6:	20c6      	movs	r0, #198	@ 0xc6
    98c8:	0144      	lsls	r4, r0, #5
    98ca:	4900      	ldr	r1, [pc, #0]	@ (0x98cc)
    98cc:	76c2      	strb	r2, [r0, #27]
    98ce:	c0c6      	stmia	r0!, {r1, r2, r6, r7}
    98d0:	000c      	movs	r4, r1
    98d2:	3320      	adds	r3, #32
    98d4:	2151      	movs	r1, #81	@ 0x51
    98d6:	676c      	str	r4, [r5, #116]	@ 0x74
    98d8:	420c      	tst	r4, r1
    98da:	0014      	movs	r4, r2
    98dc:	2490      	movs	r4, #144	@ 0x90
    98de:	676c      	str	r4, [r5, #116]	@ 0x74
    98e0:	cc0c      	ldmia	r4!, {r2, r3}
    98e2:	00fa      	lsls	r2, r7, #3
    98e4:	58b8      	ldr	r0, [r7, r2]
    98e6:	7704      	strb	r4, [r0, #28]
    98e8:	814c      	strh	r4, [r1, #10]
    98ea:	23c7      	movs	r3, #199	@ 0xc7
    98ec:	3094      	adds	r0, #148	@ 0x94
    98ee:	7c21      	ldrb	r1, [r4, #16]
    98f0:	04c3      	lsls	r3, r0, #19
    98f2:	4c74      	ldr	r4, [pc, #464]	@ (0x9ac4)
    98f4:	c751      	stmia	r7!, {r0, r4, r6}
    98f6:	9423      	str	r4, [sp, #140]	@ 0x8c
    98f8:	2130      	movs	r1, #48	@ 0x30
    98fa:	c3f5      	stmia	r3!, {r0, r2, r4, r5, r6, r7}
    98fc:	7a04      	ldrb	r4, [r0, #8]
    98fe:	b14c      	cbz	r4, 0x9914
    9900:	23c7      	movs	r3, #199	@ 0xc7
    9902:	3094      	adds	r0, #148	@ 0x94
    9904:	ae21      	add	r6, sp, #132	@ 0x84
    9906:	04c3      	lsls	r3, r0, #19
    9908:	4c7f      	ldr	r4, [pc, #508]	@ (0x9b08)
    990a:	c801      	ldmia	r0, {r0}
    990c:	9423      	str	r4, [sp, #140]	@ 0x8c
    990e:	2130      	movs	r1, #48	@ 0x30
    9910:	c3f4      	stmia	r3!, {r2, r4, r5, r6, r7}
    9912:	76c2      	strb	r2, [r0, #27]
    9914:	c0c6      	stmia	r0!, {r1, r2, r6, r7}
    9916:	000c      	movs	r4, r1
    9918:	6b90      	ldr	r0, [r2, #56]	@ 0x38
    991a:	040c      	lsls	r4, r1, #16
    991c:	4c77      	ldr	r4, [pc, #476]	@ (0x9afc)
    991e:	c781      	stmia	r7!, {r0, r7}
    9920:	8423      	strh	r3, [r4, #32]
    9922:	42da      	cmn	r2, r3
    9924:	c780      	stmia	r7!, {r7}
    9926:	7705      	strb	r5, [r0, #28]
    9928:	704c      	strb	r4, [r1, #1]
    992a:	5ac7      	ldrh	r7, [r0, r3]
    992c:	2101      	movs	r1, #1
    992e:	0b30      	lsrs	r0, r6, #12
    9930:	7704      	strb	r4, [r0, #28]
    9932:	801c      	strh	r4, [r3, #0]
    9934:	0406      	lsls	r6, r0, #16
    9936:	1c77      	adds	r7, r6, #1
    9938:	0450      	lsls	r0, r2, #17
    993a:	7404      	strb	r4, [r0, #16]
    993c:	514c      	str	r4, [r1, r5]
    993e:	23c7      	movs	r3, #199	@ 0xc7
    9940:	da84      	bge.n	0x984c
    9942:	5042      	str	r2, [r0, r1]
    9944:	05c7      	lsls	r7, r0, #23
    9946:	4c74      	ldr	r4, [pc, #464]	@ (0x9b18)
    9948:	c740      	stmia	r7!, {r6}
    994a:	015a      	lsls	r2, r3, #5
    994c:	3621      	adds	r6, #33	@ 0x21
    994e:	040b      	lsls	r3, r1, #16
    9950:	1c74      	adds	r4, r6, #1
    9952:	0580      	lsls	r0, r0, #22
    9954:	7404      	strb	r4, [r0, #16]
    9956:	501c      	str	r4, [r3, r0]
    9958:	0403      	lsls	r3, r0, #16
    995a:	4c7a      	ldr	r4, [pc, #488]	@ (0x9b44)
    995c:	c7b1      	stmia	r7!, {r0, r4, r5, r7}
    995e:	8423      	strh	r3, [r4, #32]
    9960:	414a      	adcs	r2, r1
    9962:	c7b0      	stmia	r7!, {r4, r5, r7}
    9964:	7a05      	ldrb	r5, [r0, #8]
    9966:	a04c      	add	r0, pc, #304	@ (adr r0, 0x9a98)
    9968:	11c7      	asrs	r7, r0, #7
    996a:	404f      	eors	r7, r1
    996c:	c7f0      	stmia	r7!, {r4, r5, r6, r7}
    996e:	8014      	strh	r4, [r2, #0]
    9970:	423c      	tst	r4, r7
    9972:	14a8      	asrs	r0, r5, #18
    9974:	8004      	strh	r4, [r0, #0]
    9976:	f05c 04c7 	orrs.w	r4, ip, #199	@ 0xc7
    997a:	1c7f      	adds	r7, r7, #1
    997c:	04f0      	lsls	r0, r6, #19
    997e:	df10      	svc	16
    9980:	047f      	lsls	r7, r7, #17
    9982:	c046      	stmia	r0!, {r1, r2, r6}
    9984:	9ff8      	ldr	r7, [sp, #992]	@ 0x3e0
    9986:	0460      	lsls	r0, r4, #17
    9988:	f721 dfc2 	bl	0xff72b910
    998c:	f101 7fdf 	add.w	pc, r1, #29229056	@ 0x1be0000
    9990:	4604      	mov	r4, r0
    9992:	f8c0 609f 	str.w	r6, [r0, #159]	@ 0x9f
    9996:	2104      	movs	r1, #4
    9998:	c2ff      	stmia	r2!, {r0, r1, r2, r3, r4, r5, r6, r7}
    999a:	01df      	lsls	r7, r3, #7
    999c:	dff1      	svc	241	@ 0xf1
    999e:	047f      	lsls	r7, r7, #17
    99a0:	c046      	stmia	r0!, {r1, r2, r6}
    99a2:	9ff8      	ldr	r7, [sp, #992]	@ 0x3e0
    99a4:	0460      	lsls	r0, r4, #17
    99a6:	1321      	asrs	r1, r4, #12
    99a8:	dfc6      	svc	198	@ 0xc6
    99aa:	f101 7fdf 	add.w	pc, r1, #29229056	@ 0x1be0000
    99ae:	4604      	mov	r4, r0
    99b0:	f8c0 609f 	str.w	r6, [r0, #159]	@ 0x9f
    99b4:	2104      	movs	r1, #4
    99b6:	c611      	stmia	r6!, {r0, r4}
    99b8:	01df      	lsls	r7, r3, #7
    99ba:	dff1      	svc	241	@ 0xf1
    99bc:	047f      	lsls	r7, r7, #17
    99be:	2046      	movs	r0, #70	@ 0x46
    99c0:	cc09      	ldmia	r4!, {r0, r3}
    99c2:	ff80 6419 	vmov.i32	d6, #8978432	@ 0x00890000
    99c6:	2104      	movs	r1, #4
    99c8:	c300      	stmia	r3!, {}
    99ca:	01df      	lsls	r7, r3, #7
    99cc:	dff1      	svc	241	@ 0xf1
    99ce:	047f      	lsls	r7, r7, #17
    99d0:	2046      	movs	r0, #70	@ 0x46
    99d2:	cc09      	ldmia	r4!, {r0, r3}
    99d4:	ff80 6419 	vmov.i32	d6, #8978432	@ 0x00890000
    99d8:	2104      	movs	r1, #4
    99da:	c33f      	stmia	r3!, {r0, r1, r2, r3, r4, r5}
    99dc:	01df      	lsls	r7, r3, #7
    99de:	dff1      	svc	241	@ 0xf1
    99e0:	047e      	lsls	r6, r7, #17
    99e2:	000a      	movs	r2, r1
    99e4:	6147      	str	r7, [r0, #20]
    99e6:	8c04      	ldrh	r4, [r0, #32]
    99e8:	1f00      	subs	r0, r0, #4
    99ea:	c046      	stmia	r0!, {r1, r2, r6}
    99ec:	6018      	str	r0, [r3, #0]
    99ee:	0461      	lsls	r1, r4, #17
    99f0:	028c      	lsls	r4, r1, #10
    99f2:	4617      	mov	r7, r2
    99f4:	38c0      	subs	r0, #192	@ 0xc0
    99f6:	80e0      	strh	r0, [r4, #6]
    99f8:	a119      	add	r1, pc, #100	@ (adr r1, 0x9a60)
    99fa:	7010      	strb	r0, [r2, #0]
    99fc:	fe14 10a3 	cdp2	0, 1, cr1, cr4, cr3, {5}
    9a00:	1470      	asrs	r0, r6, #17
    9a02:	f146 102d 	adc.w	r0, r6, #2949165	@ 0x2d002d
    9a06:	7fdf      	ldrb	r7, [r3, #31]
    9a08:	4604      	mov	r4, r0
    9a0a:	2010      	movs	r0, #16
    9a0c:	8dfd      	ldrh	r5, [r7, #46]	@ 0x2e
    9a0e:	3c01      	subs	r4, #1
    9a10:	6ded      	ldr	r5, [r5, #92]	@ 0x5c
    9a12:	460c      	mov	r4, r1
    9a14:	8820      	ldrh	r0, [r4, #0]
    9a16:	0c84      	lsrs	r4, r0, #18
    9a18:	c8ff      	ldmia	r0, {r0, r1, r2, r3, r4, r5, r6, r7}
    9a1a:	ed1f 0c6d 	ldc	12, cr0, [pc, #-436]	@ 0x9868
    9a1e:	2046      	movs	r0, #70	@ 0x46
    9a20:	8488      	strh	r0, [r1, #36]	@ 0x24
    9a22:	d108      	bne.n	0x9a36
    9a24:	c6de      	stmia	r6!, {r1, r2, r3, r4, r6, r7}
    9a26:	0560      	lsls	r0, r4, #21
    9a28:	5982      	ldr	r2, [r0, r6]
    9a2a:	2c08      	cmp	r4, #8
    9a2c:	2ef3      	cmp	r6, #243	@ 0xf3
    9a2e:	01df      	lsls	r7, r3, #7
    9a30:	dff1      	svc	241	@ 0xf1
    9a32:	057e      	lsls	r6, r7, #21
    9a34:	6147      	str	r7, [r0, #20]
    9a36:	1114      	asrs	r4, r2, #4
    9a38:	dfa5      	svc	165	@ 0xa5
    9a3a:	0018      	movs	r0, r3
    9a3c:	ded6      	udf	#214	@ 0xd6
    9a3e:	60c6      	str	r6, [r0, #12]
    9a40:	8214      	strh	r4, [r2, #16]
    9a42:	a848      	add	r0, sp, #288	@ 0x120
    9a44:	2ff5      	cmp	r7, #245	@ 0xf5
    9a46:	4a1a      	ldr	r2, [pc, #104]	@ (0x9ab0)
    9a48:	3056      	adds	r0, #86	@ 0x56
    9a4a:	c812      	ldmia	r0!, {r1, r4}
    9a4c:	ed26 0c6d 	stc	12, cr0, [r6, #-436]!	@ 0xfffffe4c
    9a50:	2146      	movs	r1, #70	@ 0x46
    9a52:	8488      	strh	r0, [r1, #36]	@ 0x24
    9a54:	3056      	adds	r0, #86	@ 0x56
    9a56:	ed43 0c6d 	stcl	12, cr0, [r3, #-436]	@ 0xfffffe4c
    9a5a:	2156      	movs	r1, #86	@ 0x56
    9a5c:	8598      	strh	r0, [r3, #44]	@ 0x2c
    9a5e:	1298      	asrs	r0, r3, #10
    9a60:	ff0a 6ded 	vpadd.f32	q3, q13, <illegal reg q14.5>
    9a64:	560c      	ldrsb	r4, [r1, r0]
    9a66:	9821      	ldr	r0, [sp, #132]	@ 0x84
    9a68:	c085      	stmia	r0!, {r0, r2, r7}
    9a6a:	ef32 2df2 	vmls.f16	q1, q9, q9
    9a6e:	1410      	asrs	r0, r2, #16
    9a70:	4c6f      	ldr	r4, [pc, #444]	@ (0x9c30)
    9a72:	c700      	stmia	r7!, {}
    9a74:	8123      	strh	r3, [r4, #8]
    9a76:	424c      	negs	r4, r1
    9a78:	c701      	stmia	r7!, {r0}
    9a7a:	6f04      	ldr	r4, [r0, #112]	@ 0x70
    9a7c:	1a2c      	subs	r4, r5, r0
    9a7e:	7015      	strb	r5, [r2, #0]
    9a80:	f51c 00c6 	adds.w	r0, ip, #6488064	@ 0x630000
    9a84:	7151      	strb	r1, [r2, #5]
    9a86:	800c      	strh	r4, [r1, #0]
    9a88:	4199      	sbcs	r1, r3
    9a8a:	c6f0      	stmia	r6!, {r4, r5, r6, r7}
    9a8c:	7014      	strb	r4, [r2, #0]
    9a8e:	4a2c      	ldr	r2, [pc, #176]	@ (0x9b40)
    9a90:	6f05      	ldr	r5, [r0, #112]	@ 0x70
    9a92:	051c      	lsls	r4, r3, #20
    9a94:	00c7      	lsls	r7, r0, #3
    9a96:	6d14      	ldr	r4, [r2, #80]	@ 0x50
    9a98:	e04c      	b.n	0x9b34
    9a9a:	23c6      	movs	r3, #198	@ 0xc6
    9a9c:	dc81      	bgt.n	0x99a2
    9a9e:	e141      	b.n	0x9d24
    9aa0:	04c6      	lsls	r6, r0, #19
    9aa2:	2c6d      	cmp	r4, #109	@ 0x6d
    9aa4:	151a      	asrs	r2, r3, #20
    9aa6:	1c6e      	adds	r6, r5, #1
    9aa8:	c6d5      	stmia	r6!, {r0, r2, r4, r6, r7}
    9aaa:	9800      	ldr	r0, [sp, #0]
    9aac:	0419      	lsls	r1, r3, #16
    9aae:	4c6d      	ldr	r4, [pc, #436]	@ (0x9c64)
    9ab0:	c6e1      	stmia	r6!, {r0, r5, r6, r7}
    9ab2:	54a2      	strb	r2, [r4, r2]
    9ab4:	c6d0      	stmia	r6!, {r4, r6, r7}
    9ab6:	6e51      	ldr	r1, [r2, #100]	@ 0x64
    9ab8:	000c      	movs	r4, r1
    9aba:	51f1      	str	r1, [r6, r7]
    9abc:	0c6d      	lsrs	r5, r5, #17
    9abe:	e510      	b.n	0x94e2
    9ac0:	00c6      	lsls	r6, r0, #3
    9ac2:	6f51      	ldr	r1, [r2, #116]	@ 0x74
    9ac4:	100c      	asrs	r4, r1, #32
    9ac6:	c705      	stmia	r7!, {r0, r2}
    9ac8:	5100      	str	r0, [r0, r4]
    9aca:	0c71      	lsrs	r1, r6, #17
    9acc:	f100 1ddf 	add.w	sp, r0, #14614751	@ 0xdf00df
    9ad0:	d773      	bvc.n	0x9bba
    9ad2:	0470      	lsls	r0, r6, #17
    9ad4:	5921      	ldr	r1, [r4, r4]
    9ad6:	47f3      			@ <UNDEFINED> instruction: 0x47f3
    9ad8:	1461      	asrs	r1, r4, #17
    9ada:	018c      	lsls	r4, r1, #6
    9adc:	4617      	mov	r7, r2
    9ade:	8d21      	ldrh	r1, [r4, #40]	@ 0x28
    9ae0:	c700      	stmia	r7!, {}
    9ae2:	dd30      	ble.n	0x9b46
    9ae4:	0c84      	lsrs	r4, r0, #18
    9ae6:	bb00      	cbnz	r0, 0x9b2a
    9ae8:	c310      	stmia	r3!, {r4}
    9aea:	c2c9      	stmia	r2!, {r0, r3, r6, r7}
    9aec:	9050      	str	r0, [sp, #320]	@ 0x140
    9aee:	0acd      	lsrs	r5, r1, #11
    9af0:	2a21      	cmp	r2, #33	@ 0x21
    9af2:	d2c6      	bcs.n	0x9a82
    9af4:	e018      	b.n	0x9b28
    9af6:	2109      	movs	r1, #9
    9af8:	c62f      	stmia	r6!, {r0, r1, r2, r3, r5}
    9afa:	18d2      	adds	r2, r2, r3
    9afc:	0900      	lsrs	r0, r0, #4
    9afe:	4dd3      	ldr	r5, [pc, #844]	@ (0x9e4c)
    9b00:	f0c7 084f 			@ <UNDEFINED> instruction: 0xf0c7084f
    9b04:	c046      	stmia	r0!, {r1, r2, r6}
    9b06:	2000      	movs	r0, #0
    9b08:	7832      	ldrb	r2, [r6, #0]
    9b0a:	7604      	strb	r4, [r0, #24]
    9b0c:	056c      	lsls	r4, r5, #21
    9b0e:	8423      	strh	r3, [r4, #32]
    9b10:	669d      	str	r5, [r3, #104]	@ 0x68
    9b12:	1404      	asrs	r4, r0, #16
    9b14:	3c74      	subs	r4, #116	@ 0x74
    9b16:	c842      	ldmia	r0!, {r1, r6}
    9b18:	0427      	lsls	r7, r4, #16
    9b1a:	6c74      	ldr	r4, [r6, #68]	@ 0x44
    9b1c:	a205      	add	r2, pc, #20	@ (adr r2, 0x9b34)
    9b1e:	2474      	movs	r4, #116	@ 0x74
    9b20:	020a      	lsls	r2, r1, #8
    9b22:	e911 10a8 	ldmdb	r1, {r3, r5, r7, ip}
    9b26:	2560      	movs	r5, #96	@ 0x60
    9b28:	0611      	lsls	r1, r2, #24
    9b2a:	398f      	subs	r1, #143	@ 0x8f
    9b2c:	0463      	lsls	r3, r4, #17
    9b2e:	7414      	strb	r4, [r2, #16]
    9b30:	423c      	tst	r4, r7
    9b32:	3322      	adds	r3, #34	@ 0x22
    9b34:	0462      	lsls	r2, r4, #17
    9b36:	7414      	strb	r4, [r2, #16]
    9b38:	4a2c      	ldr	r2, [pc, #176]	@ (0x9bec)
    9b3a:	a247      	add	r2, pc, #284	@ (adr r2, 0x9c58)
    9b3c:	1020      	asrs	r0, r4, #32
    9b3e:	8ce0      	ldrh	r0, [r4, #38]	@ 0x26
    9b40:	000a      	movs	r2, r1
    9b42:	1256      	asrs	r6, r2, #9
    9b44:	eeb0 03df 	mrc	3, 5, r0, cr0, cr15, {6}
    9b48:	dff1      	svc	241	@ 0xf1
    9b4a:	35fb      	adds	r5, #251	@ 0xfb
    9b4c:	00c0      	lsls	r0, r0, #3
    9b4e:	a6d2      	add	r6, pc, #840	@ (adr r6, 0x9e98)
    9b50:	00c8      	lsls	r0, r1, #3
    9b52:	200c      	movs	r0, #12
    9b54:	886d      	ldrh	r5, [r5, #2]
    9b56:	510c      	str	r4, [r1, r4]
    9b58:	0d3c      	lsrs	r4, r7, #20
    9b5a:	d510      	bpl.n	0x9b7e
    9b5c:	00d3      	lsls	r3, r2, #3
    9b5e:	3e51      	subs	r6, #81	@ 0x51
    9b60:	300d      	adds	r0, #13
    9b62:	821e      	strh	r6, [r3, #16]
    9b64:	073e      	lsls	r6, r7, #28
    9b66:	010a      	lsls	r2, r1, #4
    9b68:	a2ee      	add	r2, pc, #952	@ (adr r2, 0x9f24)
    9b6a:	5000      	str	r0, [r0, r0]
    9b6c:	d3f0      	bcc.n	0x9b50
    9b6e:	02c0      	lsls	r0, r0, #11
    9b70:	46d2      	mov	sl, sl
    9b72:	00d4      	lsls	r4, r2, #3
    9b74:	232c      	movs	r3, #44	@ 0x2c
    9b76:	4d6d      	ldr	r5, [pc, #436]	@ (0x9d2c)
    9b78:	ec0d 05dc 	cfstr32	mvfx0, [sp], {220}	@ 0xdc
    9b7c:	f6d2 10d4 			@ <UNDEFINED> instruction: 0xf6d210d4
    9b80:	d515      	bpl.n	0x9bae
    9b82:	5105      	str	r5, [r0, r4]
    9b84:	0d54      	lsrs	r4, r2, #21
    9b86:	3510      	adds	r5, #16
    9b88:	00d5      	lsls	r5, r2, #3
    9b8a:	a321      	add	r3, pc, #132	@ (adr r3, 0x9c10)
    9b8c:	8df2      	ldrh	r2, [r6, #46]	@ 0x2e
    9b8e:	0a01      	lsrs	r1, r0, #8
    9b90:	5651      	ldrsb	r1, [r2, r1]
    9b92:	e01d      	b.n	0x9bd0
    9b94:	513f      	str	r7, [r7, r4]
    9b96:	0d56      	lsrs	r6, r2, #21
    9b98:	b510      	push	{r4, lr}
    9b9a:	01d5      	lsls	r5, r2, #7
    9b9c:	5c51      	ldrb	r1, [r2, r1]
    9b9e:	101d      	asrs	r5, r3, #32
    9ba0:	d635      	bvs.n	0x9c0e
    9ba2:	c064      	stmia	r0!, {r2, r5, r6}
    9ba4:	d200      	bcs.n	0x9ba8
    9ba6:	eb66 0c00 	sbc.w	ip, r6, r0
    9baa:	6d20      	ldr	r0, [r4, #80]	@ 0x50
    9bac:	0eb8      	lsrs	r0, r7, #26
    9bae:	6451      	str	r1, [r2, #68]	@ 0x44
    9bb0:	101d      	asrs	r5, r3, #32
    9bb2:	d885      	bhi.n	0x9ac0
    9bb4:	5125      	str	r5, [r4, r4]
    9bb6:	1d91      	adds	r1, r2, #6
    9bb8:	2510      	movs	r5, #16
    9bba:	01d9      	lsls	r1, r3, #7
    9bbc:	a651      	add	r6, pc, #324	@ (adr r6, 0x9d04)
    9bbe:	1ffd      	subs	r5, r7, #7
    9bc0:	ed05 5100 	stfs	f5, [r5, #-0]
    9bc4:	0ed1      	lsrs	r1, r2, #27
    9bc6:	10a0      	asrs	r0, r4, #2
    9bc8:	0470      	lsls	r0, r6, #17
    9bca:	7451      	strb	r1, [r2, #17]
    9bcc:	100d      	asrs	r5, r1, #32
    9bce:	d765      	bvc.n	0x9c9c
    9bd0:	0a01      	lsrs	r1, r0, #8
    9bd2:	2112      	movs	r1, #18
    9bd4:	ab76      	add	r3, sp, #472	@ 0x1d8
    9bd6:	e14f      	b.n	0x9e78
    9bd8:	cc16      	ldmia	r4, {r1, r2, r4}
    9bda:	0000      	movs	r0, r0
    9bdc:	2ba8      	cmp	r3, #168	@ 0xa8
    9bde:	414e      	adcs	r6, r1
    9be0:	5058      	str	r0, [r3, r1]
    9be2:	4ed7      	ldr	r6, [pc, #860]	@ (0x9f40)
    9be4:	1861      	adds	r1, r4, r1
    9be6:	7050      	strb	r0, [r2, #1]
    9be8:	d3d7      	bcc.n	0x9b9a
    9bea:	d77e      	bvc.n	0x9cea
    9bec:	8000      	strh	r0, [r0, #0]
    9bee:	00a1      	lsls	r1, r4, #2
    9bf0:	0470      	lsls	r0, r6, #17
    9bf2:	17ee      	asrs	r6, r5, #31
    9bf4:	d755      	bvc.n	0x9ca2
    9bf6:	5103      	str	r3, [r0, r4]
    9bf8:	8d77      	ldrh	r7, [r6, #42]	@ 0x2a
    9bfa:	30a0      	adds	r0, #160	@ 0xa0
    9bfc:	c311      	stmia	r3!, {r0, r4}
    9bfe:	fab4 6e14 			@ <UNDEFINED> instruction: 0xfab46e14
    9c02:	0cc1      	lsrs	r1, r0, #19
    9c04:	8000      	strh	r0, [r0, #0]
    9c06:	e27a      	b.n	0xa0fe
    9c08:	0e14      	lsrs	r4, r2, #24
    9c0a:	06d2      	lsls	r2, r2, #27
    9c0c:	20d7      	movs	r0, #215	@ 0xd7
    9c0e:	706c      	strb	r4, [r5, #1]
    9c10:	cc0d      	ldmia	r4!, {r0, r2, r3}
    9c12:	0000      	movs	r0, r0
    9c14:	17b8      	asrs	r0, r7, #30
    9c16:	000a      	movs	r2, r1
    9c18:	e047      	b.n	0x9caa
    9c1a:	ec6f 00b4 	stcl	0, cr0, [pc], #-720	@ 0x994c
    9c1e:	06d2      	lsls	r2, r2, #27
    9c20:	a0d7      	add	r0, pc, #860	@ (adr r0, 0x9f80)
    9c22:	1140      	asrs	r0, r0, #5
    9c24:	b253      	sxtb	r3, r2
    9c26:	14fa      	asrs	r2, r7, #19
    9c28:	c16e      	stmia	r1!, {r1, r2, r3, r5, r6}
    9c2a:	000c      	movs	r4, r1
    9c2c:	7a80      	ldrb	r0, [r0, #10]
    9c2e:	14e2      	asrs	r2, r4, #19
    9c30:	d20e      	bcs.n	0x9c50
    9c32:	d726      	bvc.n	0x9c82
    9c34:	6c20      	ldr	r0, [r4, #64]	@ 0x40
    9c36:	0d72      	lsrs	r2, r6, #21
    9c38:	00cc      	lsls	r4, r1, #3
    9c3a:	b800      			@ <UNDEFINED> instruction: 0xb800
    9c3c:	0a17      	lsrs	r7, r2, #8
    9c3e:	4700      	bx	r0
    9c40:	6fe0      	ldr	r0, [r4, #124]	@ 0x7c
    9c42:	60ec      	str	r4, [r5, #12]
    9c44:	d209      	bcs.n	0x9c5a
    9c46:	d726      	bvc.n	0x9c96
    9c48:	50a0      	str	r0, [r4, r2]
    9c4a:	e311      	b.n	0xa270
    9c4c:	faaf 6e14 			@ <UNDEFINED> instruction: 0xfaaf6e14
    9c50:	0cc1      	lsrs	r1, r0, #19
    9c52:	8000      	strh	r0, [r0, #0]
    9c54:	e1fa      	b.n	0xa04c
    9c56:	8414      	strh	r4, [r2, #32]
    9c58:	7805      	ldrb	r5, [r0, #0]
    9c5a:	ed3d 0d78 	ldc	13, cr0, [sp, #-480]!	@ 0xfffffe20
    9c5e:	1100      	asrs	r0, r0, #4
    9c60:	000a      	movs	r2, r1
    9c62:	e047      	b.n	0x9cf4
    9c64:	513f      	str	r7, [r7, r4]
    9c66:	cd78      	ldmia	r5, {r3, r4, r5, r6}
    9c68:	60a2      	str	r2, [r4, #8]
    9c6a:	e311      	b.n	0xa290
    9c6c:	faad 6e14 			@ <UNDEFINED> instruction: 0xfaad6e14
    9c70:	0cc1      	lsrs	r1, r0, #19
    9c72:	8000      	strh	r0, [r0, #0]
    9c74:	e1fa      	b.n	0xa06c
    9c76:	8414      	strh	r4, [r2, #32]
    9c78:	7905      	ldrb	r5, [r0, #4]
    9c7a:	ed3d 0d79 	ldc	13, cr0, [sp, #-484]!	@ 0xfffffe1c
    9c7e:	1100      	asrs	r0, r0, #4
    9c80:	000a      	movs	r2, r1
    9c82:	e047      	b.n	0x9d14
    9c84:	513f      	str	r7, [r7, r4]
    9c86:	0d79      	lsrs	r1, r7, #21
    9c88:	f0a1 e310 	blx	0x4ab2ac
    9c8c:	faab 6e14 			@ <UNDEFINED> instruction: 0xfaab6e14
    9c90:	0cc1      	lsrs	r1, r0, #19
    9c92:	9000      	str	r0, [sp, #0]
    9c94:	4e61      	ldr	r6, [pc, #388]	@ (0x9e1c)
    9c96:	5841      	ldr	r1, [r0, r1]
    9c98:	d7a0      	bvc.n	0x9bdc
    9c9a:	13fe      	asrs	r6, r7, #15
    9c9c:	d7a5      	bvc.n	0x9bea
    9c9e:	0a02      	lsrs	r2, r0, #8
    9ca0:	210e      	movs	r1, #14
    9ca2:	aaa8      	add	r2, sp, #672	@ 0x2a0
    9ca4:	e14f      	b.n	0x9f46
    9ca6:	cc16      	ldmia	r4, {r1, r2, r4}
    9ca8:	0000      	movs	r0, r0
    9caa:	19a8      	adds	r0, r5, r6
    9cac:	95fd      	str	r5, [sp, #1012]	@ 0x3f4
    9cae:	4e0d      	ldr	r6, [pc, #52]	@ (0x9ce4)
    9cb0:	cc21      	ldmia	r4!, {r0, r5}
    9cb2:	1202      	asrs	r2, r0, #8
    9cb4:	8673      	strh	r3, [r6, #50]	@ 0x32
    9cb6:	c981      	ldmia	r1!, {r0, r7}
    9cb8:	5511      	strb	r1, [r2, r4]
    9cba:	00d9      	lsls	r1, r3, #3
    9cbc:	9651      	str	r6, [sp, #324]	@ 0x144
    9cbe:	110d      	asrs	r5, r1, #4
    9cc0:	d975      	bls.n	0x9dae
    9cc2:	5100      	str	r0, [r0, r4]
    9cc4:	0d98      	lsrs	r0, r3, #22
    9cc6:	c0a0      	stmia	r0!, {r5, r7}
    9cc8:	0310      	lsls	r0, r2, #12
    9cca:	faa8 6e14 			@ <UNDEFINED> instruction: 0xfaa86e14
    9cce:	0cc1      	lsrs	r1, r0, #19
    9cd0:	9000      	str	r0, [sp, #0]
    9cd2:	4e61      	ldr	r6, [pc, #388]	@ (0x9e58)
    9cd4:	5841      	ldr	r1, [r0, r1]
    9cd6:	d7b0      	bvc.n	0x9c3a
    9cd8:	13fe      	asrs	r6, r7, #15
    9cda:	d7b5      	bvc.n	0x9c48
    9cdc:	0a00      	lsrs	r0, r0, #8
    9cde:	210d      	movs	r1, #13
    9ce0:	aa6a      	add	r2, sp, #424	@ 0x1a8
    9ce2:	e14f      	b.n	0x9f84
    9ce4:	cc16      	ldmia	r4, {r1, r2, r4}
    9ce6:	0000      	movs	r0, r0
    9ce8:	e619      	b.n	0x991e
    9cea:	8414      	strh	r4, [r2, #32]
    9cec:	7c05      	ldrb	r5, [r0, #16]
    9cee:	3fed      	subs	r7, #237	@ 0xed
    9cf0:	7c51      	ldrb	r1, [r2, #17]
    9cf2:	600d      	str	r5, [r1, #0]
    9cf4:	8d04      	ldrh	r4, [r0, #40]	@ 0x28
    9cf6:	0b00      	lsrs	r0, r0, #12
    9cf8:	000a      	movs	r2, r1
    9cfa:	015a      	lsls	r2, r3, #5
    9cfc:	1def      	adds	r7, r5, #7
    9cfe:	8cf3      	ldrh	r3, [r6, #38]	@ 0x26
    9d00:	35e0      	adds	r5, #224	@ 0xe0
    9d02:	05df      	lsls	r7, r3, #23
    9d04:	dff1      	svc	241	@ 0xf1
    9d06:	6c2e      	ldr	r6, [r5, #64]	@ 0x40
    9d08:	0c88      	lsrs	r0, r1, #18
    9d0a:	01cc      	lsls	r4, r1, #7
    9d0c:	b900      	cbnz	r0, 0x9d10
    9d0e:	32af      	adds	r2, #175	@ 0xaf
    9d10:	53fd      	strh	r5, [r7, r7]
    9d12:	000d      	movs	r5, r1
    9d14:	3215      	adds	r2, #21
    9d16:	a5ed      	add	r5, pc, #948	@ (adr r5, 0xa0cc)
    9d18:	010d      	lsls	r5, r1, #4
    9d1a:	110c      	asrs	r4, r1, #4
    9d1c:	1738      	asrs	r0, r7, #28
    9d1e:	da55      	bge.n	0x9dcc
    9d20:	c200      	stmia	r2!, {}
    9d22:	d8c6      	bhi.n	0x9cb2
    9d24:	8cc0      	ldrh	r0, [r0, #38]	@ 0x26
    9d26:	8138      	strh	r0, [r7, #8]
    9d28:	263c      	movs	r6, #60	@ 0x3c
    9d2a:	8c6c      	ldrh	r4, [r5, #34]	@ 0x22
    9d2c:	520d      	strh	r5, [r1, r0]
    9d2e:	0014      	movs	r4, r2
    9d30:	2490      	movs	r4, #144	@ 0x90
    9d32:	8c6c      	ldrh	r4, [r5, #34]	@ 0x22
    9d34:	cc0d      	ldmia	r4!, {r0, r2, r3}
    9d36:	1388      	asrs	r0, r1, #14
    9d38:	42b8      	cmp	r0, r7
    9d3a:	a751      	add	r7, pc, #324	@ (adr r7, 0x9e80)
    9d3c:	a01d      	add	r0, pc, #116	@ (adr r0, 0x9db4)
    9d3e:	a000      	add	r0, pc, #0	@ (adr r0, 0x9d40)
    9d40:	f015 0ade 	ands.w	sl, r5, #222	@ 0xde
    9d44:	2106      	movs	r1, #6
    9d46:	260b      	movs	r6, #11
    9d48:	010a      	lsls	r2, r1, #4
    9d4a:	9d21      	ldr	r5, [sp, #132]	@ 0x84
    9d4c:	5127      	str	r7, [r4, r4]
    9d4e:	1d91      	adds	r1, r2, #6
    9d50:	2510      	movs	r5, #16
    9d52:	01d9      	lsls	r1, r3, #7
    9d54:	a651      	add	r6, pc, #324	@ (adr r6, 0x9e9c)
    9d56:	1ffd      	subs	r5, r7, #7
    9d58:	d6d5      	bvs.n	0x9d06
    9d5a:	d300      	bcc.n	0x9d5e
    9d5c:	d5ce      	bpl.n	0x9cfc
    9d5e:	e000      	b.n	0x9d62
    9d60:	6c23      	ldr	r3, [r4, #64]	@ 0x40
    9d62:	0d69      	lsrs	r1, r5, #21
    9d64:	0acc      	lsrs	r4, r1, #11
    9d66:	c800      	ldmia	r0!, {}
    9d68:	c214      	stmia	r2!, {r2, r4}
    9d6a:	d696      	bvs.n	0x9c9a
    9d6c:	4520      	cmp	r0, r4
    9d6e:	0001      	movs	r1, r0
    9d70:	9849      	ldr	r0, [sp, #292]	@ 0x124
    9d72:	c019      	stmia	r0!, {r0, r3, r4}
    9d74:	d201      	bcs.n	0x9d7a
    9d76:	d696      	bvs.n	0x9ca6
    9d78:	8040      	strh	r0, [r0, #2]
    9d7a:	5ad5      	ldrh	r5, [r2, r3]
    9d7c:	1100      	asrs	r0, r0, #4
    9d7e:	36a3      	adds	r6, #163	@ 0xa3
    9d80:	55ed      	strb	r5, [r5, r7]
    9d82:	020d      	lsls	r5, r1, #8
    9d84:	c240      	stmia	r2!, {r6}
    9d86:	d6e6      	bvs.n	0x9d56
    9d88:	2cc0      	cmp	r4, #192	@ 0xc0
    9d8a:	8003      	strh	r3, [r0, #0]
    9d8c:	214c      	movs	r1, #76	@ 0x4c
    9d8e:	6e6c      	ldr	r4, [r5, #100]	@ 0x64
    9d90:	520d      	strh	r5, [r1, r0]
    9d92:	0014      	movs	r4, r2
    9d94:	8490      	strh	r0, [r2, #36]	@ 0x24
    9d96:	01b9      	lsls	r1, r7, #6
    9d98:	201c      	movs	r0, #28
    9d9a:	6e6d      	ldr	r5, [r5, #100]	@ 0x64
    9d9c:	510d      	str	r5, [r1, r4]
    9d9e:	1d6d      	adds	r5, r5, #5
    9da0:	20a0      	movs	r0, #160	@ 0xa0
    9da2:	1010      	asrs	r0, r2, #32
    9da4:	c263      	stmia	r2!, {r0, r1, r5, r6}
    9da6:	d4d6      	bmi.n	0x9d56
    9da8:	2cc0      	cmp	r4, #192	@ 0xc0
    9daa:	8003      	strh	r3, [r0, #0]
    9dac:	214c      	movs	r1, #76	@ 0x4c
    9dae:	4d6c      	ldr	r5, [pc, #432]	@ (0x9f60)
    9db0:	520d      	strh	r5, [r1, r0]
    9db2:	0014      	movs	r4, r2
    9db4:	8490      	strh	r0, [r2, #36]	@ 0x24
    9db6:	0109      	lsls	r1, r1, #4
    9db8:	201c      	movs	r0, #28
    9dba:	4d6d      	ldr	r5, [pc, #436]	@ (0x9f70)
    9dbc:	110d      	asrs	r5, r1, #4
    9dbe:	2733      	movs	r7, #51	@ 0x33
    9dc0:	4f6c      	ldr	r7, [pc, #432]	@ (0x9f74)
    9dc2:	cc0d      	ldmia	r4!, {r0, r2, r3}
    9dc4:	05dc      	lsls	r4, r3, #23
    9dc6:	15c8      	asrs	r0, r1, #23
    9dc8:	f6c2 20d4 	movt	r0, #10964	@ 0x2ad4
    9dcc:	0145      	lsls	r5, r0, #5
    9dce:	4900      	ldr	r1, [pc, #0]	@ (0x9dd0)
    9dd0:	3499      	adds	r4, #153	@ 0x99
    9dd2:	fd31 0d92 	ldc2	13, cr0, [r1, #-584]!	@ 0xfffffdb8
    9dd6:	8300      	strh	r0, [r0, #24]
    9dd8:	1c00      	adds	r0, r0, #0
    9dda:	6d20      	ldr	r0, [r4, #80]	@ 0x50
    9ddc:	0d4f      	lsrs	r7, r1, #21
    9dde:	5250      	strh	r0, [r2, r1]
    9de0:	803d      	strh	r5, [r7, #0]
    9de2:	40dc      	lsrs	r4, r3
    9de4:	d520      	bpl.n	0x9e28
    9de6:	d108      	bne.n	0x9dfa
    9de8:	3fe0      	subs	r7, #224	@ 0xe0
    9dea:	5251      	strh	r1, [r2, r1]
    9dec:	300d      	adds	r0, #13
    9dee:	52cd      	strh	r5, [r1, r3]
    9df0:	000d      	movs	r5, r1
    9df2:	d326      	bcc.n	0x9e42
    9df4:	d52c      	bpl.n	0x9e50
    9df6:	5010      	str	r0, [r2, r0]
    9df8:	cd32      	ldmia	r5, {r1, r4, r5}
    9dfa:	0d52      	lsrs	r2, r2, #21
    9dfc:	2402      	movs	r4, #2
    9dfe:	2cd3      	cmp	r4, #211	@ 0xd3
    9e00:	30d5      	adds	r0, #213	@ 0xd5
    9e02:	9230      	str	r2, [sp, #192]	@ 0xc0
    9e04:	0cd9      	lsrs	r1, r3, #19
    9e06:	f911 3996 	ldrsb.w	r3, [r1], #-150
    9e0a:	110c      	asrs	r4, r1, #4
    9e0c:	96f9      	str	r6, [sp, #996]	@ 0x3e4
    9e0e:	0b99      	lsrs	r1, r3, #14
    9e10:	ea11 f996 			@ <UNDEFINED> instruction: 0xea11f996
    9e14:	110a      	asrs	r2, r1, #4
    9e16:	96e0      	str	r6, [sp, #896]	@ 0x380
    9e18:	0a59      	lsrs	r1, r3, #9
    9e1a:	5251      	strh	r1, [r2, r1]
    9e1c:	903d      	str	r0, [sp, #244]	@ 0xf4
    9e1e:	0999      	lsrs	r1, r3, #6
    9e20:	8850      	ldrh	r0, [r2, #2]
    9e22:	825d      	strh	r5, [r3, #18]
    9e24:	275c      	movs	r7, #92	@ 0x5c
    9e26:	8a6c      	ldrh	r4, [r5, #18]
    9e28:	cc0d      	ldmia	r4!, {r0, r2, r3}
    9e2a:	3a98      	subs	r2, #152	@ 0x98
    9e2c:	44c8      	add	r8, r9
    9e2e:	a6c2      	add	r6, pc, #776	@ (adr r6, 0xa138)
    9e30:	20d8      	movs	r0, #216	@ 0xd8
    9e32:	0145      	lsls	r5, r0, #5
    9e34:	4900      	ldr	r1, [pc, #0]	@ (0x9e38)
    9e36:	8904      	ldrh	r4, [r0, #8]
    9e38:	c58d      	stmia	r5!, {r0, r2, r3, r7}
    9e3a:	064c      	lsls	r4, r1, #25
    9e3c:	ec80 9040 	stc	0, cr9, [r0], {64}	@ 0x40
    9e40:	08d8      	lsrs	r0, r3, #3
    9e42:	80d1      	strh	r1, [r2, #6]
    9e44:	1269      	asrs	r1, r5, #9
    9e46:	d895      	bhi.n	0x9d74
    9e48:	0a01      	lsrs	r1, r0, #8
    9e4a:	2100      	movs	r1, #0
    9e4c:	163e      	asrs	r6, r7, #24
    9e4e:	1198      	asrs	r0, r3, #6
    9e50:	8851      	ldrh	r1, [r2, #2]
    9e52:	a25d      	add	r2, pc, #372	@ (adr r2, 0x9fc8)
    9e54:	1010      	asrs	r0, r2, #32
    9e56:	6333      	str	r3, [r6, #48]	@ 0x30
    9e58:	0c01      	lsrs	r1, r0, #16
    9e5a:	6d20      	ldr	r0, [r4, #80]	@ 0x50
    9e5c:	0d8c      	lsrs	r4, r1, #22
    9e5e:	1998      	adds	r0, r3, r6
    9e60:	00c0      	lsls	r0, r0, #3
    9e62:	c6d2      	stmia	r6!, {r1, r4, r6, r7}
    9e64:	e0d8      	b.n	0xa018
    9e66:	c05f      	stmia	r0!, {r0, r1, r2, r3, r4, r6}
    9e68:	d200      	bcs.n	0x9e6c
    9e6a:	d8c6      	bhi.n	0x9dfa
    9e6c:	2010      	movs	r0, #16
    9e6e:	1122      	asrs	r2, r4, #4
    9e70:	20a5      	movs	r0, #165	@ 0xa5
    9e72:	8a4c      	ldrh	r4, [r1, #18]
    9e74:	cd0c      	ldmia	r5!, {r2, r3}
    9e76:	0000      	movs	r0, r0
    9e78:	1ba8      	subs	r0, r5, r6
    9e7a:	8fce      	ldrh	r6, [r1, #62]	@ 0x3e
    9e7c:	e1fa      	b.n	0xa274
    9e7e:	a8fc      	add	r0, sp, #1008	@ 0x3f0
    9e80:	ce78      	ldmia	r6, {r3, r4, r5, r6}
    9e82:	1a9f      	subs	r7, r3, r2
    9e84:	990d      	ldr	r1, [sp, #52]	@ 0x34
    9e86:	1119      	asrs	r1, r3, #4
    9e88:	9d03      	ldr	r5, [sp, #12]
    9e8a:	e990 0a10 			@ <UNDEFINED> instruction: 0xe9900a10
    9e8e:	2101      	movs	r1, #1
    9e90:	a638      	add	r6, pc, #224	@ (adr r6, 0x9f74)
    9e92:	18d2      	adds	r2, r2, r3
    9e94:	0fc0      	lsrs	r0, r0, #31
    9e96:	46c2      	mov	sl, r8
    9e98:	20d4      	movs	r0, #212	@ 0xd4
    9e9a:	0144      	lsls	r4, r0, #5
    9e9c:	4900      	ldr	r1, [pc, #0]	@ (0x9ea0)
    9e9e:	46c2      	mov	sl, r8
    9ea0:	c0d4      	stmia	r0!, {r2, r4, r6, r7}
    9ea2:	000c      	movs	r4, r1
    9ea4:	ab90      	add	r3, sp, #576	@ 0x240
    9ea6:	0a0d      	lsrs	r5, r1, #8
    9ea8:	2101      	movs	r1, #1
    9eaa:	a5ba      	add	r5, pc, #744	@ (adr r5, 0xa194)
    9eac:	20c3      	movs	r0, #195	@ 0xc3
    9eae:	03e7      	lsls	r7, r4, #15
    9eb0:	202c      	movs	r0, #44	@ 0x2c
    9eb2:	8a6d      	ldrh	r5, [r5, #18]
    9eb4:	c00c      	stmia	r0!, {r2, r3}
    9eb6:	d202      	bcs.n	0x9ebe
    9eb8:	d426      	bmi.n	0x9f08
    9eba:	e990 c20a 			@ <UNDEFINED> instruction: 0xe990c20a
    9ebe:	d426      	bmi.n	0x9f0e
    9ec0:	4420      	add	r0, r4
    9ec2:	0001      	movs	r1, r0
    9ec4:	c249      	stmia	r2!, {r0, r3, r6}
    9ec6:	d426      	bmi.n	0x9f16
    9ec8:	0cc0      	lsrs	r0, r0, #19
    9eca:	9000      	str	r0, [sp, #0]
    9ecc:	08cb      	lsrs	r3, r1, #3
    9ece:	2f51      	cmp	r7, #81	@ 0x51
    9ed0:	300d      	adds	r0, #13
    9ed2:	728c      	strb	r4, [r1, #10]
    9ed4:	c03e      	stmia	r0!, {r1, r2, r3, r4, r5}
    9ed6:	6f0c      	ldr	r4, [r1, #112]	@ 0x70
    9ed8:	10a0      	asrs	r0, r4, #2
    9eda:	bed0      	bkpt	0x00d0
    9edc:	1459      	asrs	r1, r3, #17
    9ede:	5433      	strb	r3, [r6, r0]
    9ee0:	3c0a      	subs	r4, #10
    9ee2:	6d20      	ldr	r0, [r4, #80]	@ 0x50
    9ee4:	0c8a      	lsrs	r2, r1, #18
    9ee6:	02c0      	lsls	r0, r0, #11
    9ee8:	46d2      	mov	sl, sl
    9eea:	80d4      	strh	r4, [r2, #6]
    9eec:	a4d9      	add	r4, pc, #868	@ (adr r4, 0xa254)
    9eee:	1010      	asrs	r0, r2, #32
    9ef0:	5d73      	ldrb	r3, [r6, r5]
    9ef2:	18da      	adds	r2, r3, r3
    9ef4:	23d0      	movs	r3, #208	@ 0xd0
    9ef6:	446c      	add	r4, sp
    9ef8:	420d      	tst	r5, r1
    9efa:	0014      	movs	r4, r2
    9efc:	2490      	movs	r4, #144	@ 0x90
    9efe:	446c      	add	r4, sp
    9f00:	cc0d      	ldmia	r4!, {r0, r2, r3}
    9f02:	0000      	movs	r0, r0
    9f04:	1cb8      	adds	r0, r7, #2
    9f06:	010a      	lsls	r2, r1, #4
    9f08:	5b21      	ldrh	r1, [r4, r4]
    9f0a:	c3a5      	stmia	r3!, {r0, r2, r5, r7}
    9f0c:	e720      	b.n	0x9d50
    9f0e:	0c03      	lsrs	r3, r0, #16
    9f10:	6d20      	ldr	r0, [r4, #80]	@ 0x50
    9f12:	0c8a      	lsrs	r2, r1, #18
    9f14:	02df      	lsls	r7, r3, #11
    9f16:	dff1      	svc	241	@ 0xf1
    9f18:	57f9      	ldrsb	r1, [r7, r7]
    9f1a:	000a      	movs	r2, r1
    9f1c:	9347      	str	r3, [sp, #284]	@ 0x11c
    9f1e:	2ce9      	cmp	r4, #233	@ 0xe9
    9f20:	8346      	strh	r6, [r0, #26]
    9f22:	9125      	str	r1, [sp, #148]	@ 0x94
    9f24:	d052      	beq.n	0x9fcc
    9f26:	c8ce      	ldmia	r0!, {r1, r2, r3, r6, r7}
    9f28:	8520      	strh	r0, [r4, #40]	@ 0x28
    9f2a:	0c84      	lsrs	r4, r0, #18
    9f2c:	3200      	adds	r2, #0
    9f2e:	2a63      	cmp	r2, #99	@ 0x63
    9f30:	8346      	strh	r6, [r0, #26]
    9f32:	9125      	str	r1, [sp, #148]	@ 0x94
    9f34:	d052      	beq.n	0x9fdc
    9f36:	c8ce      	ldmia	r0!, {r1, r2, r3, r6, r7}
    9f38:	8520      	strh	r0, [r4, #40]	@ 0x28
    9f3a:	e1ce      	b.n	0xa2da
    9f3c:	0cc0      	lsrs	r0, r0, #19
    9f3e:	9000      	str	r0, [sp, #0]
    9f40:	201b      	movs	r0, #27
    9f42:	8346      	strh	r6, [r0, #26]
    9f44:	9125      	str	r1, [sp, #148]	@ 0x94
    9f46:	d052      	beq.n	0x9fee
    9f48:	c8ce      	ldmia	r0!, {r1, r2, r3, r6, r7}
    9f4a:	8520      	strh	r0, [r4, #40]	@ 0x28
    9f4c:	0386      	lsls	r6, r0, #14
    9f4e:	000c      	movs	r4, r1
    9f50:	b332      	cbz	r2, 0x9fa0
    9f52:	c21a      	stmia	r2!, {r1, r3, r4}
    9f54:	c8a6      	ldmia	r0!, {r1, r2, r5, r7}
    9f56:	0cc0      	lsrs	r0, r0, #19
    9f58:	9000      	str	r0, [sp, #0]
    9f5a:	262b      	movs	r6, #43	@ 0x2b
    9f5c:	ced3      	ldmia	r6, {r0, r1, r4, r6, r7}
    9f5e:	10d3      	asrs	r3, r2, #3
    9f60:	40d0      	lsrs	r0, r2
    9f62:	d3e0      	bcc.n	0x9f26
    9f64:	d108      	bne.n	0x9f78
    9f66:	3fe0      	subs	r7, #224	@ 0xe0
    9f68:	3e51      	subs	r6, #81	@ 0x51
    9f6a:	400d      	ands	r5, r1
    9f6c:	d3e0      	bcc.n	0x9f30
    9f6e:	0fc1      	lsrs	r1, r0, #31
    9f70:	460d      	mov	r5, r1
    9f72:	55a3      	strb	r3, [r4, r6]
    9f74:	ef20 e2ed 	vhsub.s32	q7, q8, <illegal reg q14.5>
    9f78:	5244      	strh	r4, [r0, r1]
    9f7a:	3ce8      	subs	r4, #232	@ 0xe8
    9f7c:	28e2      	cmp	r0, #226	@ 0xe2
    9f7e:	c311      	stmia	r3!, {r0, r4}
    9f80:	e728      	b.n	0x9dd4
    9f82:	1043      	asrs	r3, r0, #1
    9f84:	58d2      	ldr	r2, [r2, r3]
    9f86:	a06f      	add	r0, pc, #444	@ (adr r0, 0xa144)
    9f88:	d010      	beq.n	0x9fac
    9f8a:	d22e      	bcs.n	0x9fea
    9f8c:	4310      	orrs	r0, r2
    9f8e:	7a49      	ldrb	r1, [r1, #9]
    9f90:	4644      	mov	r4, r8
    9f92:	8c24      	ldrh	r4, [r4, #32]
    9f94:	0700      	lsls	r0, r0, #28
    9f96:	1c01      	adds	r1, r0, #0
    9f98:	6d20      	ldr	r0, [r4, #80]	@ 0x50
    9f9a:	0c8a      	lsrs	r2, r1, #18
    9f9c:	02c0      	lsls	r0, r0, #11
    9f9e:	46d2      	mov	sl, sl
    9fa0:	60d4      	str	r4, [r2, #12]
    9fa2:	5834      	ldr	r4, [r6, r0]
    9fa4:	2912      	cmp	r1, #18
    9fa6:	ed05 0c8c 	stc	12, cr0, [r5, #-560]	@ 0xfffffdd0
    9faa:	6852      	ldr	r2, [r2, #4]
    9fac:	c038      	stmia	r0!, {r3, r4, r5}
    9fae:	5ff8      	ldrsh	r0, [r7, r7]
    9fb0:	3463      	adds	r4, #99	@ 0x63
    9fb2:	1258      	asrs	r0, r3, #9
    9fb4:	0529      	lsls	r1, r5, #20
    9fb6:	8ced      	ldrh	r5, [r5, #38]	@ 0x26
    9fb8:	520c      	strh	r4, [r1, r0]
    9fba:	3a68      	subs	r2, #104	@ 0x68
    9fbc:	3460      	adds	r4, #96	@ 0x60
    9fbe:	1258      	asrs	r0, r3, #9
    9fc0:	0529      	lsls	r1, r5, #20
    9fc2:	8ced      	ldrh	r5, [r5, #38]	@ 0x26
    9fc4:	520c      	strh	r4, [r1, r0]
    9fc6:	aa28      	add	r2, sp, #160	@ 0xa0
    9fc8:	a701      	add	r7, pc, #4	@ (adr r7, 0x9fd0)
    9fca:	4603      	mov	r3, r0
    9fcc:	55a3      	strb	r3, [r4, r6]
    9fce:	ef20 e2ed 	vhsub.s32	q7, q8, <illegal reg q14.5>
    9fd2:	5244      	strh	r4, [r0, r1]
    9fd4:	61e8      	str	r0, [r5, #28]
    9fd6:	5834      	ldr	r4, [r6, r0]
    9fd8:	2912      	cmp	r1, #18
    9fda:	ed05 0c8c 	stc	12, cr0, [r5, #-560]	@ 0xfffffdd0
    9fde:	e852 1f1c 	ldrex	r1, [r2, #112]	@ 0x70
    9fe2:	8346      	strh	r6, [r0, #26]
    9fe4:	9125      	str	r1, [sp, #148]	@ 0x94
    9fe6:	d052      	beq.n	0xa08e
    9fe8:	c8ce      	ldmia	r0!, {r1, r2, r3, r6, r7}
    9fea:	8520      	strh	r0, [r4, #40]	@ 0x28
    9fec:	0386      	lsls	r6, r0, #14
    9fee:	008d      	lsls	r5, r1, #2
    9ff0:	0a46      	lsrs	r6, r0, #9
    9ff2:	4702      	bx	r0
    9ff4:	3464      	adds	r4, #100	@ 0x64
    9ff6:	1258      	asrs	r0, r3, #9
    9ff8:	0529      	lsls	r1, r5, #20
    9ffa:	8ced      	ldrh	r5, [r5, #38]	@ 0x26
    9ffc:	520c      	strh	r4, [r1, r0]
    9ffe:	7848      	ldrb	r0, [r1, #1]
    a000:	4624      	mov	r4, r4
    a002:	2583      	movs	r5, #131	@ 0x83
    a004:	1218      	asrs	r0, r3, #8
    a006:	3529      	adds	r5, #41	@ 0x29
    a008:	2246      	movs	r2, #70	@ 0x46
    a00a:	010a      	lsls	r2, r1, #4
    a00c:	8ced      	ldrh	r5, [r5, #38]	@ 0x26
    a00e:	520c      	strh	r4, [r1, r0]
    a010:	985a      	ldr	r0, [sp, #360]	@ 0x168
    a012:	0f29      	lsrs	r1, r5, #28
    a014:	010a      	lsls	r2, r1, #4
    a016:	9447      	str	r4, [sp, #284]	@ 0x11c
    a018:	0e69      	lsrs	r1, r5, #25
    a01a:	010a      	lsls	r2, r1, #4
    a01c:	4721      	bx	r4
    a01e:	c3a4      	stmia	r3!, {r2, r5, r7}
    a020:	e720      	b.n	0x9e64
    a022:	00a3      	lsls	r3, r4, #2
    a024:	4470      	add	r0, lr
    a026:	c999      	ldmia	r1!, {r0, r3, r4, r7}
    a028:	30a0      	adds	r0, #160	@ 0xa0
    a02a:	4470      	add	r0, lr
    a02c:	2346      	movs	r3, #70	@ 0x46
    a02e:	018d      	lsls	r5, r1, #6
    a030:	20b7      	movs	r0, #183	@ 0xb7
    a032:	886c      	ldrh	r4, [r5, #2]
    a034:	cc0c      	ldmia	r4!, {r2, r3}
    a036:	0000      	movs	r0, r0
    a038:	a5b9      	add	r5, pc, #740	@ (adr r5, 0xa320)
    a03a:	60a0      	str	r0, [r4, #8]
    a03c:	15a0      	asrs	r0, r4, #22
    a03e:	def0      	udf	#240	@ 0xf0
    a040:	9599      	str	r5, [sp, #612]	@ 0x264
    a042:	3460      	adds	r4, #96	@ 0x60
    a044:	1258      	asrs	r0, r3, #9
    a046:	0529      	lsls	r1, r5, #20
    a048:	8ced      	ldrh	r5, [r5, #38]	@ 0x26
    a04a:	520c      	strh	r4, [r1, r0]
    a04c:	1ce8      	adds	r0, r5, #3
    a04e:	820e      	strh	r6, [r1, #16]
    a050:	5421      	strb	r1, [r4, r0]
    a052:	0001      	movs	r1, r0
    a054:	8346      	strh	r6, [r0, #26]
    a056:	9125      	str	r1, [sp, #148]	@ 0x94
    a058:	d052      	beq.n	0xa100
    a05a:	c8ce      	ldmia	r0!, {r1, r2, r3, r6, r7}
    a05c:	8520      	strh	r0, [r4, #40]	@ 0x28
    a05e:	f1ce 3461 	rsb	r4, lr, #1633771873	@ 0x61616161
    a062:	1258      	asrs	r0, r3, #9
    a064:	0529      	lsls	r1, r5, #20
    a066:	8ced      	ldrh	r5, [r5, #38]	@ 0x26
    a068:	520c      	strh	r4, [r1, r0]
    a06a:	1ce8      	adds	r0, r5, #3
    a06c:	cc0e      	ldmia	r4!, {r1, r2, r3}
    a06e:	0000      	movs	r0, r0
    a070:	36b8      	adds	r6, #184	@ 0xb8
    a072:	a6c2      	add	r6, pc, #776	@ (adr r6, 0xa37c)
    a074:	c0c8      	stmia	r0!, {r3, r6, r7}
    a076:	003c      	movs	r4, r7
    a078:	5b80      	ldrh	r0, [r0, r6]
    a07a:	0c02      	lsrs	r2, r0, #16
    a07c:	1490      	asrs	r0, r2, #18
    a07e:	d2f5      	bcs.n	0xa06c
    a080:	9800      	ldr	r0, [sp, #0]
    a082:	4614      	mov	r4, r2
    a084:	1083      	asrs	r3, r0, #2
    a086:	460d      	mov	r5, r1
    a088:	50c3      	str	r3, [r0, r3]
    a08a:	6d92      	ldr	r2, [r2, #88]	@ 0x58
    a08c:	7ed2      	ldrb	r2, [r2, #27]
    a08e:	7df5      	ldrb	r5, [r6, #23]
    a090:	df10      	svc	16
    a092:	fd39 0d3d 	ldc2	13, cr0, [r9, #-244]!	@ 0xffffff0c
    a096:	8e01      	ldrh	r1, [r0, #48]	@ 0x30
    a098:	1041      	asrs	r1, r0, #1
    a09a:	47d3      			@ <UNDEFINED> instruction: 0x47d3
    a09c:	00a0      	lsls	r0, r4, #2
    a09e:	1470      	asrs	r0, r6, #17
    a0a0:	8046      	strh	r6, [r0, #2]
    a0a2:	a230      	add	r2, pc, #192	@ (adr r2, 0xa164)
    a0a4:	7020      	strb	r0, [r4, #0]
    a0a6:	9824      	ldr	r0, [sp, #144]	@ 0x90
    a0a8:	ed20 0d30 	stc	13, cr0, [r0, #-192]!	@ 0xffffff40
    a0ac:	2246      	movs	r2, #70	@ 0x46
    a0ae:	8488      	strh	r0, [r1, #36]	@ 0x24
    a0b0:	3156      	adds	r1, #86	@ 0x56
    a0b2:	0d43      	lsrs	r3, r0, #21
    a0b4:	2246      	movs	r2, #70	@ 0x46
    a0b6:	010a      	lsls	r2, r1, #4
    a0b8:	460d      	mov	r5, r1
    a0ba:	20c2      	movs	r0, #194	@ 0xc2
    a0bc:	5c80      	ldrb	r0, [r0, r2]
    a0be:	046d      	lsls	r5, r5, #17
    a0c0:	2308      	movs	r3, #8
    a0c2:	010a      	lsls	r2, r1, #4
    a0c4:	d247      	bcs.n	0xa156
    a0c6:	d30e      	bcc.n	0xa0e6
    a0c8:	2460      	movs	r4, #96	@ 0x60
    a0ca:	4882      	ldr	r0, [pc, #520]	@ (0xa2d4)
    a0cc:	1568      	asrs	r0, r5, #21
    a0ce:	9423      	str	r4, [sp, #140]	@ 0x8c
    a0d0:	0a52      	lsrs	r2, r2, #9
    a0d2:	4701      	bx	r0
    a0d4:	3fe3      	subs	r7, #227	@ 0xe3
    a0d6:	000a      	movs	r2, r1
    a0d8:	6347      	str	r7, [r0, #52]	@ 0x34
    a0da:	d234      	bcs.n	0xa146
    a0dc:	a018      	add	r0, pc, #96	@ (adr r0, 0xa140)
    a0de:	460f      	mov	r7, r1
    a0e0:	78d0      	ldrb	r0, [r2, #3]
    a0e2:	d6d0      	bvs.n	0xa086
    a0e4:	d32e      	bcc.n	0xa144
    a0e6:	a310      	add	r3, pc, #64	@ (adr r3, 0xa128)
    a0e8:	4bda      	ldr	r3, [pc, #872]	@ (0xa454)
    a0ea:	d470      	bmi.n	0xa1ce
    a0ec:	008d      	lsls	r5, r1, #2
    a0ee:	0420      	lsls	r0, r4, #16
    a0f0:	dd49      	ble.n	0xa186
    a0f2:	5288      	strh	r0, [r1, r2]
    a0f4:	0c01      	lsrs	r1, r0, #16
    a0f6:	6d20      	ldr	r0, [r4, #80]	@ 0x50
    a0f8:	0c88      	lsrs	r0, r1, #18
    a0fa:	d311      	bcc.n	0xa120
    a0fc:	a994      	add	r1, sp, #592	@ 0x250
    a0fe:	500b      	str	r3, [r1, r0]
    a100:	0d8e      	lsrs	r6, r1, #22
    a102:	3320      	adds	r3, #32
    a104:	10ad      	asrs	r5, r5, #2
    a106:	d8e5      	bhi.n	0xa0d4
    a108:	5100      	str	r0, [r0, r4]
    a10a:	1d8f      	adds	r7, r1, #6
    a10c:	0c00      	lsrs	r0, r0, #16
    a10e:	6d20      	ldr	r0, [r4, #80]	@ 0x50
    a110:	0c88      	lsrs	r0, r1, #18
    a112:	060a      	lsls	r2, r1, #24
    a114:	015a      	lsls	r2, r3, #5
    a116:	9def      	ldr	r5, [sp, #956]	@ 0x3bc
    a118:	0849      	lsrs	r1, r1, #1
    a11a:	00c0      	lsls	r0, r0, #3
    a11c:	c6d2      	stmia	r6!, {r1, r4, r6, r7}
    a11e:	20d8      	movs	r0, #216	@ 0xd8
    a120:	326c      	adds	r2, #108	@ 0x6c
    a122:	c10d      	stmia	r1!, {r0, r2, r3}
    a124:	d1ff      	bne.n	0xa126
    a126:	6ffe      	ldr	r6, [r7, #124]	@ 0x7c
    a128:	2045      	movs	r0, #69	@ 0x45
    a12a:	c1d3      	stmia	r1!, {r0, r1, r4, r6, r7}
    a12c:	4701      	bx	r0
    a12e:	56e4      	ldrsb	r4, [r4, r3]
    a130:	00c1      	lsls	r1, r0, #3
    a132:	06d1      	lsls	r1, r2, #27
    a134:	dc42      	bgt.n	0xa1bc
    a136:	000c      	movs	r4, r1
    a138:	4a80      	ldr	r2, [pc, #512]	@ (0xa33c)
    a13a:	6522      	str	r2, [r4, #80]	@ 0x50
    a13c:	fe00 2aa8 	vseleq.f32	s4, s1, s17
    a140:	0652      	lsls	r2, r2, #25
    a142:	9fe0      	ldr	r7, [sp, #896]	@ 0x380
    a144:	5271      	strh	r1, [r6, r1]
    a146:	e006      	b.n	0xa156
    a148:	5a8f      	ldrh	r7, [r1, r2]
    a14a:	f981 0ed1 	vst3.<illegal width 64>			@ <UNDEFINED> instruction: 0xf9810ed1
    a14e:	e0d3      	b.n	0xa2f8
    a150:	1156      	asrs	r6, r2, #5
    a152:	e7f0      	b.n	0xa136
    a154:	ed7e 0d30 	ldcl	13, cr0, [lr, #-192]!	@ 0xffffff40
    a158:	156e      	asrs	r6, r5, #21
    a15a:	7f10      	ldrb	r0, [r2, #28]
    a15c:	3d51      	subs	r5, #81	@ 0x51
    a15e:	f00d 107d 	and.w	r0, sp, #8192125	@ 0x7d007d
    a162:	d1ef      	bne.n	0xa144
    a164:	7008      	strb	r0, [r1, #0]
    a166:	5510      	strb	r0, [r2, r4]
    a168:	01da      	lsls	r2, r3, #7
    a16a:	df10      	svc	16
    a16c:	047b      	lsls	r3, r7, #17
    a16e:	86c2      	strh	r2, [r0, #54]	@ 0x36
    a170:	f0c8 c216 	blx	0xcd25a0
    a174:	c8a6      	ldmia	r0!, {r1, r2, r5, r7}
    a176:	36f0      	adds	r6, #240	@ 0xf0
    a178:	c16e      	stmia	r1!, {r1, r2, r3, r5, r6}
    a17a:	002c      	movs	r4, r5
    a17c:	cb90      	ldmia	r3!, {r4, r7}
    a17e:	d30c      	bcc.n	0xa19a
    a180:	d2fe      	bcs.n	0xa180
    a182:	d000      	beq.n	0xa186
    a184:	0462      	lsls	r2, r4, #17
    a186:	08d2      	lsrs	r2, r2, #3
    a188:	12d0      	asrs	r0, r2, #11
    a18a:	d046      	beq.n	0xa21a
    a18c:	d30e      	bcc.n	0xa1ac
    a18e:	f140 82d2 	bpl.w	0xa736
    a192:	4859      	ldr	r0, [pc, #356]	@ (0xa2f8)
    a194:	d2f0      	bcs.n	0xa178
    a196:	d108      	bne.n	0xa1aa
    a198:	b990      	cbnz	r0, 0xa1c0
    a19a:	d310      	bcc.n	0xa1be
    a19c:	d2fe      	bcs.n	0xa19c
    a19e:	7010      	strb	r0, [r2, #0]
    a1a0:	0463      	lsls	r3, r4, #17
    a1a2:	078d      	lsls	r5, r1, #30
    a1a4:	4622      	mov	r2, r4
    a1a6:	0ed0      	lsrs	r0, r2, #27
    a1a8:	40d3      	lsrs	r3, r2
    a1aa:	d2f1      	bcs.n	0xa190
    a1ac:	5982      	ldr	r2, [r0, r6]
    a1ae:	f048 08d2 	orr.w	r8, r8, #210	@ 0xd2
    a1b2:	90d1      	str	r0, [sp, #836]	@ 0x344
    a1b4:	0d59      	lsrs	r1, r3, #21
    a1b6:	2f51      	cmp	r7, #81	@ 0x51
    a1b8:	900d      	str	r0, [sp, #52]	@ 0x34
    a1ba:	0c99      	lsrs	r1, r3, #18
    a1bc:	2f50      	cmp	r7, #80	@ 0x50
    a1be:	80cd      	strh	r5, [r1, #6]
    a1c0:	63cc      	str	r4, [r1, #60]	@ 0x3c
    a1c2:	ed04 0d30 	stc	13, cr0, [r4, #-192]	@ 0xffffff40
    a1c6:	2f14      	cmp	r7, #20
    a1c8:	982d      	ldr	r0, [sp, #180]	@ 0xb4
    a1ca:	0485      	lsls	r5, r0, #18
    a1cc:	8d2f      	ldrh	r7, [r5, #40]	@ 0x28
    a1ce:	0d10      	lsrs	r0, r2, #20
    a1d0:	ffd3 a0d2 	vshr.u64	q13, q1, #45
    a1d4:	0950      	lsrs	r0, r2, #5
    a1d6:	2f51      	cmp	r7, #81	@ 0x51
    a1d8:	100d      	asrs	r5, r1, #32
    a1da:	d3d5      	bcc.n	0xa188
    a1dc:	9901      	ldr	r1, [sp, #4]
    a1de:	1082      	asrs	r2, r0, #2
    a1e0:	d2f5      	bcs.n	0xa1ce
    a1e2:	9800      	ldr	r0, [sp, #0]
    a1e4:	6e77      	ldr	r7, [r6, #100]	@ 0x64
    a1e6:	3cc3      	subs	r4, #195	@ 0xc3
    a1e8:	8000      	strh	r0, [r0, #0]
    a1ea:	06ab      	lsls	r3, r5, #26
    a1ec:	d2f5      	bcs.n	0xa1da
    a1ee:	c80c      	ldmia	r0!, {r2, r3}
    a1f0:	465f      	mov	r7, fp
    a1f2:	0ed0      	lsrs	r0, r2, #27
    a1f4:	40d3      	lsrs	r3, r2
    a1f6:	d2f1      	bcs.n	0xa1dc
    a1f8:	5982      	ldr	r2, [r0, r6]
    a1fa:	f048 08d2 	orr.w	r8, r8, #210	@ 0xd2
    a1fe:	30d1      	adds	r0, #209	@ 0xd1
    a200:	2fed      	cmp	r7, #237	@ 0xed
    a202:	0c0d      	lsrs	r5, r1, #16
    a204:	5137      	str	r7, [r6, r4]
    a206:	0d2f      	lsrs	r7, r5, #20
    a208:	0040      	lsls	r0, r0, #1
    a20a:	14d3      	asrs	r3, r2, #19
    a20c:	3d3e      	subs	r5, #62	@ 0x3e
    a20e:	b812      			@ <UNDEFINED> instruction: 0xb812
    a210:	5111      	str	r1, [r2, r4]
    a212:	1d3c      	adds	r4, r7, #4
    a214:	d510      	bpl.n	0xa238
    a216:	01d3      	lsls	r3, r2, #7
    a218:	17ee      	asrs	r6, r5, #31
    a21a:	d3c5      	bcc.n	0xa1a8
    a21c:	5100      	str	r0, [r0, r4]
    a21e:	0d3d      	lsrs	r5, r7, #20
    a220:	5df0      	ldrb	r0, [r6, r7]
    a222:	df10      	svc	16
    a224:	6c2c      	ldr	r4, [r5, #64]	@ 0x40
    a226:	0c88      	lsrs	r0, r1, #18
    a228:	e26f      	b.n	0xa70a
    a22a:	cc26      	ldmia	r4!, {r1, r2, r5}
    a22c:	0002      	movs	r2, r0
    a22e:	83b9      	strh	r1, [r7, #28]
    a230:	6c20      	ldr	r0, [r4, #64]	@ 0x40
    a232:	0c8a      	lsrs	r2, r1, #18
    a234:	01cc      	lsls	r4, r1, #7
    a236:	3900      	subs	r1, #0
    a238:	c513      	stmia	r5!, {r0, r1, r4}
    a23a:	00c8      	lsls	r0, r1, #3
    a23c:	21e3      	movs	r1, #227	@ 0xe3
    a23e:	73e8      	strb	r0, [r5, #15]
    a240:	10a0      	asrs	r0, r4, #2
    a242:	2ee0      	cmp	r6, #224	@ 0xe0
    a244:	000a      	movs	r2, r1
    a246:	008c      	lsls	r4, r1, #2
    a248:	5017      	str	r7, [r2, r0]
    a24a:	1d2f      	adds	r7, r5, #4
    a24c:	3220      	adds	r2, #32
    a24e:	5030      	str	r0, [r6, r0]
    a250:	ad2f      	add	r5, sp, #188	@ 0xbc
    a252:	5c80      	ldrb	r0, [r0, r2]
    a254:	a0a2      	add	r0, pc, #648	@ (adr r0, 0xa4e0)
    a256:	f140 a2d2 	bpl.w	0x4a7fe
    a25a:	f584 0a06 			@ <UNDEFINED> instruction: 0xf5840a06
    a25e:	ed01 459b 	cfstr32	mvfx4, [r1, #-620]	@ 0xfffffd94
    a262:	bf21      	itttt	cs
    a264:	98a1      	ldrcs	r0, [sp, #644]	@ 0x284
    a266:	c37c      	stmiacs	r3!, {r2, r3, r4, r5, r6}
    a268:	e720      	bcs.n	0xa0ac	@ unpredictable branch in IT block

    a26a:	0c03      	lsrcs	r3, r0, #16
    a26c:	6d20      	ldr	r0, [r4, #80]	@ 0x50
    a26e:	0c8a      	lsrs	r2, r1, #18
    a270:	6698      	str	r0, [r3, #104]	@ 0x68
    a272:	a6c2      	add	r6, pc, #776	@ (adr r6, 0xa57c)
    a274:	c0c8      	stmia	r0!, {r3, r6, r7}
    a276:	001c      	movs	r4, r3
    a278:	1b80      	subs	r0, r0, r6
    a27a:	0c32      	lsrs	r2, r6, #16
    a27c:	3e72      	subs	r6, #114	@ 0x72
    a27e:	02c0      	lsls	r0, r0, #11
    a280:	a6d2      	add	r6, pc, #840	@ (adr r6, 0xa5cc)
    a282:	00c8      	lsls	r0, r1, #3
    a284:	202c      	movs	r0, #44	@ 0x2c
    a286:	426d      	negs	r5, r5
    a288:	980d      	ldr	r0, [sp, #52]	@ 0x34
    a28a:	c234      	stmia	r2!, {r2, r4, r5}
    a28c:	c8a6      	ldmia	r0!, {r1, r2, r5, r7}
    a28e:	3cc0      	subs	r4, #192	@ 0xc0
    a290:	8000      	strh	r0, [r0, #0]
    a292:	11cb      	asrs	r3, r1, #7
    a294:	d2f5      	bcs.n	0xa282
    a296:	c300      	stmia	r3!, {}
    a298:	e720      	b.n	0xa0dc
    a29a:	0c03      	lsrs	r3, r0, #16
    a29c:	6d20      	ldr	r0, [r4, #80]	@ 0x50
    a29e:	0c8a      	lsrs	r2, r1, #18
    a2a0:	33fe      	adds	r3, #254	@ 0xfe
    a2a2:	720c      	strb	r4, [r1, #8]
    a2a4:	df3e      	svc	62	@ 0x3e
    a2a6:	f104 fcdf 	bl	0x10ec68
    a2aa:	c204      	stmia	r2!, {r2}
    a2ac:	c886      	ldmia	r0!, {r1, r2, r7}
    a2ae:	2cc0      	cmp	r4, #192	@ 0xc0
    a2b0:	8000      	strh	r0, [r0, #0]
    a2b2:	211a      	movs	r1, #26
    a2b4:	886c      	ldrh	r4, [r5, #2]
    a2b6:	cc0c      	ldmia	r4!, {r2, r3}
    a2b8:	0000      	movs	r0, r0
    a2ba:	72b8      	strb	r0, [r7, #10]
    a2bc:	02c0      	lsls	r0, r0, #11
    a2be:	86d2      	strh	r2, [r2, #54]	@ 0x36
    a2c0:	10c8      	asrs	r0, r1, #3
    a2c2:	d465      	bmi.n	0xa390
    a2c4:	4eff      	ldr	r6, [pc, #1020]	@ (0xa6c4)
    a2c6:	1840      	adds	r0, r0, r1
    a2c8:	50fc      	str	r4, [r7, r3]
    a2ca:	d470      	bmi.n	0xa3ae
    a2cc:	020a      	lsls	r2, r1, #8
    a2ce:	8247      	strh	r7, [r0, #18]
    a2d0:	6289      	str	r1, [r1, #40]	@ 0x28
    a2d2:	a224      	add	r2, pc, #144	@ (adr r2, 0xa364)
    a2d4:	8010      	strh	r0, [r2, #0]
    a2d6:	04e5      	lsls	r5, r4, #19
    a2d8:	4852      	ldr	r0, [pc, #328]	@ (0xa424)
    a2da:	6ed8      	ldr	r0, [r3, #108]	@ 0x6c
    a2dc:	60d4      	str	r4, [r2, #12]
    a2de:	8225      	strh	r5, [r4, #16]
    a2e0:	6859      	ldr	r1, [r3, #4]
    a2e2:	0824      	lsrs	r4, r4, #32
    a2e4:	60d1      	str	r1, [r2, #12]
    a2e6:	0c24      	lsrs	r4, r4, #16
    a2e8:	d807      	bhi.n	0xa2fa
    a2ea:	0acd      	lsrs	r5, r1, #11
    a2ec:	2100      	movs	r1, #0
    a2ee:	0ddb      	lsrs	r3, r3, #23
    a2f0:	010a      	lsls	r2, r1, #4
    a2f2:	e347      	b.n	0xa984
    a2f4:	0a3f      	lsrs	r7, r7, #8
    a2f6:	4700      	bx	r0
    a2f8:	3463      	adds	r4, #99	@ 0x63
    a2fa:	04df      	lsls	r7, r3, #19
    a2fc:	0af1      	lsrs	r1, r6, #11
    a2fe:	2101      	movs	r1, #1
    a300:	0dc9      	lsrs	r1, r1, #23
    a302:	0a10      	lsrs	r0, r2, #8
    a304:	ef04 f107 	vrhadd.s8	d15, d4, d7
    a308:	050a      	lsls	r2, r1, #20
    a30a:	07ef      	lsls	r7, r5, #31
    a30c:	0af1      	lsrs	r1, r6, #11
    a30e:	ef06 f107 	vrhadd.s8	d15, d6, d7
    a312:	7fdf      	ldrb	r7, [r3, #31]
    a314:	4604      	mov	r4, r0
    a316:	8050      	strh	r0, [r2, #2]
    a318:	0ada      	lsrs	r2, r3, #11
    a31a:	ef07 1df7 	vmla.f32	<illegal reg q0.5>, <illegal reg q11.5>, <illegal reg q11.5>
    a31e:	df10      	svc	16
    a320:	06fe      	lsls	r6, r7, #27
    a322:	206e      	movs	r0, #110	@ 0x6e
    a324:	a96d      	add	r1, sp, #436	@ 0x1b4
    a326:	0a0d      	lsrs	r5, r1, #8
    a328:	ef08 2df7 	vmla.f32	q1, q12, <illegal reg q11.5>
    a32c:	0a10      	lsrs	r0, r2, #8
    a32e:	ef09 f107 	vrhadd.s8	d15, d9, d7
    a332:	7edf      	ldrb	r7, [r3, #27]
    a334:	4604      	mov	r4, r0
    a336:	3050      	adds	r0, #80	@ 0x50
    a338:	04d5      	lsls	r5, r2, #19
    a33a:	7eb3      	ldrb	r3, [r6, #26]
    a33c:	4614      	mov	r4, r2
    a33e:	10c0      	asrs	r0, r0, #3
    a340:	2220      	movs	r2, #32
    a342:	c239      	stmia	r2!, {r0, r3, r4, r5}
    a344:	c886      	ldmia	r0!, {r1, r2, r7}
    a346:	1cc0      	adds	r0, r0, #3
    a348:	8000      	strh	r0, [r0, #0]
    a34a:	21aa      	movs	r1, #170	@ 0xaa
    a34c:	886c      	ldrh	r4, [r5, #2]
    a34e:	cc0c      	ldmia	r4!, {r2, r3}
    a350:	0000      	movs	r0, r0
    a352:	4cb8      	ldr	r4, [pc, #736]	@ (0xa634)
    a354:	c146      	stmia	r1!, {r1, r2, r6}
    a356:	3008      	adds	r0, #8
    a358:	a0a4      	add	r0, pc, #656	@ (adr r0, 0xa5ec)
    a35a:	d311      	bcc.n	0xa380
    a35c:	80d6      	strh	r6, [r2, #6]
    a35e:	6359      	str	r1, [r3, #52]	@ 0x34
    a360:	0c04      	lsrs	r4, r0, #16
    a362:	d804      	bhi.n	0xa36e
    a364:	c22a      	stmia	r2!, {r1, r3, r5}
    a366:	c886      	ldmia	r0!, {r1, r2, r7}
    a368:	1cc0      	adds	r0, r0, #3
    a36a:	2000      	movs	r0, #0
    a36c:	1812      	adds	r2, r2, r0
    a36e:	d146      	bne.n	0xa3fe
    a370:	5008      	str	r0, [r1, r0]
    a372:	8010      	strh	r0, [r2, #0]
    a374:	0af8      	lsrs	r0, r7, #11
    a376:	211a      	movs	r1, #26
    a378:	0d51      	lsrs	r1, r2, #21
    a37a:	02df      	lsls	r7, r3, #11
    a37c:	dff1      	svc	241	@ 0xf1
    a37e:	047f      	lsls	r7, r7, #17
    a380:	5046      	str	r6, [r0, r1]
    a382:	d7d0      	bvc.n	0xa326
    a384:	00c0      	lsls	r0, r0, #3
    a386:	a6d2      	add	r6, pc, #840	@ (adr r6, 0xa6d0)
    a388:	a0d8      	add	r0, pc, #864	@ (adr r0, 0xa6ec)
    a38a:	f1b0 df7e 	bl	0x9bb28a
    a38e:	f101 7fdf 	add.w	pc, r1, #29229056	@ 0x1be0000
    a392:	4604      	mov	r4, r0
    a394:	e050      	b.n	0xa438
    a396:	c0d7      	stmia	r0!, {r0, r1, r2, r4, r6, r7}
    a398:	d200      	bcs.n	0xa39c
    a39a:	d8a6      	bhi.n	0xa2ea
    a39c:	c0a0      	stmia	r0!, {r5, r7}
    a39e:	7ef1      	ldrb	r1, [r6, #27]
    a3a0:	01df      	lsls	r7, r3, #7
    a3a2:	dff1      	svc	241	@ 0xf1
    a3a4:	047f      	lsls	r7, r7, #17
    a3a6:	5046      	str	r6, [r0, r1]
    a3a8:	d7f0      	bvc.n	0xa38c
    a3aa:	00c0      	lsls	r0, r0, #3
    a3ac:	a6d2      	add	r6, pc, #840	@ (adr r6, 0xa6f8)
    a3ae:	a0d8      	add	r0, pc, #864	@ (adr r0, 0xa710)
    a3b0:	f1d0 df7e 	bl	0x9db2b0
    a3b4:	f101 7fdf 	add.w	pc, r1, #29229056	@ 0x1be0000
    a3b8:	4604      	mov	r4, r0
    a3ba:	0050      	lsls	r0, r2, #1
    a3bc:	c0d8      	stmia	r0!, {r3, r4, r6, r7}
    a3be:	d200      	bcs.n	0xa3c2
    a3c0:	d8a6      	bhi.n	0xa310
    a3c2:	e0a0      	b.n	0xa506
    a3c4:	7ef1      	ldrb	r1, [r6, #27]
    a3c6:	01df      	lsls	r7, r3, #7
    a3c8:	dff1      	svc	241	@ 0xf1
    a3ca:	047f      	lsls	r7, r7, #17
    a3cc:	5046      	str	r6, [r0, r1]
    a3ce:	d540      	bpl.n	0xa452
    a3d0:	0a0a      	lsrs	r2, r1, #8
    a3d2:	f7ef 101d 			@ <UNDEFINED> instruction: 0xf7ef101d
    a3d6:	7fdf      	ldrb	r7, [r3, #31]
    a3d8:	4604      	mov	r4, r0
    a3da:	5050      	str	r0, [r2, r1]
    a3dc:	0ad5      	lsrs	r5, r2, #11
    a3de:	ef0a 1df7 	vmla.f32	<illegal reg q0.5>, q13, <illegal reg q11.5>
    a3e2:	df10      	svc	16
    a3e4:	047f      	lsls	r7, r7, #17
    a3e6:	5046      	str	r6, [r0, r1]
    a3e8:	d560      	bpl.n	0xa4ac
    a3ea:	0a0a      	lsrs	r2, r1, #8
    a3ec:	f7ef 101d 			@ <UNDEFINED> instruction: 0xf7ef101d
    a3f0:	7edf      	ldrb	r7, [r3, #27]
    a3f2:	4705      	bx	r0
    a3f4:	1461      	asrs	r1, r4, #17
    a3f6:	5705      	ldrsb	r5, [r0, r4]
    a3f8:	1c0d      	adds	r5, r1, #0
    a3fa:	6d20      	ldr	r0, [r4, #80]	@ 0x50
    a3fc:	0d67      	lsrs	r7, r4, #21
    a3fe:	5046      	str	r6, [r0, r1]
    a400:	d5d0      	bpl.n	0xa3a4
    a402:	86c2      	strh	r2, [r0, #54]	@ 0x36
    a404:	c0c8      	stmia	r0!, {r3, r6, r7}
    a406:	001c      	movs	r4, r3
    a408:	cb80      	ldmia	r3!, {r7}
    a40a:	6c22      	ldr	r2, [r4, #64]	@ 0x40
    a40c:	0d8c      	lsrs	r4, r1, #22
    a40e:	88cc      	ldrh	r4, [r1, #6]
    a410:	c813      	ldmia	r0, {r0, r1, r4}
    a412:	510a      	str	r2, [r1, r4]
    a414:	0d5b      	lsrs	r3, r3, #21
    a416:	3fe0      	subs	r7, #224	@ 0xe0
    a418:	5b51      	ldrh	r1, [r2, r5]
    a41a:	a01d      	add	r0, pc, #116	@ (adr r0, 0xa490)
    a41c:	10c0      	asrs	r0, r0, #3
    a41e:	caa3      	ldmia	r2!, {r0, r1, r5, r7}
    a420:	2df0      	cmp	r5, #240	@ 0xf0
    a422:	df10      	svc	16
    a424:	057e      	lsls	r6, r7, #21
    a426:	6147      	str	r7, [r0, #20]
    a428:	0514      	lsls	r4, r2, #20
    a42a:	0d58      	lsrs	r0, r3, #21
    a42c:	201c      	movs	r0, #28
    a42e:	696d      	ldr	r5, [r5, #20]
    a430:	460d      	mov	r5, r1
    a432:	d050      	beq.n	0xa4d6
    a434:	c2d5      	stmia	r2!, {r0, r2, r4, r6, r7}
    a436:	c886      	ldmia	r0!, {r1, r2, r7}
    a438:	1cc0      	adds	r0, r0, #3
    a43a:	8000      	strh	r0, [r0, #0]
    a43c:	22cb      	movs	r2, #203	@ 0xcb
    a43e:	8c6c      	ldrh	r4, [r5, #34]	@ 0x22
    a440:	cc0d      	ldmia	r4!, {r0, r2, r3}
    a442:	1388      	asrs	r0, r1, #14
    a444:	0ac8      	lsrs	r0, r1, #11
    a446:	5c51      	ldrb	r1, [r2, r1]
    a448:	e00d      	b.n	0xa466
    a44a:	513f      	str	r7, [r7, r4]
    a44c:	1d5c      	adds	r4, r3, #5
    a44e:	c0a0      	stmia	r0!, {r5, r7}
    a450:	7310      	strb	r0, [r2, #12]
    a452:	f0c7 102d 			@ <UNDEFINED> instruction: 0xf0c7102d
    a456:	0e0a      	lsrs	r2, r1, #24
    a458:	07ef      	lsls	r7, r5, #31
    a45a:	0af1      	lsrs	r1, r6, #11
    a45c:	ef0b f107 	vrhadd.s8	d15, d11, d7
    a460:	7edf      	ldrb	r7, [r3, #27]
    a462:	4705      	bx	r0
    a464:	1461      	asrs	r1, r4, #17
    a466:	ff8d 510a 	vaddw.u8	<illegal reg q2.5>, <illegal reg q6.5>, d10
    a46a:	0d59      	lsrs	r1, r3, #21
    a46c:	4ee0      	ldr	r6, [pc, #896]	@ (0xa7f0)
    a46e:	5146      	str	r6, [r0, r5]
    a470:	d590      	bpl.n	0xa394
    a472:	d046      	beq.n	0xa502
    a474:	a018      	add	r0, pc, #96	@ (adr r0, 0xa4d8)
    a476:	1c30      	adds	r0, r6, #0
    a478:	0d5e      	lsrs	r6, r3, #21
    a47a:	33fe      	adds	r3, #254	@ 0xfe
    a47c:	5e9c      	ldrsh	r4, [r3, r2]
    a47e:	0a0d      	lsrs	r5, r1, #8
    a480:	ef0d 2df7 	vmla.f32	q1, <illegal reg q14.5>, <illegal reg q11.5>
    a484:	df10      	svc	16
    a486:	057e      	lsls	r6, r7, #21
    a488:	6147      	str	r7, [r0, #20]
    a48a:	8d14      	ldrh	r4, [r2, #40]	@ 0x28
    a48c:	0aff      	lsrs	r7, r7, #11
    a48e:	5a51      	ldrh	r1, [r2, r1]
    a490:	e00d      	b.n	0xa4ae
    a492:	464e      	mov	r6, r9
    a494:	a051      	add	r0, pc, #324	@ (adr r0, 0xa5dc)
    a496:	46d5      	mov	sp, sl
    a498:	18d0      	adds	r0, r2, r3
    a49a:	30a0      	adds	r0, #160	@ 0xa0
    a49c:	5e0c      	ldrsh	r4, [r1, r0]
    a49e:	fe0d 8c33 	mcr2	12, 0, r8, cr13, cr3, {1}
    a4a2:	0d5e      	lsrs	r6, r3, #21
    a4a4:	0d0a      	lsrs	r2, r1, #20
    a4a6:	f7ef 102d 			@ <UNDEFINED> instruction: 0xf7ef102d
    a4aa:	7edf      	ldrb	r7, [r3, #27]
    a4ac:	5704      	ldrsb	r4, [r0, r4]
    a4ae:	1461      	asrs	r1, r4, #17
    a4b0:	018d      	lsls	r5, r1, #6
    a4b2:	0414      	lsls	r4, r2, #16
    a4b4:	6d5e      	ldr	r6, [r3, #84]	@ 0x54
    a4b6:	6305      	str	r5, [r0, #48]	@ 0x30
    a4b8:	e054      	b.n	0xa564
    a4ba:	98d5      	ldr	r0, [sp, #852]	@ 0x354
    a4bc:	4610      	mov	r0, r2
    a4be:	8220      	strh	r0, [r4, #16]
    a4c0:	5e14      	ldrsh	r4, [r2, r0]
    a4c2:	173d      	asrs	r5, r7, #28
    a4c4:	0a1d      	lsrs	r5, r3, #8
    a4c6:	ef0f 2df7 	vmla.f32	q1, <illegal reg q15.5>, <illegal reg q11.5>
    a4ca:	df10      	svc	16
    a4cc:	057e      	lsls	r6, r7, #21
    a4ce:	6147      	str	r7, [r0, #20]
    a4d0:	0514      	lsls	r4, r2, #20
    a4d2:	6d5f      	ldr	r7, [r3, #84]	@ 0x54
    a4d4:	0504      	lsls	r4, r0, #20
    a4d6:	6d60      	ldr	r0, [r4, #84]	@ 0x54
    a4d8:	0554      	lsls	r4, r2, #21
    a4da:	6d61      	ldr	r1, [r4, #84]	@ 0x54
    a4dc:	0564      	lsls	r4, r4, #21
    a4de:	ad62      	add	r5, sp, #392	@ 0x188
    a4e0:	f0f0 df7e 	bl	0x8fb3e0
    a4e4:	f102 7fdf 	add.w	pc, r2, #29229056	@ 0x1be0000
    a4e8:	4604      	mov	r4, r0
    a4ea:	3050      	adds	r0, #80	@ 0x50
    a4ec:	0ad6      	lsrs	r6, r2, #11
    a4ee:	ef10 1df7 	vmla.f16	<illegal reg q0.5>, q8, <illegal reg q11.5>
    a4f2:	0a10      	lsrs	r0, r2, #8
    a4f4:	ef11 f107 	vrhadd.s16	d15, d1, d7
    a4f8:	120a      	asrs	r2, r1, #8
    a4fa:	07ef      	lsls	r7, r5, #31
    a4fc:	0af1      	lsrs	r1, r6, #11
    a4fe:	ef13 f107 	vrhadd.s16	d15, d3, d7
    a502:	140a      	asrs	r2, r1, #16
    a504:	07ef      	lsls	r7, r5, #31
    a506:	0af1      	lsrs	r1, r6, #11
    a508:	ef15 f107 	vrhadd.s16	d15, d5, d7
    a50c:	160a      	asrs	r2, r1, #24
    a50e:	07ef      	lsls	r7, r5, #31
    a510:	dff1      	svc	241	@ 0xf1
    a512:	047e      	lsls	r6, r7, #17
    a514:	5046      	str	r6, [r0, r1]
    a516:	d650      	bvs.n	0xa5ba
    a518:	b304      	cbz	r4, 0xa55c
    a51a:	147e      	asrs	r6, r7, #17
    a51c:	86c2      	strh	r2, [r0, #54]	@ 0x36
    a51e:	c0c8      	stmia	r0!, {r3, r6, r7}
    a520:	001c      	movs	r4, r3
    a522:	aa80      	add	r2, sp, #512	@ 0x200
    a524:	6c21      	ldr	r1, [r4, #64]	@ 0x40
    a526:	0c88      	lsrs	r0, r1, #18
    a528:	00cc      	lsls	r4, r1, #3
    a52a:	b800      			@ <UNDEFINED> instruction: 0xb800
    a52c:	4617      	mov	r7, r2
    a52e:	08c1      	lsrs	r1, r0, #3
    a530:	a0e0      	add	r0, pc, #896	@ (adr r0, 0xa8b4)
    a532:	1190      	asrs	r0, r2, #6
    a534:	b943      	cbnz	r3, 0xa548
    a536:	1980      	adds	r0, r0, r6
    a538:	2c01      	cmp	r4, #1
    a53a:	6d20      	ldr	r0, [r4, #80]	@ 0x50
    a53c:	0c88      	lsrs	r0, r1, #18
    a53e:	4e21      	ldr	r6, [pc, #132]	@ (0xa5c4)
    a540:	dfb9      	svc	185	@ 0xb9
    a542:	f102 fddf 	bl	0x10d104
    a546:	4714      	bxns	r2
    a548:	0460      	lsls	r0, r4, #17
    a54a:	6605      	str	r5, [r0, #96]	@ 0x60
    a54c:	16ed      	asrs	r5, r5, #27
    a54e:	b6d2      			@ <UNDEFINED> instruction: 0xb6d2
    a550:	00d6      	lsls	r6, r2, #3
    a552:	200c      	movs	r0, #12
    a554:	8a6d      	ldrh	r5, [r5, #18]
    a556:	0a0d      	lsrs	r5, r1, #8
    a558:	ef1f 3df7 	vmla.f16	<illegal reg q1.5>, <illegal reg q15.5>, <illegal reg q11.5>
    a55c:	df10      	svc	16
    a55e:	047f      	lsls	r7, r7, #17
    a560:	5046      	str	r6, [r0, r1]
    a562:	d820      	bhi.n	0xa5a6
    a564:	00c0      	lsls	r0, r0, #3
    a566:	a6d2      	add	r6, pc, #840	@ (adr r6, 0xa8b0)
    a568:	a0d8      	add	r0, pc, #864	@ (adr r0, 0xa8cc)
    a56a:	f200 df7e 	bl	0xa0b46a
    a56e:	f101 fddf 	bl	0x10c130
    a572:	4714      	bxns	r2
    a574:	0460      	lsls	r0, r4, #17
    a576:	8305      	strh	r5, [r0, #24]
    a578:	16ed      	asrs	r5, r5, #27
    a57a:	46d2      	mov	sl, sl
    a57c:	00d8      	lsls	r0, r3, #3
    a57e:	200c      	movs	r0, #12
    a580:	8a6d      	ldrh	r5, [r5, #18]
    a582:	0a0d      	lsrs	r5, r1, #8
    a584:	ef21 3df7 	vmls.f32	<illegal reg q1.5>, <illegal reg q8.5>, <illegal reg q11.5>
    a588:	df10      	svc	16
    a58a:	14fd      	asrs	r5, r7, #19
    a58c:	6047      	str	r7, [r0, #4]
    a58e:	0504      	lsls	r4, r0, #20
    a590:	ed7e d216 	lfm	f5, 3, [lr, #-88]!	@ 0xffffffa8
    a594:	d866      	bhi.n	0xa664
    a596:	0c00      	lsrs	r0, r0, #16
    a598:	6d20      	ldr	r0, [r4, #80]	@ 0x50
    a59a:	0d8a      	lsrs	r2, r1, #22
    a59c:	220a      	movs	r2, #10
    a59e:	f7ef 103d 			@ <UNDEFINED> instruction: 0xf7ef103d
    a5a2:	170a      	asrs	r2, r1, #28
    a5a4:	07ef      	lsls	r7, r5, #31
    a5a6:	dff1      	svc	241	@ 0xf1
    a5a8:	047f      	lsls	r7, r7, #17
    a5aa:	5046      	str	r6, [r0, r1]
    a5ac:	d810      	bhi.n	0xa5d0
    a5ae:	180a      	adds	r2, r1, r0
    a5b0:	f7ef 101d 			@ <UNDEFINED> instruction: 0xf7ef101d
    a5b4:	fedf 6e06 	cdp2	14, 13, cr6, cr15, cr6, {0}
    a5b8:	6d20      	ldr	r0, [r4, #80]	@ 0x50
    a5ba:	0d93      	lsrs	r3, r2, #22
    a5bc:	240a      	movs	r4, #10
    a5be:	f7ef 102d 			@ <UNDEFINED> instruction: 0xf7ef102d
    a5c2:	8251      	strh	r1, [r2, #18]
    a5c4:	00fd      	lsls	r5, r7, #3
    a5c6:	200c      	movs	r0, #12
    a5c8:	8a6d      	ldrh	r5, [r5, #18]
    a5ca:	0a0d      	lsrs	r5, r1, #8
    a5cc:	ef23 f107 	vrhadd.s32	d15, d3, d7
    a5d0:	eed3 00d8 	mrc	0, 6, r0, cr3, cr8, {6}
    a5d4:	1220      	asrs	r0, r4, #8
    a5d6:	d8e5      	bhi.n	0xa5a4
    a5d8:	5101      	str	r1, [r0, r4]
    a5da:	0d8f      	lsrs	r7, r1, #22
    a5dc:	0510      	lsls	r0, r2, #20
    a5de:	02d9      	lsls	r1, r3, #11
    a5e0:	96ec      	str	r6, [sp, #944]	@ 0x3b0
    a5e2:	d200      	bcs.n	0xa5e6
    a5e4:	d406      	bmi.n	0xa5f4
    a5e6:	f100 9051 	b.w	0xd0a68c
    a5ea:	007d      	lsls	r5, r7, #1
    a5ec:	c2f1      	stmia	r2!, {r0, r4, r5, r6, r7}
    a5ee:	c886      	ldmia	r0!, {r1, r2, r7}
    a5f0:	f100 5b04 	add.w	fp, r0, #553648128	@ 0x21000000
    a5f4:	f10d 5c04 	add.w	ip, sp, #553648128	@ 0x21000000
    a5f8:	f10d 7adf 	add.w	sl, sp, #29229056	@ 0x1be0000
    a5fc:	4705      	bx	r0
    a5fe:	1461      	asrs	r1, r4, #17
    a600:	7514      	strb	r4, [r2, #20]
    a602:	423d      	tst	r5, r7
    a604:	6739      	str	r1, [r7, #112]	@ 0x70
    a606:	1404      	asrs	r4, r0, #16
    a608:	3d77      	subs	r5, #119	@ 0x77
    a60a:	a842      	add	r0, sp, #264	@ 0x108
    a60c:	464d      	mov	r5, r9
    a60e:	3471      	adds	r4, #113	@ 0x71
    a610:	7046      	strb	r6, [r0, #1]
    a612:	0a44      	lsrs	r4, r0, #9
    a614:	0212      	lsls	r2, r2, #8
    a616:	3ce8      	subs	r4, #232	@ 0xe8
    a618:	1fef      	subs	r7, r5, #7
    a61a:	1053      	asrs	r3, r2, #1
    a61c:	20aa      	movs	r0, #170	@ 0xaa
    a61e:	c311      	stmia	r3!, {r0, r4}
    a620:	7a10      	ldrb	r0, [r2, #8]
    a622:	4624      	mov	r4, r4
    a624:	18d2      	adds	r2, r2, r3
    a626:	61f0      	str	r0, [r6, #28]
    a628:	0514      	lsls	r4, r2, #20
    a62a:	6d75      	ldr	r5, [r6, #84]	@ 0x54
    a62c:	0504      	lsls	r4, r0, #20
    a62e:	1d77      	adds	r7, r6, #5
    a630:	cd60      	ldmia	r5, {r5, r6}
    a632:	a3fe      	add	r3, pc, #1016	@ (adr r3, 0xaa2c)
    a634:	7010      	strb	r0, [r2, #0]
    a636:	4624      	mov	r4, r4
    a638:	6df2      	ldr	r2, [r6, #92]	@ 0x5c
    a63a:	df10      	svc	16
    a63c:	06fc      	lsls	r4, r7, #27
    a63e:	424f      	negs	r7, r1
    a640:	d750      	bvc.n	0xa6e4
    a642:	524e      	strh	r6, [r1, r1]
    a644:	7048      	strb	r0, [r1, #1]
    a646:	4ed7      	ldr	r6, [pc, #860]	@ (0xa9a4)
    a648:	f850 104d 	ldr.w	r1, [r0, sp]
    a64c:	f9df 6f57 	ldr??.w	r6, [pc, #3927]	@ 0xb5a7
    a650:	06e0      	lsls	r0, r4, #27
    a652:	4452      	add	r2, sl
    a654:	f00b 6e36 	and.w	lr, fp, #190840832	@ 0xb600000
    a658:	7c23      	ldrb	r3, [r4, #16]
    a65a:	0d70      	lsrs	r0, r6, #21
    a65c:	8682      	strh	r2, [r0, #52]	@ 0x34
    a65e:	a3ba      	add	r3, pc, #744	@ (adr r3, 0xa948)
    a660:	2130      	movs	r1, #48	@ 0x30
    a662:	ce80      	ldmia	r6!, {r7}
    a664:	fef3 b921 			@ <UNDEFINED> instruction: 0xfef3b921
    a668:	0aa0      	lsrs	r0, r4, #10
    a66a:	2113      	movs	r1, #19
    a66c:	a0c0      	add	r0, pc, #768	@ (adr r0, 0xa970)
    a66e:	6247      	str	r7, [r0, #36]	@ 0x24
    a670:	8d24      	ldrh	r4, [r4, #40]	@ 0x28
    a672:	1901      	adds	r1, r0, r4
    a674:	236e      	movs	r3, #110	@ 0x6e
    a676:	706d      	strb	r5, [r5, #1]
    a678:	110d      	asrs	r5, r1, #4
    a67a:	ec87 0a3f 	vstmia	r7, {s0-s62}
    a67e:	4701      	bx	r0
    a680:	2462      	movs	r4, #98	@ 0x62
    a682:	f57e 107d 	sbcs.w	r0, lr, #4145152	@ 0x3f4000
    a686:	2edf      	cmp	r6, #223	@ 0xdf
    a688:	706c      	strb	r4, [r5, #1]
    a68a:	420d      	tst	r5, r1
    a68c:	0b44      	lsrs	r4, r0, #13
    a68e:	06f0      	lsls	r0, r6, #27
    a690:	f06e 102d 	orn	r0, lr, #2949165	@ 0x2d002d
    a694:	fbdf 6f37 			@ <UNDEFINED> instruction: 0xfbdf6f37
    a698:	16e1      	asrs	r1, r4, #27
    a69a:	27c2      	movs	r7, #194	@ 0xc2
    a69c:	20d7      	movs	r0, #215	@ 0xd7
    a69e:	a868      	add	r0, sp, #416	@ 0x1a0
    a6a0:	0a3b      	lsrs	r3, r7, #8
    a6a2:	0214      	lsls	r4, r2, #8
    a6a4:	1ce8      	adds	r0, r5, #3
    a6a6:	1fef      	subs	r7, r5, #7
    a6a8:	0773      	lsls	r3, r6, #29
    a6aa:	40aa      	lsls	r2, r5
    a6ac:	e311      	b.n	0xacd2
    a6ae:	7a07      	ldrb	r7, [r0, #8]
    a6b0:	4604      	mov	r4, r0
    a6b2:	18d0      	adds	r0, r2, r3
    a6b4:	e190      	b.n	0xa9d8
    a6b6:	d216      	bcs.n	0xa6e6
    a6b8:	d726      	bvc.n	0xa708
    a6ba:	6010      	str	r0, [r2, #0]
    a6bc:	fec4 10a3 	cdp2	0, 12, cr1, cr4, cr3, {5}
    a6c0:	0470      	lsls	r0, r6, #17
    a6c2:	e046      	b.n	0xa752
    a6c4:	df37      	svc	55	@ 0x37
    a6c6:	f105 26c2 	add.w	r6, r5, #3254829568	@ 0xc200c200
    a6ca:	00d7      	lsls	r7, r2, #3
    a6cc:	dff1      	svc	241	@ 0xf1
    a6ce:	047e      	lsls	r6, r7, #17
    a6d0:	4046      	eors	r6, r0
    a6d2:	d781      	bvc.n	0xa5d8
    a6d4:	8423      	strh	r3, [r4, #32]
    a6d6:	a36a      	add	r3, pc, #424	@ (adr r3, 0xa880)
    a6d8:	2150      	movs	r1, #80	@ 0x50
    a6da:	ef80 231f 	vorr.i32	d2, #3840	@ 0x00000f00
    a6de:	aa04      	add	r2, sp, #16
    a6e0:	1150      	asrs	r0, r2, #5
    a6e2:	0493      	lsls	r3, r2, #18
    a6e4:	147a      	asrs	r2, r7, #17
    a6e6:	d146      	bne.n	0xa776
    a6e8:	7018      	strb	r0, [r3, #0]
    a6ea:	0461      	lsls	r1, r4, #17
    a6ec:	7805      	ldrb	r5, [r0, #0]
    a6ee:	201d      	movs	r0, #29
    a6f0:	fec1 10a3 	cdp2	0, 12, cr1, cr1, cr3, {5}
    a6f4:	1470      	asrs	r0, r6, #17
    a6f6:	f146 102d 	adc.w	r0, r6, #2949165	@ 0x2d002d
    a6fa:	7804      	ldrb	r4, [r0, #0]
    a6fc:	f10d 7edf 	add.w	lr, sp, #29229056	@ 0x1be0000
    a700:	4604      	mov	r4, r0
    a702:	9140      	str	r1, [sp, #256]	@ 0x100
    a704:	23d7      	movs	r3, #215	@ 0xd7
    a706:	6a84      	ldr	r4, [r0, #40]	@ 0x28
    a708:	60a3      	str	r3, [r4, #8]
    a70a:	8021      	strh	r1, [r4, #0]
    a70c:	1fef      	subs	r7, r5, #7
    a70e:	0113      	lsls	r3, r2, #4
    a710:	60aa      	str	r2, [r5, #8]
    a712:	8311      	strh	r1, [r2, #24]
    a714:	7a01      	ldrb	r1, [r0, #8]
    a716:	4614      	mov	r4, r2
    a718:	18d1      	adds	r1, r2, r3
    a71a:	6170      	str	r0, [r6, #20]
    a71c:	0504      	lsls	r4, r0, #20
    a71e:	1d79      	adds	r1, r7, #5
    a720:	be10      	bkpt	0x0010
    a722:	a3fe      	add	r3, pc, #1016	@ (adr r3, 0xab1c)
    a724:	7010      	strb	r0, [r2, #0]
    a726:	4614      	mov	r4, r2
    a728:	2df1      	cmp	r5, #241	@ 0xf1
    a72a:	0410      	lsls	r0, r2, #16
    a72c:	0d79      	lsrs	r1, r7, #21
    a72e:	04f1      	lsls	r1, r6, #19
    a730:	0d54      	lsrs	r4, r2, #21
    a732:	04f1      	lsls	r1, r6, #19
    a734:	0d55      	lsrs	r5, r2, #21
    a736:	04f1      	lsls	r1, r6, #19
    a738:	0d56      	lsrs	r6, r2, #21
    a73a:	04f1      	lsls	r1, r6, #19
    a73c:	0d8f      	lsrs	r7, r1, #22
    a73e:	dff1      	svc	241	@ 0xf1
    a740:	047e      	lsls	r6, r7, #17
    a742:	4046      	eors	r6, r0
    a744:	d7a1      	bvc.n	0xa68a
    a746:	8423      	strh	r3, [r4, #32]
    a748:	a36a      	add	r3, pc, #424	@ (adr r3, 0xa8f4)
    a74a:	20f0      	movs	r0, #240	@ 0xf0
    a74c:	ef80 031f 	vorr.i32	d0, #3840	@ 0x00000f00
    a750:	a9fd      	add	r1, sp, #1012	@ 0x3f4
    a752:	10f0      	asrs	r0, r6, #3
    a754:	fd73 1479 	ldc2l	4, cr1, [r3, #-484]!	@ 0xfffffe1c
    a758:	d146      	bne.n	0xa7e8
    a75a:	7018      	strb	r0, [r3, #0]
    a75c:	0461      	lsls	r1, r4, #17
    a75e:	7a05      	ldrb	r5, [r0, #8]
    a760:	001d      	movs	r5, r3
    a762:	feba 10a3 	cdp2	0, 11, cr1, cr10, cr3, {5}
    a766:	1470      	asrs	r0, r6, #17
    a768:	f146 102d 	adc.w	r0, r6, #2949165	@ 0x2d002d
    a76c:	7a04      	ldrb	r4, [r0, #8]
    a76e:	f10d 7edf 	add.w	lr, sp, #29229056	@ 0x1be0000
    a772:	4604      	mov	r4, r0
    a774:	b140      	cbz	r0, 0xa788
    a776:	23d7      	movs	r3, #215	@ 0xd7
    a778:	6a84      	ldr	r4, [r0, #40]	@ 0x28
    a77a:	c0a3      	stmia	r0!, {r0, r1, r5, r7}
    a77c:	8020      	strh	r0, [r4, #0]
    a77e:	1fef      	subs	r7, r5, #7
    a780:	f9f3 c0a9 	ldr??.w	ip, [r3, #169]	@ 0xa9
    a784:	6310      	str	r0, [r2, #48]	@ 0x30
    a786:	79fa      	ldrb	r2, [r7, #7]
    a788:	4614      	mov	r4, r2
    a78a:	18d1      	adds	r1, r2, r3
    a78c:	6170      	str	r0, [r6, #20]
    a78e:	0504      	lsls	r4, r0, #20
    a790:	1d7b      	adds	r3, r7, #5
    a792:	b790      			@ <UNDEFINED> instruction: 0xb790
    a794:	a3fe      	add	r3, pc, #1016	@ (adr r3, 0xab90)
    a796:	7010      	strb	r0, [r2, #0]
    a798:	4614      	mov	r4, r2
    a79a:	2df1      	cmp	r5, #241	@ 0xf1
    a79c:	0410      	lsls	r0, r2, #16
    a79e:	0d7b      	lsrs	r3, r7, #21
    a7a0:	dff1      	svc	241	@ 0xf1
    a7a2:	047e      	lsls	r6, r7, #17
    a7a4:	4046      	eors	r6, r0
    a7a6:	d7c1      	bvc.n	0xa72c
    a7a8:	8423      	strh	r3, [r4, #32]
    a7aa:	a31a      	add	r3, pc, #104	@ (adr r3, 0xa814)
    a7ac:	20d0      	movs	r0, #208	@ 0xd0
    a7ae:	ef80 e31f 	vorr.i32	d14, #3840	@ 0x00000f00
    a7b2:	a9f6      	add	r1, sp, #984	@ 0x3d8
    a7b4:	10d0      	asrs	r0, r2, #3
    a7b6:	f753 1479 			@ <UNDEFINED> instruction: 0xf7531479
    a7ba:	d146      	bne.n	0xa84a
    a7bc:	2018      	movs	r0, #24
    a7be:	0461      	lsls	r1, r4, #17
    a7c0:	7c05      	ldrb	r5, [r0, #16]
    a7c2:	3fed      	subs	r7, #237	@ 0xed
    a7c4:	010a      	lsls	r2, r1, #4
    a7c6:	6147      	str	r7, [r0, #20]
    a7c8:	df14      	svc	20
    a7ca:	f102 7c04 	add.w	ip, r2, #34603008	@ 0x2100000
    a7ce:	f10d fadf 	bl	0x117d90
    a7d2:	4f45      	ldr	r7, [pc, #276]	@ (0xa8e8)
    a7d4:	00a0      	lsls	r0, r4, #2
    a7d6:	2470      	movs	r4, #112	@ 0x70
    a7d8:	000a      	movs	r2, r1
    a7da:	8347      	strh	r7, [r0, #26]
    a7dc:	63c9      	str	r1, [r1, #60]	@ 0x3c
    a7de:	5834      	ldr	r4, [r6, r0]
    a7e0:	2a12      	cmp	r2, #18
    a7e2:	fd05 45ad 	stc2	5, cr4, [r5, #-692]	@ 0xfffffd4c
    a7e6:	e952 c204 	ldrd	ip, r2, [r2, #-16]
    a7ea:	202c      	movs	r0, #44	@ 0x2c
    a7ec:	f621 8d0c 	bhi.w	0xfffac208
    a7f0:	0b01      	lsrs	r1, r0, #12
    a7f2:	010a      	lsls	r2, r1, #4
    a7f4:	8247      	strh	r7, [r0, #18]
    a7f6:	6139      	str	r1, [r7, #16]
    a7f8:	0834      	lsrs	r4, r6, #32
    a7fa:	60d1      	str	r1, [r2, #12]
    a7fc:	0c34      	lsrs	r4, r6, #16
    a7fe:	d803      	bhi.n	0xa808
    a800:	46b9      	mov	r9, r7
    a802:	45e2      	cmp	sl, ip
    a804:	06df      	lsls	r7, r3, #27
    a806:	dff1      	svc	241	@ 0xf1
    a808:	25fc      	movs	r5, #252	@ 0xfc
    a80a:	d04f      	beq.n	0xa8ac
    a80c:	d9df      	bls.n	0xa7ce
    a80e:	04e0      	lsls	r0, r4, #19
    a810:	2cc2      	cmp	r4, #194	@ 0xc2
    a812:	2120      	movs	r1, #32
    a814:	0d08      	lsrs	r0, r1, #20
    a816:	030a      	lsls	r2, r1, #12
    a818:	e7ef      	b.n	0xa7fa
    a81a:	df25      	svc	37	@ 0x25
    a81c:	f104 fcdf 	bl	0x10f1de
    a820:	4f25      	ldr	r7, [pc, #148]	@ (0xa8b8)
    a822:	05e0      	lsls	r0, r4, #23
    a824:	95ed      	str	r5, [sp, #948]	@ 0x3b4
    a826:	c20d      	stmia	r2!, {r0, r2, r3}
    a828:	202c      	movs	r0, #44	@ 0x2c
    a82a:	f121 0a0c 			@ <UNDEFINED> instruction: 0xf1210a0c
    a82e:	4e00      	ldr	r6, [pc, #0]	@ (0xa830)
    a830:	4870      	ldr	r0, [pc, #448]	@ (0xa9f4)
    a832:	00a0      	lsls	r0, r4, #2
    a834:	04e0      	lsls	r0, r4, #19
    a836:	0587      	lsls	r7, r0, #22
    a838:	000a      	movs	r2, r1
    a83a:	704e      	strb	r6, [r1, #1]
    a83c:	e068      	b.n	0xa910
    a83e:	df25      	svc	37	@ 0x25
    a840:	f104 9104 	b.w	0xd0ea4c
    a844:	f10d 9204 	b.w	0xd17c50
    a848:	f10d 4fdf 	add.w	pc, sp, #1870659584	@ 0x6f800000
    a84c:	da60      	bge.n	0xa910
    a84e:	1047      	asrs	r7, r0, #1
    a850:	da65      	bge.n	0xa91e
    a852:	46ff      	mov	pc, pc
    a854:	1df0      	adds	r0, r6, #7
    a856:	0410      	lsls	r0, r2, #16
    a858:	0da7      	lsrs	r7, r4, #22
    a85a:	dff1      	svc	241	@ 0xf1
    a85c:	4c2e      	ldr	r4, [pc, #184]	@ (0xa918)
    a85e:	0c88      	lsrs	r0, r1, #18
    a860:	00cd      	lsls	r5, r1, #3
    a862:	1900      	adds	r0, r0, r4
    a864:	ece6 eca9 	stcl	12, cr14, [r6], #676	@ 0x2a4
    a868:	d990      	bls.n	0xa78c
    a86a:	c21a      	stmia	r2!, {r1, r3, r4}
    a86c:	d406      	bmi.n	0xa87c
    a86e:	0cc0      	lsrs	r0, r0, #19
    a870:	2000      	movs	r0, #0
    a872:	9a33      	ldr	r2, [sp, #204]	@ 0xcc
    a874:	6c21      	ldr	r1, [r4, #64]	@ 0x40
    a876:	0d40      	lsrs	r0, r0, #21
    a878:	1442      	asrs	r2, r0, #17
    a87a:	9000      	str	r0, [sp, #0]
    a87c:	6c24      	ldr	r4, [r4, #64]	@ 0x40
    a87e:	0d40      	lsrs	r0, r0, #21
    a880:	00cc      	lsls	r4, r1, #3
    a882:	b900      	cbnz	r0, 0xa886
    a884:	1178      	asrs	r0, r7, #5
    a886:	7eb3      	ldrb	r3, [r6, #26]
    a888:	18d1      	adds	r1, r2, r3
    a88a:	10a0      	asrs	r0, r4, #2
    a88c:	a6f0      	add	r6, pc, #960	@ (adr r6, 0xac50)
    a88e:	8a99      	ldrh	r1, [r3, #20]
    a890:	e500      	b.n	0xa294
    a892:	00d8      	lsls	r0, r3, #3
    a894:	e322      	b.n	0xaedc
    a896:	cd37      	ldmia	r5, {r0, r1, r2, r4, r5}
    a898:	0d8e      	lsrs	r6, r1, #22
    a89a:	2501      	movs	r5, #1
    a89c:	ecd3 20d8 	ldcl	0, cr2, [r3], {216}	@ 0xd8
    a8a0:	3490      	adds	r4, #144	@ 0x90
    a8a2:	8ecd      	ldrh	r5, [r1, #54]	@ 0x36
    a8a4:	030d      	lsls	r5, r1, #12
    a8a6:	d33e      	bcc.n	0xa926
    a8a8:	d8ec      	bhi.n	0xa884
    a8aa:	3040      	adds	r0, #64	@ 0x40
    a8ac:	7983      	ldrb	r3, [r0, #6]
    a8ae:	c014      	stmia	r0!, {r2, r4}
    a8b0:	50a4      	str	r4, [r4, r2]
    a8b2:	0d90      	lsrs	r0, r2, #22
    a8b4:	3220      	adds	r2, #32
    a8b6:	0410      	lsls	r0, r2, #16
    a8b8:	2d90      	cmp	r5, #144	@ 0x90
    a8ba:	010a      	lsls	r2, r1, #4
    a8bc:	980d      	ldr	r0, [sp, #52]	@ 0x34
    a8be:	042d      	lsls	r5, r5, #16
    a8c0:	8d8e      	ldrh	r6, [r1, #44]	@ 0x2c
    a8c2:	0d10      	lsrs	r0, r2, #20
    a8c4:	1f98      	subs	r0, r3, #6
    a8c6:	a7ed      	add	r7, pc, #948	@ (adr r7, 0xac7c)
    a8c8:	1145      	asrs	r5, r0, #5
    a8ca:	49dc      	ldr	r1, [pc, #880]	@ (0xac3c)
    a8cc:	d8e0      	bhi.n	0xa890
    a8ce:	d108      	bne.n	0xa8e2
    a8d0:	3fe0      	subs	r7, #224	@ 0xe0
    a8d2:	8e51      	ldrh	r1, [r2, #50]	@ 0x32
    a8d4:	c00d      	stmia	r0!, {r0, r2, r3}
    a8d6:	096e      	lsrs	r6, r5, #5
    a8d8:	6d20      	ldr	r0, [r4, #80]	@ 0x50
    a8da:	0d40      	lsrs	r0, r0, #21
    a8dc:	c699      	stmia	r6!, {r0, r3, r4, r7}
    a8de:	e500      	b.n	0xa2e2
    a8e0:	00d8      	lsls	r0, r3, #3
    a8e2:	f322 6c25 			@ <UNDEFINED> instruction: 0xf3226c25
    a8e6:	0d40      	lsrs	r0, r0, #21
    a8e8:	00cc      	lsls	r4, r1, #3
    a8ea:	2200      	movs	r2, #0
    a8ec:	24d3      	movs	r4, #211	@ 0xd3
    a8ee:	406c      	eors	r4, r5
    a8f0:	420d      	tst	r5, r1
    a8f2:	0014      	movs	r4, r2
    a8f4:	2490      	movs	r4, #144	@ 0x90
    a8f6:	406c      	eors	r4, r5
    a8f8:	cc0d      	ldmia	r4!, {r0, r2, r3}
    a8fa:	0000      	movs	r0, r0
    a8fc:	2cb8      	cmp	r4, #184	@ 0xb8
    a8fe:	8e50      	ldrh	r0, [r2, #50]	@ 0x32
    a900:	204d      	movs	r0, #77	@ 0x4d
    a902:	0a32      	lsrs	r2, r6, #8
    a904:	8e51      	ldrh	r1, [r2, #50]	@ 0x32
    a906:	e00d      	b.n	0xa924
    a908:	c05f      	stmia	r0!, {r0, r1, r2, r3, r4, r6}
    a90a:	d201      	bcs.n	0xa910
    a90c:	d406      	bmi.n	0xa91c
    a90e:	0c00      	lsrs	r0, r0, #16
    a910:	6d20      	ldr	r0, [r4, #80]	@ 0x50
    a912:	0c88      	lsrs	r0, r1, #18
    a914:	21e3      	movs	r1, #227	@ 0xe3
    a916:	73e8      	strb	r0, [r5, #15]
    a918:	10a0      	asrs	r0, r4, #2
    a91a:	2ee0      	cmp	r6, #224	@ 0xe0
    a91c:	000a      	movs	r2, r1
    a91e:	008d      	lsls	r5, r1, #2
    a920:	d33a      	bcc.n	0xa998
    a922:	d3fe      	bcc.n	0xa922
    a924:	5010      	str	r0, [r2, r0]
    a926:	f512 00d2 	adds.w	r0, r2, #6881280	@ 0x690000
    a92a:	28c3      	cmp	r0, #195	@ 0xc3
    a92c:	03e7      	lsls	r7, r4, #15
    a92e:	f0bc 0a06 			@ <UNDEFINED> instruction: 0xf0bc0a06
    a932:	ed01 459b 	cfstr32	mvfx4, [r1, #-620]	@ 0xfffffd94
    a936:	eb21 519a 			@ <UNDEFINED> instruction: 0xeb21519a
    a93a:	0d3f      	lsrs	r7, r7, #20
    a93c:	3fe0      	subs	r7, #224	@ 0xe0
    a93e:	3f51      	subs	r7, #81	@ 0x51
    a940:	f01d 102d 	ands.w	r0, sp, #2949165	@ 0x2d002d
    a944:	fcdf 6e06 	ldc2l	14, cr6, [pc], {6}
    a948:	26f0      	movs	r6, #240	@ 0xf0
    a94a:	04df      	lsls	r7, r3, #19
    a94c:	cff1      	ldmia	r7, {r0, r4, r5, r6, r7}
    a94e:	7ff5      	ldrb	r5, [r6, #31]
    a950:	95f7      	str	r5, [sp, #988]	@ 0x3dc
    a952:	f24f 4e46 	movw	lr, #62534	@ 0xf446
    a956:	6524      	str	r4, [r4, #80]	@ 0x50
    a958:	fdff c1a9 	ldc2l	1, cr12, [pc, #676]!	@ 0xac00
    a95c:	fce1 a1a9 	stc2l	1, cr10, [r1], #676	@ 0x2a4
    a960:	ece2 c7a9 	stcl	7, cr12, [r2], #676	@ 0x2a4
    a964:	fce6 3339 	stc2l	3, cr3, [r6], #228	@ 0xe4
    a968:	f609 ceed 	bfl	18, 0x14746
    a96c:	339f      	adds	r3, #159	@ 0x9f
    a96e:	c193      	stmia	r1!, {r0, r1, r4, r7}
    a970:	eedb 39fc 			@ <UNDEFINED> instruction: 0xeedb39fc
    a974:	0933      	lsrs	r3, r6, #4
    a976:	eece 4652 	mcr	6, 6, r4, cr14, cr2, {2}
    a97a:	9fc0      	ldr	r7, [sp, #768]	@ 0x300
    a97c:	3eaa      	subs	r6, #170	@ 0xaa
    a97e:	2652      	movs	r6, #82	@ 0x52
    a980:	9fc0      	ldr	r7, [sp, #768]	@ 0x300
    a982:	1d6a      	adds	r2, r5, #5
    a984:	9fce      	ldr	r7, [sp, #824]	@ 0x338
    a986:	3baa      	subs	r3, #170	@ 0xaa
    a988:	9ece      	ldr	r6, [sp, #824]	@ 0x338
    a98a:	9333      	str	r3, [sp, #204]	@ 0xcc
    a98c:	db61      	blt.n	0xaa52
    a98e:	ecee 3339 	stcl	3, cr3, [lr], #228	@ 0xe4
    a992:	0b19      	lsrs	r1, r3, #12
    a994:	ceee      	ldmia	r6, {r1, r2, r3, r5, r6, r7}
    a996:	339f      	adds	r3, #159	@ 0x9f
    a998:	6093      	str	r3, [r2, #8]
    a99a:	2ef1      	cmp	r6, #241	@ 0xf1
    a99c:	0465      	lsls	r5, r4, #17
    a99e:	a9fc      	add	r1, sp, #1008	@ 0x3f0
    a9a0:	e507      	b.n	0xa3b2
    a9a2:	39ec      	subs	r1, #236	@ 0xec
    a9a4:	0933      	lsrs	r3, r6, #4
    a9a6:	edfc 4652 	ldcl	6, cr4, [ip, #328]!	@ 0x148
    a9aa:	9fc0      	ldr	r7, [sp, #768]	@ 0x300
    a9ac:	190a      	adds	r2, r1, r4
    a9ae:	9fce      	ldr	r7, [sp, #824]	@ 0x338
    a9b0:	374a      	adds	r7, #74	@ 0x4a
    a9b2:	9ece      	ldr	r6, [sp, #824]	@ 0x338
    a9b4:	60ea      	str	r2, [r5, #12]
    a9b6:	9ece      	ldr	r6, [sp, #824]	@ 0x338
    a9b8:	9333      	str	r3, [sp, #204]	@ 0xcc
    a9ba:	e111      	b.n	0xabe0
    a9bc:	fcee 3339 	stc2l	3, cr3, [lr], #228	@ 0xe4
    a9c0:	4c19      	ldr	r4, [pc, #100]	@ (0xaa28)
    a9c2:	52ef      	strh	r7, [r5, r3]
    a9c4:	c066      	stmia	r0!, {r1, r2, r5, r6}
    a9c6:	da9f      	bge.n	0xa908
    a9c8:	ce19      	ldmia	r6!, {r0, r3, r4}
    a9ca:	3a9e      	subs	r2, #158	@ 0x9e
    a9cc:	ce50      	ldmia	r6, {r4, r6}
    a9ce:	339e      	adds	r3, #158	@ 0x9e
    a9d0:	9093      	str	r0, [sp, #588]	@ 0x24c
    a9d2:	2f05      	cmp	r7, #5
    a9d4:	0165      	lsls	r5, r4, #5
    a9d6:	39fc      	subs	r1, #252	@ 0xfc
    a9d8:	0933      	lsrs	r3, r6, #4
    a9da:	edf0 9ece 	ldcl	14, cr9, [r0, #824]!	@ 0x338
    a9de:	9333      	str	r3, [sp, #204]	@ 0xcc
    a9e0:	e460      	b.n	0xa2a4
    a9e2:	fcee 3339 	stc2l	3, cr3, [lr], #228	@ 0xe4
    a9e6:	7809      	ldrb	r1, [r1, #0]
    a9e8:	52ef      	strh	r7, [r5, r3]
    a9ea:	c046      	stmia	r0!, {r1, r2, r6}
    a9ec:	2a9f      	cmp	r2, #159	@ 0x9f
    a9ee:	5251      	strh	r1, [r2, r1]
    a9f0:	bff6      	itet	<und>
    a9f2:	339f      	add<und>	r3, #159	@ 0x9f
    a9f4:	f093 eefd 	bfcsel	2, 0xa7f2, 6, mi
    a9f8:	39ec      	sub<und>	r1, #236	@ 0xec
    a9fa:	0933      	lsrs	r3, r6, #4
    a9fc:	ee77 9fce 	cdp	15, 7, cr9, cr7, cr14, {6}
    aa00:	9333      	str	r3, [sp, #204]	@ 0xcc
    aa02:	fab0 652e 			@ <UNDEFINED> instruction: 0xfab0652e
    aa06:	fc04 27a9 	stc2	7, cr2, [r4], {169}	@ 0xa9
    aa0a:	fce5 3339 	stc2l	3, cr3, [r5], #228	@ 0xe4
    aa0e:	1519      	asrs	r1, r3, #20
    aa10:	52f0      	strh	r0, [r6, r3]
    aa12:	c006      	stmia	r0!, {r1, r2}
    aa14:	339f      	adds	r3, #159	@ 0x9f
    aa16:	a093      	add	r0, pc, #588	@ (adr r0, 0xac64)
    aa18:	ef08 39ec 	vmla.i8	<illegal reg q1.5>, q12, q14
    aa1c:	1933      	adds	r3, r6, r4
    aa1e:	eea2 2652 	mcr	6, 5, r2, cr2, cr2, {2}
    aa22:	9f80      	ldr	r7, [sp, #512]	@ 0x200
    aa24:	9333      	str	r3, [sp, #204]	@ 0xcc
    aa26:	08f1      	lsrs	r1, r6, #3
    aa28:	652f      	str	r7, [r5, #80]	@ 0x50
    aa2a:	f800 3339 	strb.w	r3, [r0, <undefined>]
    aa2e:	9509      	str	r5, [sp, #36]	@ 0x24
    aa30:	52f0      	strh	r0, [r6, r3]
    aa32:	c006      	stmia	r0!, {r1, r2}
    aa34:	339f      	adds	r3, #159	@ 0x9f
    aa36:	6093      	str	r3, [r2, #8]
    aa38:	3f0a      	subs	r7, #10
    aa3a:	c419      	stmia	r4!, {r0, r3, r4}
    aa3c:	4ef0      	ldr	r6, [pc, #960]	@ (0xae00)
    aa3e:	6862      	ldr	r2, [r4, #4]
    aa40:	6470      	str	r0, [r6, #68]	@ 0x44
    aa42:	5ed3      	ldrsh	r3, [r2, r3]
    aa44:	20d5      	movs	r0, #213	@ 0xd5
    aa46:	63a0      	str	r0, [r4, #56]	@ 0x38
    aa48:	8c64      	ldrh	r4, [r4, #34]	@ 0x22
    aa4a:	3802      	subs	r0, #2
    aa4c:	5551      	strb	r1, [r2, r5]
    aa4e:	a01d      	add	r0, pc, #116	@ (adr r0, 0xaac4)
    aa50:	1010      	asrs	r0, r2, #32
    aa52:	58d3      	ldr	r3, [r2, r3]
    aa54:	ed3b 0d6d 	ldc	13, cr0, [fp, #-436]!	@ 0xfffffe4c
    aa58:	0b00      	lsrs	r0, r0, #12
    aa5a:	030a      	lsls	r2, r1, #12
    aa5c:	8cef      	ldrh	r7, [r5, #38]	@ 0x26
    aa5e:	1119      	asrs	r1, r3, #4
    aa60:	d6d5      	bvs.n	0xaa0e
    aa62:	fe00 d513 	mcr2	5, 0, sp, cr0, cr3, {0}
    aa66:	00d6      	lsls	r6, r2, #3
    aa68:	0a0a      	lsrs	r2, r1, #8
    aa6a:	39ef      	subs	r1, #239	@ 0xef
    aa6c:	c419      	stmia	r4!, {r0, r3, r4}
    aa6e:	0af0      	lsrs	r0, r6, #11
    aa70:	ef0b 1939 	vmul.i8	d1, d11, d25
    aa74:	f0c4 624e 			@ <UNDEFINED> instruction: 0xf0c4624e
    aa78:	5068      	str	r0, [r5, r1]
    aa7a:	d5c0      	bpl.n	0xa9fe
    aa7c:	624e      	str	r6, [r1, #36]	@ 0x24
    aa7e:	5078      	str	r0, [r7, r1]
    aa80:	d5b0      	bpl.n	0xa9e4
    aa82:	0c0a      	lsrs	r2, r1, #16
    aa84:	39ef      	subs	r1, #239	@ 0xef
    aa86:	5ccd      	ldrb	r5, [r1, r3]
    aa88:	000d      	movs	r5, r1
    aa8a:	9307      	str	r3, [sp, #28]
    aa8c:	0c41      	lsrs	r1, r0, #17
    aa8e:	1c0f      	adds	r7, r1, #0
    aa90:	6d20      	ldr	r0, [r4, #80]	@ 0x50
    aa92:	0d69      	lsrs	r1, r5, #21
    aa94:	4193      	sbcs	r3, r2
    aa96:	ef0c 8624 	vmax.s8	d8, d12, d20
    aa9a:	0504      	lsls	r4, r0, #20
    aa9c:	4da6      	ldr	r5, [pc, #664]	@ (0xad38)
    aa9e:	cc71      	ldmia	r4, {r0, r4, r5, r6}
    aaa0:	a0c2      	add	r0, pc, #776	@ (adr r0, 0xadac)
    aaa2:	3452      	adds	r4, #82	@ 0x52
    aaa4:	3912      	subs	r1, #18
    aaa6:	1933      	adds	r3, r6, r4
    aaa8:	f0c4 c451 	bfl	2, 0xfffcf34c
    aaac:	300c      	adds	r0, #12
    aaae:	c419      	stmia	r4!, {r0, r3, r4}
    aab0:	4ef0      	ldr	r6, [pc, #960]	@ (0xae74)
    aab2:	4862      	ldr	r0, [pc, #392]	@ (0xac3c)
    aab4:	6470      	str	r0, [r6, #68]	@ 0x44
    aab6:	6404      	str	r4, [r0, #64]	@ 0x40
    aab8:	656d      	str	r5, [r5, #84]	@ 0x54
    aaba:	9423      	str	r4, [sp, #140]	@ 0x8c
    aabc:	138a      	asrs	r2, r1, #14
    aabe:	1646      	asrs	r6, r0, #25
    aac0:	808c      	strh	r4, [r1, #4]
    aac2:	314a      	adds	r1, #74	@ 0x4a
    aac4:	643f      	str	r7, [r7, #64]	@ 0x40
    aac6:	0b0d      	lsrs	r5, r1, #12
    aac8:	080a      	lsrs	r2, r1, #32
    aaca:	015a      	lsls	r2, r3, #5
    aacc:	3def      	subs	r5, #239	@ 0xef
    aace:	643e      	str	r6, [r7, #64]	@ 0x40
    aad0:	150d      	asrs	r5, r1, #20
    aad2:	1646      	asrs	r6, r0, #25
    aad4:	908c      	str	r0, [sp, #560]	@ 0x230
    aad6:	0a53      	lsrs	r3, r2, #9
    aad8:	5a08      	ldrh	r0, [r1, r0]
    aada:	ef00 646d 	vshl.s8	q3, <illegal reg q14.5>, q0
    aade:	10c1      	asrs	r1, r0, #3
    aae0:	14a8      	asrs	r0, r5, #18
    aae2:	44f3      	add	fp, lr
    aae4:	b0d6      	sub	sp, #344	@ 0x158
    aae6:	90a0      	str	r0, [sp, #640]	@ 0x280
    aae8:	15a0      	asrs	r0, r4, #22
    aaea:	def0      	udf	#240	@ 0xf0
    aaec:	44e3      	add	fp, ip
    aaee:	50d6      	str	r6, [r2, r3]
    aaf0:	6461      	str	r1, [r4, #68]	@ 0x44
    aaf2:	10c1      	asrs	r1, r0, #3
    aaf4:	a539      	add	r5, pc, #228	@ (adr r5, 0xabdc)
    aaf6:	a090      	add	r0, pc, #576	@ (adr r0, 0xad38)
    aaf8:	f005 46de 	and.w	r6, r5, #1862270976	@ 0x6f000000
    aafc:	0c16      	lsrs	r6, r2, #16
    aafe:	4a88      	ldr	r2, [pc, #544]	@ (0xad20)
    ab00:	7f31      	ldrb	r1, [r6, #28]
    ab02:	0d64      	lsrs	r4, r4, #21
    ab04:	0a0b      	lsrs	r3, r1, #8
    ab06:	5a0a      	ldrh	r2, [r1, r0]
    ab08:	ef01 646d 	vshl.s8	q3, <illegal reg q14.5>, <illegal reg q0.5>
    ab0c:	80c1      	strh	r1, [r0, #6]
    ab0e:	14b8      	asrs	r0, r7, #18
    ab10:	47e3      			@ <UNDEFINED> instruction: 0x47e3
    ab12:	b0d6      	sub	sp, #344	@ 0x158
    ab14:	a0a0      	add	r0, pc, #640	@ (adr r0, 0xad98)
    ab16:	05a0      	lsls	r0, r4, #22
    ab18:	def0      	udf	#240	@ 0xf0
    ab1a:	1646      	asrs	r6, r0, #25
    ab1c:	840c      	strh	r4, [r1, #32]
    ab1e:	314a      	adds	r1, #74	@ 0x4a
    ab20:	646f      	str	r7, [r5, #68]	@ 0x44
    ab22:	0b0d      	lsrs	r5, r1, #12
    ab24:	020a      	lsls	r2, r1, #8
    ab26:	015a      	lsls	r2, r3, #5
    ab28:	6def      	ldr	r7, [r5, #92]	@ 0x5c
    ab2a:	c164      	stmia	r1!, {r2, r5, r6}
    ab2c:	b840      			@ <UNDEFINED> instruction: 0xb840
    ab2e:	e314      	b.n	0xb15a
    ab30:	d646      	bvs.n	0xabc0
    ab32:	a0b0      	add	r0, pc, #704	@ (adr r0, 0xadf4)
    ab34:	a020      	add	r0, pc, #128	@ (adr r0, 0xabb8)
    ab36:	f005 46de 	and.w	r6, r5, #1862270976	@ 0x6f000000
    ab3a:	2c16      	cmp	r4, #22
    ab3c:	8a80      	ldrh	r0, [r0, #20]
    ab3e:	1f31      	subs	r1, r6, #4
    ab40:	0d64      	lsrs	r4, r4, #21
    ab42:	0a0f      	lsrs	r7, r1, #8
    ab44:	5a00      	ldrh	r0, [r0, r0]
    ab46:	ef01 f98d 	vmla.i8	d15, d17, d13
    ab4a:	6461      	str	r1, [r4, #68]	@ 0x44
    ab4c:	04c1      	lsls	r1, r0, #19
    ab4e:	14a8      	asrs	r0, r5, #18
    ab50:	42f3      	cmn	r3, r6
    ab52:	b0d6      	sub	sp, #344	@ 0x158
    ab54:	10a0      	asrs	r0, r4, #2
    ab56:	15a0      	asrs	r0, r4, #22
    ab58:	def0      	udf	#240	@ 0xf0
    ab5a:	5646      	ldrsb	r6, [r0, r1]
    ab5c:	d640      	bvs.n	0xabe0
    ab5e:	0f0a      	lsrs	r2, r1, #28
    ab60:	39ef      	subs	r1, #239	@ 0xef
    ab62:	c419      	stmia	r4!, {r0, r3, r4}
    ab64:	0af0      	lsrs	r0, r6, #11
    ab66:	ef10 1939 	vmul.i16	d1, d0, d25
    ab6a:	f0c4 0d0a 			@ <UNDEFINED> instruction: 0xf0c40d0a
    ab6e:	39ef      	subs	r1, #239	@ 0xef
    ab70:	c419      	stmia	r4!, {r0, r3, r4}
    ab72:	50f0      	str	r0, [r6, r3]
    ab74:	5d51      	ldrb	r1, [r2, r5]
    ab76:	ec80 1040 	stc	0, cr1, [r0], {64}	@ 0x40
    ab7a:	08d5      	lsrs	r5, r2, #3
    ab7c:	80d1      	strh	r1, [r2, #6]
    ab7e:	1169      	asrs	r1, r5, #5
    ab80:	d515      	bpl.n	0xabae
    ab82:	4e01      	ldr	r6, [pc, #4]	@ (0xab88)
    ab84:	4ce2      	ldr	r4, [pc, #904]	@ (0xaf10)
    ab86:	d20e      	bcs.n	0xaba6
    ab88:	eb66 24e0 	sbc.w	r4, r6, r0, asr #11
    ab8c:	0886      	lsrs	r6, r0, #2
    ab8e:	d005      	beq.n	0xab9c
    ab90:	6c2e      	ldr	r6, [r5, #64]	@ 0x40
    ab92:	0eb6      	lsrs	r6, r6, #26
    ab94:	00cc      	lsls	r4, r1, #3
    ab96:	2200      	movs	r2, #0
    ab98:	2442      	movs	r4, #66	@ 0x42
    ab9a:	b66c      			@ <UNDEFINED> instruction: 0xb66c
    ab9c:	cc0e      	ldmia	r4!, {r1, r2, r3}
    ab9e:	0000      	movs	r0, r0
    aba0:	12b8      	asrs	r0, r7, #10
    aba2:	86c2      	strh	r2, [r0, #54]	@ 0x36
    aba4:	c0eb      	stmia	r0!, {r0, r1, r3, r5, r6, r7}
    aba6:	000c      	movs	r4, r1
    aba8:	2220      	movs	r2, #32
    abaa:	d321      	bcc.n	0xabf0
    abac:	ed0e 6000 	stc	0, cr6, [lr, #-0]
    abb0:	ed31 0ed0 	ldc	14, cr0, [r1, #-832]!	@ 0xfffffcc0
    abb4:	1a00      	subs	r0, r0, r0
    abb6:	1cd3      	adds	r3, r2, #3
    abb8:	00ed      	lsls	r5, r5, #3
    abba:	10f0      	asrs	r0, r6, #3
    abbc:	25e3      	movs	r5, #227	@ 0xe3
    abbe:	6ecb      	ldr	r3, [r1, #108]	@ 0x6c
    abc0:	f009 4e2e 	and.w	lr, r9, #2919235584	@ 0xae000000
    abc4:	6862      	ldr	r2, [r4, #4]
    abc6:	6470      	str	r0, [r6, #68]	@ 0x44
    abc8:	1ed3      	subs	r3, r2, #3
    abca:	10d9      	asrs	r1, r3, #3
    abcc:	6130      	str	r0, [r6, #16]
    abce:	8c64      	ldrh	r4, [r4, #34]	@ 0x22
    abd0:	0a01      	lsrs	r1, r0, #8
    abd2:	5321      	strh	r1, [r4, r4]
    abd4:	98b4      	ldr	r0, [sp, #720]	@ 0x2d0
    abd6:	461a      	mov	r2, r3
    abd8:	18d6      	adds	r6, r2, r3
    abda:	3110      	adds	r1, #16
    abdc:	91cd      	str	r1, [sp, #820]	@ 0x334
    abde:	010d      	lsls	r5, r1, #4
    abe0:	2106      	movs	r1, #6
    abe2:	b444      	push	{r2, r6}
    abe4:	5646      	ldrsb	r6, [r0, r1]
    abe6:	d910      	bls.n	0xac0a
    abe8:	624e      	str	r6, [r1, #36]	@ 0x24
    abea:	7078      	strb	r0, [r7, #1]
    abec:	d364      	bcc.n	0xacb8
    abee:	d92e      	bls.n	0xac4e
    abf0:	8010      	strh	r0, [r2, #0]
    abf2:	6461      	str	r1, [r4, #68]	@ 0x44
    abf4:	018c      	lsls	r4, r1, #6
    abf6:	0a0f      	lsrs	r7, r1, #8
    abf8:	9300      	str	r3, [sp, #0]
    abfa:	cff8      	ldmia	r7, {r3, r4, r5, r6, r7}
    abfc:	f984 6461 	vst1.16			@ <UNDEFINED> instruction: 0xf9846461
    ac00:	018d      	lsls	r5, r1, #6
    ac02:	d316      	bcc.n	0xac32
    ac04:	d92c      	bls.n	0xac60
    ac06:	b010      	add	sp, #64	@ 0x40
    ac08:	10a0      	asrs	r0, r4, #2
    ac0a:	8930      	ldrh	r0, [r6, #8]
    ac0c:	4cff      	ldr	r4, [pc, #1020]	@ (0xb00c)
    ac0e:	5646      	ldrsb	r6, [r0, r1]
    ac10:	d920      	bls.n	0xac54
    ac12:	66c2      	str	r2, [r0, #108]	@ 0x6c
    ac14:	20eb      	movs	r0, #235	@ 0xeb
    ac16:	b86d      			@ <UNDEFINED> instruction: 0xb86d
    ac18:	040e      	lsls	r6, r1, #16
    ac1a:	5ed0      	ldrsh	r0, [r2, r3]
    ac1c:	ed10 110a 	ldfs	f1, [r0, #-40]	@ 0xffffffd8
    ac20:	39ef      	subs	r1, #239	@ 0xef
    ac22:	c419      	stmia	r4!, {r0, r3, r4}
    ac24:	4ef0      	ldr	r6, [pc, #960]	@ (0xafe8)
    ac26:	4ce2      	ldr	r4, [pc, #904]	@ (0xafb0)
    ac28:	d20e      	bcs.n	0xac48
    ac2a:	eba6 24e0 	sub.w	r4, r6, r0, asr #11
    ac2e:	0686      	lsls	r6, r0, #26
    ac30:	0796      	lsls	r6, r2, #30
    ac32:	46d2      	mov	sl, sl
    ac34:	60ec      	str	r4, [r5, #12]
    ac36:	6088      	str	r0, [r1, #8]
    ac38:	2099      	movs	r0, #153	@ 0x99
    ac3a:	c66d      	stmia	r6!, {r0, r2, r3, r5, r6}
    ac3c:	210e      	movs	r1, #14
    ac3e:	b1e2      	cbz	r2, 0xac7a
    ac40:	e921 ecb1 	stmdb	r1!, {r0, r4, r5, r7, sl, fp, sp, lr, pc}
    ac44:	0096      	lsls	r6, r2, #2
    ac46:	a2ef      	add	r2, pc, #956	@ (adr r2, 0xb004)
    ac48:	f120 939e 	b.w	0xd2b388
    ac4c:	0c41      	lsrs	r1, r0, #17
    ac4e:	24ef      	movs	r4, #239	@ 0xef
    ac50:	e4ce      	b.n	0xa5f0
    ac52:	6d20      	ldr	r0, [r4, #80]	@ 0x50
    ac54:	0ebc      	lsrs	r4, r7, #26
    ac56:	624e      	str	r6, [r1, #36]	@ 0x24
    ac58:	6068      	str	r0, [r5, #4]
    ac5a:	2079      	movs	r0, #121	@ 0x79
    ac5c:	c86d      	ldmia	r0, {r0, r2, r3, r5, r6}
    ac5e:	860e      	strh	r6, [r1, #48]	@ 0x30
    ac60:	9608      	str	r6, [sp, #32]
    ac62:	d209      	bcs.n	0xac78
    ac64:	eca6 d310 	stc	3, cr13, [r6], #64	@ 0x40
    ac68:	1b1b      	subs	r3, r3, r4
    ac6a:	1c43      	adds	r3, r0, #1
    ac6c:	6ecb      	ldr	r3, [r1, #108]	@ 0x6c
    ac6e:	f009 0a2e 	and.w	sl, r9, #46	@ 0x2e
    ac72:	ef13 1939 	vmul.i16	d1, d3, d25
    ac76:	f0c4 e24e 	blx	0x4cf114
    ac7a:	0e4c      	lsrs	r4, r1, #25
    ac7c:	e6d2      	b.n	0xaa24
    ac7e:	e0eb      	b.n	0xae58
    ac80:	ce24      	ldmia	r6!, {r2, r5}
    ac82:	20e6      	movs	r0, #230	@ 0xe6
    ac84:	c06d      	stmia	r0!, {r0, r2, r3, r5, r6}
    ac86:	4e0e      	ldr	r6, [pc, #56]	@ (0xacc0)
    ac88:	ce22      	ldmia	r6!, {r1, r5}
    ac8a:	0e08      	lsrs	r0, r1, #24
    ac8c:	26d2      	movs	r6, #210	@ 0xd2
    ac8e:	10ec      	asrs	r4, r5, #3
    ac90:	1ad3      	subs	r3, r2, r3
    ac92:	6ecb      	ldr	r3, [r1, #108]	@ 0x6c
    ac94:	f009 0a2e 	and.w	sl, r9, #46	@ 0x2e
    ac98:	ef14 1939 	vmul.i16	d1, d4, d25
    ac9c:	f0c4 624e 			@ <UNDEFINED> instruction: 0xf0c4624e
    aca0:	6048      	str	r0, [r1, #4]
    aca2:	2059      	movs	r0, #89	@ 0x59
    aca4:	cc6d      	ldmia	r4!, {r0, r2, r3, r5, r6}
    aca6:	860e      	strh	r6, [r1, #48]	@ 0x30
    aca8:	9606      	str	r6, [sp, #24]
    acaa:	d207      	bcs.n	0xacbc
    acac:	ece6 9310 	stcl	3, cr9, [r6], #64	@ 0x40
    acb0:	cb18      	ldmia	r3, {r3, r4}
    acb2:	096e      	lsrs	r6, r5, #5
    acb4:	2ef0      	cmp	r6, #240	@ 0xf0
    acb6:	150a      	asrs	r2, r1, #20
    acb8:	39ef      	subs	r1, #239	@ 0xef
    acba:	c419      	stmia	r4!, {r0, r3, r4}
    acbc:	11f0      	asrs	r0, r6, #7
    acbe:	1838      	adds	r0, r7, r0
    acc0:	83b0      	strh	r0, [r6, #28]
    acc2:	160a      	asrs	r2, r1, #24
    acc4:	99ef      	ldr	r1, [sp, #956]	@ 0x3bc
    acc6:	7f99      	ldrb	r1, [r3, #30]
    acc8:	efd3 00d8 	vshr.s64	q8, q4, #45
    accc:	1b70      	subs	r0, r6, r5
    acce:	624e      	str	r6, [r1, #36]	@ 0x24
    acd0:	5048      	str	r0, [r1, r1]
    acd2:	eb30 624e 			@ <UNDEFINED> instruction: 0xeb30624e
    acd6:	5058      	str	r0, [r3, r1]
    acd8:	eb40 624e 	adc.w	r2, r0, lr, lsl #25
    acdc:	5068      	str	r0, [r5, r1]
    acde:	eb50 624e 	adcs.w	r2, r0, lr, lsl #25
    ace2:	7078      	strb	r0, [r7, #1]
    ace4:	c264      	stmia	r2!, {r2, r5, r6}
    ace6:	0d30      	lsrs	r0, r6, #20
    ace8:	3144      	adds	r1, #68	@ 0x44
    acea:	23eb      	movs	r3, #235	@ 0xeb
    acec:	3d84      	subs	r5, #132	@ 0x84
    acee:	0c26      	lsrs	r6, r4, #16
    acf0:	40d3      	lsrs	r3, r2
    acf2:	b314      	cbz	r4, 0xad3a
    acf4:	423e      	tst	r6, r7
    acf6:	13b8      	asrs	r0, r7, #14
    acf8:	40c2      	lsrs	r2, r0
    acfa:	440d      	add	r5, r1
    acfc:	eb41 8423 			@ <UNDEFINED> instruction: 0xeb418423
    ad00:	23dd      	movs	r3, #221	@ 0xdd
    ad02:	d30c      	bcc.n	0xad1e
    ad04:	1440      	asrs	r0, r0, #17
    ad06:	3eb3      	subs	r6, #179	@ 0xb3
    ad08:	b942      	cbnz	r2, 0xad1c
    ad0a:	212e      	movs	r1, #46	@ 0x2e
    ad0c:	d40c      	bmi.n	0xad28
    ad0e:	1440      	asrs	r0, r0, #17
    ad10:	3eb4      	subs	r6, #180	@ 0xb4
    ad12:	b942      	cbnz	r2, 0xad26
    ad14:	211a      	movs	r1, #26
    ad16:	d50c      	bpl.n	0xad32
    ad18:	1440      	asrs	r0, r0, #17
    ad1a:	3eb5      	subs	r6, #181	@ 0xb5
    ad1c:	3242      	adds	r2, #66	@ 0x42
    ad1e:	1052      	asrs	r2, r2, #1
    ad20:	2646      	movs	r6, #70	@ 0x46
    ad22:	008d      	lsls	r5, r1, #2
    ad24:	00fa      	lsls	r2, r7, #3
    ad26:	201c      	movs	r0, #28
    ad28:	886d      	ldrh	r5, [r5, #2]
    ad2a:	110c      	asrs	r4, r1, #4
    ad2c:	144e      	asrs	r6, r1, #17
    ad2e:	5d23      	ldrb	r3, [r4, r4]
    ad30:	431f      	orrs	r7, r3
    ad32:	1f5d      	subs	r5, r3, #5
    ad34:	5d63      	ldrb	r3, [r4, r5]
    ad36:	404f      	eors	r7, r1
    ad38:	21d5      	movs	r1, #213	@ 0xd5
    ad3a:	f68d 5604 			@ <UNDEFINED> instruction: 0xf68d5604
    ad3e:	131d      	asrs	r5, r3, #12
    ad40:	4f6a      	ldr	r7, [pc, #424]	@ (0xaeec)
    ad42:	d630      	bvs.n	0xada6
    ad44:	9f21      	ldr	r7, [sp, #132]	@ 0x84
    ad46:	04f7      	lsls	r7, r6, #19
    ad48:	7d61      	ldrb	r1, [r4, #21]
    ad4a:	0404      	lsls	r4, r0, #16
    ad4c:	7d62      	ldrb	r2, [r4, #21]
    ad4e:	0414      	lsls	r4, r2, #16
    ad50:	4d5f      	ldr	r5, [pc, #380]	@ (0xaed0)
    ad52:	d601      	bvs.n	0xad58
    ad54:	7421      	strb	r1, [r4, #16]
    ad56:	04f7      	lsls	r7, r6, #19
    ad58:	ad59      	add	r5, sp, #356	@ 0x164
    ad5a:	1005      	asrs	r5, r0, #32
    ad5c:	7013      	strb	r3, [r2, #0]
    ad5e:	a04f      	add	r0, pc, #316	@ (adr r0, 0xae9c)
    ad60:	5ad5      	ldrh	r5, [r2, r3]
    ad62:	2100      	movs	r1, #0
    ad64:	f71f 8a21 	bgt.w	0xfffaa1aa
    ad68:	21f7      	movs	r1, #247	@ 0xf7
    ad6a:	f78c 8e21 	undefined (bcc, cond=0xE)
    ad6e:	21f7      	movs	r1, #247	@ 0xf7
    ad70:	f795 8d21 	undefined (bcc, cond=0xE)
    ad74:	21f7      	movs	r1, #247	@ 0xf7
    ad76:	e65c      	b.n	0xaa32
    ad78:	9721      	str	r7, [sp, #132]	@ 0x84
    ad7a:	21f5      	movs	r1, #245	@ 0xf5
    ad7c:	e68b      	b.n	0xaa96
    ad7e:	00cc      	lsls	r4, r1, #3
    ad80:	0900      	lsrs	r0, r0, #4
    ad82:	3316      	adds	r3, #22
    ad84:	1e68      	subs	r0, r5, #1
    ad86:	5963      	ldr	r3, [r4, r5]
    ad88:	131f      	asrs	r7, r3, #12
    ad8a:	4f5a      	ldr	r7, [pc, #360]	@ (0xaef4)
    ad8c:	d530      	bpl.n	0xadf0
    ad8e:	a121      	add	r1, pc, #132	@ (adr r1, 0xae14)
    ad90:	c0f5      	stmia	r0!, {r0, r2, r4, r5, r6, r7}
    ad92:	d232      	bcs.n	0xadfa
    ad94:	d4d6      	bmi.n	0xad44
    ad96:	cec0      	ldmia	r6, {r6, r7}
    ad98:	205d      	movs	r0, #93	@ 0x5d
    ad9a:	4f6d      	ldr	r7, [pc, #436]	@ (0xaf50)
    ad9c:	510d      	str	r5, [r1, r4]
    ad9e:	5d51      	ldrb	r1, [r2, r5]
    ada0:	c980      	ldmia	r1!, {r7}
    ada2:	60a1      	str	r1, [r4, #8]
    ada4:	15a0      	asrs	r0, r4, #22
    ada6:	def0      	udf	#240	@ 0xf0
    ada8:	17ee      	asrs	r6, r5, #31
    adaa:	d8e5      	bhi.n	0xad78
    adac:	5100      	str	r0, [r0, r4]
    adae:	1d8f      	adds	r7, r1, #6
    adb0:	10a0      	asrs	r0, r4, #2
    adb2:	9ef0      	ldr	r6, [sp, #960]	@ 0x3c0
    adb4:	1c99      	adds	r1, r3, #2
    adb6:	40a6      	lsls	r6, r4
    adb8:	9ef0      	ldr	r6, [sp, #960]	@ 0x3c0
    adba:	1099      	asrs	r1, r3, #2
    adbc:	00a6      	lsls	r6, r4, #2
    adbe:	6470      	str	r0, [r6, #68]	@ 0x44
    adc0:	2298      	movs	r2, #152	@ 0x98
    adc2:	8646      	strh	r6, [r0, #50]	@ 0x32
    adc4:	9125      	str	r1, [sp, #148]	@ 0x94
    adc6:	a052      	add	r0, pc, #328	@ (adr r0, 0xaf10)
    adc8:	d00a      	beq.n	0xade0
    adca:	c8ce      	ldmia	r0!, {r1, r2, r3, r6, r7}
    adcc:	8520      	strh	r0, [r4, #40]	@ 0x28
    adce:	46a5      	mov	sp, r4
    add0:	1086      	asrs	r6, r0, #2
    add2:	460d      	mov	r5, r1
    add4:	50c6      	str	r6, [r0, r3]
    add6:	3d82      	subs	r5, #130	@ 0x82
    add8:	1e3d      	subs	r5, r7, #0
    adda:	3e82      	subs	r6, #130	@ 0x82
    addc:	0a07      	lsrs	r7, r0, #8
    adde:	ee01 00a2 	cdp	0, 0, cr0, cr1, cr2, {5}
    ade2:	f050 c0d3 	bfl	0, 0xfffdaf8a
    ade6:	d202      	bcs.n	0xadee
    ade8:	c886      	ldmia	r0!, {r1, r2, r7}
    adea:	1310      	asrs	r0, r2, #12
    adec:	9b0a      	ldr	r3, [sp, #40]	@ 0x28
    adee:	5a99      	ldrh	r1, [r3, r2]
    adf0:	050a      	lsls	r2, r1, #20
    adf2:	99ef      	ldr	r1, [sp, #956]	@ 0x3bc
    adf4:	59d9      	ldr	r1, [r3, r7]
    adf6:	170a      	asrs	r2, r1, #28
    adf8:	99ef      	ldr	r1, [sp, #956]	@ 0x3bc
    adfa:	5919      	ldr	r1, [r3, r4]
    adfc:	180a      	adds	r2, r1, r0
    adfe:	e9ef 8624 	strd	r8, r6, [pc, #144]!	@ 0xae90	@ 0x90
    ae02:	4e05      	ldr	r6, [pc, #20]	@ (0xae18)
    ae04:	6ce2      	ldr	r2, [r4, #76]	@ 0x4c
    ae06:	3621      	adds	r6, #33	@ 0x21
    ae08:	99b1      	ldr	r1, [sp, #708]	@ 0x2c4
    ae0a:	a572      	add	r5, pc, #456	@ (adr r5, 0xafd4)
    ae0c:	f1a0 999e 	b.w	0x9ab14c
    ae10:	e566      	b.n	0xa8e0
    ae12:	8624      	strh	r4, [r4, #48]	@ 0x30
    ae14:	4705      	bx	r0
    ae16:	d046      	beq.n	0xaea6
    ae18:	58d7      	ldr	r7, [r2, r3]
    ae1a:	ffcc a800 	vmlal.u8	q13, d12, d0
    ae1e:	4642      	mov	r2, r8
    ae20:	28d6      	cmp	r0, #214	@ 0xd6
    ae22:	1120      	asrs	r0, r4, #4
    ae24:	d885      	bhi.n	0xad32
    ae26:	511b      	str	r3, [r3, r4]
    ae28:	1d89      	adds	r1, r1, #6
    ae2a:	7980      	ldrb	r0, [r0, #6]
    ae2c:	8512      	strh	r2, [r2, #40]	@ 0x28
    ae2e:	25d8      	movs	r5, #216	@ 0xd8
    ae30:	000a      	movs	r2, r1
    ae32:	4047      	eors	r7, r0
    ae34:	d7d3      	bvc.n	0xadde
    ae36:	0666      	lsls	r6, r4, #25
    ae38:	200c      	movs	r0, #12
    ae3a:	9ac4      	ldr	r2, [sp, #784]	@ 0x310
    ae3c:	21ca      	movs	r1, #202	@ 0xca
    ae3e:	b079      	add	sp, #484	@ 0x1e4
    ae40:	1b0a      	subs	r2, r1, r4
    ae42:	99ef      	ldr	r1, [sp, #956]	@ 0x3bc
    ae44:	4fd9      	ldr	r7, [pc, #868]	@ (0xb1ac)
    ae46:	624e      	str	r6, [r1, #36]	@ 0x24
    ae48:	7058      	strb	r0, [r3, #1]
    ae4a:	0464      	lsls	r4, r4, #17
    ae4c:	8d7e      	ldrh	r6, [r7, #42]	@ 0x2a
    ae4e:	fcc5 800f 	stc2l	0, cr8, [r5], {15}
    ae52:	63ba      	str	r2, [r7, #56]	@ 0x38
    ae54:	8d64      	ldrh	r4, [r4, #42]	@ 0x2a
    ae56:	1202      	asrs	r2, r0, #8
    ae58:	8851      	ldrh	r1, [r2, #2]
    ae5a:	11cd      	asrs	r5, r1, #7
    ae5c:	d895      	bhi.n	0xad8a
    ae5e:	9801      	ldr	r0, [sp, #4]
    ae60:	5120      	str	r0, [r4, r4]
    ae62:	5d88      	ldrb	r0, [r1, r6]
    ae64:	e342      	b.n	0xb4ec
    ae66:	66d7      	str	r7, [r2, #108]	@ 0x6c
    ae68:	0c06      	lsrs	r6, r0, #16
    ae6a:	c420      	stmia	r4!, {r5}
    ae6c:	ca9a      	ldmia	r2!, {r1, r3, r4, r7}
    ae6e:	6521      	str	r1, [r4, #80]	@ 0x50
    ae70:	0ab0      	lsrs	r0, r6, #10
    ae72:	ef1c b999 	vmul.i16	d11, d28, d9
    ae76:	4e49      	ldr	r6, [pc, #292]	@ (0xaf9c)
    ae78:	5862      	ldr	r2, [r4, r1]
    ae7a:	6470      	str	r0, [r6, #68]	@ 0x44
    ae7c:	7f04      	ldrb	r4, [r0, #28]
    ae7e:	c58d      	stmia	r5!, {r0, r2, r3, r7}
    ae80:	0ffc      	lsrs	r4, r7, #31
    ae82:	0a80      	lsrs	r0, r0, #10
    ae84:	6463      	str	r3, [r4, #68]	@ 0x44
    ae86:	028d      	lsls	r5, r1, #10
    ae88:	5112      	str	r2, [r2, r4]
    ae8a:	dd88      	ble.n	0xad9e
    ae8c:	9511      	str	r5, [sp, #68]	@ 0x44
    ae8e:	01d8      	lsls	r0, r3, #7
    ae90:	1598      	asrs	r0, r3, #22
    ae92:	8851      	ldrh	r1, [r2, #2]
    ae94:	425d      	negs	r5, r3
    ae96:	d7f0      	bvc.n	0xae7a
    ae98:	1656      	asrs	r6, r2, #25
    ae9a:	0523      	lsls	r3, r4, #20
    ae9c:	d0ab      	beq.n	0xadf6
    ae9e:	9ef1      	ldr	r6, [sp, #964]	@ 0x3c4
    aea0:	4499      	add	r9, r3
    aea2:	24e4      	movs	r4, #228	@ 0xe4
    aea4:	0586      	lsls	r6, r0, #22
    aea6:	4647      	mov	r7, r8
    aea8:	d800      	bhi.n	0xaeac
    aeaa:	cc58      	ldmia	r4, {r3, r4, r6}
    aeac:	00ff      	lsls	r7, r7, #3
    aeae:	30a8      	adds	r0, #168	@ 0xa8
    aeb0:	d646      	bvs.n	0xaf40
    aeb2:	2028      	movs	r0, #40	@ 0x28
    aeb4:	8511      	strh	r1, [r2, #40]	@ 0x28
    aeb6:	1ed8      	subs	r0, r3, #3
    aeb8:	8951      	ldrh	r1, [r2, #10]
    aeba:	801d      	strh	r5, [r3, #0]
    aebc:	1159      	asrs	r1, r3, #5
    aebe:	d885      	bhi.n	0xadcc
    aec0:	0425      	lsls	r5, r4, #16
    aec2:	6d80      	ldr	r0, [r0, #88]	@ 0x58
    aec4:	2165      	movs	r1, #101	@ 0x65
    aec6:	b03a      	add	sp, #232	@ 0xe8
    aec8:	1e0a      	subs	r2, r1, #0
    aeca:	99ef      	ldr	r1, [sp, #956]	@ 0x3bc
    aecc:	3ed9      	subs	r6, #217	@ 0xd9
    aece:	624e      	str	r6, [r1, #36]	@ 0x24
    aed0:	7058      	strb	r0, [r3, #1]
    aed2:	0464      	lsls	r4, r4, #17
    aed4:	8d66      	ldrh	r6, [r4, #42]	@ 0x2a
    aed6:	fcc5 800f 	stc2l	0, cr8, [r5], {15}
    aeda:	669a      	str	r2, [r3, #104]	@ 0x68
    aedc:	8d64      	ldrh	r4, [r4, #42]	@ 0x2a
    aede:	1202      	asrs	r2, r0, #8
    aee0:	8851      	ldrh	r1, [r2, #2]
    aee2:	11fd      	asrs	r5, r7, #7
    aee4:	d895      	bhi.n	0xae12
    aee6:	9801      	ldr	r0, [sp, #4]
    aee8:	514e      	str	r6, [r1, r5]
    aeea:	5d88      	ldrb	r0, [r1, r6]
    aeec:	ed32 0d66 	ldc	13, cr0, [r2, #-408]!	@ 0xfffffe68
    aef0:	0a00      	lsrs	r0, r0, #8
    aef2:	6651      	str	r1, [r2, #100]	@ 0x64
    aef4:	e10d      	b.n	0xb112
    aef6:	513f      	str	r7, [r7, r4]
    aef8:	1d66      	adds	r6, r4, #5
    aefa:	24e1      	movs	r4, #225	@ 0xe1
    aefc:	26ce      	movs	r6, #206	@ 0xce
    aefe:	5e8e      	ldrsh	r6, [r1, r2]
    af00:	8c62      	ldrh	r2, [r4, #34]	@ 0x22
    af02:	0470      	lsls	r0, r6, #17
    af04:	6634      	str	r4, [r6, #96]	@ 0x60
    af06:	666d      	str	r5, [r5, #100]	@ 0x64
    af08:	2cc2      	cmp	r4, #194	@ 0xc2
    af0a:	9ac4      	ldr	r2, [sp, #784]	@ 0x310
    af0c:	21ca      	movs	r1, #202	@ 0xca
    af0e:	afa9      	add	r7, sp, #676	@ 0x2a4
    af10:	1f0a      	subs	r2, r1, #4
    af12:	99ef      	ldr	r1, [sp, #956]	@ 0x3bc
    af14:	35d9      	adds	r5, #217	@ 0xd9
    af16:	624e      	str	r6, [r1, #36]	@ 0x24
    af18:	7058      	strb	r0, [r3, #1]
    af1a:	0464      	lsls	r4, r4, #17
    af1c:	8d82      	ldrh	r2, [r0, #44]	@ 0x2c
    af1e:	fcc5 800f 	stc2l	0, cr8, [r5], {15}
    af22:	646a      	str	r2, [r5, #68]	@ 0x44
    af24:	8d64      	ldrh	r4, [r4, #42]	@ 0x2a
    af26:	1202      	asrs	r2, r0, #8
    af28:	8851      	ldrh	r1, [r2, #2]
    af2a:	120d      	asrs	r5, r1, #8
    af2c:	d895      	bhi.n	0xae5a
    af2e:	9801      	ldr	r0, [sp, #4]
    af30:	512b      	str	r3, [r5, r4]
    af32:	5d88      	ldrb	r0, [r1, r6]
    af34:	24e2      	movs	r4, #226	@ 0xe2
    af36:	e6ce      	b.n	0xacd6
    af38:	0aa0      	lsrs	r0, r4, #10
    af3a:	0670      	lsls	r0, r6, #25
    af3c:	8234      	strh	r4, [r6, #16]
    af3e:	666d      	str	r5, [r5, #100]	@ 0x64
    af40:	ac42      	add	r4, sp, #264	@ 0x108
    af42:	1ca9      	adds	r1, r5, #2
    af44:	f723 00aa 			@ <UNDEFINED> instruction: 0xf72300aa
    af48:	9ef2      	ldr	r6, [sp, #968]	@ 0x3c8
    af4a:	f099 24e2 	eors.w	r4, r9, #3791708672	@ 0xe200e200
    af4e:	0786      	lsls	r6, r0, #30
    af50:	4647      	mov	r7, r8
    af52:	d830      	bhi.n	0xafb6
    af54:	cc58      	ldmia	r4, {r3, r4, r6}
    af56:	00ff      	lsls	r7, r7, #3
    af58:	30a8      	adds	r0, #168	@ 0xa8
    af5a:	d646      	bvs.n	0xafea
    af5c:	2028      	movs	r0, #40	@ 0x28
    af5e:	8511      	strh	r1, [r2, #40]	@ 0x28
    af60:	21d8      	movs	r1, #216	@ 0xd8
    af62:	8951      	ldrh	r1, [r2, #10]
    af64:	801d      	strh	r5, [r3, #0]
    af66:	1159      	asrs	r1, r3, #5
    af68:	d885      	bhi.n	0xae76
    af6a:	0425      	lsls	r5, r4, #16
    af6c:	6d83      	ldr	r3, [r0, #88]	@ 0x58
    af6e:	2165      	movs	r1, #101	@ 0x65
    af70:	afba      	add	r7, sp, #744	@ 0x2e8
    af72:	210a      	movs	r1, #10
    af74:	99ef      	ldr	r1, [sp, #956]	@ 0x3bc
    af76:	2999      	cmp	r1, #153	@ 0x99
    af78:	624e      	str	r6, [r1, #36]	@ 0x24
    af7a:	7058      	strb	r0, [r3, #1]
    af7c:	0464      	lsls	r4, r4, #17
    af7e:	8d7e      	ldrh	r6, [r7, #42]	@ 0x2a
    af80:	fcc5 800f 	stc2l	0, cr8, [r5], {15}
    af84:	63fa      	str	r2, [r7, #60]	@ 0x3c
    af86:	8d64      	ldrh	r4, [r4, #42]	@ 0x2a
    af88:	1202      	asrs	r2, r0, #8
    af8a:	8851      	ldrh	r1, [r2, #2]
    af8c:	122d      	asrs	r5, r5, #8
    af8e:	d895      	bhi.n	0xaebc
    af90:	9801      	ldr	r0, [sp, #4]
    af92:	5124      	str	r4, [r4, r4]
    af94:	5d88      	ldrb	r0, [r1, r6]
    af96:	24e2      	movs	r4, #226	@ 0xe2
    af98:	e6ce      	b.n	0xad38
    af9a:	e340      	b.n	0xb61e
    af9c:	66d7      	str	r7, [r2, #108]	@ 0x6c
    af9e:	c426      	stmia	r4!, {r1, r2, r5}
    afa0:	ca9a      	ldmia	r2!, {r1, r3, r4, r7}
    afa2:	3121      	adds	r1, #33	@ 0x21
    afa4:	0aaf      	lsrs	r7, r5, #10
    afa6:	ef22 3999 	vmul.i32	d3, d18, d9
    afaa:	4e23      	ldr	r6, [pc, #140]	@ (0xb038)
    afac:	4862      	ldr	r0, [pc, #392]	@ (0xb138)
    afae:	6470      	str	r0, [r6, #68]	@ 0x44
    afb0:	8204      	strh	r4, [r0, #16]
    afb2:	c58d      	stmia	r5!, {r0, r2, r3, r7}
    afb4:	0ffc      	lsrs	r4, r7, #31
    afb6:	1a80      	subs	r0, r0, r2
    afb8:	6464      	str	r4, [r4, #68]	@ 0x44
    afba:	028d      	lsls	r5, r1, #10
    afbc:	5112      	str	r2, [r2, r4]
    afbe:	3d88      	subs	r5, #136	@ 0x88
    afc0:	9512      	str	r5, [sp, #72]	@ 0x48
    afc2:	01d8      	lsls	r0, r3, #7
    afc4:	2698      	movs	r6, #152	@ 0x98
    afc6:	8851      	ldrh	r1, [r2, #2]
    afc8:	a25d      	add	r2, pc, #372	@ (adr r2, 0xb140)
    afca:	7000      	strb	r0, [r0, #0]
    afcc:	fa04 660f 			@ <UNDEFINED> instruction: 0xfa04660f
    afd0:	0c06      	lsrs	r6, r0, #16
    afd2:	c420      	stmia	r4!, {r5}
    afd4:	ca9a      	ldmia	r2!, {r1, r3, r4, r7}
    afd6:	e021      	b.n	0xb01c
    afd8:	0aae      	lsrs	r6, r5, #10
    afda:	ef23 b999 	vmul.i32	d11, d19, d9
    afde:	4e1c      	ldr	r6, [pc, #112]	@ (0xb050)
    afe0:	a862      	add	r0, sp, #392	@ 0x188
    afe2:	6470      	str	r0, [r6, #68]	@ 0x44
    afe4:	d646      	bvs.n	0xb074
    afe6:	2028      	movs	r0, #40	@ 0x28
    afe8:	8511      	strh	r1, [r2, #40]	@ 0x28
    afea:	03d8      	lsls	r0, r3, #15
    afec:	8951      	ldrh	r1, [r2, #10]
    afee:	801d      	strh	r5, [r3, #0]
    aff0:	63c9      	str	r1, [r1, #60]	@ 0x3c
    aff2:	8d64      	ldrh	r4, [r4, #42]	@ 0x2a
    aff4:	2101      	movs	r1, #1
    aff6:	8851      	ldrh	r1, [r2, #2]
    aff8:	125d      	asrs	r5, r3, #9
    affa:	4c00      	ldr	r4, [pc, #0]	@ (0xaffc)
    affc:	008d      	lsls	r5, r1, #2
    affe:	1105      	asrs	r5, r0, #4
    b000:	153d      	asrs	r5, r7, #20
    b002:	0283      	lsls	r3, r0, #10
    b004:	298b      	cmp	r1, #139	@ 0x8b
    b006:	8511      	strh	r1, [r2, #40]	@ 0x28
    b008:	25d8      	movs	r5, #216	@ 0xd8
    b00a:	3211      	adds	r2, #17
    b00c:	d315      	bcc.n	0xb03a
    b00e:	ab01      	add	r3, sp, #4
    b010:	f030 999e 	b.w	0x83b350
    b014:	e15e      	b.n	0xb2d4
    b016:	8624      	strh	r4, [r4, #48]	@ 0x30
    b018:	0504      	lsls	r4, r0, #20
    b01a:	ed9d 8624 	ldc	6, cr8, [sp, #144]	@ 0x90
    b01e:	0505      	lsls	r5, r0, #20
    b020:	ed9e 8624 	ldc	6, cr8, [lr, #144]	@ 0x90
    b024:	0506      	lsls	r6, r0, #20
    b026:	ed9f 8624 	ldc	6, cr8, [pc, #144]	@ 0xb0b8
    b02a:	0507      	lsls	r7, r0, #20
    b02c:	dda0      	ble.n	0xaf70
    b02e:	d95f      	bls.n	0xb0f0
    b030:	ded0      	udf	#208	@ 0xd0
    b032:	20d9      	movs	r0, #217	@ 0xd9
    b034:	02cc      	lsls	r4, r1, #11
    b036:	5012      	str	r2, [r2, r0]
    b038:	fd4e 0d9d 	stc2l	13, cr0, [lr, #-628]	@ 0xfffffd8c
    b03c:	95ed      	str	r5, [sp, #948]	@ 0x3b4
    b03e:	c20d      	stmia	r2!, {r0, r2, r3}
    b040:	202c      	movs	r0, #44	@ 0x2c
    b042:	a011      	add	r0, pc, #68	@ (adr r0, 0xb088)
    b044:	08d4      	lsrs	r4, r2, #3
    b046:	d170      	bne.n	0xb12a
    b048:	d9de      	bls.n	0xb008
    b04a:	2310      	movs	r3, #16
    b04c:	df78      	svc	120	@ 0x78
    b04e:	5018      	str	r0, [r3, r0]
    b050:	9010      	str	r0, [sp, #64]	@ 0x40
    b052:	0a46      	lsrs	r6, r0, #9
    b054:	ef02 7999 	vmul.i8	d7, d18, d9
    b058:	4e0d      	ldr	r6, [pc, #52]	@ (0xb090)
    b05a:	4ce2      	ldr	r4, [pc, #904]	@ (0xb3e4)
    b05c:	c20e      	stmia	r2!, {r1, r2, r3}
    b05e:	d937      	bls.n	0xb0d0
    b060:	6820      	ldr	r0, [r4, #0]
    b062:	41b8      	sbcs	r0, r7
    b064:	36c2      	adds	r6, #194	@ 0xc2
    b066:	e0d9      	b.n	0xb21c
    b068:	ce24      	ldmia	r6!, {r2, r5}
    b06a:	9316      	str	r3, [sp, #88]	@ 0x58
    b06c:	2afc      	cmp	r2, #252	@ 0xfc
    b06e:	936c      	str	r3, [sp, #432]	@ 0x1b0
    b070:	520d      	strh	r5, [r1, r0]
    b072:	0044      	lsls	r4, r0, #1
    b074:	2490      	movs	r4, #144	@ 0x90
    b076:	936c      	str	r3, [sp, #432]	@ 0x1b0
    b078:	cc0d      	ldmia	r4!, {r0, r2, r3}
    b07a:	2fff      	cmp	r7, #255	@ 0xff
    b07c:	0dc8      	lsrs	r0, r1, #23
    b07e:	36c2      	adds	r6, #194	@ 0xc2
    b080:	10d9      	asrs	r1, r3, #3
    b082:	52f3      	strh	r3, [r6, r3]
    b084:	40af      	lsls	r7, r5
    b086:	9ef2      	ldr	r6, [sp, #968]	@ 0x3c8
    b088:	7598      	strb	r0, [r3, #22]
    b08a:	060a      	lsls	r2, r1, #24
    b08c:	89ef      	ldrh	r7, [r5, #14]
    b08e:	a6a9      	add	r6, pc, #676	@ (adr r6, 0xb334)
    b090:	f070 989e 	b.w	0x87b1d0
    b094:	0a5f      	lsrs	r7, r3, #9
    b096:	ef08 0c09 			@ <UNDEFINED> instruction: 0xef080c09
    b09a:	a310      	add	r3, pc, #64	@ (adr r3, 0xb0dc)
    b09c:	2e33      	cmp	r6, #51	@ 0x33
    b09e:	a96c      	add	r1, sp, #432	@ 0x1b0
    b0a0:	210d      	movs	r1, #13
    b0a2:	afe3      	add	r7, sp, #908	@ 0x38c
    b0a4:	3d98      	subs	r5, #152	@ 0x98
    b0a6:	090a      	lsrs	r2, r1, #4
    b0a8:	e9ef ce24 	strd	ip, lr, [pc, #144]!	@ 0xb13c	@ 0x90
    b0ac:	20e4      	movs	r0, #228	@ 0xe4
    b0ae:	a96d      	add	r1, sp, #436	@ 0x1b4
    b0b0:	4e0d      	ldr	r6, [pc, #52]	@ (0xb0e8)
    b0b2:	6862      	ldr	r2, [r4, #4]
    b0b4:	24e0      	movs	r4, #224	@ 0xe0
    b0b6:	07a6      	lsls	r6, r4, #30
    b0b8:	624e      	str	r6, [r1, #36]	@ 0x24
    b0ba:	7089      	strb	r1, [r1, #2]
    b0bc:	c205      	stmia	r2!, {r0, r2}
    b0be:	da94      	bge.n	0xafea
    b0c0:	19a0      	adds	r0, r4, r6
    b0c2:	fa83 77ea 			@ <UNDEFINED> instruction: 0xfa8377ea
    b0c6:	f95e 00bc 	ldr??.w	r0, [lr, ip, lsl #3]
    b0ca:	dff1      	svc	241	@ 0xf1
    b0cc:	167e      	asrs	r6, r7, #25
    b0ce:	6047      	str	r7, [r0, #4]
    b0d0:	5804      	ldr	r4, [r0, r0]
    b0d2:	2912      	cmp	r1, #18
    b0d4:	aa05      	add	r2, sp, #20
    b0d6:	ed01 0c8c 	stc	12, cr0, [r1, #-560]	@ 0xfffffdd0
    b0da:	5852      	ldr	r2, [r2, r1]
    b0dc:	046a      	lsls	r2, r5, #17
    b0de:	1258      	asrs	r0, r3, #9
    b0e0:	0529      	lsls	r1, r5, #20
    b0e2:	8ced      	ldrh	r5, [r5, #38]	@ 0x26
    b0e4:	520c      	strh	r4, [r1, r0]
    b0e6:	0c08      	lsrs	r0, r1, #16
    b0e8:	1ce0      	adds	r0, r4, #3
    b0ea:	460f      	mov	r7, r1
    b0ec:	55a0      	strb	r0, [r4, r6]
    b0ee:	ef20 e2ed 	vhsub.s32	q7, q8, <illegal reg q14.5>
    b0f2:	5244      	strh	r4, [r0, r1]
    b0f4:	2a68      	cmp	r2, #104	@ 0x68
    b0f6:	0460      	lsls	r0, r4, #17
    b0f8:	1258      	asrs	r0, r3, #9
    b0fa:	0529      	lsls	r1, r5, #20
    b0fc:	8ced      	ldrh	r5, [r5, #38]	@ 0x26
    b0fe:	520c      	strh	r4, [r1, r0]
    b100:	3a78      	subs	r2, #120	@ 0x78
    b102:	1660      	asrs	r0, r4, #25
    b104:	02df      	lsls	r7, r3, #11
    b106:	dff1      	svc	241	@ 0xf1
    b108:	167e      	asrs	r6, r7, #25
    b10a:	2047      	movs	r0, #71	@ 0x47
    b10c:	886c      	ldrh	r4, [r5, #2]
    b10e:	cc0c      	ldmia	r4!, {r2, r3}
    b110:	0001      	movs	r1, r0
    b112:	66b8      	str	r0, [r7, #104]	@ 0x68
    b114:	8046      	strh	r6, [r0, #2]
    b116:	9125      	str	r1, [sp, #148]	@ 0x94
    b118:	a052      	add	r0, pc, #328	@ (adr r0, 0xb264)
    b11a:	d01a      	beq.n	0xb152
    b11c:	c8ce      	ldmia	r0!, {r1, r2, r3, r6, r7}
    b11e:	8520      	strh	r0, [r4, #40]	@ 0x28
    b120:	46a5      	mov	sp, r4
    b122:	2580      	movs	r5, #128	@ 0x80
    b124:	5291      	strh	r1, [r2, r2]
    b126:	ced0      	ldmia	r6, {r4, r6, r7}
    b128:	20c8      	movs	r0, #200	@ 0xc8
    b12a:	c085      	stmia	r0!, {r0, r2, r7}
    b12c:	ce00      	ldmia	r6!, {}
    b12e:	60f1      	str	r1, [r6, #12]
    b130:	5a04      	ldrh	r4, [r0, r0]
    b132:	f205 2ede 	addw	lr, r5, #734	@ 0x2de
    b136:	244e      	movs	r4, #78	@ 0x4e
    b138:	a685      	add	r6, pc, #532	@ (adr r6, 0xb350)
    b13a:	4602      	mov	r2, r0
    b13c:	2580      	movs	r5, #128	@ 0x80
    b13e:	5291      	strh	r1, [r2, r2]
    b140:	ced0      	ldmia	r6, {r4, r6, r7}
    b142:	20c8      	movs	r0, #200	@ 0xc8
    b144:	a785      	add	r7, pc, #532	@ (adr r7, 0xb35c)
    b146:	6603      	str	r3, [r0, #96]	@ 0x60
    b148:	2df1      	cmp	r5, #241	@ 0xf1
    b14a:	df10      	svc	16
    b14c:	167e      	asrs	r6, r7, #25
    b14e:	6047      	str	r7, [r0, #4]
    b150:	5804      	ldr	r4, [r0, r0]
    b152:	2912      	cmp	r1, #18
    b154:	ed05 0c8c 	stc	12, cr0, [r5, #-560]	@ 0xfffffdd0
    b158:	6852      	ldr	r2, [r2, #4]
    b15a:	603a      	str	r2, [r7, #0]
    b15c:	5a04      	ldrh	r4, [r0, r0]
    b15e:	f205 2ede 	addw	lr, r5, #734	@ 0x2de
    b162:	244e      	movs	r4, #78	@ 0x4e
    b164:	8685      	strh	r5, [r0, #52]	@ 0x34
    b166:	2302      	movs	r3, #2
    b168:	aa82      	add	r2, sp, #520	@ 0x208
    b16a:	0461      	lsls	r1, r4, #17
    b16c:	1258      	asrs	r0, r3, #9
    b16e:	0529      	lsls	r1, r5, #20
    b170:	00aa      	lsls	r2, r5, #2
    b172:	8ced      	ldrh	r5, [r5, #38]	@ 0x26
    b174:	520c      	strh	r4, [r1, r0]
    b176:	6a58      	ldr	r0, [r3, #36]	@ 0x24
    b178:	df16      	svc	22
    b17a:	f102 020a 	add.w	r2, r2, #10
    b17e:	07ef      	lsls	r7, r5, #31
    b180:	c0f1      	stmia	r0!, {r0, r4, r5, r6, r7}
    b182:	d201      	bcs.n	0xb188
    b184:	d246      	bcs.n	0xb214
    b186:	4040      	eors	r0, r0
    b188:	05d5      	lsls	r5, r2, #23
    b18a:	4d26      	ldr	r5, [pc, #152]	@ (0xb224)
    b18c:	d560      	bpl.n	0xb250
    b18e:	2705      	movs	r7, #5
    b190:	504d      	str	r5, [r1, r1]
    b192:	05d5      	lsls	r5, r2, #23
    b194:	fd28 106e 	stc2	0, cr1, [r8, #-440]!	@ 0xfffffe48
    b198:	01ec      	lsls	r4, r5, #7
    b19a:	d208      	bcs.n	0xb1ae
    b19c:	d246      	bcs.n	0xb22c
    b19e:	6510      	str	r0, [r2, #80]	@ 0x50
    b1a0:	00d2      	lsls	r2, r2, #3
    b1a2:	06ef      	lsls	r7, r5, #27
    b1a4:	ecf1 1001 	ldcl	0, cr1, [r1], #4
    b1a8:	46d2      	mov	sl, sl
    b1aa:	40d2      	lsrs	r2, r2
    b1ac:	d580      	bpl.n	0xb0b0
    b1ae:	2605      	movs	r6, #5
    b1b0:	704d      	strb	r5, [r1, #1]
    b1b2:	05d5      	lsls	r5, r2, #23
    b1b4:	4d27      	ldr	r5, [pc, #156]	@ (0xb254)
    b1b6:	d5d0      	bpl.n	0xb15a
    b1b8:	2805      	cmp	r0, #5
    b1ba:	6efd      	ldr	r5, [r7, #108]	@ 0x6c
    b1bc:	ec10 1401 	cfldrs	mvf1, [r0], {1}
    b1c0:	46d2      	mov	sl, sl
    b1c2:	f0d2 106e 			@ <UNDEFINED> instruction: 0xf0d2106e
    b1c6:	02c0      	lsls	r0, r0, #11
    b1c8:	46d2      	mov	sl, sl
    b1ca:	40d2      	lsrs	r2, r2
    b1cc:	d5e0      	bpl.n	0xb190
    b1ce:	2805      	cmp	r0, #5
    b1d0:	f04d 05d5 	orr.w	r5, sp, #213	@ 0xd5
    b1d4:	4d29      	ldr	r5, [pc, #164]	@ (0xb27c)
    b1d6:	d600      	bvs.n	0xb1da
    b1d8:	2a05      	cmp	r2, #5
    b1da:	104d      	asrs	r5, r1, #1
    b1dc:	05d6      	lsls	r6, r2, #23
    b1de:	4d2b      	ldr	r5, [pc, #172]	@ (0xb28c)
    b1e0:	d620      	bvs.n	0xb224
    b1e2:	2c05      	cmp	r4, #5
    b1e4:	6efd      	ldr	r5, [r7, #108]	@ 0x6c
    b1e6:	ec10 0802 	ldc	8, cr0, [r0], {2}
    b1ea:	46d2      	mov	sl, sl
    b1ec:	40d2      	lsrs	r2, r2
    b1ee:	d630      	bvs.n	0xb252
    b1f0:	2605      	movs	r6, #5
    b1f2:	6efd      	ldr	r5, [r7, #108]	@ 0x6c
    b1f4:	ec10 1002 	ldc	0, cr1, [r0], {2}
    b1f8:	46d2      	mov	sl, sl
    b1fa:	40d2      	lsrs	r2, r2
    b1fc:	d5a0      	bpl.n	0xb140
    b1fe:	2605      	movs	r6, #5
    b200:	904d      	str	r0, [sp, #308]	@ 0x134
    b202:	05d5      	lsls	r5, r2, #23
    b204:	4d27      	ldr	r5, [pc, #156]	@ (0xb2a4)
    b206:	d5e0      	bpl.n	0xb1ca
    b208:	2805      	cmp	r0, #5
    b20a:	6efd      	ldr	r5, [r7, #108]	@ 0x6c
    b20c:	ec10 0403 	cfldrs	mvf0, [r0], {3}
    b210:	46d2      	mov	sl, sl
    b212:	f0d2 106e 			@ <UNDEFINED> instruction: 0xf0d2106e
    b216:	03ec      	lsls	r4, r5, #15
    b218:	d20c      	bcs.n	0xb234
    b21a:	d246      	bcs.n	0xb2aa
    b21c:	6ef0      	ldr	r0, [r6, #108]	@ 0x6c
    b21e:	ec10 1403 	cfldrs	mvf1, [r0], {3}
    b222:	46d2      	mov	sl, sl
    b224:	f0d2 106e 			@ <UNDEFINED> instruction: 0xf0d2106e
    b228:	03ec      	lsls	r4, r5, #15
    b22a:	d21c      	bcs.n	0xb266
    b22c:	d246      	bcs.n	0xb2bc
    b22e:	6ef0      	ldr	r0, [r6, #108]	@ 0x6c
    b230:	ec10 2403 	cfldrs	mvf2, [r0], {3}
    b234:	46d2      	mov	sl, sl
    b236:	f0d2 106e 			@ <UNDEFINED> instruction: 0xf0d2106e
    b23a:	04c0      	lsls	r0, r0, #19
    b23c:	46d2      	mov	sl, sl
    b23e:	20d2      	movs	r0, #210	@ 0xd2
    b240:	c10c      	stmia	r1!, {r2, r3}
    b242:	0540      	lsls	r0, r0, #21
    b244:	2d26      	cmp	r5, #38	@ 0x26
    b246:	c20c      	stmia	r2!, {r2, r3}
    b248:	0540      	lsls	r0, r0, #21
    b24a:	2d27      	cmp	r5, #39	@ 0x27
    b24c:	c30c      	stmia	r3!, {r2, r3}
    b24e:	0540      	lsls	r0, r0, #21
    b250:	fd28 106e 	stc2	0, cr1, [r8, #-440]!	@ 0xfffffe48
    b254:	04ec      	lsls	r4, r5, #19
    b256:	d224      	bcs.n	0xb2a2
    b258:	d246      	bcs.n	0xb2e8
    b25a:	6ef0      	ldr	r0, [r6, #108]	@ 0x6c
    b25c:	ec10 2004 	ldc	0, cr2, [r0], {4}
    b260:	46d2      	mov	sl, sl
    b262:	40d2      	lsrs	r2, r2
    b264:	d9d0      	bls.n	0xb208
    b266:	2605      	movs	r6, #5
    b268:	e04d      	b.n	0xb306
    b26a:	05d9      	lsls	r1, r3, #23
    b26c:	4d27      	ldr	r5, [pc, #156]	@ (0xb30c)
    b26e:	d9f0      	bls.n	0xb252
    b270:	2805      	cmp	r0, #5
    b272:	004d      	lsls	r5, r1, #1
    b274:	05da      	lsls	r2, r3, #23
    b276:	1d29      	adds	r1, r5, #4
    b278:	d2a5      	bcs.n	0xb1c6
    b27a:	5100      	str	r0, [r0, r4]
    b27c:	0d2b      	lsrs	r3, r5, #20
    b27e:	c510      	stmia	r5!, {r4}
    b280:	00d2      	lsls	r2, r2, #3
    b282:	06ef      	lsls	r7, r5, #27
    b284:	dff1      	svc	241	@ 0xf1
    b286:	6c2e      	ldr	r6, [r5, #64]	@ 0x40
    b288:	0d70      	lsrs	r0, r6, #21
    b28a:	e1cc      	b.n	0xb626
    b28c:	f800 ec0c 	strb.w	lr, [r0, #-12]
    b290:	00e1      	lsls	r1, r4, #3
    b292:	e06f      	b.n	0xb374
    b294:	c25e      	stmia	r2!, {r1, r2, r3, r4, r6}
    b296:	d706      	bvc.n	0xb2a6
    b298:	06f0      	lsls	r0, r6, #27
    b29a:	04ec      	lsls	r4, r5, #19
    b29c:	d208      	bcs.n	0xb2b0
    b29e:	d246      	bcs.n	0xb32e
    b2a0:	6c20      	ldr	r0, [r4, #64]	@ 0x40
    b2a2:	0d72      	lsrs	r2, r6, #21
    b2a4:	66d2      	str	r2, [r2, #108]	@ 0x6c
    b2a6:	40d2      	lsrs	r2, r2
    b2a8:	d780      	bvc.n	0xb1ac
    b2aa:	2805      	cmp	r0, #5
    b2ac:	904d      	str	r0, [sp, #308]	@ 0x134
    b2ae:	05d7      	lsls	r7, r2, #23
    b2b0:	ed29 d206 	sfm	f5, 1, [r9, #-24]!	@ 0xffffffe8
    b2b4:	d2a6      	bcs.n	0xb204
    b2b6:	a040      	add	r0, pc, #256	@ (adr r0, 0xb3b8)
    b2b8:	05d7      	lsls	r7, r2, #23
    b2ba:	fd2c df6e 	stc2	15, cr13, [ip, #-440]!	@ 0xfffffe48
    b2be:	f102 04ec 	add.w	r4, r2, #236	@ 0xec
    b2c2:	d218      	bcs.n	0xb2f6
    b2c4:	d246      	bcs.n	0xb354
    b2c6:	5040      	str	r0, [r0, r1]
    b2c8:	05d7      	lsls	r7, r2, #23
    b2ca:	4d26      	ldr	r5, [pc, #152]	@ (0xb364)
    b2cc:	d770      	bvc.n	0xb3b0
    b2ce:	2705      	movs	r7, #5
    b2d0:	404d      	eors	r5, r1
    b2d2:	05d7      	lsls	r7, r2, #23
    b2d4:	4d28      	ldr	r5, [pc, #160]	@ (0xb378)
    b2d6:	d760      	bvc.n	0xb39a
    b2d8:	2905      	cmp	r1, #5
    b2da:	6efd      	ldr	r5, [r7, #108]	@ 0x6c
    b2dc:	ec10 2804 	ldc	8, cr2, [r0], {4}
    b2e0:	46d2      	mov	sl, sl
    b2e2:	40d2      	lsrs	r2, r2
    b2e4:	d7b0      	bvc.n	0xb248
    b2e6:	2605      	movs	r6, #5
    b2e8:	6efd      	ldr	r5, [r7, #108]	@ 0x6c
    b2ea:	ec10 3004 	ldc	0, cr3, [r0], {4}
    b2ee:	46d2      	mov	sl, sl
    b2f0:	40d2      	lsrs	r2, r2
    b2f2:	da80      	bge.n	0xb1f6
    b2f4:	2605      	movs	r6, #5
    b2f6:	6efd      	ldr	r5, [r7, #108]	@ 0x6c
    b2f8:	ec10 3804 	ldc	8, cr3, [r0], {4}
    b2fc:	46d2      	mov	sl, sl
    b2fe:	20d2      	movs	r0, #210	@ 0xd2
    b300:	a96c      	add	r1, sp, #432	@ 0x1b0
    b302:	d20d      	bcs.n	0xb320
    b304:	d266      	bcs.n	0xb3d4
    b306:	6ef0      	ldr	r0, [r6, #108]	@ 0x6c
    b308:	ec10 3c04 	ldc	12, cr3, [r0], {4}
    b30c:	46d2      	mov	sl, sl
    b30e:	f0d2 106e 			@ <UNDEFINED> instruction: 0xf0d2106e
    b312:	04ec      	lsls	r4, r5, #19
    b314:	d210      	bcs.n	0xb338
    b316:	d246      	bcs.n	0xb3a6
    b318:	6510      	str	r0, [r2, #80]	@ 0x50
    b31a:	01d2      	lsls	r2, r2, #7
    b31c:	06ef      	lsls	r7, r5, #27
    b31e:	dff1      	svc	241	@ 0xf1
    b320:	802a      	strh	r2, [r5, #0]
    b322:	c321      	stmia	r3!, {r0, r5}
    b324:	c0ad      	stmia	r0!, {r0, r2, r3, r5, r7}
    b326:	d205      	bcs.n	0xb334
    b328:	d246      	bcs.n	0xb3b8
    b32a:	0460      	lsls	r0, r4, #17
    b32c:	2605      	movs	r6, #5
    b32e:	146d      	asrs	r5, r5, #17
    b330:	2705      	movs	r7, #5
    b332:	246d      	movs	r4, #109	@ 0x6d
    b334:	2805      	cmp	r0, #5
    b336:	346d      	adds	r4, #109	@ 0x6d
    b338:	2905      	cmp	r1, #5
    b33a:	446d      	add	r5, sp
    b33c:	2a05      	cmp	r2, #5
    b33e:	546d      	strb	r5, [r5, r1]
    b340:	2b05      	cmp	r3, #5
    b342:	6efd      	ldr	r5, [r7, #108]	@ 0x6c
    b344:	06df      	lsls	r7, r3, #27
    b346:	ecf1 0c05 	ldcl	12, cr0, [r1], #20
    b34a:	46d2      	mov	sl, sl
    b34c:	40d2      	lsrs	r2, r2
    b34e:	d810      	bhi.n	0xb372
    b350:	2605      	movs	r6, #5
    b352:	6efd      	ldr	r5, [r7, #108]	@ 0x6c
    b354:	c010      	stmia	r0!, {r4}
    b356:	d206      	bcs.n	0xb366
    b358:	d246      	bcs.n	0xb3e8
    b35a:	5040      	str	r0, [r0, r1]
    b35c:	05d6      	lsls	r6, r2, #23
    b35e:	fd26 106e 	stc2	0, cr1, [r6, #-440]!	@ 0xfffffe48
    b362:	06ec      	lsls	r4, r5, #27
    b364:	d208      	bcs.n	0xb378
    b366:	d246      	bcs.n	0xb3f6
    b368:	3040      	adds	r0, #64	@ 0x40
    b36a:	05d5      	lsls	r5, r2, #23
    b36c:	fd26 106e 	stc2	0, cr1, [r6, #-440]!	@ 0xfffffe48
    b370:	06ec      	lsls	r4, r5, #27
    b372:	d210      	bcs.n	0xb396
    b374:	d246      	bcs.n	0xb404
    b376:	d040      	beq.n	0xb3fa
    b378:	05d7      	lsls	r7, r2, #23
    b37a:	fd26 106e 	stc2	0, cr1, [r6, #-440]!	@ 0xfffffe48
    b37e:	06ec      	lsls	r4, r5, #27
    b380:	d218      	bcs.n	0xb3b4
    b382:	d246      	bcs.n	0xb412
    b384:	e040      	b.n	0xb408
    b386:	05d7      	lsls	r7, r2, #23
    b388:	fd26 106e 	stc2	0, cr1, [r6, #-440]!	@ 0xfffffe48
    b38c:	06ec      	lsls	r4, r5, #27
    b38e:	d220      	bcs.n	0xb3d2
    b390:	d246      	bcs.n	0xb420
    b392:	f040 05d7 	orr.w	r5, r0, #215	@ 0xd7
    b396:	fd26 106e 	stc2	0, cr1, [r6, #-440]!	@ 0xfffffe48
    b39a:	06ec      	lsls	r4, r5, #27
    b39c:	d228      	bcs.n	0xb3f0
    b39e:	d246      	bcs.n	0xb42e
    b3a0:	0040      	lsls	r0, r0, #1
    b3a2:	05d8      	lsls	r0, r3, #23
    b3a4:	fd26 106e 	stc2	0, cr1, [r6, #-440]!	@ 0xfffffe48
    b3a8:	07c0      	lsls	r0, r0, #31
    b3aa:	46d2      	mov	sl, sl
    b3ac:	40d2      	lsrs	r2, r2
    b3ae:	d660      	bvs.n	0xb472
    b3b0:	2605      	movs	r6, #5
    b3b2:	6c2d      	ldr	r5, [r5, #64]	@ 0x40
    b3b4:	0d6b      	lsrs	r3, r5, #21
    b3b6:	86d2      	strh	r2, [r2, #54]	@ 0x36
    b3b8:	f0d2 106e 			@ <UNDEFINED> instruction: 0xf0d2106e
    b3bc:	07ec      	lsls	r4, r5, #31
    b3be:	d208      	bcs.n	0xb3d2
    b3c0:	d246      	bcs.n	0xb450
    b3c2:	2040      	movs	r0, #64	@ 0x40
    b3c4:	05d8      	lsls	r0, r3, #23
    b3c6:	fd26 106e 	stc2	0, cr1, [r6, #-440]!	@ 0xfffffe48
    b3ca:	07ec      	lsls	r4, r5, #31
    b3cc:	d210      	bcs.n	0xb3f0
    b3ce:	d246      	bcs.n	0xb45e
    b3d0:	3040      	adds	r0, #64	@ 0x40
    b3d2:	05d8      	lsls	r0, r3, #23
    b3d4:	2d26      	cmp	r5, #38	@ 0x26
    b3d6:	846c      	strh	r4, [r5, #34]	@ 0x22
    b3d8:	d20d      	bcs.n	0xb3f6
    b3da:	d276      	bcs.n	0xb4ca
    b3dc:	6ef0      	ldr	r0, [r6, #108]	@ 0x6c
    b3de:	ec10 1807 	ldc	8, cr1, [r0], {7}
    b3e2:	46d2      	mov	sl, sl
    b3e4:	40d2      	lsrs	r2, r2
    b3e6:	d7e0      	bvc.n	0xb3aa
    b3e8:	2605      	movs	r6, #5
    b3ea:	6c2d      	ldr	r5, [r5, #64]	@ 0x40
    b3ec:	0d86      	lsrs	r6, r0, #22
    b3ee:	86d2      	strh	r2, [r2, #54]	@ 0x36
    b3f0:	f0d2 106e 			@ <UNDEFINED> instruction: 0xf0d2106e
    b3f4:	07ec      	lsls	r4, r5, #31
    b3f6:	d220      	bcs.n	0xb43a
    b3f8:	d246      	bcs.n	0xb488
    b3fa:	6510      	str	r0, [r2, #80]	@ 0x50
    b3fc:	01d2      	lsls	r2, r2, #7
    b3fe:	06ef      	lsls	r7, r5, #27
    b400:	ecf1 1405 	cfldrd	mvd1, [r1], #20
    b404:	46d2      	mov	sl, sl
    b406:	20d2      	movs	r0, #210	@ 0xd2
    b408:	936c      	str	r3, [sp, #432]	@ 0x1b0
    b40a:	d20d      	bcs.n	0xb428
    b40c:	d266      	bcs.n	0xb4dc
    b40e:	6ef0      	ldr	r0, [r6, #108]	@ 0x6c
    b410:	5110      	str	r0, [r2, r4]
    b412:	ad21      	add	r5, sp, #132	@ 0x84
    b414:	2510      	movs	r5, #16
    b416:	00d2      	lsls	r2, r2, #3
    b418:	2351      	movs	r3, #81	@ 0x51
    b41a:	407d      	eors	r5, r7
    b41c:	d460      	bmi.n	0xb4e0
    b41e:	2405      	movs	r4, #5
    b420:	704d      	strb	r5, [r1, #1]
    b422:	05d4      	lsls	r4, r2, #23
    b424:	4d25      	ldr	r5, [pc, #148]	@ (0xb4bc)
    b426:	d480      	bmi.n	0xb32a
    b428:	2605      	movs	r6, #5
    b42a:	904d      	str	r0, [sp, #308]	@ 0x134
    b42c:	05d4      	lsls	r4, r2, #23
    b42e:	4d27      	ldr	r5, [pc, #156]	@ (0xb4cc)
    b430:	d4a0      	bmi.n	0xb374
    b432:	2805      	cmp	r0, #5
    b434:	b04d      	add	sp, #308	@ 0x134
    b436:	05d4      	lsls	r4, r2, #23
    b438:	4d29      	ldr	r5, [pc, #164]	@ (0xb4e0)
    b43a:	d4c0      	bmi.n	0xb3be
    b43c:	2a05      	cmp	r2, #5
    b43e:	2edd      	cmp	r6, #221	@ 0xdd
    b440:	a0d2      	add	r0, pc, #840	@ (adr r0, 0xb78c)
    b442:	10a0      	asrs	r0, r4, #2
    b444:	0160      	lsls	r0, r4, #5
    b446:	5110      	str	r0, [r2, r4]
    b448:	cd21      	ldmia	r5, {r0, r5}
    b44a:	e040      	b.n	0xb4ce
    b44c:	05d3      	lsls	r3, r2, #23
    b44e:	1d22      	adds	r2, r4, #4
    b450:	d235      	bcs.n	0xb4be
    b452:	ed09 0d22 	stc	13, cr0, [r9, #-136]	@ 0xffffff78
    b456:	0c0a      	lsrs	r2, r1, #16
    b458:	0111      	lsls	r1, r2, #4
    b45a:	f100 fbdf 	bl	0x10bc1c
    b45e:	4714      	bxns	r2
    b460:	0460      	lsls	r0, r4, #17
    b462:	10a2      	asrs	r2, r4, #2
    b464:	a0d0      	add	r0, pc, #832	@ (adr r0, 0xb7a8)
    b466:	7000      	strb	r0, [r0, #0]
    b468:	0a34      	lsrs	r4, r6, #8
    b46a:	4702      	bx	r0
    b46c:	b984      	cbnz	r4, 0xb490
    b46e:	14e1      	asrs	r1, r4, #19
    b470:	2446      	movs	r4, #70	@ 0x46
    b472:	8488      	strh	r0, [r1, #36]	@ 0x24
    b474:	3356      	adds	r3, #86	@ 0x56
    b476:	0d43      	lsrs	r3, r0, #21
    b478:	8446      	strh	r6, [r0, #34]	@ 0x22
    b47a:	0d10      	lsrs	r0, r2, #20
    b47c:	6446      	str	r6, [r0, #68]	@ 0x44
    b47e:	2305      	movs	r3, #5
    b480:	8d84      	ldrh	r4, [r0, #44]	@ 0x2c
    b482:	346d      	adds	r4, #109	@ 0x6d
    b484:	614e      	str	r6, [r1, #20]
    b486:	8205      	strh	r5, [r0, #16]
    b488:	f859 105d 	ldr.w	r1, [r9, sp, lsl #1]
    b48c:	7fdf      	ldrb	r7, [r3, #31]
    b48e:	c204      	stmia	r2!, {r2}
    b490:	c886      	ldmia	r0!, {r1, r2, r7}
    b492:	1cc0      	adds	r0, r0, #3
    b494:	8000      	strh	r0, [r0, #0]
    b496:	644b      	str	r3, [r1, #68]	@ 0x44
    b498:	8d04      	ldrh	r4, [r0, #40]	@ 0x28
    b49a:	3101      	adds	r1, #1
    b49c:	7d51      	ldrb	r1, [r2, #21]
    b49e:	1ffd      	subs	r5, r7, #7
    b4a0:	d7e5      	bvc.n	0xb46e
    b4a2:	51ff      	str	r7, [r7, r7]
    b4a4:	fd7f 051f 	ldc2l	5, cr0, [pc, #-124]!	@ 0xb42c
    b4a8:	ffd8 6651 	vqshlu.s16	q11, <illegal reg q0.5>, #8
    b4ac:	1ffd      	subs	r5, r7, #7
    b4ae:	d825      	bhi.n	0xb4fc
    b4b0:	51ff      	str	r7, [r7, r7]
    b4b2:	fd83 804f 	stc2	0, cr8, [r3, #316]	@ 0x13c
    b4b6:	11d8      	asrs	r0, r3, #7
    b4b8:	fc11 101d 	ldc2	0, cr1, [r1], {29}
    b4bc:	fddf 0a15 	ldc2l	10, cr0, [pc, #84]	@ 0xb514	@ <UNPREDICTABLE>
    b4c0:	ed0e 0d9d 	stc	13, cr0, [lr, #-628]	@ 0xfffffd8c
    b4c4:	1fef      	subs	r7, r5, #7
    b4c6:	2593      	movs	r5, #147	@ 0x93
    b4c8:	e0a9      	b.n	0xb61e
    b4ca:	0310      	lsls	r0, r2, #12
    b4cc:	7926      	ldrb	r6, [r4, #4]
    b4ce:	4604      	mov	r4, r0
    b4d0:	18d0      	adds	r0, r2, r3
    b4d2:	d170      	bne.n	0xb5b6
    b4d4:	d95f      	bls.n	0xb596
    b4d6:	ded0      	udf	#208	@ 0xd0
    b4d8:	20d9      	movs	r0, #217	@ 0xd9
    b4da:	02cc      	lsls	r4, r1, #11
    b4dc:	f012 4603 	ands.w	r6, r2, #2197815296	@ 0x83000000
    b4e0:	15e0      	asrs	r0, r4, #23
    b4e2:	03df      	lsls	r7, r3, #15
    b4e4:	dff1      	svc	241	@ 0xf1
    b4e6:	06fb      	lsls	r3, r7, #27
    b4e8:	e24f      	b.n	0xb98a
    b4ea:	9424      	str	r4, [sp, #144]	@ 0x90
    b4ec:	404e      	eors	r6, r1
    b4ee:	1238      	asrs	r0, r7, #8
    b4f0:	48b8      	ldr	r0, [pc, #736]	@ (0xb7d4)
    b4f2:	624e      	str	r6, [r1, #36]	@ 0x24
    b4f4:	e019      	b.n	0xb52a
    b4f6:	8604      	strh	r4, [r0, #48]	@ 0x30
    b4f8:	2301      	movs	r3, #1
    b4fa:	3b81      	subs	r3, #129	@ 0x81
    b4fc:	24e3      	movs	r4, #227	@ 0xe3
    b4fe:	0296      	lsls	r6, r2, #10
    b500:	604e      	str	r6, [r1, #4]
    b502:	3028      	adds	r0, #40	@ 0x28
    b504:	b812      			@ <UNDEFINED> instruction: 0xb812
    b506:	4e1e      	ldr	r6, [pc, #120]	@ (0xb580)
    b508:	3962      	subs	r1, #98	@ 0x62
    b50a:	04e0      	lsls	r0, r4, #19
    b50c:	0386      	lsls	r6, r0, #14
    b50e:	9123      	str	r1, [sp, #140]	@ 0x8c
    b510:	0a52      	lsrs	r2, r2, #9
    b512:	4701      	bx	r0
    b514:	3fe4      	subs	r7, #228	@ 0xe4
    b516:	000a      	movs	r2, r1
    b518:	6447      	str	r7, [r0, #68]	@ 0x44
    b51a:	df44      	svc	68	@ 0x44
    b51c:	f105 fcdf 	bl	0x110ede
    b520:	6f04      	ldr	r4, [r0, #112]	@ 0x70
    b522:	24e2      	movs	r4, #226	@ 0xe2
    b524:	4e84      	ldr	r6, [pc, #528]	@ (0xb738)
    b526:	e850 8624 			@ <UNDEFINED> instruction: 0xe8508624
    b52a:	4e01      	ldr	r6, [pc, #4]	@ (0xb530)
    b52c:	1870      	adds	r0, r6, r1
    b52e:	24e0      	movs	r4, #224	@ 0xe0
    b530:	0286      	lsls	r6, r0, #10
    b532:	704e      	strb	r6, [r1, #1]
    b534:	e028      	b.n	0xb588
    b536:	8624      	strh	r4, [r4, #48]	@ 0x30
    b538:	4e03      	ldr	r6, [pc, #12]	@ (0xb548)
    b53a:	3870      	subs	r0, #112	@ 0x70
    b53c:	4df0      	ldr	r5, [pc, #960]	@ (0xb900)
    b53e:	5110      	str	r0, [r2, r4]
    b540:	fd95 651f 	ldc2	5, cr6, [r5, #124]	@ 0x7c
    b544:	f0d9 9751 	b.w	0xce53ea
    b548:	100d      	asrs	r5, r1, #32
    b54a:	d985      	bls.n	0xb458
    b54c:	1000      	asrs	r0, r0, #32
    b54e:	00c0      	lsls	r0, r0, #3
    b550:	b6d2      			@ <UNDEFINED> instruction: 0xb6d2
    b552:	00da      	lsls	r2, r3, #3
    b554:	200c      	movs	r0, #12
    b556:	ad6d      	add	r5, sp, #436	@ 0x1b4
    b558:	c00d      	stmia	r0!, {r0, r2, r3}
    b55a:	d200      	bcs.n	0xb55e
    b55c:	daf6      	bge.n	0xb54c
    b55e:	1510      	asrs	r0, r2, #20
    b560:	00db      	lsls	r3, r3, #3
    b562:	b251      	sxtb	r1, r2
    b564:	100d      	asrs	r5, r1, #32
    b566:	dc95      	bgt.n	0xb494
    b568:	5100      	str	r0, [r0, r4]
    b56a:	0dca      	lsrs	r2, r1, #23
    b56c:	1510      	asrs	r0, r2, #20
    b56e:	00df      	lsls	r7, r3, #3
    b570:	f251 100d 			@ <UNDEFINED> instruction: 0xf251100d
    b574:	e195      	b.n	0xb8a2
    b576:	c002      	stmia	r0!, {r1}
    b578:	d200      	bcs.n	0xb57c
    b57a:	e1a6      	b.n	0xb8ca
    b57c:	00a0      	lsls	r0, r4, #2
    b57e:	6310      	str	r0, [r2, #48]	@ 0x30
    b580:	08bd      	lsrs	r5, r7, #2
    b582:	dff1      	svc	241	@ 0xf1
    b584:	167e      	asrs	r6, r7, #25
    b586:	edd3 00e2 	ldcl	0, cr0, [r3, #904]	@ 0x388
    b58a:	0940      	lsrs	r0, r0, #5
    b58c:	21ef      	movs	r1, #239	@ 0xef
    b58e:	008d      	lsls	r5, r1, #2
    b590:	2089      	movs	r0, #137	@ 0x89
    b592:	2c6c      	cmp	r4, #108	@ 0x6c
    b594:	cc0e      	ldmia	r4!, {r1, r2, r3}
    b596:	1388      	asrs	r0, r1, #14
    b598:	82c9      	strh	r1, [r1, #22]
    b59a:	6c20      	ldr	r0, [r4, #64]	@ 0x40
    b59c:	0e2c      	lsrs	r4, r5, #24
    b59e:	1452      	asrs	r2, r2, #17
    b5a0:	9000      	str	r0, [sp, #0]
    b5a2:	6c24      	ldr	r4, [r4, #64]	@ 0x40
    b5a4:	0e2c      	lsrs	r4, r5, #24
    b5a6:	b8cc      			@ <UNDEFINED> instruction: 0xb8cc
    b5a8:	b80b      			@ <UNDEFINED> instruction: 0xb80b
    b5aa:	0a33      	lsrs	r3, r6, #8
    b5ac:	5a80      	ldrh	r0, [r0, r2]
    b5ae:	2101      	movs	r1, #1
    b5b0:	eef8 030a 	cdp	3, 15, cr0, cr8, cr10, {0}
    b5b4:	015a      	lsls	r2, r3, #5
    b5b6:	adef      	add	r5, sp, #956	@ 0x3bc
    b5b8:	1050      	asrs	r0, r2, #1
    b5ba:	d963      	bls.n	0xb684
    b5bc:	20a0      	movs	r0, #160	@ 0xa0
    b5be:	8310      	strh	r0, [r2, #24]
    b5c0:	10f2      	asrs	r2, r6, #3
    b5c2:	15d3      	asrs	r3, r2, #23
    b5c4:	6c29      	ldr	r1, [r5, #64]	@ 0x40
    b5c6:	0e2c      	lsrs	r4, r5, #24
    b5c8:	88cc      	ldrh	r4, [r1, #6]
    b5ca:	b813      			@ <UNDEFINED> instruction: 0xb813
    b5cc:	111d      	asrs	r5, r3, #4
    b5ce:	a448      	add	r4, pc, #288	@ (adr r4, 0xb6f0)
    b5d0:	1000      	asrs	r0, r0, #32
    b5d2:	a7c3      	add	r7, pc, #780	@ (adr r7, 0xb8e0)
    b5d4:	5fe0      	ldrsh	r0, [r4, r7]
    b5d6:	00c0      	lsls	r0, r0, #3
    b5d8:	c6d2      	stmia	r6!, {r1, r4, r6, r7}
    b5da:	10e2      	asrs	r2, r4, #3
    b5dc:	1e30      	subs	r0, r6, #0
    b5de:	7611      	strb	r1, [r2, #24]
    b5e0:	4c20      	ldr	r4, [pc, #128]	@ (0xb664)
    b5e2:	0dab      	lsrs	r3, r5, #22
    b5e4:	00cd      	lsls	r5, r1, #3
    b5e6:	a800      	add	r0, sp, #0
    b5e8:	ce1a      	ldmia	r6!, {r1, r3, r4}
    b5ea:	1a8e      	subs	r6, r1, r2
    b5ec:	ece3 34a8 	cfstrd	mvd3, [r3], #672	@ 0x2a0
    b5f0:	8fce      	ldrh	r6, [r1, #62]	@ 0x3e
    b5f2:	976a      	str	r7, [sp, #424]	@ 0x1a8
    b5f4:	0b99      	lsrs	r1, r3, #14
    b5f6:	4221      	tst	r1, r4
    b5f8:	47f1      			@ <UNDEFINED> instruction: 0x47f1
    b5fa:	0460      	lsls	r0, r4, #17
    b5fc:	18d2      	adds	r2, r2, r3
    b5fe:	0a50      	lsrs	r0, r2, #9
    b600:	eb11 b993 			@ <UNDEFINED> instruction: 0xeb11b993
    b604:	1109      	asrs	r1, r1, #4
    b606:	93ef      	str	r3, [sp, #956]	@ 0x3bc
    b608:	0919      	lsrs	r1, r3, #4
    b60a:	0511      	lsls	r1, r2, #20
    b60c:	1314      	asrs	r4, r2, #12
    b60e:	cab1      	ldmia	r2!, {r0, r4, r5, r7}
    b610:	a038      	add	r0, pc, #224	@ (adr r0, 0xb6f4)
    b612:	9510      	str	r5, [sp, #64]	@ 0x40
    b614:	01e1      	lsls	r1, r4, #7
    b616:	13fe      	asrs	r6, r7, #15
    b618:	e195      	b.n	0xb946
    b61a:	2402      	movs	r4, #2
    b61c:	2e19      	cmp	r6, #25
    b61e:	1a6c      	subs	r4, r5, r1
    b620:	420e      	tst	r6, r1
    b622:	18ac      	adds	r4, r5, r2
    b624:	3d70      	subs	r5, #112	@ 0x70
    b626:	f4ec d201 	bl	0xff0f7a2c
    b62a:	df36      	svc	54	@ 0x36
    b62c:	8980      	ldrh	r0, [r0, #12]
    b62e:	6c24      	ldr	r4, [r4, #64]	@ 0x40
    b630:	0df3      	lsrs	r3, r6, #23
    b632:	00cc      	lsls	r4, r1, #3
    b634:	b800      			@ <UNDEFINED> instruction: 0xb800
    b636:	2427      	movs	r4, #39	@ 0x27
    b638:	2e19      	cmp	r6, #25
    b63a:	1a6c      	subs	r4, r5, r1
    b63c:	420e      	tst	r6, r1
    b63e:	18ac      	adds	r4, r5, r2
    b640:	3bb0      	subs	r3, #176	@ 0xb0
    b642:	f4ec d201 	bl	0xff0f7a48
    b646:	df36      	svc	54	@ 0x36
    b648:	0980      	lsrs	r0, r0, #6
    b64a:	6c21      	ldr	r1, [r4, #64]	@ 0x40
    b64c:	0df3      	lsrs	r3, r6, #23
    b64e:	1442      	asrs	r2, r0, #17
    b650:	9000      	str	r0, [sp, #0]
    b652:	1664      	asrs	r4, r4, #25
    b654:	02df      	lsls	r7, r3, #11
    b656:	dff1      	svc	241	@ 0xf1
    b658:	27fc      	movs	r7, #252	@ 0xfc
    b65a:	000a      	movs	r2, r1
    b65c:	9047      	str	r0, [sp, #284]	@ 0x11c
    b65e:	2ae9      	cmp	r2, #233	@ 0xe9
    b660:	8046      	strh	r6, [r0, #2]
    b662:	9125      	str	r1, [sp, #148]	@ 0x94
    b664:	d052      	beq.n	0xb70c
    b666:	df5e      	svc	94	@ 0x5e
    b668:	8520      	strh	r0, [r4, #40]	@ 0x28
    b66a:	d284      	bcs.n	0xb576
    b66c:	8018      	strh	r0, [r3, #0]
    b66e:	4628      	mov	r0, r5
    b670:	2580      	movs	r5, #128	@ 0x80
    b672:	5291      	strh	r1, [r2, r2]
    b674:	5ed0      	ldrsh	r0, [r2, r3]
    b676:	20df      	movs	r0, #223	@ 0xdf
    b678:	ce85      	ldmia	r6!, {r0, r2, r7}
    b67a:	c0e1      	stmia	r0!, {r0, r5, r6, r7}
    b67c:	000c      	movs	r4, r1
    b67e:	3b90      	subs	r3, #144	@ 0x90
    b680:	461e      	mov	r6, r3
    b682:	2580      	movs	r5, #128	@ 0x80
    b684:	5291      	strh	r1, [r2, r2]
    b686:	5ed0      	ldrsh	r0, [r2, r3]
    b688:	20df      	movs	r0, #223	@ 0xdf
    b68a:	8685      	strh	r5, [r0, #52]	@ 0x34
    b68c:	0c03      	lsrs	r3, r0, #16
    b68e:	3200      	adds	r2, #0
    b690:	1b53      	subs	r3, r2, r5
    b692:	d6c2      	bvs.n	0xb61a
    b694:	c0da      	stmia	r0!, {r1, r3, r4, r6, r7}
    b696:	000c      	movs	r4, r1
    b698:	0b90      	lsrs	r0, r2, #14
    b69a:	4617      	mov	r7, r2
    b69c:	55a0      	strb	r0, [r4, r6]
    b69e:	ef20 a8ed 	vadd.i32	q5, q8, <illegal reg q14.5>
    b6a2:	5247      	strh	r7, [r0, r1]
    b6a4:	2a68      	cmp	r2, #104	@ 0x68
    b6a6:	0460      	lsls	r0, r4, #17
    b6a8:	1258      	asrs	r0, r3, #9
    b6aa:	0529      	lsls	r1, r5, #20
    b6ac:	f5ed 520d 			@ <UNDEFINED> instruction: 0xf5ed520d
    b6b0:	3868      	subs	r0, #104	@ 0x68
    b6b2:	2230      	movs	r2, #48	@ 0x30
    b6b4:	15b8      	asrs	r0, r7, #22
    b6b6:	f204 108d 	addw	r0, r4, #397	@ 0x18d
    b6ba:	040d      	lsls	r5, r1, #16
    b6bc:	1df2      	adds	r2, r6, #7
    b6be:	d03c      	beq.n	0xb73a
    b6c0:	0460      	lsls	r0, r4, #17
    b6c2:	055a      	lsls	r2, r3, #21
    b6c4:	def2      	udf	#242	@ 0xf2
    b6c6:	7a8e      	ldrb	r6, [r1, #10]
    b6c8:	8524      	strh	r4, [r4, #40]	@ 0x28
    b6ca:	23ce      	movs	r3, #206	@ 0xce
    b6cc:	128e      	asrs	r6, r1, #10
    b6ce:	2041      	movs	r0, #65	@ 0x41
    b6d0:	58db      	ldr	r3, [r3, r3]
    b6d2:	b3ed      	cbz	r5, 0xb750
    b6d4:	210d      	movs	r1, #13
    b6d6:	8c21      	ldrh	r1, [r4, #32]
    b6d8:	6147      	str	r7, [r0, #20]
    b6da:	c214      	stmia	r2!, {r2, r4}
    b6dc:	c008      	stmia	r0!, {r3}
    b6de:	c00d      	stmia	r0!, {r0, r2, r3}
    b6e0:	d201      	bcs.n	0xb6e6
    b6e2:	dad6      	bge.n	0xb692
    b6e4:	0460      	lsls	r0, r4, #17
    b6e6:	1258      	asrs	r0, r3, #9
    b6e8:	0529      	lsls	r1, r5, #20
    b6ea:	f5ed 520d 			@ <UNDEFINED> instruction: 0xf5ed520d
    b6ee:	3868      	subs	r0, #104	@ 0x68
    b6f0:	f8c0 635f 	str.w	r6, [r0, #863]	@ 0x35f
    b6f4:	5804      	ldr	r4, [r0, r0]
    b6f6:	2912      	cmp	r1, #18
    b6f8:	ed05 0df5 	stc	13, cr0, [r5, #-980]	@ 0xfffffc2c
    b6fc:	6852      	ldr	r2, [r2, #4]
    b6fe:	603a      	str	r2, [r7, #0]
    b700:	5804      	ldr	r4, [r0, r0]
    b702:	2912      	cmp	r1, #18
    b704:	ed05 0df5 	stc	13, cr0, [r5, #-980]	@ 0xfffffc2c
    b708:	2852      	cmp	r0, #82	@ 0x52
    b70a:	01aa      	lsls	r2, r5, #6
    b70c:	03a7      	lsls	r7, r4, #14
    b70e:	a046      	add	r0, pc, #280	@ (adr r0, 0xb828)
    b710:	2055      	movs	r0, #85	@ 0x55
    b712:	edef 47a8 	stcl	7, cr4, [pc, #672]!	@ 0xb9b4
    b716:	e852 0461 			@ <UNDEFINED> instruction: 0xe8520461
    b71a:	1258      	asrs	r0, r3, #9
    b71c:	0529      	lsls	r1, r5, #20
    b71e:	f5ed 520d 			@ <UNDEFINED> instruction: 0xf5ed520d
    b722:	1ce8      	adds	r0, r5, #3
    b724:	461f      	mov	r7, r3
    b726:	2580      	movs	r5, #128	@ 0x80
    b728:	5291      	strh	r1, [r2, r2]
    b72a:	5ed0      	ldrsh	r0, [r2, r3]
    b72c:	20df      	movs	r0, #223	@ 0xdf
    b72e:	8685      	strh	r5, [r0, #52]	@ 0x34
    b730:	8d03      	ldrh	r3, [r0, #40]	@ 0x28
    b732:	2600      	movs	r6, #0
    b734:	020a      	lsls	r2, r1, #8
    b736:	6147      	str	r7, [r0, #20]
    b738:	5804      	ldr	r4, [r0, r0]
    b73a:	2912      	cmp	r1, #18
    b73c:	aa05      	add	r2, sp, #20
    b73e:	ed00 0df5 	stc	13, cr0, [r0, #-980]	@ 0xfffffc2c
    b742:	5852      	ldr	r2, [r2, r1]
    b744:	c99a      	ldmia	r1, {r1, r3, r4, r7}
    b746:	0a0e      	lsrs	r6, r1, #8
    b748:	4701      	bx	r0
    b74a:	0991      	lsrs	r1, r2, #6
    b74c:	0a0e      	lsrs	r6, r1, #8
    b74e:	4700      	bx	r0
    b750:	4991      	ldr	r1, [pc, #580]	@ (0xb998)
    b752:	460d      	mov	r5, r1
    b754:	55a0      	strb	r0, [r4, r6]
    b756:	ef20 a8ed 	vadd.i32	q5, q8, <illegal reg q14.5>
    b75a:	5247      	strh	r7, [r0, r1]
    b75c:	61e8      	str	r0, [r5, #28]
    b75e:	5804      	ldr	r4, [r0, r0]
    b760:	2912      	cmp	r1, #18
    b762:	ed05 0df5 	stc	13, cr0, [r5, #-980]	@ 0xfffffc2c
    b766:	e852 1f1c 	ldrex	r1, [r2, #112]	@ 0x70
    b76a:	a199      	add	r1, pc, #612	@ (adr r1, 0xb9d0)
    b76c:	30a0      	adds	r0, #160	@ 0xa0
    b76e:	1470      	asrs	r0, r6, #17
    b770:	9599      	str	r5, [sp, #612]	@ 0x264
    b772:	0460      	lsls	r0, r4, #17
    b774:	1258      	asrs	r0, r3, #9
    b776:	0529      	lsls	r1, r5, #20
    b778:	f5ed 520d 			@ <UNDEFINED> instruction: 0xf5ed520d
    b77c:	1ce8      	adds	r0, r5, #3
    b77e:	820e      	strh	r6, [r1, #16]
    b780:	5421      	strb	r1, [r4, r0]
    b782:	0001      	movs	r1, r0
    b784:	8046      	strh	r6, [r0, #2]
    b786:	9125      	str	r1, [sp, #148]	@ 0x94
    b788:	d052      	beq.n	0xb830
    b78a:	df5e      	svc	94	@ 0x5e
    b78c:	8520      	strh	r0, [r4, #40]	@ 0x28
    b78e:	f1ce 0461 	rsb	r4, lr, #97	@ 0x61
    b792:	1258      	asrs	r0, r3, #9
    b794:	0529      	lsls	r1, r5, #20
    b796:	f5ed 520d 			@ <UNDEFINED> instruction: 0xf5ed520d
    b79a:	1ce8      	adds	r0, r5, #3
    b79c:	cc0e      	ldmia	r4!, {r1, r2, r3}
    b79e:	0000      	movs	r0, r0
    b7a0:	36b8      	adds	r6, #184	@ 0xb8
    b7a2:	d6c2      	bvs.n	0xb72a
    b7a4:	c0da      	stmia	r0!, {r1, r3, r4, r6, r7}
    b7a6:	002c      	movs	r4, r5
    b7a8:	5b80      	ldrh	r0, [r0, r6]
    b7aa:	0c02      	lsrs	r2, r0, #16
    b7ac:	1490      	asrs	r0, r2, #18
    b7ae:	dca5      	bgt.n	0xb6fc
    b7b0:	9800      	ldr	r0, [sp, #0]
    b7b2:	4614      	mov	r4, r2
    b7b4:	1080      	asrs	r0, r0, #2
    b7b6:	460d      	mov	r5, r1
    b7b8:	90c0      	str	r0, [sp, #768]	@ 0x300
    b7ba:	6d90      	ldr	r0, [r2, #88]	@ 0x58
    b7bc:	7ed4      	ldrb	r4, [r2, #27]
    b7be:	4df2      	ldr	r5, [pc, #968]	@ (0xbb88)
    b7c0:	df10      	svc	16
    b7c2:	67f8      	str	r0, [r7, #124]	@ 0x7c
    b7c4:	c904      	ldmia	r1!, {r2}
    b7c6:	047d      	lsls	r5, r7, #17
    b7c8:	ca04      	ldmia	r2, {r2}
    b7ca:	147d      	asrs	r5, r7, #17
    b7cc:	6146      	str	r6, [r0, #20]
    b7ce:	2305      	movs	r3, #5
    b7d0:	cd84      	ldmia	r5!, {r2, r7}
    b7d2:	1460      	asrs	r0, r4, #17
    b7d4:	2056      	movs	r0, #86	@ 0x56
    b7d6:	fe4a 1466 	cdp2	4, 4, cr1, cr10, cr6, {3}
    b7da:	2680      	movs	r6, #128	@ 0x80
    b7dc:	2056      	movs	r0, #86	@ 0x56
    b7de:	474a      	bx	r9
    b7e0:	2462      	movs	r4, #98	@ 0x62
    b7e2:	050c      	lsls	r4, r1, #20
    b7e4:	a6d9      	add	r6, pc, #868	@ (adr r6, 0xbb4c)
    b7e6:	00a3      	lsls	r3, r4, #2
    b7e8:	3470      	adds	r4, #112	@ 0x70
    b7ea:	8e99      	ldrh	r1, [r3, #52]	@ 0x34
    b7ec:	3463      	adds	r4, #99	@ 0x63
    b7ee:	1258      	asrs	r0, r3, #9
    b7f0:	0529      	lsls	r1, r5, #20
    b7f2:	f5ed 520d 			@ <UNDEFINED> instruction: 0xf5ed520d
    b7f6:	2848      	cmp	r0, #72	@ 0x48
    b7f8:	018d      	lsls	r5, r1, #6
    b7fa:	6368      	str	r0, [r5, #52]	@ 0x34
    b7fc:	5a34      	ldrh	r4, [r6, r0]
    b7fe:	f205 bede 	b.w	0x2115be
    b802:	2477      	movs	r4, #119	@ 0x77
    b804:	8685      	strh	r5, [r0, #52]	@ 0x34
    b806:	5604      	ldrsb	r4, [r0, r0]
    b808:	4232      	tst	r2, r6
    b80a:	5232      	strh	r2, [r6, r0]
    b80c:	4634      	mov	r4, r6
    b80e:	8d23      	ldrh	r3, [r4, #40]	@ 0x28
    b810:	c700      	stmia	r7!, {}
    b812:	3460      	adds	r4, #96	@ 0x60
    b814:	055a      	lsls	r2, r3, #21
    b816:	def2      	udf	#242	@ 0xf2
    b818:	77be      	strb	r6, [r7, #30]
    b81a:	8524      	strh	r4, [r4, #40]	@ 0x28
    b81c:	0486      	lsls	r6, r0, #18
    b81e:	cced      	ldmia	r4!, {r0, r2, r3, r5, r6, r7}
    b820:	a20d      	add	r2, pc, #52	@ (adr r2, 0xb858)
    b822:	1010      	asrs	r0, r2, #32
    b824:	e253      	b.n	0xbcce
    b826:	8d20      	ldrh	r0, [r4, #40]	@ 0x28
    b828:	8601      	strh	r1, [r0, #48]	@ 0x30
    b82a:	c040      	stmia	r0!, {r6}
    b82c:	c1dc      	stmia	r1!, {r2, r3, r4, r6, r7}
    b82e:	1403      	asrs	r3, r0, #16
    b830:	3df2      	subs	r5, #242	@ 0xf2
    b832:	b812      			@ <UNDEFINED> instruction: 0xb812
    b834:	5160      	str	r0, [r4, r5]
    b836:	1df1      	adds	r1, r6, #7
    b838:	6c20      	ldr	r0, [r4, #64]	@ 0x40
    b83a:	0dab      	lsrs	r3, r5, #22
    b83c:	01cc      	lsls	r4, r1, #7
    b83e:	2900      	cmp	r1, #0
    b840:	2c03      	cmp	r4, #3
    b842:	1490      	asrs	r0, r2, #18
    b844:	e2e5      	b.n	0xbe12
    b846:	c001      	stmia	r0!, {r0}
    b848:	d200      	bcs.n	0xb84c
    b84a:	e2c6      	b.n	0xbdda
    b84c:	3460      	adds	r4, #96	@ 0x60
    b84e:	1258      	asrs	r0, r3, #9
    b850:	0529      	lsls	r1, r5, #20
    b852:	00aa      	lsls	r2, r5, #2
    b854:	f5ed 520d 			@ <UNDEFINED> instruction: 0xf5ed520d
    b858:	1a58      	subs	r0, r3, r1
    b85a:	dca5      	bgt.n	0xb7a8
    b85c:	c000      	stmia	r0!, {}
    b85e:	d200      	bcs.n	0xb862
    b860:	dad6      	bge.n	0xb810
    b862:	5990      	ldr	r0, [r2, r6]
    b864:	5129      	str	r1, [r5, r4]
    b866:	0df1      	lsrs	r1, r6, #23
    b868:	3010      	adds	r0, #16
    b86a:	9918      	ldr	r1, [sp, #96]	@ 0x60
    b86c:	1284      	asrs	r4, r0, #10
    b86e:	df15      	svc	21
    b870:	1100      	asrs	r0, r0, #4
    b872:	917a      	str	r1, [sp, #488]	@ 0x1e8
    b874:	2739      	movs	r7, #57	@ 0x39
    b876:	ce04      	ldmia	r6!, {r2}
    b878:	447d      	add	r5, pc
    b87a:	cc04      	ldmia	r4!, {r2}
    b87c:	c12d      	stmia	r1!, {r0, r2, r3, r5}
    b87e:	1c32      	adds	r2, r6, #0
    b880:	701c      	strb	r4, [r3, #0]
    b882:	4654      	mov	r4, sl
    b884:	55a3      	strb	r3, [r4, r6]
    b886:	ef20 7bed 	vqdmulh.s32	<illegal reg q3.5>, q8, <illegal reg q14.5>
    b88a:	5247      	strh	r7, [r0, r1]
    b88c:	6848      	ldr	r0, [r1, #4]
    b88e:	2345      	movs	r3, #69	@ 0x45
    b890:	9b94      	ldr	r3, [sp, #592]	@ 0x250
    b892:	4623      	mov	r3, r4
    b894:	55a3      	strb	r3, [r4, r6]
    b896:	ef20 7bed 	vqdmulh.s32	<illegal reg q3.5>, q8, <illegal reg q14.5>
    b89a:	5247      	strh	r7, [r0, r1]
    b89c:	4868      	ldr	r0, [pc, #416]	@ (0xba40)
    b89e:	ced0      	ldmia	r6, {r4, r6, r7}
    b8a0:	20dc      	movs	r0, #220	@ 0xdc
    b8a2:	010a      	lsls	r2, r1, #4
    b8a4:	a521      	add	r5, pc, #132	@ (adr r5, 0xb92c)
    b8a6:	d20d      	bcs.n	0xb8c4
    b8a8:	9018      	str	r0, [sp, #96]	@ 0x60
    b8aa:	0420      	lsls	r0, r4, #16
    b8ac:	1dcc      	adds	r4, r1, #7
    b8ae:	403c      	ands	r4, r7
    b8b0:	df21      	svc	33	@ 0x21
    b8b2:	9123      	str	r1, [sp, #140]	@ 0x8c
    b8b4:	1e7b      	subs	r3, r7, #1
    b8b6:	2446      	movs	r4, #70	@ 0x46
    b8b8:	308d      	adds	r0, #141	@ 0x8d
    b8ba:	d172      	bne.n	0xb9a2
    b8bc:	dd0e      	ble.n	0xb8dc
    b8be:	7010      	strb	r0, [r2, #0]
    b8c0:	c240      	stmia	r2!, {r6}
    b8c2:	e296      	b.n	0xbdf2
    b8c4:	4520      	cmp	r0, r4
    b8c6:	0001      	movs	r1, r0
    b8c8:	3442      	adds	r4, #66	@ 0x42
    b8ca:	9000      	str	r0, [sp, #0]
    b8cc:	1044      	asrs	r4, r0, #1
    b8ce:	58dd      	ldr	r5, [r3, r3]
    b8d0:	97c2      	str	r7, [sp, #776]	@ 0x308
    b8d2:	20e2      	movs	r0, #226	@ 0xe2
    b8d4:	5915      	ldr	r5, [r2, r4]
    b8d6:	d004      	beq.n	0xb8e2
    b8d8:	8d2d      	ldrh	r5, [r5, #40]	@ 0x28
    b8da:	0d01      	lsrs	r1, r0, #20
    b8dc:	d141      	bne.n	0xb962
    b8de:	04e1      	lsls	r1, r4, #19
    b8e0:	3dd2      	subs	r5, #210	@ 0xd2
    b8e2:	b912      	cbnz	r2, 0xb8ea
    b8e4:	40fb      	lsrs	r3, r7
    b8e6:	e1e1      	b.n	0xbcac
    b8e8:	d304      	bcc.n	0xb8f4
    b8ea:	123d      	asrs	r5, r7, #8
    b8ec:	e9b9 f140 			@ <UNDEFINED> instruction: 0xe9b9f140
    b8f0:	04e1      	lsls	r1, r4, #19
    b8f2:	3dd4      	subs	r5, #212	@ 0xd4
    b8f4:	b912      	cbnz	r2, 0xb8fc
    b8f6:	40d7      	lsrs	r7, r2
    b8f8:	e201      	b.n	0xbcfe
    b8fa:	d504      	bpl.n	0xb906
    b8fc:	123d      	asrs	r5, r7, #8
    b8fe:	c5b9      	stmia	r5!, {r0, r3, r4, r5, r7}
    b900:	1140      	asrs	r0, r0, #5
    b902:	04e2      	lsls	r2, r4, #19
    b904:	3dd6      	subs	r5, #214	@ 0xd6
    b906:	b912      	cbnz	r2, 0xb90e
    b908:	40b3      	lsls	r3, r6
    b90a:	e221      	b.n	0xbd50
    b90c:	d704      	bvc.n	0xb918
    b90e:	123d      	asrs	r5, r7, #8
    b910:	a1b9      	add	r1, pc, #740	@ (adr r1, 0xbbf8)
    b912:	3140      	adds	r1, #64	@ 0x40
    b914:	04e2      	lsls	r2, r4, #19
    b916:	3dd8      	subs	r5, #216	@ 0xd8
    b918:	b912      	cbnz	r2, 0xb920
    b91a:	408f      	lsls	r7, r1
    b91c:	e241      	b.n	0xbda2
    b91e:	d904      	bls.n	0xb92a
    b920:	123d      	asrs	r5, r7, #8
    b922:	7eb8      	ldrb	r0, [r7, #26]
    b924:	2514      	movs	r5, #20
    b926:	a04e      	add	r0, pc, #312	@ (adr r0, 0xba60)
    b928:	23dd      	movs	r3, #221	@ 0xdd
    b92a:	db81      	blt.n	0xb830
    b92c:	6146      	str	r6, [r0, #20]
    b92e:	04e2      	lsls	r2, r4, #19
    b930:	3ddb      	subs	r5, #219	@ 0xdb
    b932:	b812      			@ <UNDEFINED> instruction: 0xb812
    b934:	145c      	asrs	r4, r3, #17
    b936:	4e27      	ldr	r6, [pc, #156]	@ (0xb9d4)
    b938:	ddc0      	ble.n	0xb8bc
    b93a:	8123      	strh	r3, [r4, #8]
    b93c:	44bb      	add	fp, r7
    b93e:	e281      	b.n	0xbe44
    b940:	dd04      	ble.n	0xb94c
    b942:	123d      	asrs	r5, r7, #8
    b944:	3ab8      	subs	r2, #184	@ 0xb8
    b946:	e6c2      	b.n	0xb6ce
    b948:	20dd      	movs	r0, #221	@ 0xdd
    b94a:	297c      	cmp	r1, #124	@ 0x7c
    b94c:	820e      	strh	r6, [r1, #16]
    b94e:	5b85      	ldrh	r5, [r0, r6]
    b950:	6c22      	ldr	r2, [r4, #64]	@ 0x40
    b952:	0dab      	lsrs	r3, r5, #22
    b954:	03cc      	lsls	r4, r1, #15
    b956:	2900      	cmp	r1, #0
    b958:	4c03      	ldr	r4, [pc, #12]	@ (0xb968)
    b95a:	0490      	lsls	r0, r2, #18
    b95c:	200c      	movs	r0, #12
    b95e:	af6d      	add	r7, sp, #436	@ 0x1b4
    b960:	980d      	ldr	r0, [sp, #52]	@ 0x34
    b962:	c042      	stmia	r0!, {r1, r6}
    b964:	d203      	bcs.n	0xb96e
    b966:	daf6      	bge.n	0xb956
    b968:	40a0      	lsls	r0, r4
    b96a:	5310      	strh	r0, [r2, r4]
    b96c:	a09e      	add	r0, pc, #632	@ (adr r0, 0xbbe8)
    b96e:	1030      	asrs	r0, r6, #32
    b970:	b773      			@ <UNDEFINED> instruction: 0xb773
    b972:	f980 4461 	vst1.16			@ <UNDEFINED> instruction: 0xf9804461
    b976:	218d      	movs	r1, #141	@ 0x8d
    b978:	c216      	stmia	r2!, {r1, r2, r4}
    b97a:	dab6      	bge.n	0xb8ea
    b97c:	6cc0      	ldr	r0, [r0, #76]	@ 0x4c
    b97e:	9000      	str	r0, [sp, #0]
    b980:	c032      	stmia	r0!, {r1, r4, r5}
    b982:	4907      	ldr	r1, [pc, #28]	@ (0xb9a0)
    b984:	00c0      	lsls	r0, r0, #3
    b986:	c6d2      	stmia	r6!, {r1, r4, r6, r7}
    b988:	60e2      	str	r2, [r4, #12]
    b98a:	5834      	ldr	r4, [r6, r0]
    b98c:	2912      	cmp	r1, #18
    b98e:	aa05      	add	r2, sp, #20
    b990:	ed00 0df5 	stc	13, cr0, [r0, #-980]	@ 0xfffffc2c
    b994:	5852      	ldr	r2, [r2, r1]
    b996:	a51a      	add	r5, pc, #104	@ (adr r5, 0xba00)
    b998:	00dc      	lsls	r4, r3, #3
    b99a:	00c0      	lsls	r0, r0, #3
    b99c:	d6d2      	bvs.n	0xb944
    b99e:	d0da      	beq.n	0xb956
    b9a0:	dcbe      	bgt.n	0xb920
    b9a2:	4460      	add	r0, ip
    b9a4:	1556      	asrs	r6, r2, #21
    b9a6:	6d40      	ldr	r0, [r0, #84]	@ 0x54
    b9a8:	16ee      	asrs	r6, r5, #27
    b9aa:	df15      	svc	21
    b9ac:	1100      	asrs	r0, r0, #4
    b9ae:	603e      	str	r6, [r7, #0]
    b9b0:	0834      	lsrs	r4, r6, #32
    b9b2:	60d1      	str	r1, [r2, #12]
    b9b4:	0c34      	lsrs	r4, r6, #16
    b9b6:	d909      	bls.n	0xb9cc
    b9b8:	ec66 cf67 	stcl	15, cr12, [r6], #-412	@ 0xfffffe64
    b9bc:	1008      	asrs	r0, r1, #32
    b9be:	d6c2      	bvs.n	0xb946
    b9c0:	c0da      	stmia	r0!, {r1, r3, r4, r6, r7}
    b9c2:	001c      	movs	r4, r3
    b9c4:	3290      	adds	r2, #144	@ 0x90
    b9c6:	02c0      	lsls	r0, r0, #11
    b9c8:	1049      	asrs	r1, r1, #1
    b9ca:	7edf      	ldrb	r7, [r3, #27]
    b9cc:	0404      	lsls	r4, r0, #16
    b9ce:	7dca      	ldrb	r2, [r1, #23]
    b9d0:	4614      	mov	r4, r2
    b9d2:	bed0      	bkpt	0x00d0
    b9d4:	60dc      	str	r4, [r3, #12]
    b9d6:	8215      	strh	r5, [r2, #16]
    b9d8:	6859      	ldr	r1, [r3, #4]
    b9da:	0c14      	lsrs	r4, r2, #16
    b9dc:	d825      	bhi.n	0xba2a
    b9de:	0a07      	lsrs	r7, r0, #8
    b9e0:	ee00 1463 	cdp	4, 0, cr1, cr0, cr3, {3}
    b9e4:	7108      	strb	r0, [r1, #4]
    b9e6:	4614      	mov	r4, r2
    b9e8:	a051      	add	r0, pc, #324	@ (adr r0, 0xbb30)
    b9ea:	dfdc      	svc	220	@ 0xdc
    b9ec:	f102 f151 	bl	0x50dc92
    b9f0:	a00d      	add	r0, pc, #52	@ (adr r0, 0xba28)
    b9f2:	1000      	asrs	r0, r0, #32
    b9f4:	0df0      	lsrs	r0, r6, #23
    b9f6:	0a10      	lsrs	r0, r2, #8
    b9f8:	1107      	asrs	r7, r0, #4
    b9fa:	00d9      	lsls	r1, r3, #3
    b9fc:	dff1      	svc	241	@ 0xf1
    b9fe:	14fd      	asrs	r5, r7, #19
    ba00:	6047      	str	r7, [r0, #4]
    ba02:	0504      	lsls	r4, r0, #20
    ba04:	ee19 d216 	mrc	2, 0, sp, cr9, cr6, {0}
    ba08:	e1a6      	b.n	0xbd58
    ba0a:	10a0      	asrs	r0, r4, #2
    ba0c:	6010      	str	r0, [r2, #0]
    ba0e:	df0c      	svc	12
    ba10:	f103 020a 	add.w	r2, r3, #10
    ba14:	be11      	bkpt	0x0011
    ba16:	f100 060a 	add.w	r6, r0, #10
    ba1a:	b811      			@ <UNDEFINED> instruction: 0xb811
    ba1c:	f100 050a 	add.w	r5, r0, #10
    ba20:	b211      	sxth	r1, r2
    ba22:	f100 080a 	add.w	r8, r0, #10
    ba26:	ac11      	add	r4, sp, #68	@ 0x44
    ba28:	f100 b6c2 	b.w	0x50c7b0
    ba2c:	00da      	lsls	r2, r3, #3
    ba2e:	dff1      	svc	241	@ 0xf1
    ba30:	06fc      	lsls	r4, r7, #27
    ba32:	424f      	negs	r7, r1
    ba34:	e190      	b.n	0xbd58
    ba36:	524e      	strh	r6, [r1, r1]
    ba38:	6c28      	ldr	r0, [r5, #64]	@ 0x40
    ba3a:	0e1a      	lsrs	r2, r3, #24
    ba3c:	f04e 4df0 	orr.w	sp, lr, #2013265920	@ 0x78000000
    ba40:	df10      	svc	16
    ba42:	047f      	lsls	r7, r7, #17
    ba44:	c046      	stmia	r0!, {r1, r2, r6}
    ba46:	8008      	strh	r0, [r1, #0]
    ba48:	0462      	lsls	r2, r4, #17
    ba4a:	028c      	lsls	r4, r1, #10
    ba4c:	461f      	mov	r7, r3
    ba4e:	18c0      	adds	r0, r0, r3
    ba50:	61f0      	str	r0, [r6, #28]
    ba52:	8c04      	ldrh	r4, [r0, #32]
    ba54:	2303      	movs	r3, #3
    ba56:	c046      	stmia	r0!, {r1, r2, r6}
    ba58:	a048      	add	r0, pc, #288	@ (adr r0, 0xbb7c)
    ba5a:	3981      	subs	r1, #129	@ 0x81
    ba5c:	3012      	adds	r0, #18
    ba5e:	98fb      	ldr	r0, [sp, #1004]	@ 0x3ec
    ba60:	0a30      	lsrs	r0, r6, #8
    ba62:	1101      	asrs	r1, r0, #4
    ba64:	806f      	strh	r7, [r5, #2]
    ba66:	a239      	add	r2, pc, #228	@ (adr r2, 0xbb4c)
    ba68:	1030      	asrs	r0, r6, #32
    ba6a:	0690      	lsls	r0, r2, #26
    ba6c:	1698      	asrs	r0, r3, #26
    ba6e:	2046      	movs	r0, #70	@ 0x46
    ba70:	050a      	lsls	r2, r1, #20
    ba72:	1c05      	adds	r5, r0, #0
    ba74:	40ae      	lsls	r6, r5
    ba76:	c010      	stmia	r0!, {r4}
    ba78:	df05      	svc	5
    ba7a:	f101 bed3 	b.w	0x10d824
    ba7e:	00e2      	lsls	r2, r4, #3
    ba80:	6160      	str	r0, [r4, #20]
    ba82:	5120      	str	r0, [r4, r4]
    ba84:	e2b0      	b.n	0xbfe8
    ba86:	2b04      	cmp	r3, #4
    ba88:	fc1e 207c 	ldc2	0, cr2, [lr], {124}	@ 0x7c
    ba8c:	2c31      	cmp	r4, #49	@ 0x31
    ba8e:	3e9a      	subs	r6, #154	@ 0x9a
    ba90:	aac3      	add	r2, sp, #780	@ 0x30c
    ba92:	33e7      	adds	r3, #231	@ 0xe7
    ba94:	7a3c      	ldrb	r4, [r7, #8]
    ba96:	103e      	asrs	r6, r7, #32
    ba98:	bed3      	bkpt	0x00d3
    ba9a:	00e2      	lsls	r2, r4, #3
    ba9c:	6160      	str	r0, [r4, #20]
    ba9e:	5120      	str	r0, [r4, r4]
    baa0:	e2b0      	b.n	0xc004
    baa2:	2b04      	cmp	r3, #4
    baa4:	fc1e 207c 	ldc2	0, cr2, [lr], {124}	@ 0x7c
    baa8:	2c31      	cmp	r4, #49	@ 0x31
    baaa:	3e9a      	subs	r6, #154	@ 0x9a
    baac:	a2c3      	add	r2, pc, #780	@ (adr r2, 0xbdbc)
    baae:	33e7      	adds	r3, #231	@ 0xe7
    bab0:	7abc      	ldrb	r4, [r7, #10]
    bab2:	103e      	asrs	r6, r7, #32
    bab4:	bcd3      	pop	{r0, r1, r4, r6, r7}
    bab6:	00e2      	lsls	r2, r4, #3
    bab8:	4100      	asrs	r0, r0
    baba:	e2b0      	b.n	0xc01e
    babc:	1207      	asrs	r7, r0, #8
    babe:	2b51      	cmp	r3, #81	@ 0x51
    bac0:	300e      	adds	r0, #14
    bac2:	9aac      	ldr	r2, [sp, #688]	@ 0x2b0
    bac4:	c33e      	stmia	r3!, {r1, r2, r3, r4, r5}
    bac6:	e7aa      	b.n	0xba1e
    bac8:	3c33      	subs	r4, #51	@ 0x33
    baca:	3e7a      	subs	r6, #122	@ 0x7a
    bacc:	2010      	movs	r0, #16
    bace:	0012      	movs	r2, r2
    bad0:	abc3      	add	r3, sp, #780	@ 0x30c
    bad2:	03e7      	lsls	r7, r4, #15
    bad4:	dff1      	svc	241	@ 0xf1
    bad6:	167e      	asrs	r6, r7, #25
    bad8:	6047      	str	r7, [r0, #4]
    bada:	5804      	ldr	r4, [r0, r0]
    badc:	2912      	cmp	r1, #18
    bade:	aa05      	add	r2, sp, #20
    bae0:	ed01 0df5 	stc	13, cr0, [r1, #-980]	@ 0xfffffc2c
    bae4:	5852      	ldr	r2, [r2, r1]
    bae6:	046a      	lsls	r2, r5, #17
    bae8:	1258      	asrs	r0, r3, #9
    baea:	0529      	lsls	r1, r5, #20
    baec:	f5ed 520d 			@ <UNDEFINED> instruction: 0xf5ed520d
    baf0:	0c08      	lsrs	r0, r1, #16
    baf2:	1ce0      	adds	r0, r4, #3
    baf4:	460f      	mov	r7, r1
    baf6:	55a0      	strb	r0, [r4, r6]
    baf8:	ef20 a8ed 	vadd.i32	q5, q8, <illegal reg q14.5>
    bafc:	5247      	strh	r7, [r0, r1]
    bafe:	2a68      	cmp	r2, #104	@ 0x68
    bb00:	0460      	lsls	r0, r4, #17
    bb02:	1258      	asrs	r0, r3, #9
    bb04:	0529      	lsls	r1, r5, #20
    bb06:	f5ed 520d 			@ <UNDEFINED> instruction: 0xf5ed520d
    bb0a:	3a78      	subs	r2, #120	@ 0x78
    bb0c:	1660      	asrs	r0, r4, #25
    bb0e:	02df      	lsls	r7, r3, #11
    bb10:	c2f1      	stmia	r2!, {r0, r4, r5, r6, r7}
    bb12:	77d0      	strb	r0, [r2, #31]
    bb14:	2054      	movs	r0, #84	@ 0x54
    bb16:	51db      	str	r3, [r3, r7]
    bb18:	0db3      	lsrs	r3, r6, #22
    bb1a:	4510      	cmp	r0, r2
    bb1c:	40db      	lsrs	r3, r3
    bb1e:	b551      	push	{r0, r4, r6, lr}
    bb20:	d00d      	beq.n	0xbb3e
    bb22:	db4e      	blt.n	0xbbc2
    bb24:	20a0      	movs	r0, #160	@ 0xa0
    bb26:	c310      	stmia	r3!, {r4}
    bb28:	20ad      	movs	r0, #173	@ 0xad
    bb2a:	b66d      			@ <UNDEFINED> instruction: 0xb66d
    bb2c:	510d      	str	r5, [r1, r4]
    bb2e:	0df2      	lsrs	r2, r6, #23
    bb30:	1c00      	adds	r0, r0, #0
    bb32:	6d20      	ldr	r0, [r4, #80]	@ 0x50
    bb34:	0dab      	lsrs	r3, r5, #22
    bb36:	c210      	stmia	r2!, {r4}
    bb38:	7820      	ldrb	r0, [r4, #0]
    bb3a:	2054      	movs	r0, #84	@ 0x54
    bb3c:	c2db      	stmia	r2!, {r0, r1, r3, r4, r6, r7}
    bb3e:	7810      	ldrb	r0, [r2, #0]
    bb40:	5054      	str	r4, [r2, r1]
    bb42:	c2db      	stmia	r2!, {r0, r1, r3, r4, r6, r7}
    bb44:	7800      	ldrb	r0, [r0, #0]
    bb46:	6054      	str	r4, [r2, #4]
    bb48:	04db      	lsls	r3, r3, #19
    bb4a:	5e19      	ldrsh	r1, [r3, r0]
    bb4c:	db70      	blt.n	0xbc30
    bb4e:	a6c2      	add	r6, pc, #776	@ (adr r6, 0xbe58)
    bb50:	20e1      	movs	r0, #225	@ 0xe1
    bb52:	b96d      	cbnz	r5, 0xbb70
    bb54:	110d      	asrs	r5, r1, #4
    bb56:	0148      	lsls	r0, r1, #5
    bb58:	205c      	movs	r0, #92	@ 0x5c
    bb5a:	ab6d      	add	r3, sp, #436	@ 0x1b4
    bb5c:	100d      	asrs	r5, r1, #32
    bb5e:	70c2      	strb	r2, [r0, #3]
    bb60:	5478      	strb	r0, [r7, r1]
    bb62:	db20      	blt.n	0xbba6
    bb64:	60c2      	str	r2, [r0, #12]
    bb66:	5478      	strb	r0, [r7, r1]
    bb68:	db50      	blt.n	0xbc0c
    bb6a:	50c2      	str	r2, [r0, r3]
    bb6c:	5478      	strb	r0, [r7, r1]
    bb6e:	db60      	blt.n	0xbc32
    bb70:	2d11      	cmp	r5, #17
    bb72:	f101 c0c2 	blx	0xd0ccf8
    bb76:	5478      	strb	r0, [r7, r1]
    bb78:	db20      	blt.n	0xbbbc
    bb7a:	b0c2      	sub	sp, #264	@ 0x108
    bb7c:	5478      	strb	r0, [r7, r1]
    bb7e:	db50      	blt.n	0xbc22
    bb80:	a0c2      	add	r0, pc, #776	@ (adr r0, 0xbe8c)
    bb82:	5478      	strb	r0, [r7, r1]
    bb84:	db60      	blt.n	0xbc48
    bb86:	1711      	asrs	r1, r2, #28
    bb88:	f101 10c2 	add.w	r0, r1, #12714178	@ 0xc200c2
    bb8c:	5479      	strb	r1, [r7, r1]
    bb8e:	db20      	blt.n	0xbbd2
    bb90:	00c2      	lsls	r2, r0, #3
    bb92:	5479      	strb	r1, [r7, r1]
    bb94:	db50      	blt.n	0xbc38
    bb96:	f0c2 5478 			@ <UNDEFINED> instruction: 0xf0c25478
    bb9a:	db60      	blt.n	0xbc5e
    bb9c:	1c04      	adds	r4, r0, #0
    bb9e:	705e      	strb	r6, [r3, #1]
    bba0:	11db      	asrs	r3, r3, #7
    bba2:	00fc      	lsls	r4, r7, #3
    bba4:	c2f1      	stmia	r2!, {r0, r4, r5, r6, r7}
    bba6:	7960      	ldrb	r0, [r4, #5]
    bba8:	2054      	movs	r0, #84	@ 0x54
    bbaa:	c2db      	stmia	r2!, {r0, r1, r3, r4, r6, r7}
    bbac:	7950      	ldrb	r0, [r2, #5]
    bbae:	5054      	str	r4, [r2, r1]
    bbb0:	c2db      	stmia	r2!, {r0, r1, r3, r4, r6, r7}
    bbb2:	7940      	ldrb	r0, [r0, #5]
    bbb4:	6054      	str	r4, [r2, #4]
    bbb6:	11db      	asrs	r3, r3, #7
    bbb8:	00e6      	lsls	r6, r4, #3
    bbba:	208c      	movs	r0, #140	@ 0x8c
    bbbc:	ab6d      	add	r3, sp, #436	@ 0x1b4
    bbbe:	100d      	asrs	r5, r1, #32
    bbc0:	b0c2      	sub	sp, #264	@ 0x108
    bbc2:	5479      	strb	r1, [r7, r1]
    bbc4:	db20      	blt.n	0xbc08
    bbc6:	a0c2      	add	r0, pc, #776	@ (adr r0, 0xbed0)
    bbc8:	5479      	strb	r1, [r7, r1]
    bbca:	db50      	blt.n	0xbc6e
    bbcc:	90c2      	str	r0, [sp, #776]	@ 0x308
    bbce:	5479      	strb	r1, [r7, r1]
    bbd0:	db60      	blt.n	0xbc94
    bbd2:	cb11      	ldmia	r3!, {r0, r4}
    bbd4:	6c00      	ldr	r0, [r0, #64]	@ 0x40
    bbd6:	6d20      	ldr	r0, [r4, #80]	@ 0x50
    bbd8:	0dab      	lsrs	r3, r5, #22
    bbda:	cf10      	ldmia	r7!, {r4}
    bbdc:	7ff7      	ldrb	r7, [r6, #31]
    bbde:	8317      	strh	r7, [r2, #24]
    bbe0:	f8c2 0a34 	str.w	r0, [r2, #2612]	@ 0xa34
    bbe4:	2100      	movs	r1, #0
    bbe6:	0859      	lsrs	r1, r3, #1
    bbe8:	256f      	movs	r5, #111	@ 0x6f
    bbea:	a00c      	add	r0, pc, #48	@ (adr r0, 0xbc1c)
    bbec:	0547      	lsls	r7, r0, #21
    bbee:	2db2      	cmp	r5, #178	@ 0xb2
    bbf0:	9f0c      	ldr	r7, [sp, #48]	@ 0x30
    bbf2:	0547      	lsls	r7, r0, #21
    bbf4:	2db5      	cmp	r5, #181	@ 0xb5
    bbf6:	9e0c      	ldr	r6, [sp, #48]	@ 0x30
    bbf8:	0547      	lsls	r7, r0, #21
    bbfa:	1db6      	adds	r6, r6, #6
    bbfc:	db75      	blt.n	0xbcea
    bbfe:	5103      	str	r3, [r0, r4]
    bc00:	0db8      	lsrs	r0, r7, #22
    bc02:	3c00      	subs	r4, #0
    bc04:	6d20      	ldr	r0, [r4, #80]	@ 0x50
    bc06:	0e29      	lsrs	r1, r5, #24
    bc08:	060a      	lsls	r2, r1, #24
    bc0a:	9047      	str	r0, [sp, #284]	@ 0x11c
    bc0c:	0859      	lsrs	r1, r3, #1
    bc0e:	8046      	strh	r6, [r0, #2]
    bc10:	57e5      	ldrsb	r5, [r4, r7]
    bc12:	2252      	movs	r2, #82	@ 0x52
    bc14:	e034      	b.n	0xbc80
    bc16:	2006      	movs	r0, #6
    bc18:	0407      	lsls	r7, r0, #16
    bc1a:	7282      	strb	r2, [r0, #10]
    bc1c:	4e14      	ldr	r6, [pc, #80]	@ (0xbc70)
    bc1e:	1463      	asrs	r3, r4, #17
    bc20:	4882      	ldr	r0, [pc, #520]	@ (0xbe2c)
    bc22:	5ed8      	ldrsh	r0, [r3, r3]
    bc24:	6477      	str	r7, [r6, #68]	@ 0x44
    bc26:	8215      	strh	r5, [r2, #16]
    bc28:	2949      	cmp	r1, #73	@ 0x49
    bc2a:	7eef      	ldrb	r7, [r5, #27]
    bc2c:	2525      	movs	r5, #37	@ 0x25
    bc2e:	6247      	str	r7, [r0, #36]	@ 0x24
    bc30:	a204      	add	r2, pc, #16	@ (adr r2, 0xbc44)
    bc32:	8060      	strh	r0, [r4, #2]
    bc34:	2665      	movs	r6, #101	@ 0x65
    bc36:	1ded      	adds	r5, r5, #7
    bc38:	520e      	strh	r6, [r1, r0]
    bc3a:	6a58      	ldr	r0, [r3, #36]	@ 0x24
    bc3c:	5824      	ldr	r4, [r4, r0]
    bc3e:	97c2      	str	r7, [sp, #776]	@ 0x308
    bc40:	20e2      	movs	r0, #226	@ 0xe2
    bc42:	5915      	ldr	r5, [r2, r4]
    bc44:	d246      	bcs.n	0xbcd4
    bc46:	db3e      	blt.n	0xbcc6
    bc48:	0560      	lsls	r0, r4, #21
    bc4a:	5982      	ldr	r2, [r0, r6]
    bc4c:	0468      	lsls	r0, r5, #17
    bc4e:	d108      	bne.n	0xbc62
    bc50:	0460      	lsls	r0, r4, #17
    bc52:	110c      	asrs	r4, r1, #4
    bc54:	e332      	b.n	0xc2bc
    bc56:	c2f6      	stmia	r2!, {r1, r2, r4, r5, r6, r7}
    bc58:	e296      	b.n	0xc188
    bc5a:	6d20      	ldr	r0, [r4, #80]	@ 0x50
    bc5c:	0dc5      	lsrs	r5, r0, #23
    bc5e:	3f11      	subs	r7, #17
    bc60:	3c00      	subs	r4, #0
    bc62:	6d20      	ldr	r0, [r4, #80]	@ 0x50
    bc64:	0dab      	lsrs	r3, r5, #22
    bc66:	f77e 009c 			@ <UNDEFINED> instruction: 0xf77e009c
    bc6a:	dff1      	svc	241	@ 0xf1
    bc6c:	802a      	strh	r2, [r5, #0]
    bc6e:	7721      	strb	r1, [r4, #28]
    bc70:	c2a4      	stmia	r2!, {r2, r5, r7}
    bc72:	7a50      	ldrb	r0, [r2, #9]
    bc74:	2054      	movs	r0, #84	@ 0x54
    bc76:	c2db      	stmia	r2!, {r0, r1, r3, r4, r6, r7}
    bc78:	7a40      	ldrb	r0, [r0, #9]
    bc7a:	5054      	str	r4, [r2, r1]
    bc7c:	c2db      	stmia	r2!, {r0, r1, r3, r4, r6, r7}
    bc7e:	7a30      	ldrb	r0, [r6, #8]
    bc80:	6054      	str	r4, [r2, #4]
    bc82:	46db      	mov	fp, fp
    bc84:	7050      	strb	r0, [r2, #1]
    bc86:	46db      	mov	fp, fp
    bc88:	8051      	strh	r1, [r2, #2]
    bc8a:	46db      	mov	fp, fp
    bc8c:	9052      	str	r0, [sp, #328]	@ 0x148
    bc8e:	46db      	mov	fp, fp
    bc90:	a053      	add	r0, pc, #332	@ (adr r0, 0xbde0)
    bc92:	46db      	mov	fp, fp
    bc94:	b054      	add	sp, #336	@ 0x150
    bc96:	46db      	mov	fp, fp
    bc98:	c055      	stmia	r0!, {r0, r2, r4, r6}
    bc9a:	11db      	asrs	r3, r3, #7
    bc9c:	f002 106d 	and.w	r0, r2, #7143533	@ 0x6d006d
    bca0:	fedf 5107 	cdp2	1, 13, cr5, cr15, cr7, {0}
    bca4:	0db3      	lsrs	r3, r6, #22
    bca6:	2040      	movs	r0, #64	@ 0x40
    bca8:	c1df      	stmia	r1!, {r0, r1, r2, r3, r4, r6, r7}
    bcaa:	0503      	lsls	r3, r0, #20
    bcac:	4db4      	ldr	r5, [pc, #720]	@ (0xbf80)
    bcae:	db50      	blt.n	0xbd52
    bcb0:	b4ed      	push	{r0, r2, r3, r5, r6, r7}
    bcb2:	080d      	lsrs	r5, r1, #32
    bcb4:	e312      	b.n	0xc2dc
    bcb6:	2094      	movs	r0, #148	@ 0x94
    bcb8:	0418      	lsls	r0, r3, #16
    bcba:	8db5      	ldrh	r5, [r6, #44]	@ 0x2c
    bcbc:	5830      	ldr	r0, [r6, r0]
    bcbe:	b3ed      	cbz	r5, 0xbd3c
    bcc0:	520d      	strh	r5, [r1, r0]
    bcc2:	e1f8      	b.n	0xc0b6
    bcc4:	df07      	svc	7
    bcc6:	f102 fddf 	bl	0x10e888
    bcca:	4e04      	ldr	r6, [pc, #16]	@ (0xbcdc)
    bccc:	a0a0      	add	r0, pc, #640	@ (adr r0, 0xbf50)
    bcce:	3010      	adds	r0, #16
    bcd0:	0a03      	lsrs	r3, r0, #8
    bcd2:	4709      	bx	r1
    bcd4:	d982      	bls.n	0xbbdc
    bcd6:	04e2      	lsls	r2, r4, #19
    bcd8:	5d11      	ldrb	r1, [r2, r4]
    bcda:	04e0      	lsls	r0, r4, #19
    bcdc:	c511      	stmia	r5!, {r0, r4}
    bcde:	04e0      	lsls	r0, r4, #19
    bce0:	1246      	asrs	r6, r0, #9
    bce2:	0200      	lsls	r0, r0, #8
    bce4:	104e      	asrs	r6, r1, #1
    bce6:	0ff0      	lsrs	r0, r6, #31
    bce8:	2246      	movs	r2, #70	@ 0x46
    bcea:	010a      	lsls	r2, r1, #4
    bcec:	460d      	mov	r5, r1
    bcee:	00c2      	lsls	r2, r0, #3
    bcf0:	2220      	movs	r2, #32
    bcf2:	4ec7      	ldr	r6, [pc, #796]	@ (0xc010)
    bcf4:	1010      	asrs	r0, r2, #32
    bcf6:	4e04      	ldr	r6, [pc, #16]	@ (0xbd08)
    bcf8:	9010      	str	r0, [sp, #64]	@ 0x40
    bcfa:	4e0a      	ldr	r6, [pc, #40]	@ (0xbd24)
    bcfc:	00a0      	lsls	r0, r4, #2
    bcfe:	3010      	adds	r0, #16
    bd00:	df00      	svc	0
    bd02:	f103 fbdf 	bl	0x10f4c4
    bd06:	4714      	bxns	r2
    bd08:	0460      	lsls	r0, r4, #17
    bd0a:	3b12      	subs	r3, #18
    bd0c:	4703      	bx	r0
    bd0e:	00a3      	lsls	r3, r4, #2
    bd10:	4470      	add	r0, lr
    bd12:	3798      	adds	r7, #152	@ 0x98
    bd14:	614e      	str	r6, [r1, #20]
    bd16:	8244      	strh	r4, [r0, #18]
    bd18:	d948      	bls.n	0xbdac
    bd1a:	5c5e      	ldrb	r6, [r3, r1]
    bd1c:	3464      	adds	r4, #100	@ 0x64
    bd1e:	4882      	ldr	r0, [pc, #520]	@ (0xbf28)
    bd20:	1a38      	subs	r0, r7, r0
    bd22:	614e      	str	r6, [r1, #20]
    bd24:	8244      	strh	r4, [r0, #18]
    bd26:	6958      	ldr	r0, [r3, #20]
    bd28:	0844      	lsrs	r4, r0, #1
    bd2a:	60d1      	str	r1, [r2, #12]
    bd2c:	0834      	lsrs	r4, r6, #32
    bd2e:	60d1      	str	r1, [r2, #12]
    bd30:	0c44      	lsrs	r4, r0, #17
    bd32:	d810      	bhi.n	0xbd56
    bd34:	dfbe      	svc	190	@ 0xbe
    bd36:	f105 e9cf 	bfcsel	4, 0xb0d8, 6, ne
    bd3a:	6672      	str	r2, [r6, #100]	@ 0x64
    bd3c:	04f1      	lsls	r1, r6, #19
    bd3e:	000a      	movs	r2, r1
    bd40:	8247      	strh	r7, [r0, #18]
    bd42:	a719      	add	r7, pc, #100	@ (adr r7, 0xbda8)
    bd44:	7000      	strb	r0, [r0, #0]
    bd46:	9834      	ldr	r0, [sp, #208]	@ 0xd0
    bd48:	4653      	mov	r3, sl
    bd4a:	0333      	lsls	r3, r6, #12
    bd4c:	7033      	strb	r3, [r6, #0]
    bd4e:	4644      	mov	r4, r8
    bd50:	3562      	adds	r5, #98	@ 0x62
    bd52:	1433      	asrs	r3, r6, #16
    bd54:	303c      	adds	r0, #60	@ 0x3c
    bd56:	3303      	adds	r3, #3
    bd58:	5470      	strb	r0, [r6, r1]
    bd5a:	6446      	str	r6, [r0, #68]	@ 0x44
    bd5c:	3325      	adds	r3, #37	@ 0x25
    bd5e:	e584      	b.n	0xb86a
    bd60:	5204      	strh	r4, [r0, r0]
    bd62:	6a48      	ldr	r0, [r1, #36]	@ 0x24
    bd64:	5654      	ldrsb	r4, [r2, r1]
    bd66:	4332      	orrs	r2, r6
    bd68:	0258      	lsls	r0, r3, #9
    bd6a:	6ce8      	ldr	r0, [r5, #76]	@ 0x4c
    bd6c:	5852      	ldr	r2, [r2, r1]
    bd6e:	346a      	adds	r4, #106	@ 0x6a
    bd70:	d108      	bne.n	0xbd84
    bd72:	3460      	adds	r4, #96	@ 0x60
    bd74:	040c      	lsls	r4, r1, #16
    bd76:	a2d8      	add	r2, pc, #864	@ (adr r2, 0xc0d8)
    bd78:	8246      	strh	r6, [r0, #18]
    bd7a:	0d10      	lsrs	r0, r2, #20
    bd7c:	c246      	stmia	r2!, {r1, r2, r6}
    bd7e:	8040      	strh	r0, [r0, #2]
    bd80:	a84d      	add	r0, sp, #308	@ 0x134
    bd82:	7000      	strb	r0, [r0, #0]
    bd84:	9844      	ldr	r0, [sp, #272]	@ 0x110
    bd86:	4623      	mov	r3, r4
    bd88:	2584      	movs	r5, #132	@ 0x84
    bd8a:	ce80      	ldmia	r6!, {r7}
    bd8c:	8526      	strh	r6, [r4, #40]	@ 0x28
    bd8e:	4e84      	ldr	r6, [pc, #528]	@ (0xbfa0)
    bd90:	4560      	cmp	r0, ip
    bd92:	5982      	ldr	r2, [r0, r6]
    bd94:	4468      	add	r0, sp
    bd96:	d108      	bne.n	0xbdaa
    bd98:	4460      	add	r0, ip
    bd9a:	100c      	asrs	r4, r1, #32
    bd9c:	d2d8      	bcs.n	0xbd50
    bd9e:	6662      	str	r2, [r4, #100]	@ 0x64
    bda0:	7cf1      	ldrb	r1, [r6, #19]
    bda2:	f101 79df 	add.w	r9, r1, #29229056	@ 0x1be0000
    bda6:	4f66      	ldr	r7, [pc, #408]	@ (0xbf40)
    bda8:	06e0      	lsls	r0, r4, #27
    bdaa:	a46f      	add	r4, pc, #444	@ (adr r4, 0xbf68)
    bdac:	7000      	strb	r0, [r0, #0]
    bdae:	9824      	ldr	r0, [sp, #144]	@ 0x90
    bdb0:	0a59      	lsrs	r1, r3, #9
    bdb2:	4700      	bx	r0
    bdb4:	b983      	cbnz	r3, 0xbdd8
    bdb6:	2463      	movs	r4, #99	@ 0x63
    bdb8:	3356      	adds	r3, #86	@ 0x56
    bdba:	5843      	ldr	r3, [r0, r1]
    bdbc:	244e      	movs	r4, #78	@ 0x4e
    bdbe:	8485      	strh	r5, [r0, #36]	@ 0x24
    bdc0:	ed58 4675 	ldcl	6, cr4, [r8, #-468]	@ 0xfffffe2c
    bdc4:	4852      	ldr	r0, [pc, #328]	@ (0xbf10)
    bdc6:	246a      	movs	r4, #106	@ 0x6a
    bdc8:	3356      	adds	r3, #86	@ 0x56
    bdca:	5843      	ldr	r3, [r0, r1]
    bdcc:	244e      	movs	r4, #78	@ 0x4e
    bdce:	a585      	add	r5, pc, #532	@ (adr r5, 0xbfe4)
    bdd0:	8346      	strh	r6, [r0, #26]
    bdd2:	0d10      	lsrs	r0, r2, #20
    bdd4:	c346      	stmia	r3!, {r1, r2, r6}
    bdd6:	8040      	strh	r0, [r0, #2]
    bdd8:	6bad      	ldr	r5, [r5, #56]	@ 0x38
    bdda:	0824      	lsrs	r4, r4, #32
    bddc:	60d4      	str	r4, [r2, #12]
    bdde:	0c24      	lsrs	r4, r4, #16
    bde0:	d810      	bhi.n	0xbe04
    bde2:	669c      	str	r4, [r3, #104]	@ 0x68
    bde4:	7df6      	ldrb	r6, [r6, #23]
    bde6:	cf10      	ldmia	r7!, {r4}
    bde8:	f2e4 2187 			@ <UNDEFINED> instruction: 0xf2e42187
    bdec:	1a5f      	subs	r7, r3, r1
    bdee:	a04f      	add	r0, pc, #316	@ (adr r0, 0xbf2c)
    bdf0:	7000      	strb	r0, [r0, #0]
    bdf2:	9964      	ldr	r1, [sp, #400]	@ 0x190
    bdf4:	6232      	str	r2, [r6, #32]
    bdf6:	3364      	adds	r3, #100	@ 0x64
    bdf8:	0330      	lsls	r0, r6, #12
    bdfa:	e747      	b.n	0xbc8c
    bdfc:	4604      	mov	r4, r0
    bdfe:	8827      	ldrh	r7, [r4, #0]
    be00:	4784      	blxns	r0
    be02:	7468      	strb	r0, [r5, #17]
    be04:	8108      	strh	r0, [r1, #8]
    be06:	04e5      	lsls	r5, r4, #19
    be08:	4852      	ldr	r0, [pc, #328]	@ (0xbf54)
    be0a:	9478      	str	r4, [sp, #480]	@ 0x1e0
    be0c:	8746      	strh	r6, [r0, #58]	@ 0x3a
    be0e:	5820      	ldr	r0, [r4, r0]
    be10:	204e      	movs	r0, #78	@ 0x4e
    be12:	8485      	strh	r5, [r0, #36]	@ 0x24
    be14:	6a47      	ldr	r7, [r0, #36]	@ 0x24
    be16:	0874      	lsrs	r4, r6, #1
    be18:	e583      	b.n	0xb922
    be1a:	5204      	strh	r4, [r0, r0]
    be1c:	7848      	ldrb	r0, [r1, #1]
    be1e:	46b4      	mov	ip, r6
    be20:	e5a8      	b.n	0xb974
    be22:	8010      	strh	r0, [r2, #0]
    be24:	6f0f      	ldr	r7, [r1, #112]	@ 0x70
    be26:	9464      	str	r4, [sp, #400]	@ 0x190
    be28:	0b5a      	lsrs	r2, r3, #13
    be2a:	f011 26f0 	ands.w	r6, r1, #4026593280	@ 0xf000f000
    be2e:	aa46      	add	r2, sp, #280	@ 0x118
    be30:	10d5      	asrs	r5, r2, #3
    be32:	0e90      	lsrs	r0, r2, #26
    be34:	6d42      	ldr	r2, [r0, #84]	@ 0x54
    be36:	5ab4      	ldrh	r4, [r6, r2]
    be38:	1109      	asrs	r1, r1, #4
    be3a:	20e1      	movs	r0, #225	@ 0xe1
    be3c:	6e18      	ldr	r0, [r3, #96]	@ 0x60
    be3e:	7f24      	ldrb	r4, [r4, #28]
    be40:	7e10      	ldrb	r0, [r2, #24]
    be42:	8a32      	ldrh	r2, [r6, #16]
    be44:	2da3      	cmp	r5, #163	@ 0xa3
    be46:	a3fc      	add	r3, pc, #1008	@ (adr r3, 0xc238)
    be48:	da38      	bge.n	0xbebc
    be4a:	07e2      	lsls	r2, r4, #31
    be4c:	8a31      	ldrh	r1, [r6, #16]
    be4e:	7da3      	ldrb	r3, [r4, #22]
    be50:	46c4      	mov	ip, r8
    be52:	e5a9      	b.n	0xb9a8
    be54:	6010      	str	r0, [r2, #0]
    be56:	6f0c      	ldr	r4, [r1, #112]	@ 0x70
    be58:	a464      	add	r4, pc, #400	@ (adr r4, 0xbfec)
    be5a:	0b5a      	lsrs	r2, r3, #13
    be5c:	be11      	bkpt	0x0011
    be5e:	26f0      	movs	r6, #240	@ 0xf0
    be60:	ab46      	add	r3, sp, #280	@ 0x118
    be62:	10d5      	asrs	r5, r2, #3
    be64:	0b70      	lsrs	r0, r6, #13
    be66:	6d42      	ldr	r2, [r0, #84]	@ 0x54
    be68:	5a84      	ldrh	r4, [r0, r2]
    be6a:	1109      	asrs	r1, r1, #4
    be6c:	20af      	movs	r0, #175	@ 0xaf
    be6e:	6e18      	ldr	r0, [r3, #96]	@ 0x60
    be70:	7f24      	ldrb	r4, [r4, #28]
    be72:	7e12      	ldrb	r2, [r2, #24]
    be74:	8a32      	ldrh	r2, [r6, #16]
    be76:	2da3      	cmp	r5, #163	@ 0xa3
    be78:	a3fc      	add	r3, pc, #1008	@ (adr r3, 0xc26c)
    be7a:	da38      	bge.n	0xbeee
    be7c:	27e2      	movs	r7, #226	@ 0xe2
    be7e:	8a31      	ldrh	r1, [r6, #16]
    be80:	7da3      	ldrb	r3, [r4, #22]
    be82:	46d4      	mov	ip, sl
    be84:	e5aa      	b.n	0xb9dc
    be86:	4010      	ands	r0, r2
    be88:	6f09      	ldr	r1, [r1, #112]	@ 0x70
    be8a:	b464      	push	{r2, r5, r6}
    be8c:	0b5a      	lsrs	r2, r3, #13
    be8e:	8c11      	ldrh	r1, [r2, #32]
    be90:	26f0      	movs	r6, #240	@ 0xf0
    be92:	a846      	add	r0, sp, #280	@ 0x118
    be94:	10d5      	asrs	r5, r2, #3
    be96:	0850      	lsrs	r0, r2, #1
    be98:	6d42      	ldr	r2, [r0, #84]	@ 0x54
    be9a:	5a94      	ldrh	r4, [r2, r2]
    be9c:	1109      	asrs	r1, r1, #4
    be9e:	207d      	movs	r0, #125	@ 0x7d
    bea0:	6e18      	ldr	r0, [r3, #96]	@ 0x60
    bea2:	7f24      	ldrb	r4, [r4, #28]
    bea4:	7e14      	ldrb	r4, [r2, #24]
    bea6:	8a32      	ldrh	r2, [r6, #16]
    bea8:	2da3      	cmp	r5, #163	@ 0xa3
    beaa:	a3fc      	add	r3, pc, #1008	@ (adr r3, 0xc29c)
    beac:	da38      	bge.n	0xbf20
    beae:	47e2      			@ <UNDEFINED> instruction: 0x47e2
    beb0:	8a31      	ldrh	r1, [r6, #16]
    beb2:	7da3      	ldrb	r3, [r4, #22]
    beb4:	46e4      	mov	ip, ip
    beb6:	e5ab      	b.n	0xba10
    beb8:	2010      	movs	r0, #16
    beba:	6f06      	ldr	r6, [r0, #112]	@ 0x70
    bebc:	8464      	strh	r4, [r4, #34]	@ 0x22
    bebe:	0b5a      	lsrs	r2, r3, #13
    bec0:	5a11      	ldrh	r1, [r2, r0]
    bec2:	26f0      	movs	r6, #240	@ 0xf0
    bec4:	a946      	add	r1, sp, #280	@ 0x118
    bec6:	10d5      	asrs	r5, r2, #3
    bec8:	0530      	lsls	r0, r6, #20
    beca:	6d42      	ldr	r2, [r0, #84]	@ 0x54
    becc:	5aa4      	ldrh	r4, [r4, r2]
    bece:	1109      	asrs	r1, r1, #4
    bed0:	204b      	movs	r0, #75	@ 0x4b
    bed2:	6e18      	ldr	r0, [r3, #96]	@ 0x60
    bed4:	7f24      	ldrb	r4, [r4, #28]
    bed6:	7e16      	ldrb	r6, [r2, #24]
    bed8:	8a32      	ldrh	r2, [r6, #16]
    beda:	2da3      	cmp	r5, #163	@ 0xa3
    bedc:	a3fc      	add	r3, pc, #1008	@ (adr r3, 0xc2d0)
    bede:	da38      	bge.n	0xbf52
    bee0:	67e2      	str	r2, [r4, #124]	@ 0x7c
    bee2:	8a31      	ldrh	r1, [r6, #16]
    bee4:	7da3      	ldrb	r3, [r4, #22]
    bee6:	46f4      	mov	ip, lr
    bee8:	04ec      	lsls	r4, r5, #19
    beea:	2756      	movs	r7, #86	@ 0x56
    beec:	8598      	strh	r0, [r3, #44]	@ 0x2c
    beee:	8746      	strh	r6, [r0, #58]	@ 0x3a
    bef0:	5810      	ldr	r0, [r2, r0]
    bef2:	ed66 5204 	sfm	f5, 2, [r6, #-16]!
    bef6:	6a58      	ldr	r0, [r3, #36]	@ 0x24
    bef8:	0874      	lsrs	r4, r6, #1
    befa:	6582      	str	r2, [r0, #88]	@ 0x58
    befc:	4ee6      	ldr	r6, [pc, #920]	@ (0xc298)
    befe:	8520      	strh	r0, [r4, #40]	@ 0x28
    bf00:	46a5      	mov	sp, r4
    bf02:	3087      	adds	r0, #135	@ 0x87
    bf04:	6658      	str	r0, [r3, #100]	@ 0x64
    bf06:	04ef      	lsls	r7, r5, #19
    bf08:	5852      	ldr	r2, [r2, r1]
    bf0a:	646a      	str	r2, [r5, #68]	@ 0x44
    bf0c:	d108      	bne.n	0xbf20
    bf0e:	6460      	str	r0, [r4, #68]	@ 0x44
    bf10:	040c      	lsls	r4, r1, #16
    bf12:	c2d9      	stmia	r2!, {r0, r3, r4, r6, r7}
    bf14:	7e2d      	ldrb	r5, [r5, #24]
    bf16:	e218      	b.n	0xc34a
    bf18:	f1a5 01cc 	sub.w	r1, r5, #204	@ 0xcc
    bf1c:	dff1      	svc	241	@ 0xf1
    bf1e:	57f9      	ldrsb	r1, [r7, r7]
    bf20:	7047      	strb	r7, [r0, #1]
    bf22:	c015      	stmia	r0!, {r0, r2, r4}
    bf24:	6f00      	ldr	r0, [r0, #112]	@ 0x70
    bf26:	80a3      	strh	r3, [r4, #4]
    bf28:	2470      	movs	r4, #112	@ 0x70
    bf2a:	5298      	strh	r0, [r3, r2]
    bf2c:	236e      	movs	r3, #110	@ 0x6e
    bf2e:	4905      	ldr	r1, [pc, #20]	@ (0xbf44)
    bf30:	136e      	asrs	r6, r5, #13
    bf32:	100c      	asrs	r4, r1, #32
    bf34:	c01d      	stmia	r0!, {r0, r2, r3, r4}
    bf36:	000c      	movs	r4, r1
    bf38:	0a80      	lsrs	r0, r0, #10
    bf3a:	36e1      	adds	r6, #225	@ 0xe1
    bf3c:	b0a3      	sub	sp, #140	@ 0x8c
    bf3e:	fc11 958f 	ldc2	5, cr9, [r1], {143}	@ 0x8f
    bf42:	1464      	asrs	r4, r4, #17
    bf44:	3256      	adds	r2, #86	@ 0x56
    bf46:	a847      	add	r0, sp, #284	@ 0x11c
    bf48:	4610      	mov	r0, r2
    bf4a:	e580      	b.n	0xba4e
    bf4c:	a337      	add	r3, pc, #220	@ (adr r3, 0xc02c)
    bf4e:	7a32      	ldrb	r2, [r6, #8]
    bf50:	4659      	mov	r1, fp
    bf52:	c322      	stmia	r3!, {r1, r5}
    bf54:	460d      	mov	r5, r1
    bf56:	00c2      	lsls	r2, r0, #3
    bf58:	2220      	movs	r2, #32
    bf5a:	6ea2      	ldr	r2, [r4, #104]	@ 0x68
    bf5c:	57e3      	ldrsb	r3, [r4, r7]
    bf5e:	07df      	lsls	r7, r3, #31
    bf60:	51f1      	str	r1, [r6, r7]
    bf62:	0e30      	lsrs	r0, r6, #24
    bf64:	1c00      	adds	r0, r0, #0
    bf66:	6d20      	ldr	r0, [r4, #80]	@ 0x50
    bf68:	0e31      	lsrs	r1, r6, #24
    bf6a:	00c0      	lsls	r0, r0, #3
    bf6c:	36d2      	adds	r6, #210	@ 0xd2
    bf6e:	10e3      	asrs	r3, r4, #3
    bf70:	e2f5      	b.n	0xc55e
    bf72:	5100      	str	r0, [r0, r4]
    bf74:	0e3a      	lsrs	r2, r7, #24
    bf76:	7510      	strb	r0, [r2, #20]
    bf78:	00e3      	lsls	r3, r4, #3
    bf7a:	3851      	subs	r0, #81	@ 0x51
    bf7c:	100e      	asrs	r6, r1, #32
    bf7e:	e395      	b.n	0xc6ac
    bf80:	5100      	str	r0, [r0, r4]
    bf82:	fe3e f51f 	mrc2	5, 1, pc, cr14, cr15, {0}
    bf86:	ffe3 4051 	vshr.u32	q10, <illegal reg q0.5>, #29
    bf8a:	1ffe      	subs	r6, r7, #7
    bf8c:	e475      	b.n	0xb87a
    bf8e:	511d      	str	r5, [r3, r4]
    bf90:	fe49 f10f 	cdp2	1, 4, cr15, cr9, cr15, {0}
    bf94:	7ddf      	ldrb	r7, [r3, #23]
    bf96:	1126      	asrs	r6, r4, #4
    bf98:	fa90 d306 			@ <UNDEFINED> instruction: 0xfa90d306
    bf9c:	e2fc      	b.n	0xc598
    bf9e:	0000      	movs	r0, r0
    bfa0:	cd31      	ldmia	r5, {r0, r4, r5}
    bfa2:	0e2f      	lsrs	r7, r5, #24
    bfa4:	5501      	strb	r1, [r0, r4]
    bfa6:	4999      	ldr	r1, [pc, #612]	@ (0xc20c)
    bfa8:	06e1      	lsls	r1, r4, #27
    bfaa:	05cc      	lsls	r4, r1, #23
    bfac:	b900      	cbnz	r0, 0xbfb0
    bfae:	113b      	asrs	r3, r7, #4
    bfb0:	7883      	ldrb	r3, [r0, #2]
    bfb2:	8d2e      	ldrh	r6, [r5, #40]	@ 0x28
    bfb4:	2d01      	cmp	r5, #1
    bfb6:	7311      	strb	r1, [r2, #12]
    bfb8:	2a16      	cmp	r2, #22
    bfba:	018d      	lsls	r5, r1, #6
    bfbc:	a11f      	add	r1, pc, #124	@ (adr r1, 0xc03c)
    bfbe:	1010      	asrs	r0, r2, #32
    bfc0:	08f0      	lsrs	r0, r6, #3
    bfc2:	01aa      	lsls	r2, r5, #6
    bfc4:	00c0      	lsls	r0, r0, #3
    bfc6:	ac42      	add	r4, sp, #264	@ 0x108
    bfc8:	2018      	movs	r0, #24
    bfca:	21a3      	movs	r1, #163	@ 0xa3
    bfcc:	9d9d      	ldr	r5, [sp, #628]	@ 0x274
    bfce:	f999 1ef0 	ldrsb.w	r1, [r9, #3824]	@ 0xef0
    bfd2:	008d      	lsls	r5, r1, #2
    bfd4:	2175      	movs	r1, #117	@ 0x75
    bfd6:	e86e 018d 	strd	r0, r1, [lr], #-564	@ 0x234
    bfda:	c269      	stmia	r2!, {r0, r3, r5, r6}
    bfdc:	e316      	b.n	0xc60c
    bfde:	0cc0      	lsrs	r0, r0, #19
    bfe0:	8753      	strh	r3, [r2, #58]	@ 0x3a
    bfe2:	214c      	movs	r1, #76	@ 0x4c
    bfe4:	316c      	adds	r1, #108	@ 0x6c
    bfe6:	520e      	strh	r6, [r1, r0]
    bfe8:	0014      	movs	r4, r2
    bfea:	8490      	strh	r0, [r2, #36]	@ 0x24
    bfec:	0499      	lsls	r1, r3, #18
    bfee:	201c      	movs	r0, #28
    bff0:	316d      	adds	r1, #109	@ 0x6d
    bff2:	c20e      	stmia	r2!, {r1, r2, r3}
    bff4:	e336      	b.n	0xc664
    bff6:	fcc0 8fff 	stc2l	15, cr8, [r0], {255}	@ 0xff
    bffa:	210c      	movs	r1, #12
    bffc:	336c      	adds	r3, #108	@ 0x6c
    bffe:	520e      	strh	r6, [r1, r0]
    c000:	0014      	movs	r4, r2
    c002:	2490      	movs	r4, #144	@ 0x90
    c004:	336c      	adds	r3, #108	@ 0x6c
    c006:	cc0e      	ldmia	r4!, {r1, r2, r3}
    c008:	000a      	movs	r2, r1
    c00a:	1639      	asrs	r1, r7, #24
    c00c:	32b0      	adds	r2, #176	@ 0xb0
    c00e:	12fe      	asrs	r6, r7, #11
    c010:	2ef0      	cmp	r6, #240	@ 0xf0
    c012:	56c2      	ldrsb	r2, [r0, r3]
    c014:	c0e3      	stmia	r0!, {r0, r1, r5, r6, r7}
    c016:	000c      	movs	r4, r1
    c018:	3220      	adds	r2, #32
    c01a:	c264      	stmia	r2!, {r2, r5, r6}
    c01c:	e356      	b.n	0xc6cc
    c01e:	4420      	add	r0, r4
    c020:	0001      	movs	r1, r0
    c022:	ec49 05dc 	cfstr64	mvdx0, [r9], {220}	@ 0xdc
    c026:	22ef      	movs	r2, #239	@ 0xef
    c028:	356c      	adds	r5, #108	@ 0x6c
    c02a:	cc0e      	ldmia	r4!, {r1, r2, r3}
    c02c:	0032      	movs	r2, r6
    c02e:	1cb8      	adds	r0, r7, #2
    c030:	000a      	movs	r2, r1
    c032:	5e21      	ldrsh	r1, [r4, r0]
    c034:	aa9f      	add	r2, sp, #636	@ 0x27c
    c036:	c002      	stmia	r0!, {r1}
    c038:	4200      	tst	r0, r0
    c03a:	18ac      	adds	r4, r5, r2
    c03c:	9bf0      	ldr	r3, [sp, #960]	@ 0x3c0
    c03e:	56c2      	ldrsb	r2, [r0, r3]
    c040:	c0e3      	stmia	r0!, {r0, r1, r5, r6, r7}
    c042:	000c      	movs	r4, r1
    c044:	7290      	strb	r0, [r2, #10]
    c046:	cf11      	ldmia	r7!, {r0, r4}
    c048:	00a9      	lsls	r1, r5, #2
    c04a:	4010      	ands	r0, r2
    c04c:	6600      	str	r0, [r0, #96]	@ 0x60
    c04e:	3df2      	subs	r5, #242	@ 0xf2
    c050:	df10      	svc	16
    c052:	047f      	lsls	r7, r7, #17
    c054:	c046      	stmia	r0!, {r1, r2, r6}
    c056:	6008      	str	r0, [r1, #0]
    c058:	0461      	lsls	r1, r4, #17
    c05a:	018c      	lsls	r4, r1, #6
    c05c:	4618      	mov	r0, r3
    c05e:	28c0      	cmp	r0, #192	@ 0xc0
    c060:	8190      	strh	r0, [r2, #12]
    c062:	11c9      	asrs	r1, r1, #7
    c064:	e2f5      	b.n	0xc652
    c066:	9800      	ldr	r0, [sp, #0]
    c068:	5111      	str	r1, [r2, r4]
    c06a:	1e2f      	subs	r7, r5, #0
    c06c:	3fe0      	subs	r7, #224	@ 0xe0
    c06e:	2f51      	cmp	r7, #81	@ 0x51
    c070:	f02e 101d 	bic.w	r0, lr, #1900573	@ 0x1d001d
    c074:	2f04      	cmp	r7, #4
    c076:	f10e 3004 	add.w	r0, lr, #67372036	@ 0x4040404
    c07a:	f10e f2cf 	bl	0x51a61c
    c07e:	fc7f 4734 	ldc2l	7, cr4, [pc], #-208	@ 0xbfb0
    c082:	2462      	movs	r4, #98	@ 0x62
    c084:	108c      	asrs	r4, r1, #2
    c086:	4647      	mov	r7, r8
    c088:	8c22      	ldrh	r2, [r4, #32]
    c08a:	ca11      	ldmia	r2!, {r0, r4}
    c08c:	2462      	movs	r4, #98	@ 0x62
    c08e:	28c2      	cmp	r0, #194	@ 0xc2
    c090:	3321      	adds	r3, #33	@ 0x21
    c092:	2246      	movs	r2, #70	@ 0x46
    c094:	138c      	asrs	r4, r1, #14
    c096:	63c5      	str	r5, [r0, #60]	@ 0x3c
    c098:	c224      	stmia	r2!, {r2, r5}
    c09a:	1208      	asrs	r0, r1, #8
    c09c:	4647      	mov	r7, r8
    c09e:	8c22      	ldrh	r2, [r4, #32]
    c0a0:	6621      	str	r1, [r4, #96]	@ 0x60
    c0a2:	2464      	movs	r4, #100	@ 0x64
    c0a4:	08c2      	lsrs	r2, r0, #3
    c0a6:	4683      	mov	fp, r0
    c0a8:	7f99      	ldrb	r1, [r3, #30]
    c0aa:	34e4      	adds	r4, #228	@ 0xe4
    c0ac:	0886      	lsrs	r6, r0, #2
    c0ae:	4547      	cmp	r7, r8
    c0b0:	e3a0      	b.n	0xc7f4
    c0b2:	3556      	adds	r5, #86	@ 0x56
    c0b4:	c842      	ldmia	r0!, {r1, r6}
    c0b6:	c215      	stmia	r2!, {r0, r2, r4}
    c0b8:	e3b6      	b.n	0xc828
    c0ba:	0cc0      	lsrs	r0, r0, #19
    c0bc:	9000      	str	r0, [sp, #0]
    c0be:	1121      	asrs	r1, r4, #4
    c0c0:	6277      	str	r7, [r6, #36]	@ 0x24
    c0c2:	0554      	lsls	r4, r2, #21
    c0c4:	ee3a 8634 	mrc	6, 1, r8, cr10, cr4, {1}
    c0c8:	0505      	lsls	r5, r0, #20
    c0ca:	ee37 8634 	mrc	6, 1, r8, cr7, cr4, {1}
    c0ce:	0506      	lsls	r6, r0, #20
    c0d0:	ee38 8634 	mrc	6, 1, r8, cr8, cr4, {1}
    c0d4:	0507      	lsls	r7, r0, #20
    c0d6:	ee39 8634 	mrc	6, 1, r8, cr9, cr4, {1}
    c0da:	0511      	lsls	r1, r2, #20
    c0dc:	ee3d 8634 	mrc	6, 1, r8, cr13, cr4, {1}
    c0e0:	4712      	bx	r2
    c0e2:	e045      	b.n	0xc170
    c0e4:	56e3      	ldrsb	r3, [r4, r3]
    c0e6:	4235      	tst	r5, r6
    c0e8:	0ea9      	lsrs	r1, r5, #26
    c0ea:	ed31 0e3e 	ldc	14, cr0, [r1, #-248]!	@ 0xffffff08
    c0ee:	3eff      	subs	r6, #255	@ 0xff
    c0f0:	c546      	stmia	r5!, {r1, r2, r6}
    c0f2:	8500      	strh	r0, [r0, #40]	@ 0x28
    c0f4:	a2cd      	add	r2, pc, #820	@ (adr r2, 0xc42c)
    c0f6:	1000      	asrs	r0, r0, #32
    c0f8:	3470      	adds	r4, #112	@ 0x70
    c0fa:	0342      	lsls	r2, r0, #13
    c0fc:	00ae      	lsls	r6, r5, #2
    c0fe:	4072      	eors	r2, r6
    c100:	2820      	cmp	r0, #32
    c102:	3f05      	subs	r7, #5
    c104:	f04e 80e3 	bne.w	0x1a2ce
    c108:	0d46      	lsrs	r6, r0, #21
    c10a:	13fe      	asrs	r6, r7, #15
    c10c:	e3f5      	b.n	0xc8fa
    c10e:	4650      	mov	r0, sl
    c110:	e055      	b.n	0xc1be
    c112:	46e3      	mov	fp, ip
    c114:	40c5      	lsrs	r5, r0
    c116:	ec86 f041 	stc	0, cr15, [r6], {65}	@ 0x41
    c11a:	56e3      	ldrsb	r3, [r4, r3]
    c11c:	4235      	tst	r5, r6
    c11e:	e222      	b.n	0xc566
    c120:	5460      	strb	r0, [r4, r1]
    c122:	5108      	str	r0, [r1, r4]
    c124:	e400      	b.n	0xb928
    c126:	64ee      	str	r6, [r5, #76]	@ 0x4c
    c128:	0554      	lsls	r4, r2, #21
    c12a:	3e40      	subs	r6, #64	@ 0x40
    c12c:	40ed      	lsrs	r5, r5
    c12e:	000e      	movs	r6, r1
    c130:	115e      	asrs	r6, r3, #5
    c132:	d5c5      	bpl.n	0xc0c0
    c134:	3018      	adds	r0, #24
    c136:	00a1      	lsls	r1, r4, #2
    c138:	c010      	stmia	r0!, {r4}
    c13a:	0a57      	lsrs	r7, r2, #9
    c13c:	2100      	movs	r1, #0
    c13e:	9d12      	ldr	r5, [sp, #72]	@ 0x48
    c140:	000a      	movs	r2, r1
    c142:	8421      	strh	r1, [r4, #32]
    c144:	0ae2      	lsrs	r2, r4, #11
    c146:	2100      	movs	r1, #0
    c148:	e28c      	b.n	0xc664
    c14a:	b521      	push	{r0, r5, lr}
    c14c:	0ae3      	lsrs	r3, r4, #11
    c14e:	2100      	movs	r1, #0
    c150:	9cf3      	ldr	r4, [sp, #972]	@ 0x3cc
    c152:	000a      	movs	r2, r1
    c154:	8b21      	ldrh	r1, [r4, #24]
    c156:	0a9e      	lsrs	r6, r3, #10
    c158:	1103      	asrs	r3, r0, #4
    c15a:	a1f7      	add	r1, pc, #988	@ (adr r1, 0xc538)
    c15c:	1040      	asrs	r0, r0, #1
    c15e:	38a0      	subs	r0, #160	@ 0xa0
    c160:	640a      	str	r2, [r1, #64]	@ 0x40
    c162:	1911      	adds	r1, r2, r4
    c164:	3316      	adds	r3, #22
    c166:	49c0      	ldr	r1, [pc, #768]	@ (0xc468)
    c168:	e400      	b.n	0xb96c
    c16a:	0c21      	lsrs	r1, r4, #16
    c16c:	ec9e 0096 	ldc	0, cr0, [lr], {150}	@ 0x96
    c170:	22ef      	movs	r2, #239	@ 0xef
    c172:	3b6c      	subs	r3, #108	@ 0x6c
    c174:	6f0e      	ldr	r6, [r1, #112]	@ 0x70
    c176:	34e6      	adds	r4, #230	@ 0xe6
    c178:	9ce2      	ldr	r4, [sp, #904]	@ 0x388
    c17a:	20e0      	movs	r0, #224	@ 0xe0
    c17c:	3b6d      	subs	r3, #109	@ 0x6d
    c17e:	d30e      	bcc.n	0xc19e
    c180:	e40e      	b.n	0xb9a0
    c182:	b000      	add	sp, #0
    c184:	66e4      	str	r4, [r4, #108]	@ 0x6c
    c186:	b7c2      			@ <UNDEFINED> instruction: 0xb7c2
    c188:	20e3      	movs	r0, #227	@ 0xe3
    c18a:	a868      	add	r0, sp, #416	@ 0x1a0
    c18c:	c23a      	stmia	r2!, {r1, r3, r4, r5}
    c18e:	e3b6      	b.n	0xc8fe
    c190:	8cc0      	ldrh	r0, [r0, #38]	@ 0x26
    c192:	86e2      	strh	r2, [r4, #54]	@ 0x36
    c194:	a0cd      	add	r0, pc, #820	@ (adr r0, 0xc4cc)
    c196:	1640      	asrs	r0, r0, #25
    c198:	5e40      	ldrsh	r0, [r0, r1]
    c19a:	a7ee      	add	r7, pc, #952	@ (adr r7, 0xc554)
    c19c:	1000      	asrs	r0, r0, #32
    c19e:	5de0      	ldrb	r0, [r4, r7]
    c1a0:	9611      	str	r6, [sp, #68]	@ 0x44
    c1a2:	5311      	strh	r1, [r2, r4]
    c1a4:	c9bc      	ldmia	r1!, {r2, r3, r4, r5, r7}
    c1a6:	096e      	lsrs	r6, r5, #5
    c1a8:	2ef0      	cmp	r6, #240	@ 0xf0
    c1aa:	234e      	movs	r3, #78	@ 0x4e
    c1ac:	15ce      	asrs	r6, r1, #23
    c1ae:	420e      	tst	r6, r1
    c1b0:	8e03      	ldrh	r3, [r0, #48]	@ 0x30
    c1b2:	720c      	strb	r4, [r1, #8]
    c1b4:	5040      	str	r0, [r0, r1]
    c1b6:	e410      	b.n	0xb9da
    c1b8:	234e      	movs	r3, #78	@ 0x4e
    c1ba:	17ce      	asrs	r6, r1, #31
    c1bc:	d20e      	bcs.n	0xc1dc
    c1be:	e426      	b.n	0xba0e
    c1c0:	1ef0      	subs	r0, r6, #3
    c1c2:	008d      	lsls	r5, r1, #2
    c1c4:	c231      	stmia	r2!, {r0, r4, r5}
    c1c6:	e3b6      	b.n	0xc936
    c1c8:	3420      	adds	r4, #32
    c1ca:	e8ed 2003 	strd	r2, r0, [sp], #12
    c1ce:	0407      	lsls	r7, r0, #16
    c1d0:	4047      	eors	r7, r0
    c1d2:	e400      	b.n	0xb9d6
    c1d4:	4147      	adcs	r7, r0
    c1d6:	e3d0      	b.n	0xc97a
    c1d8:	4114      	asrs	r4, r2
    c1da:	d31e      	bcc.n	0xc21a
    c1dc:	3e2e      	subs	r6, #46	@ 0x2e
    c1de:	47fd      			@ <UNDEFINED> instruction: 0x47fd
    c1e0:	010e      	lsls	r6, r1, #4
    c1e2:	a20d      	add	r2, pc, #52	@ (adr r2, 0xc218)
    c1e4:	d000      	beq.n	0xc1e8
    c1e6:	e40e      	b.n	0xba06
    c1e8:	3310      	adds	r3, #16
    c1ea:	19d5      	adds	r5, r2, r7
    c1ec:	e475      	b.n	0xbada
    c1ee:	991d      	ldr	r1, [sp, #116]	@ 0x74
    c1f0:	e1f1      	b.n	0xc5d6
    c1f2:	ce34      	ldmia	r6!, {r2, r4, r5}
    c1f4:	20e5      	movs	r0, #229	@ 0xe5
    c1f6:	446d      	add	r5, sp
    c1f8:	4e0e      	ldr	r6, [pc, #56]	@ (0xc234)
    c1fa:	b863      			@ <UNDEFINED> instruction: 0xb863
    c1fc:	6050      	str	r0, [r2, #4]
    c1fe:	d3e4      	bcc.n	0xc1ca
    c200:	e47c      	b.n	0xbafc
    c202:	f000 cd30 	blx	0x80cc64
    c206:	0e47      	lsrs	r7, r0, #25
    c208:	1802      	adds	r2, r0, r0
    c20a:	2798      	movs	r7, #152	@ 0x98
    c20c:	000a      	movs	r2, r1
    c20e:	44ed      	add	sp, sp
    c210:	210e      	movs	r1, #14
    c212:	9d2b      	ldr	r5, [sp, #172]	@ 0xac
    c214:	1e98      	subs	r0, r3, #2
    c216:	000a      	movs	r2, r1
    c218:	46ed      	mov	sp, sp
    c21a:	210e      	movs	r1, #14
    c21c:	9d21      	ldr	r5, [sp, #132]	@ 0x84
    c21e:	45fe      	cmp	lr, pc
    c220:	e460      	b.n	0xbae4
    c222:	c121      	stmia	r1!, {r0, r5}
    c224:	51e2      	str	r2, [r4, r7]
    c226:	de47      	udf	#71	@ 0x47
    c228:	e991 d317 			@ <UNDEFINED> instruction: 0xe991d317
    c22c:	e47c      	b.n	0xbb28
    c22e:	f030 cd30 	blx	0x83cc90
    c232:	0e47      	lsrs	r7, r0, #25
    c234:	4204      	tst	r4, r0
    c236:	7898      	ldrb	r0, [r3, #2]
    c238:	634e      	str	r6, [r1, #52]	@ 0x34
    c23a:	7058      	strb	r0, [r3, #1]
    c23c:	4e84      	ldr	r6, [pc, #528]	@ (0xc450)
    c23e:	6863      	ldr	r3, [r4, #4]
    c240:	9470      	str	r4, [sp, #448]	@ 0x1c0
    c242:	634e      	str	r6, [r1, #52]	@ 0x34
    c244:	7078      	strb	r0, [r7, #1]
    c246:	4ea4      	ldr	r6, [pc, #656]	@ (0xc4d8)
    c248:	8863      	ldrh	r3, [r4, #2]
    c24a:	b470      	push	{r4, r5, r6}
    c24c:	000a      	movs	r2, r1
    c24e:	2802      	cmp	r0, #2
    c250:	08ce      	lsrs	r6, r1, #3
    c252:	ea21 989c 			@ <UNDEFINED> instruction: 0xea21989c
    c256:	4e3a      	ldr	r6, [pc, #232]	@ (0xc340)
    c258:	9863      	ldr	r0, [sp, #396]	@ 0x18c
    c25a:	8470      	strh	r0, [r6, #34]	@ 0x22
    c25c:	634e      	str	r6, [r1, #52]	@ 0x34
    c25e:	70a8      	strb	r0, [r5, #2]
    c260:	4e94      	ldr	r6, [pc, #592]	@ (0xc4b4)
    c262:	b863      			@ <UNDEFINED> instruction: 0xb863
    c264:	a470      	add	r4, pc, #448	@ (adr r4, 0xc428)
    c266:	634e      	str	r6, [r1, #52]	@ 0x34
    c268:	70c8      	strb	r0, [r1, #3]
    c26a:	0ab4      	lsrs	r4, r6, #10
    c26c:	0200      	lsls	r0, r0, #8
    c26e:	ce28      	ldmia	r6!, {r3, r5}
    c270:	2108      	movs	r1, #8
    c272:	9ccb      	ldr	r4, [sp, #812]	@ 0x32c
    c274:	4751      	bx	sl
    c276:	91de      	str	r1, [sp, #888]	@ 0x378
    c278:	0e09      	lsrs	r1, r1, #24
    c27a:	4804      	ldr	r0, [pc, #16]	@ (0xc28c)
    c27c:	033e      	lsls	r6, r7, #12
    c27e:	7033      	strb	r3, [r6, #0]
    c280:	4654      	mov	r4, sl
    c282:	f0c5 2c91 			@ <UNDEFINED> instruction: 0xf0c52c91
    c286:	4609      	mov	r1, r1
    c288:	5085      	str	r5, [r0, r2]
    c28a:	4e0d      	ldr	r6, [pc, #52]	@ (0xc2c0)
    c28c:	5463      	strb	r3, [r4, r1]
    c28e:	4882      	ldr	r0, [pc, #520]	@ (0xc498)
    c290:	8478      	strh	r0, [r7, #34]	@ 0x22
    c292:	8546      	strh	r6, [r0, #42]	@ 0x2a
    c294:	5810      	ldr	r0, [r2, r0]
    c296:	234e      	movs	r3, #78	@ 0x4e
    c298:	8485      	strh	r5, [r0, #36]	@ 0x24
    c29a:	6947      	ldr	r7, [r0, #20]
    c29c:	0854      	lsrs	r4, r2, #1
    c29e:	e582      	b.n	0xbda6
    c2a0:	5234      	strh	r4, [r6, r0]
    c2a2:	7848      	ldrb	r0, [r1, #1]
    c2a4:	46a4      	mov	ip, r4
    c2a6:	3085      	adds	r0, #133	@ 0x85
    c2a8:	4e58      	ldr	r6, [pc, #352]	@ (0xc40c)
    c2aa:	8523      	strh	r3, [r4, #40]	@ 0x28
    c2ac:	4784      	blxns	r0
    c2ae:	804b      	strh	r3, [r1, #2]
    c2b0:	02e4      	lsls	r4, r4, #11
    c2b2:	ce28      	ldmia	r6!, {r3, r5}
    c2b4:	2108      	movs	r1, #8
    c2b6:	9c87      	ldr	r4, [sp, #540]	@ 0x21c
    c2b8:	4804      	ldr	r0, [pc, #16]	@ (0xc2cc)
    c2ba:	108e      	asrs	r6, r1, #2
    c2bc:	500d      	str	r5, [r1, r0]
    c2be:	5e47      	ldrsh	r7, [r0, r1]
    c2c0:	fd80 7504 	stc2	5, cr7, [r0, #16]
    c2c4:	1ce4      	adds	r4, r4, #3
    c2c6:	3222      	adds	r2, #34	@ 0x22
    c2c8:	7044      	strb	r4, [r0, #1]
    c2ca:	21e4      	movs	r1, #228	@ 0xe4
    c2cc:	f773 3498 			@ <UNDEFINED> instruction: 0xf7733498
    c2d0:	4751      	bx	sl
    c2d2:	81de      	strh	r6, [r3, #14]
    c2d4:	a299      	add	r2, pc, #612	@ (adr r2, 0xc53c)
    c2d6:	1000      	asrs	r0, r0, #32
    c2d8:	d770      	bvc.n	0xc3bc
    c2da:	1c98      	adds	r0, r3, #2
    c2dc:	4b21      	ldr	r3, [pc, #132]	@ (0xc364)
    c2de:	ccf7      	ldmia	r4, {r0, r1, r2, r4, r5, r6, r7}
    c2e0:	0004      	movs	r4, r0
    c2e2:	0ce8      	lsrs	r0, r5, #19
    c2e4:	634e      	str	r6, [r1, #52]	@ 0x34
    c2e6:	5068      	str	r0, [r5, r1]
    c2e8:	e490      	b.n	0xbc0c
    c2ea:	fc7e 00ec 	ldc2l	0, cr0, [lr], #-944	@ 0xfffffc50
    c2ee:	dff1      	svc	241	@ 0xf1
    c2f0:	047f      	lsls	r7, r7, #17
    c2f2:	5046      	str	r6, [r0, r1]
    c2f4:	e470      	b.n	0xbbd8
    c2f6:	4851      	ldr	r0, [pc, #324]	@ (0xc43c)
    c2f8:	600e      	str	r6, [r1, #0]
    c2fa:	2104      	movs	r1, #4
    c2fc:	f743 01df 			@ <UNDEFINED> instruction: 0xf74301df
    c300:	c0f1      	stmia	r0!, {r0, r4, r5, r6, r7}
    c302:	d201      	bcs.n	0xc308
    c304:	e316      	b.n	0xc934
    c306:	0c00      	lsrs	r0, r0, #16
    c308:	6d20      	ldr	r0, [r4, #80]	@ 0x50
    c30a:	0e33      	lsrs	r3, r6, #24
    c30c:	df10      	svc	16
    c30e:	47fa      			@ <UNDEFINED> instruction: 0x47fa
    c310:	206f      	movs	r0, #111	@ 0x6f
    c312:	316c      	adds	r1, #108	@ 0x6c
    c314:	6f0e      	ldr	r6, [r1, #112]	@ 0x70
    c316:	06e2      	lsls	r2, r4, #27
    c318:	227e      	movs	r2, #126	@ 0x7e
    c31a:	c868      	ldmia	r0!, {r3, r5, r6}
    c31c:	6e0f      	ldr	r7, [r1, #96]	@ 0x60
    c31e:	07e2      	lsls	r2, r4, #31
    c320:	f242 fe26 	bl	0x24ef70
    c324:	1c03      	adds	r3, r0, #0
    c326:	26f0      	movs	r6, #240	@ 0xf0
    c328:	226e      	movs	r2, #110	@ 0x6e
    c32a:	316d      	adds	r1, #109	@ 0x6d
    c32c:	7e0e      	ldrb	r6, [r1, #24]
    c32e:	6df4      	ldr	r4, [r6, #92]	@ 0x5c
    c330:	0410      	lsls	r0, r2, #16
    c332:	0e40      	lsrs	r0, r0, #25
    c334:	04f1      	lsls	r1, r6, #19
    c336:	0e49      	lsrs	r1, r1, #25
    c338:	21f1      	movs	r1, #241	@ 0xf1
    c33a:	e11f      	b.n	0xc57c
    c33c:	040a      	lsls	r2, r1, #16
    c33e:	5221      	strh	r1, [r4, r0]
    c340:	c29c      	stmia	r2!, {r2, r3, r4, r7}
    c342:	e356      	b.n	0xc9f2
    c344:	0cc0      	lsrs	r0, r0, #19
    c346:	9000      	str	r0, [sp, #0]
    c348:	ec42 0258 	sfm	f0, 2, [r2], {88}	@ 0x58
    c34c:	1049      	asrs	r1, r1, #1
    c34e:	5951      	ldr	r1, [r2, r5]
    c350:	000e      	movs	r6, r1
    c352:	dff1      	svc	241	@ 0xf1
    c354:	167e      	asrs	r6, r7, #25
    c356:	6047      	str	r7, [r0, #4]
    c358:	0c04      	lsrs	r4, r0, #16
    c35a:	c908      	ldmia	r1!, {r3}
    c35c:	d08d      	beq.n	0xc27a
    c35e:	e4ae      	b.n	0xbcbe
    c360:	0460      	lsls	r0, r4, #17
    c362:	4882      	ldr	r0, [pc, #520]	@ (0xc56c)
    c364:	1088      	asrs	r0, r1, #2
    c366:	4aed      	ldr	r2, [pc, #948]	@ (0xc71c)
    c368:	560e      	ldrsb	r6, [r1, r0]
    c36a:	9820      	ldr	r0, [sp, #128]	@ 0x80
    c36c:	ed85 0e4a 	stc	14, cr0, [r5, #296]	@ 0x128
    c370:	2046      	movs	r0, #70	@ 0x46
    c372:	a488      	add	r4, pc, #544	@ (adr r4, 0xc594)
    c374:	a046      	add	r0, pc, #280	@ (adr r0, 0xc490)
    c376:	2035      	movs	r0, #53	@ 0x35
    c378:	edef 4b25 			@ <UNDEFINED> instruction: 0xedef4b25
    c37c:	6852      	ldr	r2, [r2, #4]
    c37e:	3018      	adds	r0, #24
    c380:	d822      	bhi.n	0xc3c8
    c382:	0a42      	lsrs	r2, r0, #9
    c384:	ed00 0e4a 	stc	14, cr0, [r0, #-296]	@ 0xfffffed8
    c388:	2056      	movs	r0, #86	@ 0x56
    c38a:	8598      	strh	r0, [r3, #44]	@ 0x2c
    c38c:	a046      	add	r0, pc, #280	@ (adr r0, 0xc4a8)
    c38e:	2035      	movs	r0, #53	@ 0x35
    c390:	edef 4b25 			@ <UNDEFINED> instruction: 0xedef4b25
    c394:	6852      	ldr	r2, [r2, #4]
    c396:	d028      	beq.n	0xc3ea
    c398:	b008      	add	sp, #32
    c39a:	0460      	lsls	r0, r4, #17
    c39c:	0911      	lsrs	r1, r2, #4
    c39e:	4ee0      	ldr	r6, [pc, #896]	@ (0xc720)
    c3a0:	1046      	asrs	r6, r0, #1
    c3a2:	04f0      	lsls	r0, r6, #19
    c3a4:	f166 102d 	sbc.w	r0, r6, #2949165	@ 0x2d002d
    c3a8:	7bdf      	ldrb	r7, [r3, #15]
    c3aa:	4604      	mov	r4, r0
    c3ac:	35a0      	adds	r5, #160	@ 0xa0
    c3ae:	ef20 25ed 	vrshl.s32	q1, <illegal reg q14.5>, q8
    c3b2:	524b      	strh	r3, [r1, r1]
    c3b4:	1848      	adds	r0, r1, r1
    c3b6:	3933      	subs	r1, #51	@ 0x33
    c3b8:	14f8      	asrs	r0, r7, #19
    c3ba:	c16e      	stmia	r1!, {r1, r2, r3, r5, r6}
    c3bc:	000c      	movs	r4, r1
    c3be:	aa80      	add	r2, sp, #512	@ 0x200
    c3c0:	14e3      	asrs	r3, r4, #19
    c3c2:	0c84      	lsrs	r4, r0, #18
    c3c4:	c8ff      	ldmia	r0, {r0, r1, r2, r3, r4, r5, r6, r7}
    c3c6:	4e52      	ldr	r6, [pc, #328]	@ (0xc510)
    c3c8:	8841      	ldrh	r1, [r0, #2]
    c3ca:	4710      	bx	r2
    c3cc:	0463      	lsls	r3, r4, #17
    c3ce:	035a      	lsls	r2, r3, #13
    c3d0:	def2      	udf	#242	@ 0xf2
    c3d2:	b25e      	sxtb	r6, r3
    c3d4:	8524      	strh	r4, [r4, #40]	@ 0x28
    c3d6:	0284      	lsls	r4, r0, #10
    c3d8:	3ce8      	subs	r4, #232	@ 0xe8
    c3da:	8fef      	ldrh	r7, [r5, #62]	@ 0x3e
    c3dc:	a259      	add	r2, pc, #356	@ (adr r2, 0xc544)
    c3de:	7010      	strb	r0, [r2, #0]
    c3e0:	4634      	mov	r4, r6
    c3e2:	35a0      	adds	r5, #160	@ 0xa0
    c3e4:	ef20 25ed 	vrshl.s32	q1, <illegal reg q14.5>, q8
    c3e8:	524b      	strh	r3, [r1, r1]
    c3ea:	2848      	cmp	r0, #72	@ 0x48
    c3ec:	ce80      	ldmia	r6!, {r7}
    c3ee:	fef3 05df 	mrc2	5, 7, r0, cr3, cr15, {6}
    c3f2:	dff1      	svc	241	@ 0xf1
    c3f4:	047a      	lsls	r2, r7, #17
    c3f6:	a046      	add	r0, pc, #280	@ (adr r0, 0xc510)
    c3f8:	2035      	movs	r0, #53	@ 0x35
    c3fa:	edef 4b25 			@ <UNDEFINED> instruction: 0xedef4b25
    c3fe:	4852      	ldr	r0, [pc, #328]	@ (0xc548)
    c400:	8318      	strh	r0, [r3, #24]
    c402:	f834 6e14 	ldrht	r6, [r4, #20]
    c406:	0cc1      	lsrs	r1, r0, #19
    c408:	8000      	strh	r0, [r0, #0]
    c40a:	e40a      	b.n	0xbc22
    c40c:	0e14      	lsrs	r4, r2, #24
    c40e:	ffcc c8ff 			@ <UNDEFINED> instruction: 0xffccc8ff
    c412:	4e56      	ldr	r6, [pc, #344]	@ (0xc56c)
    c414:	20e1      	movs	r0, #225	@ 0xe1
    c416:	0145      	lsls	r5, r0, #5
    c418:	6f00      	ldr	r0, [r0, #112]	@ 0x70
    c41a:	0463      	lsls	r3, r4, #17
    c41c:	035a      	lsls	r2, r3, #13
    c41e:	def2      	udf	#242	@ 0xf2
    c420:	b25e      	sxtb	r6, r3
    c422:	8524      	strh	r4, [r4, #40]	@ 0x28
    c424:	0284      	lsls	r4, r0, #10
    c426:	3ce8      	subs	r4, #232	@ 0xe8
    c428:	8fef      	ldrh	r7, [r5, #62]	@ 0x3e
    c42a:	0259      	lsls	r1, r3, #9
    c42c:	f01c 4636 	ands.w	r6, ip, #3053453312	@ 0xb6000000
    c430:	35a0      	adds	r5, #160	@ 0xa0
    c432:	ef20 25ed 	vrshl.s32	q1, <illegal reg q14.5>, q8
    c436:	524b      	strh	r3, [r1, r1]
    c438:	2848      	cmp	r0, #72	@ 0x48
    c43a:	ce80      	ldmia	r6!, {r7}
    c43c:	fef3 06df 	mrc2	6, 7, r0, cr3, cr15, {6}
    c440:	dff1      	svc	241	@ 0xf1
    c442:	0479      	lsls	r1, r7, #17
    c444:	c046      	stmia	r0!, {r1, r2, r6}
    c446:	9080      	str	r0, [sp, #512]	@ 0x200
    c448:	0a0c      	lsrs	r4, r1, #8
    c44a:	a046      	add	r0, pc, #280	@ (adr r0, 0xc564)
    c44c:	2035      	movs	r0, #53	@ 0x35
    c44e:	edef 4b25 			@ <UNDEFINED> instruction: 0xedef4b25
    c452:	6852      	ldr	r2, [r2, #4]
    c454:	d028      	beq.n	0xc4a8
    c456:	3008      	adds	r0, #8
    c458:	0464      	lsls	r4, r4, #17
    c45a:	035a      	lsls	r2, r3, #13
    c45c:	def2      	udf	#242	@ 0xf2
    c45e:	b25e      	sxtb	r6, r3
    c460:	8524      	strh	r4, [r4, #40]	@ 0x28
    c462:	2184      	movs	r1, #132	@ 0x84
    c464:	82e6      	strh	r6, [r4, #22]
    c466:	e14f      	b.n	0xc708
    c468:	cc16      	ldmia	r4, {r1, r2, r4}
    c46a:	0000      	movs	r0, r0
    c46c:	e709      	b.n	0xc282
    c46e:	8414      	strh	r4, [r2, #32]
    c470:	6f58      	ldr	r0, [r3, #116]	@ 0x74
    c472:	2983      	cmp	r1, #131	@ 0x83
    c474:	0c05      	lsrs	r5, r0, #16
    c476:	36f0      	adds	r6, #240	@ 0xf0
    c478:	4798      	blx	r3
    c47a:	a046      	add	r0, pc, #280	@ (adr r0, 0xc594)
    c47c:	2035      	movs	r0, #53	@ 0x35
    c47e:	edef 4b25 			@ <UNDEFINED> instruction: 0xedef4b25
    c482:	4852      	ldr	r0, [pc, #328]	@ (0xc5cc)
    c484:	4318      	orrs	r0, r3
    c486:	f82c 6e54 	strht	r6, [ip, #84]
    c48a:	0cc5      	lsrs	r5, r0, #19
    c48c:	9000      	str	r0, [sp, #0]
    c48e:	4e60      	ldr	r6, [pc, #384]	@ (0xc610)
    c490:	f0e5 9836 	b.w	0x8f1500
    c494:	c011      	stmia	r0!, {r0, r4}
    c496:	6f00      	ldr	r0, [r0, #112]	@ 0x70
    c498:	3fe3      	subs	r7, #227	@ 0xe3
    c49a:	00c0      	lsls	r0, r0, #3
    c49c:	e36f      	b.n	0xcb7e
    c49e:	df36      	svc	54	@ 0x36
    c4a0:	f107 fcdf 	bl	0x113e62
    c4a4:	4727      	bx	r4
    c4a6:	1570      	asrs	r0, r6, #21
    c4a8:	d146      	bne.n	0xc538
    c4aa:	7018      	strb	r0, [r3, #0]
    c4ac:	4c23      	ldr	r4, [pc, #140]	@ (0xc53c)
    c4ae:	0e5b      	lsrs	r3, r3, #25
    c4b0:	0046      	lsls	r6, r0, #1
    c4b2:	c01d      	stmia	r0!, {r0, r2, r3, r4}
    c4b4:	8000      	strh	r0, [r0, #0]
    c4b6:	20df      	movs	r0, #223	@ 0xdf
    c4b8:	a235      	add	r2, pc, #212	@ (adr r2, 0xc590)
    c4ba:	2010      	movs	r0, #16
    c4bc:	f312 3cc2 			@ <UNDEFINED> instruction: 0xf3123cc2
    c4c0:	6386      	str	r6, [r0, #56]	@ 0x38
    c4c2:	6d2d      	ldr	r5, [r5, #80]	@ 0x50
    c4c4:	0e5b      	lsrs	r3, r3, #25
    c4c6:	3c98      	subs	r4, #152	@ 0x98
    c4c8:	b4c2      	push	{r1, r6, r7}
    c4ca:	60e5      	str	r5, [r4, #12]
    c4cc:	d004      	beq.n	0xc4d8
    c4ce:	0c01      	lsrs	r1, r0, #16
    c4d0:	f800 520d 	strb.w	r5, [r0, <undefined>]
    c4d4:	0a23      	lsrs	r3, r4, #8
    c4d6:	2201      	movs	r2, #1
    c4d8:	2f31      	cmp	r7, #49	@ 0x31
    c4da:	2228      	movs	r2, #40	@ 0x28
    c4dc:	9228      	str	r2, [sp, #160]	@ 0xa0
    c4de:	3dc2      	subs	r5, #194	@ 0xc2
    c4e0:	7387      	strb	r7, [r0, #14]
    c4e2:	6d2d      	ldr	r5, [r5, #80]	@ 0x50
    c4e4:	0e5b      	lsrs	r3, r3, #25
    c4e6:	f27e 104d 			@ <UNDEFINED> instruction: 0xf27e104d
    c4ea:	79df      	ldrb	r7, [r3, #7]
    c4ec:	4604      	mov	r4, r0
    c4ee:	80c0      	strh	r0, [r0, #6]
    c4f0:	3c90      	subs	r4, #144	@ 0x90
    c4f2:	ed08 47d5 	stc	7, cr4, [r8, #-852]	@ 0xfffffcac
    c4f6:	2046      	movs	r0, #70	@ 0x46
    c4f8:	9488      	str	r4, [sp, #544]	@ 0x220
    c4fa:	5904      	ldr	r4, [r0, r4]
    c4fc:	173e      	asrs	r6, r7, #28
    c4fe:	69b8      	ldr	r0, [r7, #24]
    c500:	d5ed      	bpl.n	0xc4de
    c502:	4647      	mov	r7, r8
    c504:	8820      	ldrh	r0, [r4, #0]
    c506:	0494      	lsls	r4, r2, #18
    c508:	3e59      	subs	r6, #89	@ 0x59
    c50a:	1d16      	adds	r6, r2, #4
    c50c:	e802 211c 			@ <UNDEFINED> instruction: 0xe802211c
    c510:	9bd6      	ldr	r3, [sp, #856]	@ 0x358
    c512:	5146      	str	r6, [r0, r5]
    c514:	e520      	b.n	0xbf58
    c516:	5246      	strh	r6, [r0, r1]
    c518:	e530      	b.n	0xbf7c
    c51a:	5346      	strh	r6, [r0, r5]
    c51c:	e540      	b.n	0xbfa0
    c51e:	5446      	strb	r6, [r0, r1]
    c520:	e550      	b.n	0xbfc4
    c522:	5546      	strb	r6, [r0, r5]
    c524:	e560      	b.n	0xbfe8
    c526:	000a      	movs	r2, r1
    c528:	1611      	asrs	r1, r2, #24
    c52a:	6d2f      	ldr	r7, [r5, #80]	@ 0x50
    c52c:	0e57      	lsrs	r7, r2, #25
    c52e:	090a      	lsrs	r2, r1, #4
    c530:	52ed      	strh	r5, [r5, r3]
    c532:	ef0e 7dff 	vmla.f32	<illegal reg q3.5>, q15, <illegal reg q15.5>
    c536:	df10      	svc	16
    c538:	0479      	lsls	r1, r7, #17
    c53a:	c046      	stmia	r0!, {r1, r2, r6}
    c53c:	9080      	str	r0, [sp, #512]	@ 0x200
    c53e:	086c      	lsrs	r4, r5, #1
    c540:	d5ed      	bpl.n	0xc51e
    c542:	4647      	mov	r7, r8
    c544:	8820      	ldrh	r0, [r4, #0]
    c546:	0494      	lsls	r4, r2, #18
    c548:	3e59      	subs	r6, #89	@ 0x59
    c54a:	a817      	add	r0, sp, #92	@ 0x5c
    c54c:	ed6c 47d5 	stcl	7, cr4, [ip, #-852]!	@ 0xfffffcac
    c550:	2046      	movs	r0, #70	@ 0x46
    c552:	8488      	strh	r0, [r1, #36]	@ 0x24
    c554:	5914      	ldr	r4, [r2, r4]
    c556:	822e      	strh	r6, [r5, #16]
    c558:	d473      	bmi.n	0xc642
    c55a:	8020      	strh	r0, [r4, #0]
    c55c:	11ce      	asrs	r6, r1, #7
    c55e:	b873      			@ <UNDEFINED> instruction: 0xb873
    c560:	1469      	asrs	r1, r5, #17
    c562:	5205      	strh	r5, [r0, r0]
    c564:	246e      	movs	r4, #110	@ 0x6e
    c566:	5305      	strh	r5, [r0, r4]
    c568:	346e      	adds	r4, #110	@ 0x6e
    c56a:	5405      	strb	r5, [r0, r0]
    c56c:	446e      	add	r6, sp
    c56e:	5505      	strb	r5, [r0, r4]
    c570:	546e      	strb	r6, [r5, r1]
    c572:	5605      	ldrsb	r5, [r0, r0]
    c574:	00ae      	lsls	r6, r5, #2
    c576:	8010      	strh	r0, [r2, #0]
    c578:	d2ec      	bcs.n	0xc554
    c57a:	e576      	b.n	0xc06a
    c57c:	90a0      	str	r0, [sp, #640]	@ 0x280
    c57e:	2ed0      	cmp	r6, #208	@ 0xd0
    c580:	f0e5 dffe 	bl	0x8f2580
    c584:	f107 aadf 	bmi.w	0xd3b46
    c588:	7000      	strb	r0, [r0, #0]
    c58a:	c014      	stmia	r0!, {r2, r4}
    c58c:	6f00      	ldr	r0, [r0, #112]	@ 0x70
    c58e:	00a3      	lsls	r3, r4, #2
    c590:	0470      	lsls	r0, r6, #17
    c592:	7798      	strb	r0, [r3, #30]
    c594:	000a      	movs	r2, r1
    c596:	4aed      	ldr	r2, [pc, #948]	@ (0xc94c)
    c598:	560e      	ldrsb	r6, [r1, r0]
    c59a:	9820      	ldr	r0, [sp, #128]	@ 0x80
    c59c:	4685      	mov	sp, r0
    c59e:	35a0      	adds	r5, #160	@ 0xa0
    c5a0:	ef20 25ed 	vrshl.s32	q1, <illegal reg q14.5>, q8
    c5a4:	524b      	strh	r3, [r1, r1]
    c5a6:	2868      	cmp	r0, #104	@ 0x68
    c5a8:	08d0      	lsrs	r0, r2, #3
    c5aa:	6220      	str	r0, [r4, #32]
    c5ac:	5a04      	ldrh	r4, [r0, r0]
    c5ae:	f203 5ede 	addw	lr, r3, #1502	@ 0x5de
    c5b2:	24b2      	movs	r4, #178	@ 0xb2
    c5b4:	8485      	strh	r5, [r0, #36]	@ 0x24
    c5b6:	e802 ef1c 			@ <UNDEFINED> instruction: 0xe802ef1c
    c5ba:	e98f 0461 			@ <UNDEFINED> instruction: 0xe98f0461
    c5be:	035a      	lsls	r2, r3, #13
    c5c0:	def2      	udf	#242	@ 0xf2
    c5c2:	b25e      	sxtb	r6, r3
    c5c4:	8524      	strh	r4, [r4, #40]	@ 0x28
    c5c6:	0284      	lsls	r4, r0, #10
    c5c8:	3ce8      	subs	r4, #232	@ 0xe8
    c5ca:	6fef      	ldr	r7, [r5, #124]	@ 0x7c
    c5cc:	0804      	lsrs	r4, r0, #32
    c5ce:	60d1      	str	r1, [r2, #12]
    c5d0:	0c04      	lsrs	r4, r0, #16
    c5d2:	d908      	bls.n	0xc5e6
    c5d4:	1f7d      	subs	r5, r7, #5
    c5d6:	1493      	asrs	r3, r2, #18
    c5d8:	6df8      	ldr	r0, [r7, #92]	@ 0x5c
    c5da:	df10      	svc	16
    c5dc:	57f9      	ldrsb	r1, [r7, r7]
    c5de:	080a      	lsrs	r2, r1, #32
    c5e0:	6921      	ldr	r1, [r4, #16]
    c5e2:	4f81      	ldr	r7, [pc, #516]	@ (0xc7e8)
    c5e4:	06e0      	lsls	r0, r4, #27
    c5e6:	00cc      	lsls	r4, r1, #3
    c5e8:	1900      	adds	r0, r0, r4
    c5ea:	04e5      	lsls	r5, r4, #19
    c5ec:	6f0e      	ldr	r6, [r1, #112]	@ 0x70
    c5ee:	3fe2      	subs	r7, #226	@ 0xe2
    c5f0:	00c0      	lsls	r0, r0, #3
    c5f2:	226f      	movs	r2, #111	@ 0x6f
    c5f4:	5b7c      	ldrh	r4, [r7, r5]
    c5f6:	6e0e      	ldr	r6, [r1, #96]	@ 0x60
    c5f8:	5822      	ldr	r2, [r4, r0]
    c5fa:	a619      	add	r6, pc, #100	@ (adr r6, 0xc660)
    c5fc:	d080      	beq.n	0xc500
    c5fe:	e5be      	b.n	0xc17e
    c600:	fef0 f57e 	mrc2	5, 7, pc, cr0, cr14, {3}
    c604:	107d      	asrs	r5, r7, #1
    c606:	f4cf 7a7f 			@ <UNDEFINED> instruction: 0xf4cf7a7f
    c60a:	4f24      	ldr	r7, [pc, #144]	@ (0xc69c)
    c60c:	36e3      	adds	r6, #227	@ 0xe3
    c60e:	666f      	str	r7, [r5, #100]	@ 0x64
    c610:	4724      	bxns	r4
    c612:	fc05 86ff 	stc2	6, cr8, [r5], {255}	@ 0xff
    c616:	4a98      	ldr	r2, [pc, #608]	@ (0xc878)
    c618:	464e      	mov	r6, r9
    c61a:	e588      	b.n	0xc12e
    c61c:	a387      	add	r3, pc, #540	@ (adr r3, 0xc83c)
    c61e:	da38      	bge.n	0xc692
    c620:	5258      	strh	r0, [r3, r1]
    c622:	ded0      	udf	#208	@ 0xd0
    c624:	247d      	movs	r4, #125	@ 0x7d
    c626:	1e85      	subs	r5, r0, #2
    c628:	f86e 0a06 	str??.w	r0, [lr, <undefined>]
    c62c:	0108      	lsls	r0, r1, #4
    c62e:	3688      	adds	r6, #136	@ 0x88
    c630:	a32a      	add	r3, pc, #168	@ (adr r3, 0xc6dc)
    c632:	87f7      	strh	r7, [r6, #62]	@ 0x3e
    c634:	e64e      	b.n	0xc2d4
    c636:	691c      	ldr	r4, [r3, #16]
    c638:	2546      	movs	r5, #70	@ 0x46
    c63a:	010a      	lsls	r2, r1, #4
    c63c:	460d      	mov	r5, r1
    c63e:	00c5      	lsls	r5, r0, #3
    c640:	2220      	movs	r2, #32
    c642:	6eaa      	ldr	r2, [r5, #104]	@ 0x68
    c644:	8228      	strh	r0, [r5, #16]
    c646:	e922 cfa7 	stmdb	r2!, {r0, r1, r2, r5, r7, r8, r9, sl, fp, lr, pc}
    c64a:	100c      	asrs	r4, r1, #32
    c64c:	f4cf 7a7f 			@ <UNDEFINED> instruction: 0xf4cf7a7f
    c650:	4f24      	ldr	r7, [pc, #144]	@ (0xc6e4)
    c652:	36e3      	adds	r6, #227	@ 0xe3
    c654:	666f      	str	r7, [r5, #100]	@ 0x64
    c656:	4724      	bxns	r4
    c658:	fc05 86ff 	stc2	6, cr8, [r5], {255}	@ 0xff
    c65c:	4a98      	ldr	r2, [pc, #608]	@ (0xc8c0)
    c65e:	464e      	mov	r6, r9
    c660:	e588      	b.n	0xc174
    c662:	a387      	add	r3, pc, #540	@ (adr r3, 0xc880)
    c664:	da38      	bge.n	0xc6d8
    c666:	5258      	strh	r0, [r3, r1]
    c668:	ded0      	udf	#208	@ 0xd0
    c66a:	247d      	movs	r4, #125	@ 0x7d
    c66c:	1e85      	subs	r5, r0, #2
    c66e:	f86e 0a06 	str??.w	r0, [lr, <undefined>]
    c672:	0108      	lsls	r0, r1, #4
    c674:	3642      	adds	r6, #66	@ 0x42
    c676:	a32a      	add	r3, pc, #168	@ (adr r3, 0xc720)
    c678:	87f7      	strh	r7, [r6, #62]	@ 0x3e
    c67a:	e64e      	b.n	0xc31a
    c67c:	691c      	ldr	r4, [r3, #16]
    c67e:	2546      	movs	r5, #70	@ 0x46
    c680:	010a      	lsls	r2, r1, #4
    c682:	460d      	mov	r5, r1
    c684:	00c5      	lsls	r5, r0, #3
    c686:	2220      	movs	r2, #32
    c688:	6eaa      	ldr	r2, [r5, #104]	@ 0x68
    c68a:	8cc8      	ldrh	r0, [r1, #38]	@ 0x26
    c68c:	9f0b      	ldr	r7, [sp, #44]	@ 0x2c
    c68e:	0a33      	lsrs	r3, r6, #8
    c690:	ee01 00a2 	cdp	0, 0, cr0, cr1, cr2, {5}
    c694:	a7e0      	add	r7, pc, #896	@ (adr r7, 0xca18)
    c696:	0ccf      	lsrs	r7, r1, #19
    c698:	df10      	svc	16
    c69a:	70ae      	strb	r6, [r5, #2]
    c69c:	c311      	stmia	r3!, {r0, r4}
    c69e:	f80a 6e04 	strbt	r6, [sl, #4]
    c6a2:	0cc0      	lsrs	r0, r0, #19
    c6a4:	9000      	str	r0, [sp, #0]
    c6a6:	4e61      	ldr	r6, [pc, #388]	@ (0xc82c)
    c6a8:	5840      	ldr	r0, [r0, r1]
    c6aa:	e5e0      	b.n	0xc26e
    c6ac:	13fe      	asrs	r6, r7, #15
    c6ae:	e5e5      	b.n	0xc27c
    c6b0:	5100      	str	r0, [r0, r4]
    c6b2:	0e5f      	lsrs	r7, r3, #25
    c6b4:	2df0      	cmp	r5, #240	@ 0xf0
    c6b6:	df10      	svc	16
    c6b8:	047f      	lsls	r7, r7, #17
    c6ba:	d046      	beq.n	0xc74a
    c6bc:	a008      	add	r0, pc, #32	@ (adr r0, 0xc6e0)
    c6be:	fc30 3e7a 	ldc2	14, cr3, [r0], #-488	@ 0xfffffe18
    c6c2:	33fe      	adds	r3, #254	@ 0xfe
    c6c4:	7a7c      	ldrb	r4, [r7, #9]
    c6c6:	463e      	mov	r6, r7
    c6c8:	f050 dfe5 	bl	0x85d696
    c6cc:	f101 7edf 	add.w	lr, r1, #29229056	@ 0x1be0000
    c6d0:	4604      	mov	r4, r0
    c6d2:	e140      	b.n	0xc956
    c6d4:	23e5      	movs	r3, #229	@ 0xe5
    c6d6:	1a84      	subs	r4, r0, r2
    c6d8:	70a3      	strb	r3, [r4, #2]
    c6da:	8021      	strh	r1, [r4, #0]
    c6dc:	1fef      	subs	r7, r5, #7
    c6de:	0413      	lsls	r3, r2, #16
    c6e0:	70a8      	strb	r0, [r5, #2]
    c6e2:	8311      	strh	r1, [r2, #24]
    c6e4:	7804      	ldrb	r4, [r0, #0]
    c6e6:	4614      	mov	r4, r2
    c6e8:	18d1      	adds	r1, r2, r3
    c6ea:	6120      	str	r0, [r4, #16]
    c6ec:	0504      	lsls	r4, r0, #20
    c6ee:	ee5e 0a3f 			@ <UNDEFINED> instruction: 0xee5e0a3f
    c6f2:	4701      	bx	r0
    c6f4:	1461      	asrs	r1, r4, #17
    c6f6:	02df      	lsls	r7, r3, #11
    c6f8:	04f1      	lsls	r1, r6, #19
    c6fa:	0e5e      	lsrs	r6, r3, #25
    c6fc:	04f1      	lsls	r1, r6, #19
    c6fe:	0e5f      	lsrs	r7, r3, #25
    c700:	dff1      	svc	241	@ 0xf1
    c702:	167e      	asrs	r6, r7, #25
    c704:	000a      	movs	r2, r1
    c706:	8047      	strh	r7, [r0, #2]
    c708:	6589      	str	r1, [r1, #88]	@ 0x58
    c70a:	5a04      	ldrh	r4, [r0, r0]
    c70c:	f206 1aae 	addw	sl, r6, #430	@ 0x1ae
    c710:	0ed0      	lsrs	r0, r2, #27
    c712:	20e6      	movs	r0, #230	@ 0xe6
    c714:	a585      	add	r5, pc, #532	@ (adr r5, 0xc92c)
    c716:	a046      	add	r0, pc, #280	@ (adr r0, 0xc830)
    c718:	2065      	movs	r0, #101	@ 0x65
    c71a:	edef 0e60 	stcl	14, cr0, [pc, #384]!	@ 0xc89c
    c71e:	a852      	add	r0, sp, #328	@ 0x148
    c720:	7000      	strb	r0, [r0, #0]
    c722:	6018      	str	r0, [r3, #0]
    c724:	5a04      	ldrh	r4, [r0, r0]
    c726:	f206 0ede 	addw	lr, r6, #222	@ 0xde
    c72a:	20e6      	movs	r0, #230	@ 0xe6
    c72c:	c085      	stmia	r0!, {r0, r2, r7}
    c72e:	ce00      	ldmia	r6!, {}
    c730:	60f2      	str	r2, [r6, #12]
    c732:	0804      	lsrs	r4, r0, #32
    c734:	60d1      	str	r1, [r2, #12]
    c736:	0c04      	lsrs	r4, r0, #16
    c738:	d80d      	bhi.n	0xc756
    c73a:	519d      	str	r5, [r3, r6]
    c73c:	0eae      	lsrs	r6, r5, #26
    c73e:	1660      	asrs	r0, r4, #25
    c740:	02df      	lsls	r7, r3, #11
    c742:	c0f1      	stmia	r0!, {r0, r4, r5, r6, r7}
    c744:	1100      	asrs	r0, r0, #4
    c746:	00a1      	lsls	r1, r4, #2
    c748:	101c      	asrs	r4, r3, #32
    c74a:	09d0      	lsrs	r0, r2, #7
    c74c:	02c0      	lsls	r0, r0, #11
    c74e:	9811      	ldr	r0, [sp, #68]	@ 0x44
    c750:	3c00      	subs	r4, #0
    c752:	4010      	ands	r0, r2
    c754:	c009      	stmia	r0!, {r0, r3}
    c756:	1104      	asrs	r4, r0, #4
    c758:	008f      	lsls	r7, r1, #2
    c75a:	105c      	asrs	r4, r3, #1
    c75c:	08b0      	lsrs	r0, r6, #2
    c75e:	06c0      	lsls	r0, r0, #27
    c760:	8611      	strh	r1, [r2, #48]	@ 0x30
    c762:	7c00      	ldrb	r0, [r0, #16]
    c764:	2010      	movs	r0, #16
    c766:	c008      	stmia	r0!, {r3}
    c768:	1108      	asrs	r0, r1, #4
    c76a:	0161      	lsls	r1, r4, #5
    c76c:	109c      	asrs	r4, r3, #2
    c76e:	15d0      	asrs	r0, r2, #23
    c770:	3a21      	subs	r2, #33	@ 0x21
    c772:	1199      	asrs	r1, r3, #6
    c774:	1369      	asrs	r1, r5, #13
    c776:	3c70      	subs	r4, #112	@ 0x70
    c778:	0411      	lsls	r1, r2, #16
    c77a:	0014      	movs	r4, r2
    c77c:	1047      	asrs	r7, r0, #1
    c77e:	7fdf      	ldrb	r7, [r3, #31]
    c780:	4604      	mov	r4, r0
    c782:	e050      	b.n	0xc826
    c784:	dfea      	svc	234	@ 0xea
    c786:	f101 ae04 	bmi.w	0xce392
    c78a:	f10e fadf 	bl	0x11ad4c
    c78e:	4f47      	ldr	r7, [pc, #284]	@ (0xc8ac)
    c790:	26f0      	movs	r6, #240	@ 0xf0
    c792:	c26e      	stmia	r2!, {r1, r2, r3, r5, r6}
    c794:	00dc      	lsls	r4, r3, #3
    c796:	b880      			@ <UNDEFINED> instruction: 0xb880
    c798:	26e1      	movs	r6, #225	@ 0xe1
    c79a:	06d0      	lsls	r0, r2, #27
    c79c:	0720      	lsls	r0, r4, #28
    c79e:	7e02      	ldrb	r2, [r0, #24]
    c7a0:	0ed0      	lsrs	r0, r2, #27
    c7a2:	20e6      	movs	r0, #230	@ 0xe6
    c7a4:	a585      	add	r5, pc, #532	@ (adr r5, 0xc9bc)
    c7a6:	f47e 106d 	orns	r0, lr, #3883008	@ 0x3b4000
    c7aa:	1fdf      	subs	r7, r3, #7
    c7ac:	9623      	str	r6, [sp, #140]	@ 0x8c
    c7ae:	08d9      	lsrs	r1, r3, #3
    c7b0:	1630      	asrs	r0, r6, #24
    c7b2:	67b3      	str	r3, [r6, #120]	@ 0x78
    c7b4:	047c      	lsls	r4, r7, #17
    c7b6:	d046      	beq.n	0xc846
    c7b8:	f008 20a1 	and.w	r0, r8, #2701172992	@ 0xa100a100
    c7bc:	7310      	strb	r0, [r2, #12]
    c7be:	ac76      	add	r4, sp, #472	@ 0x1d8
    c7c0:	1020      	asrs	r0, r4, #32
    c7c2:	66f3      	str	r3, [r6, #108]	@ 0x6c
    c7c4:	00ac      	lsls	r4, r5, #2
    c7c6:	cef0      	ldmia	r6, {r4, r5, r6, r7}
    c7c8:	3998      	subs	r1, #152	@ 0x98
    c7ca:	d046      	beq.n	0xc85a
    c7cc:	f018 00a1 	ands.w	r0, r8, #161	@ 0xa1
    c7d0:	3310      	adds	r3, #16
    c7d2:	ac75      	add	r4, sp, #468	@ 0x1d4
    c7d4:	1000      	asrs	r0, r0, #32
    c7d6:	65b3      	str	r3, [r6, #88]	@ 0x58
    c7d8:	00ac      	lsls	r4, r5, #2
    c7da:	cef0      	ldmia	r6, {r4, r5, r6, r7}
    c7dc:	1198      	asrs	r0, r3, #6
    c7de:	030a      	lsls	r2, r1, #12
    c7e0:	ecef 0a3f 	vstmia	pc!, {s1-s63}
    c7e4:	ef03 1dfc 	vmla.f32	<illegal reg q0.5>, <illegal reg q9.5>, q14
    c7e8:	df10      	svc	16
    c7ea:	37fb      	adds	r7, #251	@ 0xfb
    c7ec:	e16f      	b.n	0xcace
    c7ee:	d016      	beq.n	0xc81e
    c7f0:	2006      	movs	r0, #6
    c7f2:	0207      	lsls	r7, r0, #8
    c7f4:	60ed      	str	r5, [r5, #12]
    c7f6:	520e      	strh	r6, [r1, r0]
    c7f8:	1868      	adds	r0, r5, r1
    c7fa:	8c20      	ldrh	r0, [r4, #32]
    c7fc:	5c00      	ldrb	r0, [r0, r0]
    c7fe:	16e1      	asrs	r1, r4, #27
    c800:	06d0      	lsls	r0, r2, #27
    c802:	0720      	lsls	r0, r4, #28
    c804:	ed02 0e60 	stc	14, cr0, [r2, #-384]	@ 0xfffffe80
    c808:	4852      	ldr	r0, [pc, #328]	@ (0xc954)
    c80a:	8d28      	ldrh	r0, [r5, #40]	@ 0x28
    c80c:	f402 16e0 	and.w	r6, r2, #1835008	@ 0x1c0000
    c810:	06d0      	lsls	r0, r2, #27
    c812:	0720      	lsls	r0, r4, #28
    c814:	ed02 0e60 	stc	14, cr0, [r2, #-384]	@ 0xfffffe80
    c818:	6852      	ldr	r2, [r2, #4]
    c81a:	d018      	beq.n	0xc84e
    c81c:	a018      	add	r0, pc, #96	@ (adr r0, 0xc880)
    c81e:	10a1      	asrs	r1, r4, #2
    c820:	a310      	add	r3, pc, #64	@ (adr r3, 0xc864)
    c822:	ecbe 6214 	lfm	f6, 4, [lr], #80	@ 0x50
    c826:	9dd8      	ldr	r5, [sp, #864]	@ 0x360
    c828:	9314      	str	r3, [sp, #80]	@ 0x50
    c82a:	ecaa d016 	stc	0, cr13, [sl], #88	@ 0x58
    c82e:	2006      	movs	r0, #6
    c830:	0207      	lsls	r7, r0, #8
    c832:	60ed      	str	r5, [r5, #12]
    c834:	520e      	strh	r6, [r1, r0]
    c836:	2ce8      	cmp	r4, #232	@ 0xe8
    c838:	cc0e      	ldmia	r4!, {r1, r2, r3}
    c83a:	01f4      	lsls	r4, r6, #7
    c83c:	22b8      	movs	r2, #184	@ 0xb8
    c83e:	c16e      	stmia	r1!, {r1, r2, r3, r5, r6}
    c840:	000c      	movs	r4, r1
    c842:	6090      	str	r0, [r2, #8]
    c844:	c16e      	stmia	r1!, {r1, r2, r3, r5, r6}
    c846:	004c      	lsls	r4, r1, #1
    c848:	5290      	strh	r0, [r2, r2]
    c84a:	040a      	lsls	r2, r1, #16
    c84c:	8621      	strh	r1, [r4, #48]	@ 0x30
    c84e:	6eca      	ldr	r2, [r1, #108]	@ 0x6c
    c850:	6d01      	ldr	r1, [r0, #80]	@ 0x50
    c852:	7200      	strb	r0, [r0, #8]
    c854:	d020      	beq.n	0xc898
    c856:	e60e      	b.n	0xc476
    c858:	8520      	strh	r0, [r4, #40]	@ 0x28
    c85a:	e2ce      	b.n	0xcdfa
    c85c:	fcc0 9fff 	stc2l	15, cr9, [r0], {255}	@ 0xff
    c860:	095c      	lsrs	r4, r3, #5
    c862:	016e      	lsls	r6, r5, #5
    c864:	006d      	lsls	r5, r5, #1
    c866:	2072      	movs	r0, #114	@ 0x72
    c868:	0ed0      	lsrs	r0, r2, #27
    c86a:	20e6      	movs	r0, #230	@ 0xe6
    c86c:	ce85      	ldmia	r6!, {r0, r2, r7}
    c86e:	8e22      	ldrh	r2, [r4, #48]	@ 0x30
    c870:	016e      	lsls	r6, r5, #5
    c872:	006d      	lsls	r5, r5, #1
    c874:	2072      	movs	r0, #114	@ 0x72
    c876:	1820      	adds	r0, r4, r0
    c878:	21ce      	movs	r1, #206	@ 0xce
    c87a:	edcc 0e60 	stcl	14, cr0, [ip, #384]	@ 0x180
    c87e:	ea52 0f2c 	orrs.w	pc, r2, ip, asr #32
    c882:	96ec      	str	r6, [sp, #944]	@ 0x3b0
    c884:	ef00 8982 	vmla.i8	d8, d16, d2
    c888:	16e4      	asrs	r4, r4, #27
    c88a:	06d0      	lsls	r0, r2, #27
    c88c:	0720      	lsls	r0, r4, #28
    c88e:	ed02 0e60 	stc	14, cr0, [r2, #-384]	@ 0xfffffe80
    c892:	6852      	ldr	r2, [r2, #4]
    c894:	d018      	beq.n	0xc8c8
    c896:	9028      	str	r0, [sp, #160]	@ 0xa0
    c898:	6ec0      	ldr	r0, [r0, #108]	@ 0x6c
    c89a:	f009 6e2e 	and.w	lr, r9, #182452224	@ 0xae00000
    c89e:	6d01      	ldr	r1, [r0, #80]	@ 0x50
    c8a0:	7200      	strb	r0, [r0, #8]
    c8a2:	d020      	beq.n	0xc8e6
    c8a4:	e60e      	b.n	0xc4c4
    c8a6:	8520      	strh	r0, [r4, #40]	@ 0x28
    c8a8:	00c0      	lsls	r0, r0, #3
    c8aa:	f2ce 16e0 	movt	r6, #57824	@ 0xe1e0
    c8ae:	06d0      	lsls	r0, r2, #27
    c8b0:	0720      	lsls	r0, r4, #28
    c8b2:	ed02 0e60 	stc	14, cr0, [r2, #-384]	@ 0xfffffe80
    c8b6:	4852      	ldr	r0, [pc, #328]	@ (0xca00)
    c8b8:	0478      	lsls	r0, r7, #17
    c8ba:	016e      	lsls	r6, r5, #5
    c8bc:	006d      	lsls	r5, r5, #1
    c8be:	2072      	movs	r0, #114	@ 0x72
    c8c0:	0ed0      	lsrs	r0, r2, #27
    c8c2:	20e6      	movs	r0, #230	@ 0xe6
    c8c4:	4685      	mov	sp, r0
    c8c6:	1870      	adds	r0, r6, r1
    c8c8:	37e0      	adds	r7, #224	@ 0xe0
    c8ca:	05df      	lsls	r7, r3, #23
    c8cc:	dff1      	svc	241	@ 0xf1
    c8ce:	67f8      	str	r0, [r7, #124]	@ 0x7c
    c8d0:	e16f      	b.n	0xcbb2
    c8d2:	d016      	beq.n	0xc902
    c8d4:	2006      	movs	r0, #6
    c8d6:	0207      	lsls	r7, r0, #8
    c8d8:	60ed      	str	r5, [r5, #12]
    c8da:	520e      	strh	r6, [r1, r0]
    c8dc:	1868      	adds	r0, r5, r1
    c8de:	8c20      	ldrh	r0, [r4, #32]
    c8e0:	b800      			@ <UNDEFINED> instruction: 0xb800
    c8e2:	9313      	str	r3, [sp, #76]	@ 0x4c
    c8e4:	7de4      	ldrb	r4, [r4, #23]
    c8e6:	2134      	movs	r1, #52	@ 0x34
    c8e8:	de49      	udf	#73	@ 0x49
    c8ea:	a447      	add	r4, pc, #284	@ (adr r4, 0xca08)
    c8ec:	7060      	strb	r0, [r4, #1]
    c8ee:	6e54      	ldr	r4, [r2, #100]	@ 0x64
    c8f0:	6d01      	ldr	r1, [r0, #80]	@ 0x50
    c8f2:	7200      	strb	r0, [r0, #8]
    c8f4:	d020      	beq.n	0xc938
    c8f6:	e60e      	b.n	0xc516
    c8f8:	8520      	strh	r0, [r4, #40]	@ 0x28
    c8fa:	d284      	bcs.n	0xc806
    c8fc:	6028      	str	r0, [r5, #0]
    c8fe:	6e2e      	ldr	r6, [r5, #96]	@ 0x60
    c900:	6d01      	ldr	r1, [r0, #80]	@ 0x50
    c902:	7200      	strb	r0, [r0, #8]
    c904:	d020      	beq.n	0xc948
    c906:	e60e      	b.n	0xc526
    c908:	8520      	strh	r0, [r4, #40]	@ 0x28
    c90a:	0186      	lsls	r6, r0, #6
    c90c:	18d2      	adds	r2, r2, r3
    c90e:	16e0      	asrs	r0, r4, #27
    c910:	af51      	add	r7, sp, #324	@ 0x144
    c912:	100e      	asrs	r6, r1, #32
    c914:	7fa3      	ldrb	r3, [r4, #30]
    c916:	8d29      	ldrh	r1, [r5, #40]	@ 0x28
    c918:	4100      	asrs	r0, r0
    c91a:	4011      	ands	r1, r2
    c91c:	0ca1      	lsrs	r1, r4, #18
    c91e:	3200      	adds	r2, #0
    c920:	1323      	asrs	r3, r4, #12
    c922:	0021      	movs	r1, r4
    c924:	d298      	bcs.n	0xc858
    c926:	4018      	ands	r0, r3
    c928:	2112      	movs	r1, #18
    c92a:	982e      	ldr	r0, [sp, #184]	@ 0xb8
    c92c:	018c      	lsls	r4, r1, #6
    c92e:	210e      	movs	r1, #14
    c930:	de9a      	udf	#154	@ 0x9a
    c932:	08d2      	lsrs	r2, r2, #3
    c934:	10a0      	asrs	r0, r4, #2
    c936:	c16e      	stmia	r1!, {r1, r2, r3, r5, r6}
    c938:	008c      	lsls	r4, r1, #2
    c93a:	fb80 4465 			@ <UNDEFINED> instruction: 0xfb804465
    c93e:	028d      	lsls	r5, r1, #10
    c940:	0a12      	lsrs	r2, r2, #8
    c942:	0d01      	lsrs	r1, r0, #20
    c944:	000a      	movs	r2, r1
    c946:	9547      	str	r5, [sp, #284]	@ 0x11c
    c948:	0b59      	lsrs	r1, r3, #13
    c94a:	d446      	bmi.n	0xc9da
    c94c:	2018      	movs	r0, #24
    c94e:	00a1      	lsls	r1, r4, #2
    c950:	a0d0      	add	r0, pc, #832	@ (adr r0, 0xcc94)
    c952:	7000      	strb	r0, [r0, #0]
    c954:	9954      	ldr	r1, [sp, #336]	@ 0x150
    c956:	609a      	str	r2, [r3, #8]
    c958:	0c34      	lsrs	r4, r6, #16
    c95a:	c803      	ldmia	r0, {r0, r1}
    c95c:	4613      	mov	r3, r2
    c95e:	1083      	asrs	r3, r0, #2
    c960:	0a0d      	lsrs	r5, r1, #8
    c962:	4700      	bx	r0
    c964:	c985      	ldmia	r1!, {r0, r2, r7}
    c966:	30a7      	adds	r0, #167	@ 0xa7
    c968:	5470      	strb	r0, [r6, r1]
    c96a:	7198      	strb	r0, [r3, #6]
    c96c:	c346      	stmia	r3!, {r1, r2, r6}
    c96e:	2000      	movs	r0, #0
    c970:	1532      	asrs	r2, r6, #20
    c972:	2346      	movs	r3, #70	@ 0x46
    c974:	010a      	lsls	r2, r1, #4
    c976:	0a0d      	lsrs	r5, r1, #8
    c978:	4700      	bx	r0
    c97a:	0985      	lsrs	r5, r0, #6
    c97c:	4465      	add	r5, ip
    c97e:	008d      	lsls	r5, r1, #2
    c980:	2139      	movs	r1, #57	@ 0x39
    c982:	debe      	udf	#190	@ 0xbe
    c984:	018d      	lsls	r5, r1, #6
    c986:	2123      	movs	r1, #35	@ 0x23
    c988:	dde2      	ble.n	0xc950
    c98a:	008c      	lsls	r4, r1, #2
    c98c:	2117      	movs	r1, #23
    c98e:	9789      	str	r7, [sp, #548]	@ 0x224
    c990:	018d      	lsls	r5, r1, #6
    c992:	510b      	str	r3, [r1, r4]
    c994:	1eaf      	subs	r7, r5, #2
    c996:	8980      	ldrh	r0, [r0, #12]
    c998:	30a1      	adds	r0, #161	@ 0xa1
    c99a:	5470      	strb	r0, [r6, r1]
    c99c:	a7ee      	add	r7, pc, #952	@ (adr r7, 0xcd58)
    c99e:	7020      	strb	r0, [r4, #0]
    c9a0:	0a44      	lsrs	r4, r0, #9
    c9a2:	4700      	bx	r0
    c9a4:	3465      	adds	r4, #101	@ 0x65
    c9a6:	2021      	movs	r0, #33	@ 0x21
    c9a8:	46da      	mov	sl, fp
    c9aa:	8314      	strh	r4, [r2, #24]
    c9ac:	1da2      	adds	r2, r4, #6
    c9ae:	b513      	push	{r0, r1, r4, lr}
    c9b0:	346d      	adds	r4, #109	@ 0x6d
    c9b2:	9021      	str	r0, [sp, #132]	@ 0x84
    c9b4:	4694      	mov	ip, r2
    c9b6:	8314      	strh	r4, [r2, #24]
    c9b8:	e962 0a3f 	strd	r0, sl, [r2, #-252]!	@ 0xfc
    c9bc:	4703      	bx	r0
    c9be:	5465      	strb	r5, [r4, r1]
    c9c0:	060c      	lsls	r4, r1, #24
    c9c2:	06c8      	lsls	r0, r1, #27
    c9c4:	f546 6ece 	adc.w	lr, r6, #1648	@ 0x670
    c9c8:	9cc1      	ldr	r4, [sp, #772]	@ 0x304
    c9ca:	8000      	strh	r0, [r0, #0]
    c9cc:	25fb      	movs	r5, #251	@ 0xfb
    c9ce:	986c      	ldr	r0, [sp, #432]	@ 0x1b0
    c9d0:	cc0e      	ldmia	r4!, {r1, r2, r3}
    c9d2:	03e8      	lsls	r0, r5, #15
    c9d4:	4eb8      	ldr	r6, [pc, #736]	@ (0xccb8)
    c9d6:	9004      	str	r0, [sp, #16]
    c9d8:	18de      	adds	r6, r3, r3
    c9da:	3430      	adds	r4, #48	@ 0x30
    c9dc:	afed      	add	r7, sp, #948	@ 0x3b4
    c9de:	010e      	lsls	r6, r1, #4
    c9e0:	2138      	movs	r1, #56	@ 0x38
    c9e2:	de5e      	udf	#94	@ 0x5e
    c9e4:	018d      	lsls	r5, r1, #6
    c9e6:	0a2c      	lsrs	r4, r5, #8
    c9e8:	4701      	bx	r0
    c9ea:	00a4      	lsls	r4, r4, #2
    c9ec:	5470      	strb	r0, [r6, r1]
    c9ee:	1446      	asrs	r6, r0, #17
    c9f0:	9e33      	ldr	r6, [sp, #204]	@ 0xcc
    c9f2:	c31d      	stmia	r3!, {r0, r2, r3, r4}
    c9f4:	6db0      	ldr	r0, [r6, #88]	@ 0x58
    c9f6:	2144      	movs	r1, #68	@ 0x44
    c9f8:	95e8      	str	r5, [sp, #928]	@ 0x3a0
    c9fa:	f546 6ece 	adc.w	lr, r6, #1648	@ 0x670
    c9fe:	8cc1      	ldrh	r1, [r0, #38]	@ 0x26
    ca00:	8000      	strh	r0, [r0, #0]
    ca02:	222b      	movs	r2, #43	@ 0x2b
    ca04:	926c      	str	r2, [sp, #432]	@ 0x1b0
    ca06:	cc0e      	ldmia	r4!, {r1, r2, r3}
    ca08:	03e8      	lsls	r0, r5, #15
    ca0a:	11b8      	asrs	r0, r7, #6
    ca0c:	86c2      	strh	r2, [r0, #54]	@ 0x36
    ca0e:	c0e9      	stmia	r0!, {r0, r3, r5, r6, r7}
    ca10:	3e8c      	subs	r6, #140	@ 0x8c
    ca12:	fc80 16e2 	stc2	6, cr1, [r0], {226}	@ 0xe2
    ca16:	09cc      	lsrs	r4, r1, #7
    ca18:	b800      			@ <UNDEFINED> instruction: 0xb800
    ca1a:	c23d      	stmia	r2!, {r0, r2, r3, r4, r5}
    ca1c:	e986 8cc0 			@ <UNDEFINED> instruction: 0xe9868cc0
    ca20:	803e      	strh	r6, [r7, #0]
    ca22:	22cb      	movs	r2, #203	@ 0xcb
    ca24:	926c      	str	r2, [sp, #432]	@ 0x1b0
    ca26:	cc0e      	ldmia	r4!, {r1, r2, r3}
    ca28:	03e8      	lsls	r0, r5, #15
    ca2a:	1bd8      	subs	r0, r3, r7
    ca2c:	e221      	b.n	0xce72
    ca2e:	8d96      	ldrh	r6, [r2, #44]	@ 0x2c
    ca30:	0f00      	lsrs	r0, r0, #28
    ca32:	d446      	bmi.n	0xcac2
    ca34:	6008      	str	r0, [r1, #0]
    ca36:	6310      	str	r0, [r2, #48]	@ 0x30
    ca38:	e956 d016 	ldrd	sp, r0, [r6, #-88]	@ 0x58
    ca3c:	2006      	movs	r0, #6
    ca3e:	0207      	lsls	r7, r0, #8
    ca40:	60ed      	str	r5, [r5, #12]
    ca42:	520e      	strh	r6, [r1, r0]
    ca44:	2ce8      	cmp	r4, #232	@ 0xe8
    ca46:	cc0e      	ldmia	r4!, {r1, r2, r3}
    ca48:	ffff e4c9 	vmls.i<illegal width 64>	q15, <illegal reg q15.5>, d9[0]
    ca4c:	16e0      	asrs	r0, r4, #27
    ca4e:	06d0      	lsls	r0, r2, #27
    ca50:	0720      	lsls	r0, r4, #28
    ca52:	ed02 0e60 	stc	14, cr0, [r2, #-384]	@ 0xfffffe80
    ca56:	e852 e22c 			@ <UNDEFINED> instruction: 0xe852e22c
    ca5a:	16e8      	asrs	r0, r5, #27
    ca5c:	06d0      	lsls	r0, r2, #27
    ca5e:	0720      	lsls	r0, r4, #28
    ca60:	ce02      	ldmia	r6!, {r1}
    ca62:	dc21      	bgt.n	0xcaa8
    ca64:	60ed      	str	r5, [r5, #12]
    ca66:	520e      	strh	r6, [r1, r0]
    ca68:	2ce8      	cmp	r4, #232	@ 0xe8
    ca6a:	ec1f 0096 	ldc	0, cr0, [pc], {150}	@ 0x96
    ca6e:	92ef      	str	r2, [sp, #956]	@ 0x3bc
    ca70:	0999      	lsrs	r1, r3, #6
    ca72:	016e      	lsls	r6, r5, #5
    ca74:	006d      	lsls	r5, r5, #1
    ca76:	2072      	movs	r0, #114	@ 0x72
    ca78:	0ed0      	lsrs	r0, r2, #27
    ca7a:	20e6      	movs	r0, #230	@ 0xe6
    ca7c:	8685      	strh	r5, [r0, #52]	@ 0x34
    ca7e:	8d01      	ldrh	r1, [r0, #40]	@ 0x28
    ca80:	5a02      	ldrh	r2, [r0, r0]
    ca82:	c16e      	stmia	r1!, {r1, r2, r3, r5, r6}
    ca84:	009c      	lsls	r4, r3, #2
    ca86:	4b80      	ldr	r3, [pc, #512]	@ (0xcc88)
    ca88:	4464      	add	r4, ip
    ca8a:	028d      	lsls	r5, r1, #10
    ca8c:	0a29      	lsrs	r1, r5, #8
    ca8e:	0d01      	lsrs	r1, r0, #20
    ca90:	1446      	asrs	r6, r0, #17
    ca92:	9413      	str	r4, [sp, #76]	@ 0x4c
    ca94:	a31d      	add	r3, pc, #116	@ (adr r3, 0xcb0c)
    ca96:	6da6      	ldr	r6, [r4, #88]	@ 0x58
    ca98:	2144      	movs	r1, #68	@ 0x44
    ca9a:	9546      	str	r5, [sp, #280]	@ 0x118
    ca9c:	000a      	movs	r2, r1
    ca9e:	8cef      	ldrh	r7, [r5, #38]	@ 0x26
    caa0:	6129      	str	r1, [r5, #16]
    caa2:	8d44      	ldrh	r4, [r0, #42]	@ 0x2a
    caa4:	0901      	lsrs	r1, r0, #4
    caa6:	1446      	asrs	r6, r0, #17
    caa8:	92b3      	str	r2, [sp, #716]	@ 0x2cc
    caaa:	6ecd      	ldr	r5, [r1, #108]	@ 0x6c
    caac:	f009 6e2e 	and.w	lr, r9, #182452224	@ 0xae00000
    cab0:	6d01      	ldr	r1, [r0, #80]	@ 0x50
    cab2:	7200      	strb	r0, [r0, #8]
    cab4:	d020      	beq.n	0xcaf8
    cab6:	e60e      	b.n	0xc6d6
    cab8:	8520      	strh	r0, [r4, #40]	@ 0x28
    caba:	00c0      	lsls	r0, r0, #3
    cabc:	f2ce 16e0 	movt	r6, #57824	@ 0xe1e0
    cac0:	06d0      	lsls	r0, r2, #27
    cac2:	0720      	lsls	r0, r4, #28
    cac4:	ed02 0e60 	stc	14, cr0, [r2, #-384]	@ 0xfffffe80
    cac8:	4852      	ldr	r0, [pc, #328]	@ (0xcc14)
    caca:	0478      	lsls	r0, r7, #17
    cacc:	016e      	lsls	r6, r5, #5
    cace:	006d      	lsls	r5, r5, #1
    cad0:	2072      	movs	r0, #114	@ 0x72
    cad2:	0ed0      	lsrs	r0, r2, #27
    cad4:	20e6      	movs	r0, #230	@ 0xe6
    cad6:	4685      	mov	sp, r0
    cad8:	1870      	adds	r0, r6, r1
    cada:	67e0      	str	r0, [r4, #124]	@ 0x7c
    cadc:	08cf      	lsrs	r7, r1, #3
    cade:	df10      	svc	16
    cae0:	d04f      	beq.n	0xcb82
    cae2:	47e9      			@ <UNDEFINED> instruction: 0x47e9
    cae4:	0460      	lsls	r0, r4, #17
    cae6:	08c2      	lsrs	r2, r0, #3
    cae8:	0940      	lsrs	r0, r0, #5
    caea:	9c04      	ldr	r4, [sp, #16]
    caec:	047e      	lsls	r6, r7, #17
    caee:	d046      	beq.n	0xcb7e
    caf0:	e028      	b.n	0xcb44
    caf2:	d045      	beq.n	0xcb80
    caf4:	47e9      			@ <UNDEFINED> instruction: 0x47e9
    caf6:	6c20      	ldr	r0, [r4, #64]	@ 0x40
    caf8:	0e9e      	lsrs	r6, r3, #26
    cafa:	e8cc b803 			@ <UNDEFINED> instruction: 0xe8ccb803
    cafe:	2117      	movs	r1, #23
    cb00:	9654      	str	r6, [sp, #336]	@ 0x150
    cb02:	6047      	str	r7, [r0, #4]
    cb04:	8d04      	ldrh	r4, [r0, #40]	@ 0x28
    cb06:	0500      	lsls	r0, r0, #20
    cb08:	b411      	push	{r0, r4}
    cb0a:	6c20      	ldr	r0, [r4, #64]	@ 0x40
    cb0c:	0e9e      	lsrs	r6, r3, #26
    cb0e:	ffcc c8ff 			@ <UNDEFINED> instruction: 0xffccc8ff
    cb12:	c242      	stmia	r2!, {r1, r6}
    cb14:	e9e6 4520 	strd	r4, r5, [r6, #128]!	@ 0x80
    cb18:	0001      	movs	r1, r0
    cb1a:	ec49 0096 	mcrr	0, 9, r0, r9, cr6
    cb1e:	82ef      	strh	r7, [r5, #22]
    cb20:	4259      	negs	r1, r3
    cb22:	e9d0 6047 	ldrd	r6, r0, [r0, #284]	@ 0x11c
    cb26:	8d04      	ldrh	r4, [r0, #40]	@ 0x28
    cb28:	0902      	lsrs	r2, r0, #4
    cb2a:	96ec      	str	r6, [sp, #944]	@ 0x3b0
    cb2c:	ef00 0c02 			@ <UNDEFINED> instruction: 0xef000c02
    cb30:	6d20      	ldr	r0, [r4, #80]	@ 0x50
    cb32:	0e9e      	lsrs	r6, r3, #26
    cb34:	9c04      	ldr	r4, [sp, #16]
    cb36:	047e      	lsls	r6, r7, #17
    cb38:	5046      	str	r6, [r0, r1]
    cb3a:	e9d0 01df 	ldrd	r0, r1, [r0, #892]	@ 0x37c
    cb3e:	04f1      	lsls	r1, r6, #19
    cb40:	cea3      	ldmia	r6!, {r0, r1, r5, r7}
    cb42:	8008      	strh	r0, [r1, #0]
    cb44:	2046      	movs	r0, #70	@ 0x46
    cb46:	8dea      	ldrh	r2, [r5, #46]	@ 0x2e
    cb48:	3e02      	subs	r6, #2
    cb4a:	a304      	add	r3, pc, #16	@ (adr r3, 0xcb5c)
    cb4c:	18de      	adds	r6, r3, r3
    cb4e:	1050      	asrs	r0, r2, #1
    cb50:	c580      	stmia	r5!, {r7}
    cb52:	46c2      	mov	sl, r8
    cb54:	c0ea      	stmia	r0!, {r1, r3, r5, r6, r7}
    cb56:	fffc cc8f 	vmull.u<illegal width 64>	q14, d28, d15
    cb5a:	6c23      	ldr	r3, [r4, #64]	@ 0x40
    cb5c:	0ea4      	lsrs	r4, r4, #26
    cb5e:	1452      	asrs	r2, r2, #17
    cb60:	9000      	str	r0, [sp, #0]
    cb62:	6ec4      	ldr	r4, [r0, #108]	@ 0x6c
    cb64:	f009 982e 	b.w	0x815bc4
    cb68:	041f      	lsls	r7, r3, #16
    cb6a:	dea3      	udf	#163	@ 0xa3
    cb6c:	9028      	str	r0, [sp, #160]	@ 0xa0
    cb6e:	6ec0      	ldr	r0, [r0, #108]	@ 0x6c
    cb70:	f009 c02e 	blx	0xc15bd0
    cb74:	d200      	bcs.n	0xcb78
    cb76:	ea46 2040 	orr.w	r0, r6, r0, lsl #9
    cb7a:	05ea      	lsls	r2, r5, #23
    cb7c:	0ea3      	lsrs	r3, r4, #26
    cb7e:	04f1      	lsls	r1, r6, #19
    cb80:	cea9      	ldmia	r6!, {r0, r3, r5, r7}
    cb82:	8008      	strh	r0, [r1, #0]
    cb84:	8046      	strh	r6, [r0, #2]
    cb86:	8dea      	ldrh	r2, [r5, #46]	@ 0x2e
    cb88:	3e02      	subs	r6, #2
    cb8a:	a904      	add	r1, sp, #16
    cb8c:	18de      	adds	r6, r3, r3
    cb8e:	1050      	asrs	r0, r2, #1
    cb90:	02d0      	lsls	r0, r2, #11
    cb92:	a6c2      	add	r6, pc, #776	@ (adr r6, 0xce9c)
    cb94:	c0ea      	stmia	r0!, {r1, r3, r5, r6, r7}
    cb96:	fffc cc8f 	vmull.u<illegal width 64>	q14, d28, d15
    cb9a:	6c23      	ldr	r3, [r4, #64]	@ 0x40
    cb9c:	0eaa      	lsrs	r2, r5, #26
    cb9e:	1452      	asrs	r2, r2, #17
    cba0:	9000      	str	r0, [sp, #0]
    cba2:	6ec4      	ldr	r4, [r0, #108]	@ 0x6c
    cba4:	f009 982e 	b.w	0x815c04
    cba8:	041f      	lsls	r7, r3, #16
    cbaa:	dea9      	udf	#169	@ 0xa9
    cbac:	9028      	str	r0, [sp, #160]	@ 0xa0
    cbae:	6ec0      	ldr	r0, [r0, #108]	@ 0x6c
    cbb0:	f009 c02e 	blx	0xc15c10
    cbb4:	d200      	bcs.n	0xcbb8
    cbb6:	eaa6 8040 			@ <UNDEFINED> instruction: 0xeaa68040
    cbba:	05ea      	lsls	r2, r5, #23
    cbbc:	0ea9      	lsrs	r1, r5, #26
    cbbe:	dff1      	svc	241	@ 0xf1
    cbc0:	601f      	str	r7, [r3, #0]
    cbc2:	8db3      	ldrh	r3, [r6, #44]	@ 0x2c
    cbc4:	4801      	ldr	r0, [pc, #4]	@ (0xcbcc)
    cbc6:	6821      	ldr	r1, [r4, #0]
    cbc8:	0cf7      	lsrs	r7, r6, #19
    cbca:	2200      	movs	r2, #0
    cbcc:	1393      	asrs	r3, r2, #14
    cbce:	b2d0      	uxtb	r0, r2
    cbd0:	6047      	str	r7, [r0, #4]
    cbd2:	8d04      	ldrh	r4, [r0, #40]	@ 0x28
    cbd4:	0900      	lsrs	r0, r0, #4
    cbd6:	010a      	lsls	r2, r1, #4
    cbd8:	fe0d 00a3 	cdp2	0, 0, cr0, cr13, cr3, {5}
    cbdc:	0470      	lsls	r0, r6, #17
    cbde:	1046      	asrs	r6, r0, #1
    cbe0:	ad50      	add	r5, sp, #320	@ 0x140
    cbe2:	1046      	asrs	r6, r0, #1
    cbe4:	26b3      	movs	r6, #179	@ 0xb3
    cbe6:	00a9      	lsls	r1, r5, #2
    cbe8:	cef0      	ldmia	r6, {r4, r5, r6, r7}
    cbea:	01df      	lsls	r7, r3, #7
    cbec:	cff1      	ldmia	r7, {r0, r4, r5, r6, r7}
    cbee:	21f3      	movs	r1, #243	@ 0xf3
    cbf0:	db41      	blt.n	0xcc76
    cbf2:	6847      	ldr	r7, [r0, #4]
    cbf4:	8d84      	ldrh	r4, [r0, #44]	@ 0x2c
    cbf6:	6701      	str	r1, [r0, #112]	@ 0x70
    cbf8:	06c2      	lsls	r2, r0, #27
    cbfa:	20eb      	movs	r0, #235	@ 0xeb
    cbfc:	0145      	lsls	r5, r0, #5
    cbfe:	4900      	ldr	r1, [pc, #0]	@ (0xcc00)
    cc00:	06c2      	lsls	r2, r0, #27
    cc02:	f0eb 4296 			@ <UNDEFINED> instruction: 0xf0eb4296
    cc06:	b6f0      			@ <UNDEFINED> instruction: 0xb6f0
    cc08:	f96e 6e06 			@ <UNDEFINED> instruction: 0xf96e6e06
    cc0c:	26fb      	movs	r6, #251	@ 0xfb
    cc0e:	30ec      	adds	r0, #236	@ 0xec
    cc10:	6f75      	ldr	r5, [r6, #116]	@ 0x74
    cc12:	0c04      	lsrs	r4, r0, #16
    cc14:	66f0      	str	r0, [r6, #108]	@ 0x6c
    cc16:	c211      	stmia	r2!, {r0, r4}
    cc18:	de80      	udf	#128	@ 0x80
    cc1a:	00a2      	lsls	r2, r4, #2
    cc1c:	8470      	strh	r0, [r6, #34]	@ 0x22
    cc1e:	1846      	adds	r6, r0, r1
    cc20:	7b33      	ldrb	r3, [r6, #12]
    cc22:	c31d      	stmia	r3!, {r0, r2, r3, r4}
    cc24:	6d8d      	ldr	r5, [r1, #88]	@ 0x58
    cc26:	2184      	movs	r1, #132	@ 0x84
    cc28:	93b8      	str	r3, [sp, #736]	@ 0x2e0
    cc2a:	05fe      	lsls	r6, r7, #23
    cc2c:	200c      	movs	r0, #12
    cc2e:	b06d      	add	sp, #436	@ 0x1b4
    cc30:	cf0e      	ldmia	r7!, {r1, r2, r3}
    cc32:	100d      	asrs	r5, r1, #32
    cc34:	fcdf 4f07 	ldc2l	15, cr4, [pc], {7}
    cc38:	97e2      	str	r7, [sp, #904]	@ 0x388
    cc3a:	3d6e      	subs	r5, #110	@ 0x6e
    cc3c:	63d6      	str	r6, [r2, #60]	@ 0x3c
    cc3e:	74e8      	strb	r0, [r5, #19]
    cc40:	7e0f      	ldrb	r7, [r1, #24]
    cc42:	f6eb 3d63 			@ <UNDEFINED> instruction: 0xf6eb3d63
    cc46:	8786      	strh	r6, [r0, #60]	@ 0x3c
    cc48:	9702      	str	r7, [sp, #8]
    cc4a:	cc03      	ldmia	r4!, {r0, r1}
    cc4c:	0000      	movs	r0, r0
    cc4e:	10b8      	asrs	r0, r7, #2
    cc50:	dc1e      	bgt.n	0xcc90
    cc52:	0000      	movs	r0, r0
    cc54:	3422      	adds	r4, #34	@ 0x22
    cc56:	1080      	asrs	r0, r0, #2
    cc58:	e24e      	b.n	0xd0f8
    cc5a:	df07      	svc	7
    cc5c:	f104 7fcd 	add.w	pc, r4, #26869760	@ 0x19a0000
    cc60:	24f0      	movs	r4, #240	@ 0xf0
    cc62:	e97e 73d6 	ldrd	r7, r3, [lr, #-856]!	@ 0x358
    cc66:	873d      	strh	r5, [r7, #56]	@ 0x38
    cc68:	f74e b7e0 	b.w	0xffb5bc2c
    cc6c:	3f6e      	subs	r7, #110	@ 0x6e
    cc6e:	73d7      	strb	r7, [r2, #15]
    cc70:	2878      	cmp	r0, #120	@ 0x78
    cc72:	3970      	subs	r1, #112	@ 0x70
    cc74:	0cc0      	lsrs	r0, r0, #19
    cc76:	8000      	strh	r0, [r0, #0]
    cc78:	e10b      	b.n	0xce92
    cc7a:	0dc1      	lsrs	r1, r0, #23
    cc7c:	2000      	movs	r0, #0
    cc7e:	0342      	lsls	r2, r0, #13
    cc80:	e108      	b.n	0xce94
    cc82:	7e24      	ldrb	r4, [r4, #24]
    cc84:	4df0      	ldr	r5, [pc, #960]	@ (0xd048)
    cc86:	df10      	svc	16
    cc88:	07fc      	lsls	r4, r7, #31
    cc8a:	e24f      	b.n	0xd12c
    cc8c:	6eb7      	ldr	r7, [r6, #104]	@ 0x68
    cc8e:	8229      	strh	r1, [r5, #16]
    cc90:	2922      	cmp	r1, #34	@ 0x22
    cc92:	22a2      	movs	r2, #162	@ 0xa2
    cc94:	0dcb      	lsrs	r3, r1, #23
    cc96:	9000      	str	r0, [sp, #0]
    cc98:	cc72      	ldmia	r4, {r1, r4, r5, r6}
    cc9a:	0000      	movs	r0, r0
    cc9c:	2219      	movs	r2, #25
    cc9e:	f029 f74e 	bl	0x436b3e
    cca2:	2a70      	cmp	r2, #112	@ 0x70
    cca4:	3b70      	subs	r3, #112	@ 0x70
    cca6:	24e0      	movs	r4, #224	@ 0xe0
    cca8:	f07e 104d 	orns	r0, lr, #5046349	@ 0x4d004d
    ccac:	c56e      	stmia	r5!, {r1, r2, r3, r5, r6}
    ccae:	000c      	movs	r4, r1
    ccb0:	4390      	bics	r0, r2
    ccb2:	c36e      	stmia	r3!, {r1, r2, r3, r5, r6}
    ccb4:	000c      	movs	r4, r1
    ccb6:	c100      	stmia	r1!, {}
    ccb8:	8100      	strh	r0, [r0, #8]
    ccba:	205d      	movs	r0, #93	@ 0x5d
    ccbc:	1004      	asrs	r4, r0, #32
    ccbe:	7fdf      	ldrb	r7, [r3, #31]
    ccc0:	2a06      	cmp	r2, #6
    ccc2:	c46e      	stmia	r4!, {r1, r2, r3, r5, r6}
    ccc4:	8082      	strh	r2, [r0, #4]
    ccc6:	a07d      	add	r0, pc, #500	@ (adr r0, 0xcebc)
    ccc8:	8584      	strh	r4, [r0, #44]	@ 0x2c
    ccca:	ac82      	add	r4, sp, #520	@ 0x208
    cccc:	0c00      	lsrs	r0, r0, #16
    ccce:	2d32      	cmp	r5, #50	@ 0x32
    ccd0:	28c2      	cmp	r0, #194	@ 0xc2
    ccd2:	a29f      	add	r2, pc, #636	@ (adr r2, 0xcf50)
    ccd4:	00cc      	lsls	r4, r1, #3
    ccd6:	6600      	str	r0, [r0, #96]	@ 0x60
    ccd8:	1df0      	adds	r0, r6, #7
    ccda:	df10      	svc	16
    ccdc:	07fe      	lsls	r6, r7, #31
    ccde:	e77e      	b.n	0xcbde
    cce0:	82b6      	strh	r6, [r6, #20]
    cce2:	ab85      	add	r3, sp, #532	@ 0x214
    cce4:	57e1      	ldrsb	r1, [r4, r7]
    cce6:	396e      	subs	r1, #110	@ 0x6e
    cce8:	56da      	ldrsb	r2, [r3, r3]
    ccea:	422a      	tst	r2, r5
    ccec:	8206      	strh	r6, [r0, #16]
    ccee:	1fe6      	subs	r6, r4, #7
    ccf0:	e582      	b.n	0xc7f8
    ccf2:	df07      	svc	7
    ccf4:	f102 55aa 	add.w	r5, r2, #356515840	@ 0x15400000
    ccf8:	33cc      	adds	r3, #204	@ 0xcc
    ccfa:	0100      	lsls	r0, r0, #4
    ccfc:	004c      	lsls	r4, r1, #1
    ccfe:	f8df 7f66 	ldr.w	r7, [pc, #3942]	@ 0xdc66
    cd02:	24f4      	movs	r4, #244	@ 0xf4
    cd04:	605f      	str	r7, [r3, #4]
    cd06:	20c0      	movs	r0, #192	@ 0xc0
    cd08:	40c0      	lsrs	r0, r0
    cd0a:	08b9      	lsrs	r1, r7, #2
    cd0c:	00a0      	lsls	r0, r4, #2
    cd0e:	c072      	stmia	r0!, {r1, r4, r5, r6}
    cd10:	c060      	stmia	r0!, {r5, r6}
    cd12:	c020      	stmia	r0!, {r5}
    cd14:	a910      	add	r1, sp, #64	@ 0x40
    cd16:	2ff2      	cmp	r7, #242	@ 0xf2
    cd18:	c280      	stmia	r2!, {r7}
    cd1a:	d07c      	beq.n	0xce16
    cd1c:	20a0      	movs	r0, #160	@ 0xa0
    cd1e:	c070      	stmia	r0!, {r4, r5, r6}
    cd20:	c060      	stmia	r0!, {r5, r6}
    cd22:	c020      	stmia	r0!, {r5}
    cd24:	a910      	add	r1, sp, #64	@ 0x40
    cd26:	7ff2      	ldrb	r2, [r6, #31]
    cd28:	a0d1      	add	r0, pc, #836	@ (adr r0, 0xd070)
    cd2a:	7020      	strb	r0, [r4, #0]
    cd2c:	00c0      	lsls	r0, r0, #3
    cd2e:	c060      	stmia	r0!, {r5, r6}
    cd30:	c020      	stmia	r0!, {r5}
    cd32:	a940      	add	r1, sp, #256	@ 0x100
    cd34:	2017      	movs	r0, #23
    cd36:	20c0      	movs	r0, #192	@ 0xc0
    cd38:	e8a9 e00f 	stmia.w	r9!, {r0, r1, r2, r3, sp, lr, pc}
    cd3c:	0264      	lsls	r4, r4, #9
    cd3e:	199a      	adds	r2, r3, r6
    cd40:	6efd      	ldr	r5, [r7, #108]	@ 0x6c
    cd42:	47e6      			@ <UNDEFINED> instruction: 0x47e6
    cd44:	e24e      	b.n	0xd1e4
    cd46:	cf05      	ldmia	r7!, {r0, r2}
    cd48:	3008      	adds	r0, #8
    cd4a:	7465      	strb	r5, [r4, #17]
