
SCE6010-D.3.0.5.dat:     file format binary


Disassembly of section .data:

00000000 <.data>:
       0:	ffff ffff 			@ <UNDEFINED> instruction: 0xffffffff
       4:	4760      	bx	ip
       6:	0000      	movs	r0, r0
       8:	4761      	bx	ip
       a:	0000      	movs	r0, r0
       c:	4762      	bx	ip
       e:	0000      	movs	r0, r0
      10:	4763      	bx	ip
      12:	0000      	movs	r0, r0
      14:	4764      	bxns	ip
      16:	0000      	movs	r0, r0
      18:	4765      	bx	ip
      1a:	0000      	movs	r0, r0
      1c:	483e      	ldr	r0, [pc, #248]	@ (0x118)
      1e:	0000      	movs	r0, r0
      20:	4792      			@ <UNDEFINED> instruction: 0x4792
      22:	0000      	movs	r0, r0
      24:	4793      			@ <UNDEFINED> instruction: 0x4793
      26:	0000      	movs	r0, r0
      28:	4794      	blxns	r2
      2a:	0000      	movs	r0, r0
      2c:	4795      			@ <UNDEFINED> instruction: 0x4795
      2e:	0000      	movs	r0, r0
      30:	483e      	ldr	r0, [pc, #248]	@ (0x12c)
      32:	0000      	movs	r0, r0
      34:	483e      	ldr	r0, [pc, #248]	@ (0x130)
      36:	0000      	movs	r0, r0
      38:	47c0      	blx	r8
      3a:	0000      	movs	r0, r0
      3c:	47e9      			@ <UNDEFINED> instruction: 0x47e9
      3e:	0000      	movs	r0, r0
      40:	47ea      			@ <UNDEFINED> instruction: 0x47ea
      42:	0000      	movs	r0, r0
      44:	47f5      			@ <UNDEFINED> instruction: 0x47f5
      46:	0000      	movs	r0, r0
      48:	47f6      			@ <UNDEFINED> instruction: 0x47f6
      4a:	0000      	movs	r0, r0
      4c:	4801      	ldr	r0, [pc, #4]	@ (0x54)
      4e:	0000      	movs	r0, r0
      50:	4802      	ldr	r0, [pc, #8]	@ (0x5c)
      52:	0000      	movs	r0, r0
      54:	4810      	ldr	r0, [pc, #64]	@ (0x98)
      56:	0000      	movs	r0, r0
      58:	481e      	ldr	r0, [pc, #120]	@ (0xd4)
      5a:	0000      	movs	r0, r0
      5c:	482c      	ldr	r0, [pc, #176]	@ (0x110)
      5e:	0000      	movs	r0, r0
      60:	483e      	ldr	r0, [pc, #248]	@ (0x15c)
      62:	0000      	movs	r0, r0
      64:	482d      	ldr	r0, [pc, #180]	@ (0x11c)
      66:	0000      	movs	r0, r0
      68:	483e      	ldr	r0, [pc, #248]	@ (0x164)
      6a:	0000      	movs	r0, r0
      6c:	482e      	ldr	r0, [pc, #184]	@ (0x128)
      6e:	0000      	movs	r0, r0
      70:	482f      	ldr	r0, [pc, #188]	@ (0x130)
      72:	0000      	movs	r0, r0
      74:	483d      	ldr	r0, [pc, #244]	@ (0x16c)
      76:	0000      	movs	r0, r0
      78:	483e      	ldr	r0, [pc, #248]	@ (0x174)
      7a:	0000      	movs	r0, r0
      7c:	bf38      	it	cc
      7e:	0000      	movcc	r0, r0
      80:	8c6d      	ldrh	r5, [r5, #34]	@ 0x22
      82:	0000      	movs	r0, r0
      84:	b8cf      			@ <UNDEFINED> instruction: 0xb8cf
      86:	0000      	movs	r0, r0
      88:	7d47      	ldrb	r7, [r0, #21]
      8a:	0000      	movs	r0, r0
      8c:	4b71      	ldr	r3, [pc, #452]	@ (0x254)
      8e:	0000      	movs	r0, r0
      90:	b21f      	sxth	r7, r3
      92:	0000      	movs	r0, r0
      94:	8dd9      	ldrh	r1, [r3, #46]	@ 0x2e
      96:	0000      	movs	r0, r0
      98:	8c2f      	ldrh	r7, [r5, #32]
      9a:	0000      	movs	r0, r0
      9c:	7c42      	ldrb	r2, [r0, #17]
      9e:	0000      	movs	r0, r0
      a0:	6ee1      	ldr	r1, [r4, #108]	@ 0x6c
      a2:	0000      	movs	r0, r0
      a4:	b3d1      	cbz	r1, 0x11c
      a6:	0000      	movs	r0, r0
      a8:	5458      	strb	r0, [r3, r1]
      aa:	0000      	movs	r0, r0
      ac:	7d82      	ldrb	r2, [r0, #22]
      ae:	0000      	movs	r0, r0
      b0:	a180      	add	r1, pc, #512	@ (adr r1, 0x2b4)
      b2:	0000      	movs	r0, r0
      b4:	a072      	add	r0, pc, #456	@ (adr r0, 0x280)
      b6:	0000      	movs	r0, r0
      b8:	6f5a      	ldr	r2, [r3, #116]	@ 0x74
      ba:	0000      	movs	r0, r0
      bc:	96cf      	str	r6, [sp, #828]	@ 0x33c
      be:	0000      	movs	r0, r0
      c0:	3005      	adds	r0, #5
      c2:	0005      	movs	r5, r0
      c4:	46dd      	mov	sp, fp
      c6:	7f86      	ldrb	r6, [r0, #30]
      c8:	0000      	movs	r0, r0
      ca:	020c      	lsls	r4, r1, #8
      cc:	0202      	lsls	r2, r0, #8
      ce:	0000      	movs	r0, r0
      d0:	0b02      	lsrs	r2, r0, #12
      d2:	3000      	adds	r0, #0
      d4:	0004      	movs	r4, r0
      d6:	0000      	movs	r0, r0
      d8:	aa00      	add	r2, sp, #0
      da:	496d      	ldr	r1, [pc, #436]	@ (0x290)
      dc:	4949      	ldr	r1, [pc, #292]	@ (0x204)
      de:	4949      	ldr	r1, [pc, #292]	@ (0x204)
      e0:	4949      	ldr	r1, [pc, #292]	@ (0x208)
      e2:	4949      	ldr	r1, [pc, #292]	@ (0x208)
      e4:	4949      	ldr	r1, [pc, #292]	@ (0x20c)
      e6:	4949      	ldr	r1, [pc, #292]	@ (0x20c)
      e8:	fc49 e04e 	mcrr2	0, 4, lr, r9, cr14
      ec:	e04e      	b.n	0x18c
      ee:	e04e      	b.n	0x18e
      f0:	e14e      	b.n	0x390
      f2:	e14e      	b.n	0x392
      f4:	154e      	asrs	r6, r1, #21
      f6:	e04f      	b.n	0x198
      f8:	e04e      	b.n	0x198
      fa:	e04e      	b.n	0x19a
      fc:	e04e      	b.n	0x19c
      fe:	e14e      	b.n	0x39e
     100:	e04e      	b.n	0x1a0
     102:	314e      	adds	r1, #78	@ 0x4e
     104:	5e4f      	ldrsh	r7, [r1, r1]
     106:	e14f      	b.n	0x3a8
     108:	e14e      	b.n	0x3a8
     10a:	e14e      	b.n	0x3aa
     10c:	7a4e      	ldrb	r6, [r1, #9]
     10e:	e04f      	b.n	0x1b0
     110:	e04e      	b.n	0x1b0
     112:	e04e      	b.n	0x1b2
     114:	974e      	str	r7, [sp, #312]	@ 0x138
     116:	e04f      	b.n	0x1b8
     118:	e04e      	b.n	0x1b8
     11a:	e04e      	b.n	0x1ba
     11c:	f74e e14f 	bf	1c, 0xe3bc
     120:	e04e      	b.n	0x1c0
     122:	e04e      	b.n	0x1c2
     124:	274e      	movs	r7, #78	@ 0x4e
     126:	e150      	b.n	0x3ca
     128:	e14e      	b.n	0x3c8
     12a:	e14e      	b.n	0x3ca
     12c:	e14e      	b.n	0x3cc
     12e:	e14e      	b.n	0x3ce
     130:	e14e      	b.n	0x3d0
     132:	e14e      	b.n	0x3d2
     134:	e14e      	b.n	0x3d4
     136:	e14e      	b.n	0x3d6
     138:	e14e      	b.n	0x3d8
     13a:	e14e      	b.n	0x3da
     13c:	e14e      	b.n	0x3dc
     13e:	e14e      	b.n	0x3de
     140:	e14e      	b.n	0x3e0
     142:	e14e      	b.n	0x3e2
     144:	464e      	mov	r6, r9
     146:	e050      	b.n	0x1ea
     148:	624e      	str	r6, [r1, #36]	@ 0x24
     14a:	e150      	b.n	0x3ee
     14c:	e14e      	b.n	0x3ec
     14e:	e14e      	b.n	0x3ee
     150:	974e      	str	r7, [sp, #312]	@ 0x138
     152:	e050      	b.n	0x1f6
     154:	e04e      	b.n	0x1f4
     156:	e04e      	b.n	0x1f6
     158:	e04e      	b.n	0x1f8
     15a:	e04e      	b.n	0x1fa
     15c:	e04e      	b.n	0x1fc
     15e:	e14e      	b.n	0x3fe
     160:	e04e      	b.n	0x200
     162:	e04e      	b.n	0x202
     164:	b14e      	cbz	r6, 0x17a
     166:	e150      	b.n	0x40a
     168:	e04e      	b.n	0x208
     16a:	e04e      	b.n	0x20a
     16c:	eb4e e150 			@ <UNDEFINED> instruction: 0xeb4ee150
     170:	474e      	bx	r9
     172:	e151      	b.n	0x418
     174:	e04e      	b.n	0x214
     176:	e04e      	b.n	0x216
     178:	e14e      	b.n	0x418
     17a:	e14e      	b.n	0x41a
     17c:	e14e      	b.n	0x41c
     17e:	e14e      	b.n	0x41e
     180:	e14e      	b.n	0x420
     182:	e14e      	b.n	0x422
     184:	e04e      	b.n	0x224
     186:	e04e      	b.n	0x226
     188:	e14e      	b.n	0x428
     18a:	e14e      	b.n	0x42a
     18c:	e04e      	b.n	0x22c
     18e:	e04e      	b.n	0x22e
     190:	a74e      	add	r7, pc, #312	@ (adr r7, 0x2cc)
     192:	e051      	b.n	0x238
     194:	e04e      	b.n	0x234
     196:	e04e      	b.n	0x236
     198:	e04e      	b.n	0x238
     19a:	e04e      	b.n	0x23a
     19c:	334e      	adds	r3, #78	@ 0x4e
     19e:	e152      	b.n	0x446
     1a0:	e14e      	b.n	0x440
     1a2:	e14e      	b.n	0x442
     1a4:	e04e      	b.n	0x244
     1a6:	e04e      	b.n	0x246
     1a8:	4d4e      	ldr	r5, [pc, #312]	@ (0x2e4)
     1aa:	e052      	b.n	0x252
     1ac:	e04e      	b.n	0x24c
     1ae:	e04e      	b.n	0x24e
     1b0:	e14e      	b.n	0x450
     1b2:	e14e      	b.n	0x452
     1b4:	e14e      	b.n	0x454
     1b6:	e14e      	b.n	0x456
     1b8:	e14e      	b.n	0x458
     1ba:	e14e      	b.n	0x45a
     1bc:	e14e      	b.n	0x45c
     1be:	e14e      	b.n	0x45e
     1c0:	e14e      	b.n	0x460
     1c2:	e14e      	b.n	0x462
     1c4:	e14e      	b.n	0x464
     1c6:	e14e      	b.n	0x466
     1c8:	e14e      	b.n	0x468
     1ca:	e14e      	b.n	0x46a
     1cc:	e14e      	b.n	0x46c
     1ce:	e14e      	b.n	0x46e
     1d0:	e14e      	b.n	0x470
     1d2:	e14e      	b.n	0x472
     1d4:	e14e      	b.n	0x474
     1d6:	e14e      	b.n	0x476
     1d8:	e14e      	b.n	0x478
     1da:	e14e      	b.n	0x47a
     1dc:	e14e      	b.n	0x47c
     1de:	e14e      	b.n	0x47e
     1e0:	e04e      	b.n	0x280
     1e2:	e04e      	b.n	0x282
     1e4:	574e      	ldrsb	r6, [r1, r5]
     1e6:	e152      	b.n	0x48e
     1e8:	e04e      	b.n	0x288
     1ea:	e04e      	b.n	0x28a
     1ec:	b84e      			@ <UNDEFINED> instruction: 0xb84e
     1ee:	e152      	b.n	0x496
     1f0:	e04e      	b.n	0x290
     1f2:	e04e      	b.n	0x292
     1f4:	f14e e152 	blx	0x54e49c
     1f8:	e14e      	b.n	0x498
     1fa:	e14e      	b.n	0x49a
     1fc:	e14e      	b.n	0x49c
     1fe:	e14e      	b.n	0x49e
     200:	3e4e      	subs	r6, #78	@ 0x4e
     202:	e153      	b.n	0x4ac
     204:	e04e      	b.n	0x2a4
     206:	e04e      	b.n	0x2a6
     208:	e14e      	b.n	0x4a8
     20a:	e14e      	b.n	0x4aa
     20c:	e14e      	b.n	0x4ac
     20e:	e14e      	b.n	0x4ae
     210:	e04e      	b.n	0x2b0
     212:	e04e      	b.n	0x2b2
     214:	544e      	strb	r6, [r1, r1]
     216:	e153      	b.n	0x4c0
     218:	a24e      	add	r2, pc, #312	@ (adr r2, 0x354)
     21a:	302b      	adds	r0, #43	@ 0x2b
     21c:	7a0e      	ldrb	r6, [r1, #8]
     21e:	624d      	str	r5, [r1, #36]	@ 0x24
     220:	852b      	strh	r3, [r5, #40]	@ 0x28
     222:	00b4      	lsls	r4, r6, #2
     224:	1900      	adds	r0, r0, r4
     226:	73b2      	strb	r2, [r6, #14]
     228:	a4d8      	add	r4, pc, #864	@ (adr r4, 0x58c)
     22a:	b173      	cbz	r3, 0x24a
     22c:	0172      	lsls	r2, r6, #5
     22e:	0010      	movs	r0, r2
     230:	2700      	movs	r7, #0
     232:	110f      	asrs	r7, r1, #4
     234:	3555      	adds	r5, #85	@ 0x55
     236:	03b0      	lsls	r0, r6, #14
     238:	09f3      	lsrs	r3, r6, #7
     23a:	0003      	movs	r3, r0
     23c:	3100      	adds	r1, #0
     23e:	9726      	str	r7, [sp, #152]	@ 0x98
     240:	3384      	adds	r3, #132	@ 0x84
     242:	5341      	strh	r1, [r0, r5]
     244:	6293      	str	r3, [r2, #40]	@ 0x28
     246:	0183      	lsls	r3, r0, #6
     248:	0302      	lsls	r2, r0, #12
     24a:	0504      	lsls	r4, r0, #20
     24c:	01ff      	lsls	r7, r7, #7
     24e:	0302      	lsls	r2, r0, #12
     250:	2904      	cmp	r1, #4
     252:	2902      	cmp	r1, #2
     254:	2902      	cmp	r1, #2
     256:	7c02      	ldrb	r2, [r0, #16]
     258:	7c3f      	ldrb	r7, [r7, #16]
     25a:	883f      	ldrh	r7, [r7, #0]
     25c:	983f      	ldr	r0, [sp, #252]	@ 0xfc
     25e:	293f      	cmp	r1, #63	@ 0x3f
     260:	0802      	lsrs	r2, r0, #32
     262:	0008      	movs	r0, r1
     264:	0201      	lsls	r1, r0, #8
     266:	1010      	asrs	r0, r2, #32
     268:	6208      	str	r0, [r1, #32]
     26a:	633f      	str	r7, [r7, #48]	@ 0x30
     26c:	293f      	cmp	r1, #63	@ 0x3f
     26e:	7902      	ldrb	r2, [r0, #4]
     270:	293f      	cmp	r1, #63	@ 0x3f
     272:	2902      	cmp	r1, #2
     274:	2902      	cmp	r1, #2
     276:	7302      	strb	r2, [r0, #12]
     278:	293f      	cmp	r1, #63	@ 0x3f
     27a:	2902      	cmp	r1, #2
     27c:	2902      	cmp	r1, #2
     27e:	ee02 293f 			@ <UNDEFINED> instruction: 0xee02293f
     282:	f002 f23f 	bl	0x402704
     286:	293f      	cmp	r1, #63	@ 0x3f
     288:	1702      	asrs	r2, r0, #28
     28a:	1918      	adds	r0, r3, r4
     28c:	1b1a      	subs	r2, r3, r4
     28e:	1e1c      	subs	r4, r3, #0
     290:	ff1d 8000 	vhadd.u16	d8, d13, d0
     294:	ff00 00ff 	vqadd.u8	q0, q8, <illegal reg q15.5>
     298:	0380      	lsls	r0, r0, #14
     29a:	8f9c      	ldrh	r4, [r3, #60]	@ 0x3c
     29c:	ac03      	add	r4, sp, #12
     29e:	038f      	lsls	r7, r1, #14
     2a0:	8fc8      	ldrh	r0, [r1, #62]	@ 0x3e
     2a2:	d803      	bhi.n	0x2ac
     2a4:	038f      	lsls	r7, r1, #14
     2a6:	8fe8      	ldrh	r0, [r5, #62]	@ 0x3e
     2a8:	f803 038f 	strb.w	r0, [r3, <undefined>]
     2ac:	9008      	str	r0, [sp, #32]
     2ae:	4403      	add	r3, r0
     2b0:	0390      	lsls	r0, r2, #14
     2b2:	9393      	str	r3, [sp, #588]	@ 0x24c
     2b4:	9e03      	ldr	r6, [sp, #12]
     2b6:	0393      	lsls	r3, r2, #14
     2b8:	93a9      	str	r3, [sp, #676]	@ 0x2a4
     2ba:	b403      	push	{r0, r1}
     2bc:	0393      	lsls	r3, r2, #14
     2be:	93bf      	str	r3, [sp, #764]	@ 0x2fc
     2c0:	ca03      	ldmia	r2!, {r0, r1}
     2c2:	0393      	lsls	r3, r2, #14
     2c4:	93d5      	str	r3, [sp, #852]	@ 0x354
     2c6:	3903      	subs	r1, #3
     2c8:	0390      	lsls	r0, r2, #14
     2ca:	93e0      	str	r3, [sp, #896]	@ 0x380
     2cc:	2903      	cmp	r1, #3
     2ce:	5290      	strh	r0, [r2, r2]
     2d0:	6190      	str	r0, [r2, #24]
     2d2:	7090      	strb	r0, [r2, #2]
     2d4:	7b90      	ldrb	r0, [r2, #14]
     2d6:	8b90      	ldrh	r0, [r2, #28]
     2d8:	9c90      	ldr	r4, [sp, #576]	@ 0x240
     2da:	ad90      	add	r5, sp, #576	@ 0x240
     2dc:	be90      	bkpt	0x0090
     2de:	cf90      	ldmia	r7, {r4, r7}
     2e0:	ee90 1090 	mrc	0, 4, r1, cr0, cr0, {4}
     2e4:	ff91 2090 	vshr.u64	d2, d0, #47
     2e8:	3091      	adds	r0, #145	@ 0x91
     2ea:	4091      	lsls	r1, r2
     2ec:	5491      	strb	r1, [r2, r2]
     2ee:	6991      	ldr	r1, [r2, #24]
     2f0:	7991      	ldrb	r1, [r2, #6]
     2f2:	8991      	ldrh	r1, [r2, #12]
     2f4:	9991      	ldr	r1, [sp, #580]	@ 0x244
     2f6:	ad91      	add	r5, sp, #580	@ 0x244
     2f8:	c291      	stmia	r2!, {r0, r4, r7}
     2fa:	d291      	bcs.n	0x220
     2fc:	e291      	b.n	0x822
     2fe:	f291 1391 			@ <UNDEFINED> instruction: 0xf2911391
     302:	2392      	movs	r3, #146	@ 0x92
     304:	3392      	adds	r3, #146	@ 0x92
     306:	4392      	bics	r2, r2
     308:	6392      	str	r2, [r2, #56]	@ 0x38
     30a:	7c92      	ldrb	r2, [r2, #18]
     30c:	8e92      	ldrh	r2, [r2, #52]	@ 0x34
     30e:	a092      	add	r0, pc, #584	@ (adr r0, 0x558)
     310:	b092      	sub	sp, #72	@ 0x48
     312:	c092      	stmia	r0!, {r1, r4, r7}
     314:	d092      	beq.n	0x23c
     316:	e192      	b.n	0x63e
     318:	f192 0192 			@ <UNDEFINED> instruction: 0xf1920192
     31c:	1193      	asrs	r3, r2, #6
     31e:	2193      	movs	r1, #147	@ 0x93
     320:	3893      	subs	r0, #147	@ 0x93
     322:	5193      	str	r3, [r2, r6]
     324:	6a93      	ldr	r3, [r2, #40]	@ 0x28
     326:	eb93 7293 			@ <UNDEFINED> instruction: 0xeb937293
     32a:	8994      	ldrh	r4, [r2, #12]
     32c:	9994      	ldr	r1, [sp, #592]	@ 0x250
     32e:	cb94      	ldmia	r3!, {r2, r4, r7}
     330:	dc94      	bgt.n	0x25c
     332:	ed94 fe94 	ldc	14, cr15, [r4, #592]	@ 0x250
     336:	0f94      	lsrs	r4, r2, #30
     338:	2095      	movs	r0, #149	@ 0x95
     33a:	3195      	adds	r1, #149	@ 0x95
     33c:	4a95      	ldr	r2, [pc, #596]	@ (0x594)
     33e:	6995      	ldr	r5, [r2, #24]
     340:	8895      	ldrh	r5, [r2, #4]
     342:	9d95      	ldr	r5, [sp, #596]	@ 0x254
     344:	b395      	cbz	r5, 0x3ac
     346:	d395      	bcc.n	0x274
     348:	e495      	b.n	0xfffffc76
     34a:	fa95 2595 			@ <UNDEFINED> instruction: 0xfa952595
     34e:	4e96      	ldr	r6, [pc, #600]	@ (0x5a8)
     350:	7796      	strb	r6, [r2, #30]
     352:	8796      	strh	r6, [r2, #60]	@ 0x3c
     354:	9896      	ldr	r0, [sp, #600]	@ 0x258
     356:	af96      	add	r7, sp, #600	@ 0x258
     358:	bf96      	itet	ls
     35a:	4396      	bicls	r6, r2
     35c:	4e8e      	ldrhi	r6, [pc, #568]	@ (0x598)
     35e:	078e      	lslls	r6, r1, #30
     360:	338f      	adds	r3, #143	@ 0x8f
     362:	018e      	lsls	r6, r1, #6
     364:	0302      	lsls	r2, r0, #12
     366:	0504      	lsls	r4, r0, #20
     368:	0706      	lsls	r6, r0, #28
     36a:	0908      	lsrs	r0, r1, #4
     36c:	640a      	str	r2, [r1, #64]	@ 0x40
     36e:	0300      	lsls	r0, r0, #12
     370:	0106      	lsls	r6, r0, #4
     372:	642c      	str	r4, [r5, #64]	@ 0x40
     374:	0300      	lsls	r0, r0, #12
     376:	2603      	movs	r6, #3
     378:	640c      	str	r4, [r1, #64]	@ 0x40
     37a:	0100      	lsls	r0, r0, #4
     37c:	0009      	movs	r1, r1
     37e:	640a      	str	r2, [r1, #64]	@ 0x40
     380:	0100      	lsls	r0, r0, #4
     382:	0406      	lsls	r6, r0, #16
     384:	6402      	str	r2, [r0, #64]	@ 0x40
     386:	0100      	lsls	r0, r0, #4
     388:	2603      	movs	r6, #3
     38a:	640a      	str	r2, [r1, #64]	@ 0x40
     38c:	0100      	lsls	r0, r0, #4
     38e:	4a09      	ldr	r2, [pc, #36]	@ (0x3b4)
     390:	640a      	str	r2, [r1, #64]	@ 0x40
     392:	0300      	lsls	r0, r0, #12
     394:	0009      	movs	r1, r1
     396:	6400      	str	r0, [r0, #64]	@ 0x40
     398:	0300      	lsls	r0, r0, #12
     39a:	0503      	lsls	r3, r0, #20
     39c:	6400      	str	r0, [r0, #64]	@ 0x40
     39e:	0300      	lsls	r0, r0, #12
     3a0:	0503      	lsls	r3, r0, #20
     3a2:	6418      	str	r0, [r3, #64]	@ 0x40
     3a4:	0300      	lsls	r0, r0, #12
     3a6:	0503      	lsls	r3, r0, #20
     3a8:	6420      	str	r0, [r4, #64]	@ 0x40
     3aa:	0300      	lsls	r0, r0, #12
     3ac:	0503      	lsls	r3, r0, #20
     3ae:	6428      	str	r0, [r5, #64]	@ 0x40
     3b0:	0300      	lsls	r0, r0, #12
     3b2:	0506      	lsls	r6, r0, #20
     3b4:	6430      	str	r0, [r6, #64]	@ 0x40
     3b6:	0300      	lsls	r0, r0, #12
     3b8:	0503      	lsls	r3, r0, #20
     3ba:	6450      	str	r0, [r2, #68]	@ 0x44
     3bc:	0300      	lsls	r0, r0, #12
     3be:	0503      	lsls	r3, r0, #20
     3c0:	6460      	str	r0, [r4, #68]	@ 0x44
     3c2:	0300      	lsls	r0, r0, #12
     3c4:	0b03      	lsrs	r3, r0, #12
     3c6:	6400      	str	r0, [r0, #64]	@ 0x40
     3c8:	0300      	lsls	r0, r0, #12
     3ca:	0b03      	lsrs	r3, r0, #12
     3cc:	6408      	str	r0, [r1, #64]	@ 0x40
     3ce:	0300      	lsls	r0, r0, #12
     3d0:	0b03      	lsrs	r3, r0, #12
     3d2:	6410      	str	r0, [r2, #64]	@ 0x40
     3d4:	0300      	lsls	r0, r0, #12
     3d6:	0b06      	lsrs	r6, r0, #12
     3d8:	6418      	str	r0, [r3, #64]	@ 0x40
     3da:	0300      	lsls	r0, r0, #12
     3dc:	0b06      	lsrs	r6, r0, #12
     3de:	6420      	str	r0, [r4, #64]	@ 0x40
     3e0:	0300      	lsls	r0, r0, #12
     3e2:	0b03      	lsrs	r3, r0, #12
     3e4:	6428      	str	r0, [r5, #64]	@ 0x40
     3e6:	0300      	lsls	r0, r0, #12
     3e8:	0b03      	lsrs	r3, r0, #12
     3ea:	6488      	str	r0, [r1, #72]	@ 0x48
     3ec:	0300      	lsls	r0, r0, #12
     3ee:	0b09      	lsrs	r1, r1, #12
     3f0:	6490      	str	r0, [r2, #72]	@ 0x48
     3f2:	0300      	lsls	r0, r0, #12
     3f4:	1003      	asrs	r3, r0, #32
     3f6:	6400      	str	r0, [r0, #64]	@ 0x40
     3f8:	0300      	lsls	r0, r0, #12
     3fa:	1603      	asrs	r3, r0, #24
     3fc:	6400      	str	r0, [r0, #64]	@ 0x40
     3fe:	0300      	lsls	r0, r0, #12
     400:	1609      	asrs	r1, r1, #24
     402:	6420      	str	r0, [r4, #64]	@ 0x40
     404:	0300      	lsls	r0, r0, #12
     406:	1606      	asrs	r6, r0, #24
     408:	6428      	str	r0, [r5, #64]	@ 0x40
     40a:	0300      	lsls	r0, r0, #12
     40c:	1606      	asrs	r6, r0, #24
     40e:	6430      	str	r0, [r6, #64]	@ 0x40
     410:	0300      	lsls	r0, r0, #12
     412:	1606      	asrs	r6, r0, #24
     414:	6438      	str	r0, [r7, #64]	@ 0x40
     416:	0300      	lsls	r0, r0, #12
     418:	1603      	asrs	r3, r0, #24
     41a:	6460      	str	r0, [r4, #68]	@ 0x44
     41c:	0300      	lsls	r0, r0, #12
     41e:	1603      	asrs	r3, r0, #24
     420:	6480      	str	r0, [r0, #72]	@ 0x48
     422:	0300      	lsls	r0, r0, #12
     424:	1603      	asrs	r3, r0, #24
     426:	6488      	str	r0, [r1, #72]	@ 0x48
     428:	0300      	lsls	r0, r0, #12
     42a:	2303      	movs	r3, #3
     42c:	6400      	str	r0, [r0, #64]	@ 0x40
     42e:	0300      	lsls	r0, r0, #12
     430:	2303      	movs	r3, #3
     432:	6408      	str	r0, [r1, #64]	@ 0x40
     434:	0300      	lsls	r0, r0, #12
     436:	2603      	movs	r6, #3
     438:	6440      	str	r0, [r0, #68]	@ 0x44
     43a:	0300      	lsls	r0, r0, #12
     43c:	3c06      	subs	r4, #6
     43e:	6408      	str	r0, [r1, #64]	@ 0x40
     440:	0300      	lsls	r0, r0, #12
     442:	4806      	ldr	r0, [pc, #24]	@ (0x45c)
     444:	6408      	str	r0, [r1, #64]	@ 0x40
     446:	0300      	lsls	r0, r0, #12
     448:	4806      	ldr	r0, [pc, #24]	@ (0x464)
     44a:	6428      	str	r0, [r5, #64]	@ 0x40
     44c:	0300      	lsls	r0, r0, #12
     44e:	4a09      	ldr	r2, [pc, #36]	@ (0x474)
     450:	6400      	str	r0, [r0, #64]	@ 0x40
     452:	0300      	lsls	r0, r0, #12
     454:	4a09      	ldr	r2, [pc, #36]	@ (0x47c)
     456:	6408      	str	r0, [r1, #64]	@ 0x40
     458:	0300      	lsls	r0, r0, #12
     45a:	0103      	lsls	r3, r0, #4
     45c:	6444      	str	r4, [r0, #68]	@ 0x44
     45e:	0300      	lsls	r0, r0, #12
     460:	3203      	adds	r2, #3
     462:	6410      	str	r0, [r2, #64]	@ 0x40
     464:	0300      	lsls	r0, r0, #12
     466:	3203      	adds	r2, #3
     468:	6420      	str	r0, [r4, #64]	@ 0x40
     46a:	0300      	lsls	r0, r0, #12
     46c:	3203      	adds	r2, #3
     46e:	6428      	str	r0, [r5, #64]	@ 0x40
     470:	0100      	lsls	r0, r0, #4
     472:	ff07 6400 	vshl.u8	d6, d0, d7
     476:	0100      	lsls	r0, r0, #4
     478:	ff07 ff08 	vpmax.f32	d15, d7, d8
     47c:	ffff ffff 			@ <UNDEFINED> instruction: 0xffffffff
     480:	ffff ffff 			@ <UNDEFINED> instruction: 0xffffffff
     484:	ffff 01ff 	vsra.u64	q8, <illegal reg q15.5>, #1
     488:	0402      	lsls	r2, r0, #16
     48a:	1008      	asrs	r0, r1, #32
     48c:	4020      	ands	r0, r4
     48e:	0180      	lsls	r0, r0, #6
     490:	0200      	lsls	r0, r0, #8
     492:	0400      	lsls	r0, r0, #16
     494:	0800      	lsrs	r0, r0, #32
     496:	1000      	asrs	r0, r0, #32
     498:	2000      	movs	r0, #0
     49a:	4000      	ands	r0, r0
     49c:	8000      	strh	r0, [r0, #0]
     49e:	0000      	movs	r0, r0
     4a0:	0001      	movs	r1, r0
     4a2:	0002      	movs	r2, r0
     4a4:	0004      	movs	r4, r0
     4a6:	0008      	movs	r0, r1
     4a8:	0010      	movs	r0, r2
     4aa:	0020      	movs	r0, r4
     4ac:	0040      	lsls	r0, r0, #1
     4ae:	0080      	lsls	r0, r0, #2
     4b0:	7f00      	ldrb	r0, [r0, #28]
     4b2:	0301      	lsls	r1, r0, #12
     4b4:	022a      	lsls	r2, r5, #8
     4b6:	8000      	strh	r0, [r0, #0]
     4b8:	df01      	svc	1
     4ba:	0301      	lsls	r1, r0, #12
     4bc:	022d      	lsls	r5, r5, #8
     4be:	e000      	b.n	0x4c2
     4c0:	3f01      	subs	r7, #1
     4c2:	0302      	lsls	r2, r0, #12
     4c4:	0230      	lsls	r0, r6, #8
     4c6:	4000      	ands	r0, r0
     4c8:	4f02      	ldr	r7, [pc, #8]	@ (0x4d4)
     4ca:	0202      	lsls	r2, r0, #8
     4cc:	0233      	lsls	r3, r6, #8
     4ce:	5000      	str	r0, [r0, r0]
     4d0:	5f02      	ldrsh	r2, [r0, r4]
     4d2:	0202      	lsls	r2, r0, #8
     4d4:	0235      	lsls	r5, r6, #8
     4d6:	6000      	str	r0, [r0, #0]
     4d8:	6f02      	ldr	r2, [r0, #112]	@ 0x70
     4da:	0202      	lsls	r2, r0, #8
     4dc:	0237      	lsls	r7, r6, #8
     4de:	7000      	strb	r0, [r0, #0]
     4e0:	7f02      	ldrb	r2, [r0, #28]
     4e2:	0202      	lsls	r2, r0, #8
     4e4:	0239      	lsls	r1, r7, #8
     4e6:	8000      	strh	r0, [r0, #0]
     4e8:	8f02      	ldrh	r2, [r0, #56]	@ 0x38
     4ea:	0202      	lsls	r2, r0, #8
     4ec:	023b      	lsls	r3, r7, #8
     4ee:	9000      	str	r0, [sp, #0]
     4f0:	9f02      	ldr	r7, [sp, #8]
     4f2:	0202      	lsls	r2, r0, #8
     4f4:	023d      	lsls	r5, r7, #8
     4f6:	a000      	add	r0, pc, #0	@ (adr r0, 0x4f8)
     4f8:	af02      	add	r7, sp, #8
     4fa:	0202      	lsls	r2, r0, #8
     4fc:	023f      	lsls	r7, r7, #8
     4fe:	b000      	add	sp, #0
     500:	bf02      	ittt	eq
     502:	0202      	lsleq	r2, r0, #8
     504:	0241      	lsleq	r1, r0, #9
     506:	c000      	stmiaeq	r0!, {}
     508:	df02      	svc	2
     50a:	0202      	lsls	r2, r0, #8
     50c:	0243      	lsls	r3, r0, #9
     50e:	e000      	b.n	0x512
     510:	ff02 0202 	vhsub.u8	d0, d2, d2
     514:	0245      	lsls	r5, r0, #9
     516:	0000      	movs	r0, r0
     518:	7f03      	ldrb	r3, [r0, #28]
     51a:	0304      	lsls	r4, r0, #12
     51c:	0247      	lsls	r7, r0, #9
     51e:	8000      	strh	r0, [r0, #0]
     520:	ff04 0305 	vcgt.u8	d0, d4, d5
     524:	024a      	lsls	r2, r1, #9
     526:	0000      	movs	r0, r0
     528:	ff06 0206 	vhsub.u8	d0, d6, d6
     52c:	024d      	lsls	r5, r1, #9
     52e:	0000      	movs	r0, r0
     530:	7f07      	ldrb	r7, [r0, #28]
     532:	0207      	lsls	r7, r0, #8
     534:	024f      	lsls	r7, r1, #9
     536:	8000      	strh	r0, [r0, #0]
     538:	ff07 0207 	vhsub.u8	d0, d7, d7
     53c:	0251      	lsls	r1, r2, #9
     53e:	0000      	movs	r0, r0
     540:	7f08      	ldrb	r0, [r1, #28]
     542:	0208      	lsls	r0, r1, #8
     544:	0253      	lsls	r3, r2, #9
     546:	8000      	strh	r0, [r0, #0]
     548:	ff08 0208 	vhsub.u8	d0, d8, d8
     54c:	0255      	lsls	r5, r2, #9
     54e:	0000      	movs	r0, r0
     550:	7f09      	ldrb	r1, [r1, #28]
     552:	0209      	lsls	r1, r1, #8
     554:	0257      	lsls	r7, r2, #9
     556:	8000      	strh	r0, [r0, #0]
     558:	ff09 0209 	vhsub.u8	d0, d9, d9
     55c:	0259      	lsls	r1, r3, #9
     55e:	0000      	movs	r0, r0
     560:	7f0a      	ldrb	r2, [r1, #28]
     562:	020a      	lsls	r2, r1, #8
     564:	025b      	lsls	r3, r3, #9
     566:	3000      	adds	r0, #0
     568:	370d      	adds	r7, #13
     56a:	020d      	lsls	r5, r1, #8
     56c:	025d      	lsls	r5, r3, #9
     56e:	3800      	subs	r0, #0
     570:	3f0d      	subs	r7, #13
     572:	020d      	lsls	r5, r1, #8
     574:	025f      	lsls	r7, r3, #9
     576:	4000      	ands	r0, r0
     578:	470d      	bx	r1
     57a:	020d      	lsls	r5, r1, #8
     57c:	0261      	lsls	r1, r4, #9
     57e:	4800      	ldr	r0, [pc, #0]	@ (0x580)
     580:	4f0d      	ldr	r7, [pc, #52]	@ (0x5b8)
     582:	020d      	lsls	r5, r1, #8
     584:	0263      	lsls	r3, r4, #9
     586:	5000      	str	r0, [r0, r0]
     588:	570d      	ldrsb	r5, [r1, r4]
     58a:	020d      	lsls	r5, r1, #8
     58c:	0265      	lsls	r5, r4, #9
     58e:	5800      	ldr	r0, [r0, r0]
     590:	5f0d      	ldrsh	r5, [r1, r4]
     592:	020d      	lsls	r5, r1, #8
     594:	0267      	lsls	r7, r4, #9
     596:	6000      	str	r0, [r0, #0]
     598:	6f0d      	ldr	r5, [r1, #112]	@ 0x70
     59a:	030d      	lsls	r5, r1, #12
     59c:	0269      	lsls	r1, r5, #9
     59e:	7000      	strb	r0, [r0, #0]
     5a0:	7f0d      	ldrb	r5, [r1, #28]
     5a2:	030d      	lsls	r5, r1, #12
     5a4:	026c      	lsls	r4, r5, #9
     5a6:	8000      	strh	r0, [r0, #0]
     5a8:	9f0d      	ldr	r7, [sp, #52]	@ 0x34
     5aa:	080d      	lsrs	r5, r1, #32
     5ac:	026f      	lsls	r7, r5, #9
     5ae:	a000      	add	r0, pc, #0	@ (adr r0, 0x5b0)
     5b0:	af0d      	add	r7, sp, #52	@ 0x34
     5b2:	020d      	lsls	r5, r1, #8
     5b4:	0277      	lsls	r7, r6, #9
     5b6:	b000      	add	sp, #0
     5b8:	cf0d      	ldmia	r7!, {r0, r2, r3}
     5ba:	020d      	lsls	r5, r1, #8
     5bc:	0279      	lsls	r1, r7, #9
     5be:	d000      	beq.n	0x5c2
     5c0:	df0d      	svc	13
     5c2:	020d      	lsls	r5, r1, #8
     5c4:	027b      	lsls	r3, r7, #9
     5c6:	e000      	b.n	0x5ca
     5c8:	ef0d 020d 	vhsub.s8	d0, d13, d13
     5cc:	027d      	lsls	r5, r7, #9
     5ce:	f000 ff0d 	bl	0x13ec
     5d2:	020d      	lsls	r5, r1, #8
     5d4:	027f      	lsls	r7, r7, #9
     5d6:	0000      	movs	r0, r0
     5d8:	ef0e 080f 	vadd.i8	d0, d14, d15
     5dc:	0281      	lsls	r1, r0, #10
     5de:	0007      	movs	r7, r0
     5e0:	0101      	lsls	r1, r0, #4
     5e2:	0101      	lsls	r1, r0, #4
     5e4:	0201      	lsls	r1, r0, #8
     5e6:	0101      	lsls	r1, r0, #4
     5e8:	0103      	lsls	r3, r0, #4
     5ea:	0400      	lsls	r0, r0, #16
     5ec:	0001      	movs	r1, r0
     5ee:	0105      	lsls	r5, r0, #4
     5f0:	0600      	lsls	r0, r0, #24
     5f2:	0001      	movs	r1, r0
     5f4:	0107      	lsls	r7, r0, #4
     5f6:	0800      	lsrs	r0, r0, #32
     5f8:	0001      	movs	r1, r0
     5fa:	0109      	lsls	r1, r1, #4
     5fc:	0a00      	lsrs	r0, r0, #8
     5fe:	0001      	movs	r1, r0
     600:	0a0d      	lsrs	r5, r1, #8
     602:	0e01      	lsrs	r1, r0, #24
     604:	010a      	lsls	r2, r1, #4
     606:	0120      	lsls	r0, r4, #4
     608:	2100      	movs	r1, #0
     60a:	0001      	movs	r1, r0
     60c:	0122      	lsls	r2, r4, #4
     60e:	2300      	movs	r3, #0
     610:	0001      	movs	r1, r0
     612:	0124      	lsls	r4, r4, #4
	...
     620:	0000      	movs	r0, r0
     622:	1388      	asrs	r0, r1, #14
     624:	1388      	asrs	r0, r1, #14
	...
     636:	ff00 0000 	vhadd.u8	d0, d0, d0
	...
     672:	0100      	lsls	r0, r0, #4
     674:	0001      	movs	r1, r0
     676:	0100      	lsls	r0, r0, #4
     678:	0000      	movs	r0, r0
     67a:	0010      	movs	r0, r2
	...
     688:	001a      	movs	r2, r3
     68a:	0000      	movs	r0, r0
     68c:	0000      	movs	r0, r0
     68e:	0100      	lsls	r0, r0, #4
     690:	8001      	strh	r1, [r0, #0]
     692:	0081      	lsls	r1, r0, #2
     694:	0000      	movs	r0, r0
     696:	ffff 0000 	vaddl.u<illegal width 64>	q8, d15, d0
     69a:	0101      	lsls	r1, r0, #4
     69c:	ff00 00ff 	vqadd.u8	q0, q8, <illegal reg q15.5>
     6a0:	0000      	movs	r0, r0
     6a2:	0000      	movs	r0, r0
     6a4:	00ff      	lsls	r7, r7, #3
	...
     6c6:	0063      	lsls	r3, r4, #1
	...
     6d0:	0000      	movs	r0, r0
     6d2:	0100      	lsls	r0, r0, #4
     6d4:	0302      	lsls	r2, r0, #12
     6d6:	0504      	lsls	r4, r0, #20
     6d8:	0006      	movs	r6, r0
     6da:	0000      	movs	r0, r0
     6dc:	ed00 0fff 	vstr	<invalid reg 0>, [r0, #-508]	@ 0xfffffe04
     6e0:	da02      	bge.n	0x6e8
     6e2:	0c9e      	lsrs	r6, r3, #18
     6e4:	5480      	strb	r0, [r0, r2]
     6e6:	1ce8      	adds	r0, r5, #3
     6e8:	4fcd      	ldr	r7, [pc, #820]	@ (0xa20)
     6ea:	e907 dff0 	stmdb	r7, {r4, r5, r6, r7, r8, r9, sl, fp, ip, lr, pc}
     6ee:	615e      	str	r6, [r3, #20]
     6f0:	1fd4      	subs	r4, r2, #7
     6f2:	d000      	beq.n	0x6f6
     6f4:	6dbc      	ldr	r4, [r7, #88]	@ 0x58
     6f6:	5a94      	ldrh	r4, [r2, r2]
     6f8:	8401      	strh	r1, [r0, #32]
     6fa:	cec5      	ldmia	r6, {r0, r2, r6, r7}
     6fc:	1de1      	adds	r1, r4, #7
     6fe:	dbcd      	blt.n	0x69c
     700:	b946      	cbnz	r6, 0x714
     702:	dfeb      	svc	235	@ 0xeb
     704:	6dbe      	ldr	r6, [r7, #88]	@ 0x58
     706:	7fd4      	ldrb	r4, [r2, #31]
     708:	d00c      	beq.n	0x724
     70a:	6ddc      	ldr	r4, [r3, #92]	@ 0x5c
     70c:	5a94      	ldrh	r4, [r2, r2]
     70e:	8401      	strh	r1, [r0, #32]
     710:	cec5      	ldmia	r6, {r0, r2, r6, r7}
     712:	1de1      	adds	r1, r4, #7
     714:	ddcd      	ble.n	0x6b2
     716:	b946      	cbnz	r6, 0x72a
     718:	2feb      	cmp	r7, #235	@ 0xeb
     71a:	8204      	strh	r4, [r0, #16]
     71c:	c421      	stmia	r4!, {r0, r5}
     71e:	3d42      	subs	r5, #66	@ 0x42
     720:	00bd      	lsls	r5, r7, #2
     722:	484c      	ldr	r0, [pc, #304]	@ (0x854)
     724:	10ff      	asrs	r7, r7, #3
     726:	df30      	svc	48	@ 0x30
     728:	047f      	lsls	r7, r7, #17
     72a:	2056      	movs	r0, #86	@ 0x56
     72c:	bf29      	itett	cs
     72e:	0040      	lslcs	r0, r0, #1
     730:	b800      			@ <UNDEFINED> instruction: 0xb800
     732:	0629      	lslcs	r1, r5, #24
     734:	c100      	stmiacs	r1!, {}
     736:	63f3      	str	r3, [r6, #60]	@ 0x3c
     738:	3924      	subs	r1, #36	@ 0x24
     73a:	0740      	lsls	r0, r0, #29
     73c:	0000      	movs	r0, r0
     73e:	0000      	movs	r0, r0
     740:	f292 040b 			@ <UNDEFINED> instruction: 0xf292040b
     744:	8000      	strh	r0, [r0, #0]
     746:	1d7a      	adds	r2, r7, #5
     748:	0004      	movs	r4, r0
     74a:	3920      	subs	r1, #32
     74c:	df40      	svc	64	@ 0x40
     74e:	f101 f292 	bl	0x501c76
     752:	006b      	lsls	r3, r5, #1
     754:	3c10      	subs	r4, #16
     756:	881f      	ldrh	r7, [r3, #0]
     758:	0070      	lsls	r0, r6, #1
     75a:	0000      	movs	r0, r0
     75c:	e000      	b.n	0x760
     75e:	109f      	asrs	r7, r3, #2
     760:	3030      	adds	r0, #48	@ 0x30
     762:	3030      	adds	r0, #48	@ 0x30
     764:	df30      	svc	48	@ 0x30
     766:	24fc      	movs	r4, #252	@ 0xfc
     768:	206f      	movs	r0, #111	@ 0x6f
     76a:	bf29      	itett	cs
     76c:	0041      	lslcs	r1, r0, #1
     76e:	4601      	movcc	r1, r0
     770:	fc17 00c0 	ldc2cs	0, cr0, [r7], {192}	@ 0xc0
     774:	6b80      	ldrcs	r0, [r0, #56]	@ 0x38
     776:	56e1      	ldrsb	r1, [r4, r3]
     778:	3bcc      	subs	r3, #204	@ 0xcc
     77a:	2947      	cmp	r1, #71	@ 0x47
     77c:	4525      	cmp	r5, r4
     77e:	0002      	movs	r2, r0
     780:	256f      	movs	r5, #111	@ 0x6f
     782:	4039      	ands	r1, r7
     784:	1cd2      	adds	r2, r2, #3
     786:	5000      	str	r0, [r0, r0]
     788:	f010 6e34 	ands.w	lr, r0, #188743680	@ 0xb400000
     78c:	24e0      	movs	r4, #224	@ 0xe0
     78e:	04df      	lsls	r7, r3, #19
     790:	f103 3010 	add.w	r0, r3, #269488144	@ 0x10101010
     794:	df30      	svc	48	@ 0x30
     796:	24fc      	movs	r4, #252	@ 0xfc
     798:	206f      	movs	r0, #111	@ 0x6f
     79a:	bf29      	itett	cs
     79c:	c741      	stmiacs	r7!, {r0, r6}
     79e:	1b01      	subcc	r1, r0, r4
     7a0:	4600      	movcs	r0, r0
     7a2:	fc17 00c0 	ldc2cs	0, cr0, [r7], {192}	@ 0xc0
     7a6:	6b80      	ldr	r0, [r0, #56]	@ 0x38
     7a8:	56e1      	ldrsb	r1, [r4, r3]
     7aa:	3bcc      	subs	r3, #204	@ 0xcc
     7ac:	2947      	cmp	r1, #71	@ 0x47
     7ae:	4525      	cmp	r5, r4
     7b0:	0002      	movs	r2, r0
     7b2:	256f      	movs	r5, #111	@ 0x6f
     7b4:	4039      	ands	r1, r7
     7b6:	fd21 6e11 	stc2	14, cr6, [r1, #-68]!	@ 0xffffffbc
     7ba:	24e0      	movs	r4, #224	@ 0xe0
     7bc:	04df      	lsls	r7, r3, #19
     7be:	f103 fcdf 	bl	0x104180
     7c2:	6f24      	ldr	r4, [r4, #112]	@ 0x70
     7c4:	2920      	cmp	r1, #32
     7c6:	41bf      	sbcs	r7, r7
     7c8:	0100      	lsls	r0, r0, #4
     7ca:	1746      	asrs	r6, r0, #29
     7cc:	c0fc      	stmia	r0!, {r2, r3, r4, r5, r6, r7}
     7ce:	8000      	strh	r0, [r0, #0]
     7d0:	e16b      	b.n	0xaaa
     7d2:	cc56      	ldmia	r4, {r1, r2, r4, r6}
     7d4:	473b      	bx	r7
     7d6:	2529      	movs	r5, #41	@ 0x29
     7d8:	0245      	lsls	r5, r0, #9
     7da:	6f00      	ldr	r0, [r0, #112]	@ 0x70
     7dc:	3925      	subs	r1, #37	@ 0x25
     7de:	2140      	movs	r1, #64	@ 0x40
     7e0:	388d      	subs	r0, #141	@ 0x8d
     7e2:	e06e      	b.n	0x8c2
     7e4:	df24      	svc	36	@ 0x24
     7e6:	0304      	lsls	r4, r0, #12
     7e8:	30f1      	adds	r0, #241	@ 0xf1
     7ea:	fcdf 6f24 	ldc2l	15, cr6, [pc], {36}	@ 0x24
     7ee:	06e0      	lsls	r0, r4, #27
     7f0:	f24e 304d 	movw	r0, #58189	@ 0xe34d
     7f4:	3010      	adds	r0, #16
     7f6:	fcdf 6f24 	ldc2l	15, cr6, [pc], {36}	@ 0x24
     7fa:	06e0      	lsls	r0, r4, #27
     7fc:	f24e 304d 	movw	r0, #58189	@ 0xe34d
     800:	3010      	adds	r0, #16
     802:	fcdf 6f24 	ldc2l	15, cr6, [pc], {36}	@ 0x24
     806:	0310      	lsls	r0, r2, #12
     808:	e119      	b.n	0xa3e
     80a:	4e06      	ldr	r6, [pc, #24]	@ (0x824)
     80c:	4df2      	ldr	r5, [pc, #968]	@ (0xbd8)
     80e:	1030      	asrs	r0, r6, #32
     810:	fcdf 6f24 	ldc2l	15, cr6, [pc], {36}	@ 0x24
     814:	b310      	cbz	r0, 0x85c
     816:	e116      	b.n	0xa46
     818:	4e06      	ldr	r6, [pc, #24]	@ (0x834)
     81a:	4df2      	ldr	r5, [pc, #968]	@ (0xbe4)
     81c:	1030      	asrs	r0, r6, #32
     81e:	fcdf 6f24 	ldc2l	15, cr6, [pc], {36}	@ 0x24
     822:	f310 e118 	blx	0x710a54
     826:	4e06      	ldr	r6, [pc, #24]	@ (0x840)
     828:	4df2      	ldr	r5, [pc, #968]	@ (0xbf4)
     82a:	1030      	asrs	r0, r6, #32
     82c:	3030      	adds	r0, #48	@ 0x30
     82e:	df30      	svc	48	@ 0x30
     830:	24fc      	movs	r4, #252	@ 0xfc
     832:	106f      	asrs	r7, r5, #1
     834:	42d3      	cmn	r3, r2
     836:	06e2      	lsls	r2, r4, #27
     838:	f24e 304d 	movw	r0, #58189	@ 0xe34d
     83c:	1010      	asrs	r0, r2, #32
     83e:	df30      	svc	48	@ 0x30
     840:	047f      	lsls	r7, r7, #17
     842:	5046      	str	r6, [r0, r1]
     844:	f014 101d 	ands.w	r0, r4, #1900573	@ 0x1d001d
     848:	0741      	lsls	r1, r0, #29
     84a:	1001      	asrs	r1, r0, #32
     84c:	3611      	adds	r6, #17
     84e:	d310      	bcc.n	0x872
     850:	30f2      	adds	r0, #242	@ 0xf2
     852:	859d      	strh	r5, [r3, #44]	@ 0x2c
     854:	5333      	strh	r3, [r6, r4]
     856:	5711      	ldrsb	r1, [r2, r4]
     858:	3310      	adds	r3, #16
     85a:	10f2      	asrs	r2, r6, #3
     85c:	04a0      	lsls	r0, r4, #18
     85e:	1e21      	subs	r1, r4, #0
     860:	d30f      	bcc.n	0x882
     862:	3859      	subs	r0, #89	@ 0x59
     864:	1523      	asrs	r3, r4, #20
     866:	0c60      	lsrs	r0, r4, #17
     868:	0efe      	lsrs	r6, r7, #27
     86a:	dff1      	svc	241	@ 0xf1
     86c:	047f      	lsls	r7, r7, #17
     86e:	5046      	str	r6, [r0, r1]
     870:	f044 101d 	orr.w	r0, r4, #1900573	@ 0x1d001d
     874:	7fdf      	ldrb	r7, [r3, #31]
     876:	4604      	mov	r4, r0
     878:	6450      	str	r0, [r2, #68]	@ 0x44
     87a:	1df0      	adds	r0, r6, #7
     87c:	4110      	asrs	r0, r2
     87e:	0105      	lsls	r5, r0, #4
     880:	4110      	asrs	r0, r2
     882:	0005      	movs	r5, r0
     884:	9210      	str	r2, [sp, #64]	@ 0x40
     886:	0bf2      	lsrs	r2, r6, #15
     888:	b012      	add	sp, #72	@ 0x48
     88a:	3200      	adds	r2, #0
     88c:	1040      	asrs	r0, r0, #1
     88e:	e503      	b.n	0x298
     890:	f310 10ec 			@ <UNDEFINED> instruction: 0xf31010ec
     894:	0ac3      	lsrs	r3, r0, #11
     896:	1312      	asrs	r2, r2, #12
     898:	1221      	asrs	r1, r4, #8
     89a:	3863      	subs	r0, #99	@ 0x63
     89c:	f312 2256 			@ <UNDEFINED> instruction: 0xf3122256
     8a0:	cf29      	ldmia	r7!, {r0, r3, r5}
     8a2:	0392      	lsls	r2, r2, #14
     8a4:	e013      	b.n	0x8ce
     8a6:	102f      	asrs	r7, r5, #32
     8a8:	cb83      	ldmia	r3!, {r0, r1, r7}
     8aa:	6316      	str	r6, [r2, #48]	@ 0x30
     8ac:	f253 10ee 			@ <UNDEFINED> instruction: 0xf25310ee
     8b0:	ec21 210e 	stfs	f2, [r1], #-56	@ 0xffffffc8
     8b4:	24e2      	movs	r4, #226	@ 0xe2
     8b6:	6a20      	ldr	r0, [r4, #32]
     8b8:	20f9      	movs	r0, #249	@ 0xf9
     8ba:	016c      	lsls	r4, r5, #5
     8bc:	6e20      	ldr	r0, [r4, #96]	@ 0x60
     8be:	2000      	movs	r0, #0
     8c0:	42eb      	cmn	r3, r5
     8c2:	c383      	stmia	r3!, {r0, r1, r7}
     8c4:	3926      	subs	r1, #38	@ 0x26
     8c6:	2140      	movs	r1, #64	@ 0x40
     8c8:	0f49      	lsrs	r1, r1, #29
     8ca:	b221      	sxth	r1, r4
     8cc:	440e      	add	r6, r1
     8ce:	4502      	cmp	r2, r0
     8d0:	d203      	bcs.n	0x8da
     8d2:	0c7c      	lsrs	r4, r7, #17
     8d4:	10f0      	asrs	r0, r6, #3
     8d6:	0c74      	lsrs	r4, r6, #17
     8d8:	2440      	movs	r4, #64	@ 0x40
     8da:	1080      	asrs	r0, r0, #2
     8dc:	d20d      	bcs.n	0x8fa
     8de:	107e      	asrs	r6, r7, #1
     8e0:	1220      	asrs	r0, r4, #8
     8e2:	0074      	lsls	r4, r6, #1
     8e4:	3310      	adds	r3, #16
     8e6:	10f6      	asrs	r6, r6, #3
     8e8:	2040      	movs	r0, #64	@ 0x40
     8ea:	cd11      	ldmia	r5!, {r0, r4}
     8ec:	f314 10ea 			@ <UNDEFINED> instruction: 0xf31410ea
     8f0:	f203 ed20 	blx	0x204334
     8f4:	0005      	movs	r5, r0
     8f6:	440d      	add	r5, r1
     8f8:	1102      	asrs	r2, r0, #4
     8fa:	8071      	strh	r1, [r6, #2]
     8fc:	4189      	sbcs	r1, r1
     8fe:	1024      	asrs	r4, r4, #32
     900:	18c0      	adds	r0, r0, r3
     902:	0244      	lsls	r4, r0, #9
     904:	e911 18c2 	ldmdb	r1, {r1, r6, r7, fp, ip}
     908:	4460      	add	r0, ip
     90a:	1024      	asrs	r4, r4, #32
     90c:	0260      	lsls	r0, r4, #9
     90e:	7ed2      	ldrb	r2, [r2, #27]
     910:	900c      	str	r0, [sp, #48]	@ 0x30
     912:	ed22 0106 	stfs	f0, [r2, #-24]!	@ 0xffffffe8
     916:	210c      	movs	r1, #12
     918:	0e65      	lsrs	r5, r4, #25
     91a:	6421      	str	r1, [r4, #64]	@ 0x40
     91c:	2125      	movs	r1, #37	@ 0x25
     91e:	0e5f      	lsrs	r7, r3, #25
     920:	040a      	lsls	r2, r1, #16
     922:	0211      	lsls	r1, r2, #8
     924:	699e      	ldr	r6, [r3, #24]
     926:	41f4      	rors	r4, r6
     928:	0000      	movs	r0, r0
     92a:	3b99      	subs	r3, #153	@ 0x99
     92c:	f10f f292 	bl	0x50fe54
     930:	b01b      	add	sp, #108	@ 0x6c
     932:	101a      	asrs	r2, r3, #32
     934:	7fdf      	ldrb	r7, [r3, #31]
     936:	4604      	mov	r4, r0
     938:	8540      	strh	r0, [r0, #42]	@ 0x2a
     93a:	4230      	tst	r0, r6
     93c:	11a8      	asrs	r0, r5, #6
     93e:	94c2      	str	r4, [sp, #776]	@ 0x308
     940:	240d      	movs	r4, #13
     942:	4611      	mov	r1, r2
     944:	8450      	strh	r0, [r2, #34]	@ 0x22
     946:	1df0      	adds	r0, r6, #7
     948:	1010      	asrs	r0, r2, #32
     94a:	1441      	asrs	r1, r0, #17
     94c:	1001      	asrs	r1, r0, #32
     94e:	fddf 4714 	ldc2l	7, cr4, [pc, #80]	@ 0x9a0
     952:	0460      	lsls	r0, r4, #17
     954:	0a45      	lsrs	r5, r0, #9
     956:	d16e      	bne.n	0xa36
     958:	10b6      	asrs	r6, r6, #2
     95a:	1094      	asrs	r4, r2, #2
     95c:	10a0      	asrs	r0, r4, #2
     95e:	a010      	add	r0, pc, #64	@ (adr r0, 0x9a0)
     960:	dff0      	svc	240	@ 0xf0
     962:	f103 0941 	add.w	r9, r3, #65	@ 0x41
     966:	0a00      	lsrs	r0, r0, #8
     968:	1100      	asrs	r0, r0, #4
     96a:	0eff      	lsrs	r7, r7, #27
     96c:	dff1      	svc	241	@ 0xf1
     96e:	047e      	lsls	r6, r7, #17
     970:	000a      	movs	r2, r1
     972:	6147      	str	r7, [r0, #20]
     974:	5404      	strb	r4, [r0, r0]
     976:	230d      	movs	r3, #13
     978:	3a84      	subs	r2, #132	@ 0x84
     97a:	e6c2      	b.n	0x702
     97c:	0cc0      	lsrs	r0, r0, #19
     97e:	2000      	movs	r0, #0
     980:	0d32      	lsrs	r2, r6, #20
     982:	0e6c      	lsrs	r4, r5, #25
     984:	1442      	asrs	r2, r0, #17
     986:	9000      	str	r0, [sp, #0]
     988:	0464      	lsls	r4, r4, #17
     98a:	0d45      	lsrs	r5, r0, #21
     98c:	0e6c      	lsrs	r4, r5, #25
     98e:	00cc      	lsls	r4, r1, #3
     990:	b900      	cbnz	r0, 0x994
     992:	21ef      	movs	r1, #239	@ 0xef
     994:	15ed      	asrs	r5, r5, #23
     996:	2f00      	cmp	r7, #0
     998:	1541      	asrs	r1, r0, #21
     99a:	0a01      	lsrs	r1, r0, #8
     99c:	5a08      	ldrh	r0, [r1, r0]
     99e:	2100      	movs	r1, #0
     9a0:	0f54      	lsrs	r4, r2, #29
     9a2:	20c0      	movs	r0, #192	@ 0xc0
     9a4:	0e6d      	lsrs	r5, r5, #25
     9a6:	20c0      	movs	r0, #192	@ 0xc0
     9a8:	106d      	asrs	r5, r5, #1
     9aa:	6621      	str	r1, [r4, #96]	@ 0x60
     9ac:	990e      	ldr	r1, [sp, #56]	@ 0x38
     9ae:	21b7      	movs	r1, #183	@ 0xb7
     9b0:	16ed      	asrs	r5, r5, #27
     9b2:	3300      	adds	r3, #0
     9b4:	00c0      	lsls	r0, r0, #3
     9b6:	126d      	asrs	r5, r5, #9
     9b8:	000a      	movs	r2, r1
     9ba:	9421      	str	r4, [sp, #132]	@ 0x84
     9bc:	210f      	movs	r1, #15
     9be:	0e8b      	lsrs	r3, r1, #26
     9c0:	5a11      	ldrh	r1, [r2, r0]
     9c2:	b011      	add	sp, #68	@ 0x44
     9c4:	413c      	asrs	r4, r7
     9c6:	0014      	movs	r4, r2
     9c8:	ca21      	ldmia	r2!, {r0, r5}
     9ca:	9935      	ldr	r1, [sp, #212]	@ 0xd4
     9cc:	217b      	movs	r1, #123	@ 0x7b
     9ce:	14fd      	asrs	r5, r7, #19
     9d0:	2200      	movs	r2, #0
     9d2:	fd21 00c8 	stc2	0, cr0, [r1, #-800]!	@ 0xfffffce0
     9d6:	2118      	movs	r1, #24
     9d8:	09dd      	lsrs	r5, r3, #7
     9da:	5d00      	ldrb	r0, [r0, r4]
     9dc:	f311 224c 			@ <UNDEFINED> instruction: 0xf311224c
     9e0:	008d      	lsls	r5, r1, #2
     9e2:	314f      	adds	r1, #79	@ 0x4f
     9e4:	6cb8      	ldr	r0, [r7, #72]	@ 0x48
     9e6:	009b      	lsls	r3, r3, #2
     9e8:	e521      	b.n	0x42e
     9ea:	211f      	movs	r1, #31
     9ec:	23e0      	movs	r3, #224	@ 0xe0
     9ee:	9cd2      	ldr	r4, [sp, #840]	@ 0x348
     9f0:	c000      	stmia	r0!, {}
     9f2:	ed23 0117 	stfs	f0, [r3, #-92]!	@ 0xffffffa4
     9f6:	0a18      	lsrs	r0, r3, #8
     9f8:	5a08      	ldrh	r0, [r1, r0]
     9fa:	2100      	movs	r1, #0
     9fc:	0ef8      	lsrs	r0, r7, #27
     9fe:	1741      	asrs	r1, r0, #29
     a00:	9800      	ldr	r0, [sp, #0]
     a02:	211b      	movs	r1, #27
     a04:	0d0c      	lsrs	r4, r1, #20
     a06:	080a      	lsrs	r2, r1, #32
     a08:	1c11      	adds	r1, r2, #0
     a0a:	e31d      	b.n	0x1048
     a0c:	10d3      	asrs	r3, r2, #3
     a0e:	1174      	asrs	r4, r6, #5
     a10:	8440      	strh	r0, [r0, #34]	@ 0x22
     a12:	802c      	strh	r4, [r5, #0]
     a14:	11ce      	asrs	r6, r1, #7
     a16:	5b73      	ldrh	r3, [r6, r5]
     a18:	08c3      	lsrs	r3, r0, #3
     a1a:	11c0      	asrs	r0, r0, #7
     a1c:	1200      	asrs	r0, r0, #8
     a1e:	080a      	lsrs	r2, r1, #32
     a20:	1156      	asrs	r6, r2, #5
     a22:	ed13 3310 	ldc	3, cr3, [r3, #-64]	@ 0xffffffc0
     a26:	80d1      	strh	r1, [r2, #6]
     a28:	2209      	movs	r2, #9
     a2a:	c8cd      	ldmia	r0, {r0, r2, r3, r6, r7}
     a2c:	0500      	lsls	r0, r0, #20
     a2e:	0d11      	lsrs	r1, r2, #20
     a30:	0ec1      	lsrs	r1, r0, #27
     a32:	10fa      	asrs	r2, r7, #3
     a34:	ad93      	add	r5, sp, #588	@ 0x24c
     a36:	1310      	asrs	r0, r2, #12
     a38:	10d0      	asrs	r0, r2, #3
     a3a:	fc53 d311 	mrrc2	3, 1, sp, r3, cr1
     a3e:	1239      	asrs	r1, r7, #8
     a40:	0144      	lsls	r4, r0, #5
     a42:	3830      	subs	r0, #48	@ 0x30
     a44:	d26c      	bcs.n	0xb20
     a46:	016e      	lsls	r6, r5, #5
     a48:	1200      	asrs	r0, r0, #8
     a4a:	57a3      	ldrsb	r3, [r4, r6]
     a4c:	0c03      	lsrs	r3, r0, #16
     a4e:	e6d2      	b.n	0x7f6
     a50:	0c00      	lsrs	r0, r0, #16
     a52:	06d2      	lsls	r2, r2, #27
     a54:	b311      	cbz	r1, 0xa9c
     a56:	80db      	strh	r3, [r3, #6]
     a58:	0639      	lsls	r1, r7, #24
     a5a:	d00c      	beq.n	0xa76
     a5c:	00e6      	lsls	r6, r4, #3
     a5e:	d00c      	beq.n	0xa7a
     a60:	8106      	strh	r6, [r0, #8]
     a62:	14f9      	asrs	r1, r7, #19
     a64:	0d80      	lsrs	r0, r0, #22
     a66:	c844      	ldmia	r0!, {r2, r6}
     a68:	e802 211c 			@ <UNDEFINED> instruction: 0xe802211c
     a6c:	3562      	adds	r5, #98	@ 0x62
     a6e:	008c      	lsls	r4, r1, #2
     a70:	0a0d      	lsrs	r5, r1, #8
     a72:	5608      	ldrsb	r0, [r1, r0]
     a74:	e311      	b.n	0x109a
     a76:	10e7      	asrs	r7, r4, #3
     a78:	54c3      	strb	r3, [r0, r3]
     a7a:	4413      	add	r3, r2
     a7c:	3001      	adds	r0, #1
     a7e:	6c38      	ldr	r0, [r7, #64]	@ 0x40
     a80:	20c0      	movs	r0, #192	@ 0xc0
     a82:	0e6d      	lsrs	r5, r5, #25
     a84:	20c0      	movs	r0, #192	@ 0xc0
     a86:	106d      	asrs	r5, r5, #1
     a88:	8821      	ldrh	r1, [r4, #0]
     a8a:	df0d      	svc	13
     a8c:	f102 7fdf 	add.w	pc, r2, #29229056	@ 0x1be0000
     a90:	4604      	mov	r4, r0
     a92:	d540      	bpl.n	0xb16
     a94:	4230      	tst	r0, r6
     a96:	4ba8      	ldr	r3, [pc, #672]	@ (0xd38)
     a98:	126c      	asrs	r4, r5, #9
     a9a:	00cc      	lsls	r4, r1, #3
     a9c:	2200      	movs	r2, #0
     a9e:	c353      	stmia	r3!, {r0, r1, r4, r6}
     aa0:	2126      	movs	r1, #38	@ 0x26
     aa2:	0144      	lsls	r4, r0, #5
     aa4:	4900      	ldr	r1, [pc, #0]	@ (0xaa8)
     aa6:	126c      	asrs	r4, r5, #9
     aa8:	00cc      	lsls	r4, r1, #3
     aaa:	b800      			@ <UNDEFINED> instruction: 0xb800
     aac:	c01a      	stmia	r0!, {r1, r3, r4}
     aae:	6d20      	ldr	r0, [r4, #80]	@ 0x50
     ab0:	c00e      	stmia	r0!, {r1, r2, r3}
     ab2:	6d20      	ldr	r0, [r4, #80]	@ 0x50
     ab4:	0a10      	lsrs	r0, r2, #8
     ab6:	2100      	movs	r1, #0
     ab8:	0e97      	lsrs	r7, r2, #26
     aba:	5046      	str	r6, [r0, r1]
     abc:	c0d4      	stmia	r0!, {r2, r4, r6, r7}
     abe:	d106      	bne.n	0xace
     ac0:	10e6      	asrs	r6, r4, #3
     ac2:	0174      	lsls	r4, r6, #5
     ac4:	1df0      	adds	r0, r6, #7
     ac6:	c010      	stmia	r0!, {r4}
     ac8:	6d00      	ldr	r0, [r0, #80]	@ 0x50
     aca:	c00e      	stmia	r0!, {r1, r2, r3}
     acc:	6d00      	ldr	r0, [r0, #80]	@ 0x50
     ace:	ec10 03e8 	ldc	3, cr0, [r0], {232}	@ 0xe8
     ad2:	126d      	asrs	r5, r5, #9
     ad4:	010a      	lsls	r2, r1, #4
     ad6:	7821      	ldrb	r1, [r4, #0]
     ad8:	100e      	asrs	r6, r1, #32
     ada:	c841      	ldmia	r0, {r0, r6}
     adc:	1001      	asrs	r1, r0, #32
     ade:	6a21      	ldr	r1, [r4, #32]
     ae0:	210d      	movs	r1, #13
     ae2:	1eec      	subs	r4, r5, #3
     ae4:	2b21      	cmp	r3, #33	@ 0x21
     ae6:	410c      	asrs	r4, r1
     ae8:	0000      	movs	r0, r0
     aea:	6311      	str	r1, [r2, #48]	@ 0x30
     aec:	f10c 0941 	add.w	r9, ip, #65	@ 0x41
     af0:	4100      	asrs	r0, r0
     af2:	000a      	movs	r2, r1
     af4:	00c0      	lsls	r0, r0, #3
     af6:	0b6d      	lsrs	r5, r5, #13
     af8:	20c0      	movs	r0, #192	@ 0xc0
     afa:	0e6d      	lsrs	r5, r5, #25
     afc:	20c0      	movs	r0, #192	@ 0xc0
     afe:	106d      	asrs	r5, r5, #1
     b00:	00c0      	lsls	r0, r0, #3
     b02:	126d      	asrs	r5, r5, #9
     b04:	1441      	asrs	r1, r0, #17
     b06:	4100      	asrs	r0, r0
     b08:	0015      	movs	r5, r2
     b0a:	1641      	asrs	r1, r0, #25
     b0c:	4100      	asrs	r0, r0
     b0e:	00c8      	lsls	r0, r1, #3
     b10:	4110      	asrs	r0, r2
     b12:	0115      	lsls	r5, r2, #4
     b14:	20c0      	movs	r0, #192	@ 0xc0
     b16:	0e6d      	lsrs	r5, r5, #25
     b18:	20c0      	movs	r0, #192	@ 0xc0
     b1a:	106d      	asrs	r5, r5, #1
     b1c:	df10      	svc	16
     b1e:	10af      	asrs	r7, r5, #2
     b20:	c010      	stmia	r0!, {r4}
     b22:	12d1      	asrs	r1, r2, #11
     b24:	2924      	cmp	r1, #36	@ 0x24
     b26:	47bf      			@ <UNDEFINED> instruction: 0x47bf
     b28:	8310      	strh	r0, [r2, #24]
     b2a:	11f0      	asrs	r0, r6, #7
     b2c:	0c84      	lsrs	r4, r0, #18
     b2e:	0560      	lsls	r0, r4, #21
     b30:	40d1      	lsrs	r1, r2
     b32:	1412      	asrs	r2, r2, #16
     b34:	3bfc      	subs	r3, #252	@ 0xfc
     b36:	9246      	str	r2, [sp, #280]	@ 0x118
     b38:	6414      	str	r4, [r2, #64]	@ 0x40
     b3a:	f011 101d 	ands.w	r0, r1, #1900573	@ 0x1d001d
     b3e:	2fdf      	cmp	r7, #223	@ 0xdf
     b40:	9241      	str	r2, [sp, #260]	@ 0x104
     b42:	7bf2      	ldrb	r2, [r6, #15]
     b44:	2104      	movs	r1, #4
     b46:	1f26      	subs	r6, r4, #4
     b48:	1056      	asrs	r6, r2, #1
     b4a:	240d      	movs	r4, #13
     b4c:	c141      	stmia	r1!, {r0, r6}
     b4e:	63bf      	str	r7, [r7, #56]	@ 0x38
     b50:	4924      	ldr	r1, [pc, #144]	@ (0xbe4)
     b52:	000a      	movs	r2, r1
     b54:	e811 641c 			@ <UNDEFINED> instruction: 0xe811641c
     b58:	f001 101d 	and.w	r0, r1, #1900573	@ 0x1d001d
     b5c:	fddf 4714 	ldc2l	7, cr4, [pc, #80]	@ 0xbb0
     b60:	cd20      	ldmia	r5, {r5}
     b62:	001c      	movs	r4, r3
     b64:	460f      	mov	r7, r1
     b66:	14e0      	asrs	r0, r4, #19
     b68:	4621      	mov	r1, r4
     b6a:	ee0d 00a2 	cdp	0, 0, cr0, cr13, cr2, {5}
     b6e:	3df0      	subs	r5, #240	@ 0xf0
     b70:	4410      	add	r0, r2
     b72:	1026      	asrs	r6, r4, #32
     b74:	fedf 4404 	cdp2	4, 13, cr4, cr15, cr4, {0}
     b78:	4ed9      	ldr	r6, [pc, #868]	@ (0xee0)
     b7a:	4850      	ldr	r0, [pc, #320]	@ (0xcbc)
     b7c:	eda4 8704 	stc	7, cr8, [r4, #16]!
     b80:	4401      	add	r1, r0
     b82:	4edb      	ldr	r6, [pc, #876]	@ (0xef0)
     b84:	2870      	cmp	r0, #112	@ 0x70
     b86:	c440      	stmia	r4!, {r6}
     b88:	04ed      	lsls	r5, r5, #19
     b8a:	0387      	lsls	r7, r0, #14
     b8c:	dd44      	ble.n	0xc18
     b8e:	704e      	strb	r6, [r1, #1]
     b90:	4048      	eors	r0, r1
     b92:	ede4 8704 	stcl	7, cr8, [r4, #16]!
     b96:	df05      	svc	5
     b98:	f102 3ed2 	add.w	lr, r2, #3537031890	@ 0xd2d2d2d2
     b9c:	7012      	strb	r2, [r2, #0]
     b9e:	10a0      	asrs	r0, r4, #2
     ba0:	2ee0      	cmp	r6, #224	@ 0xe0
     ba2:	000a      	movs	r2, r1
     ba4:	df10      	svc	16
     ba6:	831e      	strh	r6, [r3, #24]
     ba8:	f249 6e04 	movw	lr, #38404	@ 0x9604
     bac:	0cc0      	lsrs	r0, r0, #19
     bae:	8000      	strh	r0, [r0, #0]
     bb0:	e44a      	b.n	0x448
     bb2:	8404      	strh	r4, [r0, #32]
     bb4:	cd45      	ldmia	r5!, {r0, r2, r6}
     bb6:	604e      	str	r6, [r1, #4]
     bb8:	5018      	str	r0, [r3, r0]
     bba:	ece4 8604 	stcl	6, cr8, [r4], #16
     bbe:	4502      	cmp	r2, r0
     bc0:	4ecf      	ldr	r6, [pc, #828]	@ (0xf00)
     bc2:	3860      	subs	r0, #96	@ 0x60
     bc4:	0450      	lsls	r0, r2, #17
     bc6:	04ed      	lsls	r5, r5, #19
     bc8:	0486      	lsls	r6, r0, #18
     bca:	d145      	bne.n	0xc58
     bcc:	604e      	str	r6, [r1, #4]
     bce:	5058      	str	r0, [r3, r1]
     bd0:	8d24      	ldrh	r4, [r4, #40]	@ 0x28
     bd2:	12a9      	asrs	r1, r5, #10
     bd4:	fcd4 e41f 	ldc2l	4, cr14, [r4], {31}
     bd8:	1ffc      	subs	r4, r7, #7
     bda:	fcf4 041f 	ldc2l	4, cr0, [r4], #124	@ 0x7c
     bde:	1ffd      	subs	r5, r7, #7
     be0:	fd14 241f 	ldc2	4, cr2, [r4, #-124]	@ 0xffffff84
     be4:	1ffd      	subs	r5, r7, #7
     be6:	11f4      	asrs	r4, r6, #7
     be8:	de00      	udf	#0
     bea:	831c      	strh	r4, [r3, #24]
     bec:	f093 102d 	eors.w	r0, r3, #2949165	@ 0x2d002d
     bf0:	e1cf      	b.n	0xf92
     bf2:	d5f2      	bpl.n	0xbda
     bf4:	0471      	lsls	r1, r6, #17
     bf6:	2041      	movs	r0, #65	@ 0x41
     bf8:	4600      	mov	r0, r0
     bfa:	4540      	cmp	r0, r8
     bfc:	4232      	tst	r2, r6
     bfe:	33a8      	adds	r3, #168	@ 0xa8
     c00:	1e40      	subs	r0, r0, #1
     c02:	2200      	movs	r2, #0
     c04:	40b3      	lsls	r3, r6
     c06:	21e4      	movs	r1, #228	@ 0xe4
     c08:	010a      	lsls	r2, r1, #4
     c0a:	400d      	ands	r5, r1
     c0c:	002a      	movs	r2, r5
     c0e:	b322      	cbz	r2, 0xc5a
     c10:	a440      	add	r4, pc, #256	@ (adr r4, 0xd14)
     c12:	0a22      	lsrs	r2, r4, #8
     c14:	0d01      	lsrs	r1, r0, #20
     c16:	5046      	str	r6, [r0, r1]
     c18:	2244      	movs	r2, #68	@ 0x44
     c1a:	18ed      	adds	r5, r5, r3
     c1c:	4700      	bx	r0
     c1e:	afd2      	add	r7, sp, #840	@ 0x348
     c20:	b001      	add	sp, #4
     c22:	d22c      	bcs.n	0xc7e
     c24:	01ff      	lsls	r7, r7, #7
     c26:	2c10      	cmp	r4, #16
     c28:	1b40      	subs	r0, r0, r5
     c2a:	d803      	bhi.n	0xc34
     c2c:	410b      	asrs	r3, r1
     c2e:	001b      	movs	r3, r3
     c30:	ac99      	add	r4, sp, #612	@ 0x264
     c32:	b442      	push	{r1, r6}
     c34:	1081      	asrs	r1, r0, #2
     c36:	410d      	asrs	r5, r1
     c38:	011a      	lsls	r2, r3, #4
     c3a:	cde0      	ldmia	r5, {r5, r6, r7}
     c3c:	3e21      	subs	r6, #33	@ 0x21
     c3e:	990c      	ldr	r1, [sp, #48]	@ 0x30
     c40:	228e      	movs	r2, #142	@ 0x8e
     c42:	1afd      	subs	r5, r7, r3
     c44:	8400      	strh	r0, [r0, #32]
     c46:	ed22 001c 	stc	0, cr0, [r2, #-112]!	@ 0xffffff90
     c4a:	d25d      	bcs.n	0xd08
     c4c:	01ee      	lsls	r6, r5, #7
     c4e:	0540      	lsls	r0, r0, #21
     c50:	31d4      	adds	r1, #212	@ 0xd4
     c52:	0d80      	lsrs	r0, r0, #22
     c54:	8411      	strh	r1, [r2, #32]
     c56:	1001      	asrs	r1, r0, #32
     c58:	01d4      	lsls	r4, r2, #7
     c5a:	a980      	add	r1, sp, #512	@ 0x200
     c5c:	60a3      	str	r3, [r4, #8]
     c5e:	7470      	strb	r0, [r6, #17]
     c60:	01ec      	lsls	r4, r5, #7
     c62:	6f18      	ldr	r0, [r3, #112]	@ 0x70
     c64:	c0a9      	stmia	r0!, {r0, r3, r5, r7}
     c66:	b470      	push	{r4, r5, r6}
     c68:	020a      	lsls	r2, r1, #8
     c6a:	ac47      	add	r4, sp, #284	@ 0x11c
     c6c:	2000      	movs	r0, #0
     c6e:	ce80      	ldmia	r6!, {r7}
     c70:	aef7      	add	r6, sp, #988	@ 0x3dc
     c72:	1d44      	adds	r4, r0, #5
     c74:	d108      	bne.n	0xc88
     c76:	e410      	b.n	0x49a
     c78:	2641      	movs	r6, #65	@ 0x41
     c7a:	18dd      	adds	r5, r3, r3
     c7c:	1400      	asrs	r0, r0, #16
     c7e:	16c2      	asrs	r2, r0, #27
     c80:	0cc2      	lsrs	r2, r0, #19
     c82:	9000      	str	r0, [sp, #0]
     c84:	1e8a      	subs	r2, r1, #2
     c86:	00c0      	lsls	r0, r0, #3
     c88:	9949      	ldr	r1, [sp, #292]	@ 0x124
     c8a:	21c3      	movs	r1, #195	@ 0xc3
     c8c:	1446      	asrs	r6, r0, #17
     c8e:	2147      	movs	r1, #71	@ 0x47
     c90:	1546      	asrs	r6, r0, #21
     c92:	6247      	str	r7, [r0, #36]	@ 0x24
     c94:	3224      	adds	r2, #36	@ 0x24
     c96:	347c      	adds	r4, #124	@ 0x7c
     c98:	2146      	movs	r1, #70	@ 0x46
     c9a:	018d      	lsls	r5, r1, #6
     c9c:	2088      	movs	r0, #136	@ 0x88
     c9e:	146e      	asrs	r6, r5, #17
     ca0:	ffc1 fed1 			@ <UNDEFINED> instruction: 0xffc1fed1
     ca4:	256f      	movs	r5, #111	@ 0x6f
     ca6:	1546      	asrs	r6, r0, #21
     ca8:	01c1      	lsls	r1, r0, #7
     caa:	6447      	str	r7, [r0, #68]	@ 0x44
     cac:	0c34      	lsrs	r4, r6, #16
     cae:	c830      	ldmia	r0!, {r4, r5}
     cb0:	4628      	mov	r0, r5
     cb2:	2583      	movs	r5, #131	@ 0x83
     cb4:	ed05 40e9 	stc	0, cr4, [r5, #-932]	@ 0xfffffc5c
     cb8:	2852      	cmp	r0, #82	@ 0x52
     cba:	449e      	add	lr, r3
     cbc:	0219      	lsls	r1, r3, #8
     cbe:	ce28      	ldmia	r6!, {r3, r5}
     cc0:	1212      	asrs	r2, r2, #8
     cc2:	0993      	lsrs	r3, r2, #6
     cc4:	6e15      	ldr	r5, [r2, #96]	@ 0x60
     cc6:	1cc5      	adds	r5, r0, #3
     cc8:	8840      	ldrh	r0, [r0, #2]
     cca:	416b      	adcs	r3, r5
     ccc:	2194      	movs	r1, #148	@ 0x94
     cce:	e280      	b.n	0x11d2
     cd0:	112c      	asrs	r4, r5, #4
     cd2:	2ef0      	cmp	r6, #240	@ 0xf0
     cd4:	2d99      	cmp	r5, #153	@ 0x99
     cd6:	9441      	str	r4, [sp, #260]	@ 0x104
     cd8:	8021      	strh	r1, [r4, #0]
     cda:	2ce2      	cmp	r4, #226	@ 0xe2
     cdc:	2011      	movs	r0, #17
     cde:	9920      	ldr	r1, [sp, #128]	@ 0x80
     ce0:	6117      	str	r7, [r2, #16]
     ce2:	8d14      	ldrh	r4, [r2, #40]	@ 0x28
     ce4:	4902      	ldr	r1, [pc, #8]	@ (0xcf0)
     ce6:	c346      	stmia	r3!, {r1, r2, r6}
     ce8:	80c0      	strh	r0, [r0, #6]
     cea:	628c      	str	r4, [r1, #40]	@ 0x28
     cec:	5834      	ldr	r4, [r6, r0]
     cee:	d052      	beq.n	0xd96
     cf0:	149e      	asrs	r6, r3, #18
     cf2:	8524      	strh	r4, [r4, #40]	@ 0x28
     cf4:	49e2      	ldr	r1, [pc, #904]	@ (0x1080)
     cf6:	2194      	movs	r1, #148	@ 0x94
     cf8:	e280      	b.n	0x11fc
     cfa:	212c      	movs	r1, #44	@ 0x2c
     cfc:	9931      	ldr	r1, [sp, #196]	@ 0xc4
     cfe:	40db      	lsrs	r3, r3
     d00:	2194      	movs	r1, #148	@ 0x94
     d02:	e280      	b.n	0x1206
     d04:	112c      	asrs	r4, r5, #4
     d06:	1d90      	adds	r0, r2, #6
     d08:	c599      	stmia	r5!, {r0, r3, r4, r7}
     d0a:	1460      	asrs	r0, r4, #17
     d0c:	328d      	adds	r2, #141	@ 0x8d
     d0e:	4648      	mov	r0, r9
     d10:	c0c3      	stmia	r0!, {r0, r1, r6, r7}
     d12:	8c85      	ldrh	r5, [r0, #36]	@ 0x24
     d14:	3462      	adds	r4, #98	@ 0x62
     d16:	5258      	strh	r0, [r3, r1]
     d18:	1ed0      	subs	r0, r2, #3
     d1a:	2416      	movs	r4, #22
     d1c:	e285      	b.n	0x122a
     d1e:	9449      	str	r4, [sp, #292]	@ 0x124
     d20:	8021      	strh	r1, [r4, #0]
     d22:	2ce2      	cmp	r4, #226	@ 0xe2
     d24:	3121      	adds	r1, #33	@ 0x21
     d26:	8999      	ldrh	r1, [r3, #12]
     d28:	9440      	str	r4, [sp, #256]	@ 0x100
     d2a:	8021      	strh	r1, [r4, #0]
     d2c:	2ce2      	cmp	r4, #226	@ 0xe2
     d2e:	0011      	movs	r1, r2
     d30:	981b      	ldr	r0, [sp, #108]	@ 0x6c
     d32:	e274      	b.n	0x121e
     d34:	1146      	asrs	r6, r0, #5
     d36:	1ffc      	subs	r4, r7, #7
     d38:	ffed 6256 	vrshr.u32	q11, q3, #19
     d3c:	1154      	asrs	r4, r2, #5
     d3e:	701c      	strb	r4, [r3, #0]
     d40:	6e44      	ldr	r4, [r0, #100]	@ 0x64
     d42:	acc5      	add	r4, sp, #788	@ 0x314
     d44:	8004      	strh	r4, [r0, #0]
     d46:	23ab      	movs	r3, #171	@ 0xab
     d48:	1646      	asrs	r6, r0, #25
     d4a:	d945      	bls.n	0xdd8
     d4c:	7462      	strb	r2, [r4, #17]
     d4e:	a451      	add	r4, pc, #324	@ (adr r4, 0xe94)
     d50:	462d      	mov	r5, r5
     d52:	4518      	cmp	r0, r3
     d54:	62db      	str	r3, [r3, #44]	@ 0x2c
     d56:	5194      	str	r4, [r2, r6]
     d58:	2dc4      	cmp	r5, #196	@ 0xc4
     d5a:	1a46      	subs	r6, r0, r1
     d5c:	dd45      	ble.n	0xdea
     d5e:	b462      	push	{r1, r5, r6}
     d60:	e451      	b.n	0x606
     d62:	198d      	adds	r5, r1, r6
     d64:	9441      	str	r4, [sp, #260]	@ 0x104
     d66:	8021      	strh	r1, [r4, #0]
     d68:	2ce2      	cmp	r4, #226	@ 0xe2
     d6a:	4011      	ands	r1, r2
     d6c:	4417      	add	r7, r2
     d6e:	0219      	lsls	r1, r3, #8
     d70:	ce28      	ldmia	r6!, {r3, r5}
     d72:	2112      	movs	r1, #18
     d74:	0b62      	lsrs	r2, r4, #13
     d76:	08d2      	lsrs	r2, r2, #3
     d78:	e230      	b.n	0x11dc
     d7a:	9cd2      	ldr	r4, [sp, #840]	@ 0x348
     d7c:	4002      	ands	r2, r0
     d7e:	ed21 002a 	stc	0, cr0, [r1, #-168]!	@ 0xffffff58
     d82:	110b      	asrs	r3, r1, #4
     d84:	15ed      	asrs	r5, r5, #23
     d86:	a2a4      	add	r2, pc, #656	@ (adr r2, 0x1018)
     d88:	0440      	lsls	r0, r0, #17
     d8a:	5e22      	ldrsh	r2, [r4, r0]
     d8c:	cf1d      	ldmia	r7!, {r0, r2, r3, r4}
     d8e:	101f      	asrs	r7, r3, #32
     d90:	fddf 4117 	ldc2l	1, cr4, [pc, #92]	@ 0xdf0
     d94:	001a      	movs	r2, r3
     d96:	1b41      	subs	r1, r0, r5
     d98:	4100      	asrs	r0, r0
     d9a:	001d      	movs	r5, r3
     d9c:	000a      	movs	r2, r1
     d9e:	8047      	strh	r7, [r0, #2]
     da0:	61d9      	str	r1, [r3, #28]
     da2:	5804      	ldr	r4, [r0, r0]
     da4:	0052      	lsls	r2, r2, #1
     da6:	000d      	movs	r5, r1
     da8:	2c9e      	cmp	r4, #158	@ 0x9e
     daa:	1f85      	subs	r5, r0, #6
     dac:	8046      	strh	r6, [r0, #2]
     dae:	0d10      	lsrs	r0, r2, #20
     db0:	c046      	stmia	r0!, {r1, r2, r6}
     db2:	8020      	strh	r0, [r4, #0]
     db4:	ed8d df17 	stc	15, cr13, [sp, #92]	@ 0x5c
     db8:	f103 fddf 	bl	0x10497a
     dbc:	4117      	asrs	r7, r2
     dbe:	0018      	movs	r0, r3
     dc0:	1941      	adds	r1, r0, r5
     dc2:	4100      	asrs	r0, r0
     dc4:	001a      	movs	r2, r3
     dc6:	1b41      	subs	r1, r0, r5
     dc8:	4100      	asrs	r0, r0
     dca:	001c      	movs	r4, r3
     dcc:	1d41      	adds	r1, r0, #5
     dce:	4100      	asrs	r0, r0
     dd0:	001e      	movs	r6, r3
     dd2:	1f41      	subs	r1, r0, #5
     dd4:	4100      	asrs	r0, r0
     dd6:	0020      	movs	r0, r4
     dd8:	00c0      	lsls	r0, r0, #3
     dda:	216d      	movs	r1, #109	@ 0x6d
     ddc:	000a      	movs	r2, r1
     dde:	8047      	strh	r7, [r0, #2]
     de0:	61d9      	str	r1, [r3, #28]
     de2:	5804      	ldr	r4, [r0, r0]
     de4:	0052      	lsls	r2, r2, #1
     de6:	000d      	movs	r5, r1
     de8:	2c9e      	cmp	r4, #158	@ 0x9e
     dea:	1f85      	subs	r5, r0, #6
     dec:	8046      	strh	r6, [r0, #2]
     dee:	0d10      	lsrs	r0, r2, #20
     df0:	c046      	stmia	r0!, {r1, r2, r6}
     df2:	8020      	strh	r0, [r4, #0]
     df4:	1d8d      	adds	r5, r1, #6
     df6:	0244      	lsls	r4, r0, #9
     df8:	17e0      	asrs	r0, r4, #31
     dfa:	03df      	lsls	r7, r3, #15
     dfc:	dff1      	svc	241	@ 0xf1
     dfe:	047f      	lsls	r7, r7, #17
     e00:	5046      	str	r6, [r0, r1]
     e02:	1184      	asrs	r4, r0, #6
     e04:	01b4      	lsls	r4, r6, #6
     e06:	a410      	add	r4, pc, #64	@ (adr r4, 0xe48)
     e08:	1001      	asrs	r1, r0, #32
     e0a:	01c4      	lsls	r4, r0, #7
     e0c:	d410      	bmi.n	0xe30
     e0e:	1001      	asrs	r1, r0, #32
     e10:	01e4      	lsls	r4, r4, #7
     e12:	1df0      	adds	r0, r6, #7
     e14:	4110      	asrs	r0, r2
     e16:	0018      	movs	r0, r3
     e18:	1a41      	subs	r1, r0, r1
     e1a:	1000      	asrs	r0, r0, #32
     e1c:	1841      	adds	r1, r0, r1
     e1e:	4100      	asrs	r0, r0
     e20:	001a      	movs	r2, r3
     e22:	1b41      	subs	r1, r0, r5
     e24:	4100      	asrs	r0, r0
     e26:	ff23 ce21 	vcgt.f32	d12, d3, d17
     e2a:	1031      	asrs	r1, r6, #32
     e2c:	fcdf 4727 	ldc2l	7, cr4, [pc], {39}	@ 0x27
     e30:	0460      	lsls	r0, r4, #17
     e32:	10a2      	asrs	r2, r4, #2
     e34:	1470      	asrs	r0, r6, #17
     e36:	2146      	movs	r1, #70	@ 0x46
     e38:	32b1      	adds	r2, #177	@ 0xb1
     e3a:	258c      	movs	r5, #140	@ 0x8c
     e3c:	e005      	b.n	0xe4a
     e3e:	52c9      	strh	r1, [r1, r3]
     e40:	61e8      	str	r0, [r5, #28]
     e42:	c114      	stmia	r1!, {r2, r4}
     e44:	580f      	ldr	r7, [r1, r0]
     e46:	d052      	beq.n	0xeee
     e48:	48fe      	ldr	r0, [pc, #1016]	@ (0x1244)
     e4a:	8524      	strh	r4, [r4, #40]	@ 0x28
     e4c:	730e      	strb	r6, [r1, #12]
     e4e:	d738      	bvc.n	0xec2
     e50:	00cc      	lsls	r4, r1, #3
     e52:	a800      	add	r0, sp, #0
     e54:	4651      	mov	r1, sl
     e56:	b121      	cbz	r1, 0xe62
     e58:	8c32      	ldrh	r2, [r6, #32]
     e5a:	0525      	lsls	r5, r4, #20
     e5c:	c9e0      	ldmia	r1!, {r5, r6, r7}
     e5e:	e852 1461 			@ <UNDEFINED> instruction: 0xe8521461
     e62:	0fc1      	lsrs	r1, r0, #31
     e64:	5258      	strh	r0, [r3, r1]
     e66:	fed0 2448 	cdp2	4, 13, cr2, cr0, cr8, {2}
     e6a:	0e85      	lsrs	r5, r0, #26
     e6c:	2822      	cmp	r0, #34	@ 0x22
     e6e:	7392      	strb	r2, [r2, #14]
     e70:	7732      	strb	r2, [r6, #28]
     e72:	2146      	movs	r1, #70	@ 0x46
     e74:	32b1      	adds	r2, #177	@ 0xb1
     e76:	258c      	movs	r5, #140	@ 0x8c
     e78:	e005      	b.n	0xe86
     e7a:	52c9      	strh	r1, [r1, r3]
     e7c:	e1f8      	b.n	0x1270
     e7e:	df27      	svc	39	@ 0x27
     e80:	f104 fcdf 	bl	0x105842
     e84:	4727      	bx	r4
     e86:	0460      	lsls	r0, r4, #17
     e88:	10a2      	asrs	r2, r4, #2
     e8a:	1470      	asrs	r0, r6, #17
     e8c:	2146      	movs	r1, #70	@ 0x46
     e8e:	32b1      	adds	r2, #177	@ 0xb1
     e90:	258c      	movs	r5, #140	@ 0x8c
     e92:	e005      	b.n	0xea0
     e94:	52c9      	strh	r1, [r1, r3]
     e96:	61e8      	str	r0, [r5, #28]
     e98:	c114      	stmia	r1!, {r2, r4}
     e9a:	580f      	ldr	r7, [r1, r0]
     e9c:	d052      	beq.n	0xf44
     e9e:	48fe      	ldr	r0, [pc, #1016]	@ (0x1298)
     ea0:	8524      	strh	r4, [r4, #40]	@ 0x28
     ea2:	730e      	strb	r6, [r1, #12]
     ea4:	d738      	bvc.n	0xf18
     ea6:	00cc      	lsls	r4, r1, #3
     ea8:	a800      	add	r0, sp, #0
     eaa:	4651      	mov	r1, sl
     eac:	b121      	cbz	r1, 0xeb8
     eae:	8c32      	ldrh	r2, [r6, #32]
     eb0:	0525      	lsls	r5, r4, #20
     eb2:	c9e0      	ldmia	r1!, {r5, r6, r7}
     eb4:	e852 1461 			@ <UNDEFINED> instruction: 0xe8521461
     eb8:	0fc1      	lsrs	r1, r0, #31
     eba:	5258      	strh	r0, [r3, r1]
     ebc:	fed0 2448 	cdp2	4, 13, cr2, cr0, cr8, {2}
     ec0:	0e85      	lsrs	r5, r0, #26
     ec2:	2822      	cmp	r0, #34	@ 0x22
     ec4:	7392      	strb	r2, [r2, #14]
     ec6:	7732      	strb	r2, [r6, #28]
     ec8:	2146      	movs	r1, #70	@ 0x46
     eca:	32b1      	adds	r2, #177	@ 0xb1
     ecc:	258c      	movs	r5, #140	@ 0x8c
     ece:	e005      	b.n	0xedc
     ed0:	52c9      	strh	r1, [r1, r3]
     ed2:	e1f8      	b.n	0x12c6
     ed4:	df27      	svc	39	@ 0x27
     ed6:	f104 01c0 	add.w	r1, r4, #192	@ 0xc0
     eda:	216d      	movs	r1, #109	@ 0x6d
     edc:	ef10 f10e 	vrhadd.s16	d15, d0, d14
     ee0:	df10      	svc	16
     ee2:	14fd      	asrs	r5, r7, #19
     ee4:	2047      	movs	r0, #71	@ 0x47
     ee6:	1ccd      	adds	r5, r1, #3
     ee8:	1e00      	subs	r0, r0, #0
     eea:	3cd2      	subs	r4, #210	@ 0xd2
     eec:	9012      	str	r0, [sp, #72]	@ 0x48
     eee:	cd20      	ldmia	r5, {r5}
     ef0:	0026      	movs	r6, r4
     ef2:	460c      	mov	r4, r1
     ef4:	14e0      	asrs	r0, r4, #19
     ef6:	4b21      	ldr	r3, [pc, #132]	@ (0xf7c)
     ef8:	df2f      	svc	47	@ 0x2f
     efa:	f103 f4cf 	bl	0x50489c
     efe:	2047      	movs	r0, #71	@ 0x47
     f00:	1ccd      	adds	r5, r1, #3
     f02:	1c00      	adds	r0, r0, #0
     f04:	030a      	lsls	r2, r1, #12
     f06:	c147      	stmia	r1!, {r0, r1, r2, r6}
     f08:	201e      	movs	r0, #30
     f0a:	36f0      	adds	r6, #240	@ 0xf0
     f0c:	2046      	movs	r0, #70	@ 0x46
     f0e:	ce80      	ldmia	r6!, {r7}
     f10:	aef1      	add	r6, sp, #964	@ 0x3c4
     f12:	0ccf      	lsrs	r7, r1, #19
     f14:	cf10      	ldmia	r7!, {r4}
     f16:	47f4      	blxns	lr
     f18:	60a0      	str	r0, [r4, #8]
     f1a:	1470      	asrs	r0, r6, #17
     f1c:	01ec      	lsls	r4, r5, #7
     f1e:	6f0e      	ldr	r6, [r1, #112]	@ 0x70
     f20:	0c03      	lsrs	r3, r0, #16
     f22:	56f1      	ldrsb	r1, [r6, r3]
     f24:	00c0      	lsls	r0, r0, #3
     f26:	676f      	str	r7, [r5, #116]	@ 0x74
     f28:	0204      	lsls	r4, r0, #8
     f2a:	1ce8      	adds	r0, r5, #3
     f2c:	faef 00cc 			@ <UNDEFINED> instruction: 0xfaef00cc
     f30:	dff1      	svc	241	@ 0xf1
     f32:	04fb      	lsls	r3, r7, #19
     f34:	e04e      	b.n	0xfd4
     f36:	0e2c      	lsrs	r4, r5, #24
     f38:	ffc1 fed1 			@ <UNDEFINED> instruction: 0xffc1fed1
     f3c:	e36f      	b.n	0x161e
     f3e:	8604      	strh	r4, [r0, #48]	@ 0x30
     f40:	c103      	stmia	r1!, {r0, r1}
     f42:	4701      	bx	r0
     f44:	a012      	add	r0, pc, #72	@ (adr r0, 0xf90)
     f46:	46bc      	mov	ip, r7
     f48:	08c2      	lsrs	r2, r0, #3
     f4a:	10a0      	asrs	r0, r4, #2
     f4c:	1204      	asrs	r4, r0, #8
     f4e:	6980      	ldr	r0, [r0, #24]
     f50:	c411      	stmia	r4!, {r0, r4}
     f52:	1011      	asrs	r1, r2, #32
     f54:	01d4      	lsls	r4, r2, #7
     f56:	8440      	strh	r0, [r0, #34]	@ 0x22
     f58:	5311      	strh	r1, [r2, r4]
     f5a:	f309 105d 	ssat	r0, #30, r9, lsl #5
     f5e:	f4cf a047 	bcc.w	0xfff4fff0
     f62:	7060      	strb	r0, [r4, #1]
     f64:	ec14 1e01 	ldc	14, cr1, [r4], {1}
     f68:	a36f      	add	r3, pc, #444	@ (adr r3, 0x1128)
     f6a:	70c0      	strb	r0, [r0, #3]
     f6c:	0a54      	lsrs	r4, r2, #9
     f6e:	4702      	bx	r0
     f70:	0466      	lsls	r6, r4, #17
     f72:	e802 ef1c 			@ <UNDEFINED> instruction: 0xe802ef1c
     f76:	ccfa      	ldmia	r4, {r1, r3, r4, r5, r6, r7}
     f78:	f100 f4cf 	bl	0x50191a
     f7c:	a047      	add	r0, pc, #284	@ (adr r0, 0x109c)
     f7e:	7060      	strb	r0, [r4, #1]
     f80:	ec14 2601 	ldc	6, cr2, [r4], {1}
     f84:	c36f      	stmia	r3!, {r0, r1, r2, r3, r5, r6}
     f86:	221e      	movs	r2, #30
     f88:	56f5      	ldrsb	r5, [r6, r3]
     f8a:	00c0      	lsls	r0, r0, #3
     f8c:	676f      	str	r7, [r5, #116]	@ 0x74
     f8e:	0204      	lsls	r4, r0, #8
     f90:	1ce8      	adds	r0, r5, #3
     f92:	faef 00cc 			@ <UNDEFINED> instruction: 0xfaef00cc
     f96:	cff1      	ldmia	r7, {r0, r4, r5, r6, r7}
     f98:	4ff2      	ldr	r7, [pc, #968]	@ (0x1364)
     f9a:	0471      	lsls	r1, r6, #17
     f9c:	6cd2      	ldr	r2, [r2, #76]	@ 0x4c
     f9e:	f002 0460 	and.w	r4, r2, #96	@ 0x60
     fa2:	114e      	asrs	r6, r1, #5
     fa4:	f3b0 3098 			@ <UNDEFINED> instruction: 0xf3b03098
     fa8:	060a      	lsls	r2, r1, #24
     faa:	c347      	stmia	r3!, {r0, r1, r2, r6}
     fac:	e01e      	b.n	0xfec
     fae:	56f2      	ldrsb	r2, [r6, r3]
     fb0:	16c2      	asrs	r2, r0, #27
     fb2:	f40c c276 	blx	0xff00d4a0
     fb6:	0c30      	lsrs	r0, r6, #16
     fb8:	9474      	str	r4, [sp, #464]	@ 0x1d0
     fba:	2046      	movs	r0, #70	@ 0x46
     fbc:	ce80      	ldmia	r6!, {r7}
     fbe:	aef3      	add	r6, sp, #972	@ 0x3cc
     fc0:	0ecf      	lsrs	r7, r1, #27
     fc2:	cf10      	ldmia	r7!, {r4}
     fc4:	47f1      			@ <UNDEFINED> instruction: 0x47f1
     fc6:	14f0      	asrs	r0, r6, #19
     fc8:	614e      	str	r6, [r1, #20]
     fca:	7048      	strb	r0, [r1, #1]
     fcc:	4634      	mov	r4, r6
     fce:	08d3      	lsrs	r3, r2, #3
     fd0:	a390      	add	r3, pc, #576	@ (adr r3, 0x1214)
     fd2:	7060      	strb	r0, [r4, #1]
     fd4:	ec44 8601 	mcrr	6, 0, r8, r4, cr1
     fd8:	266f      	movs	r6, #111	@ 0x6f
     fda:	c16c      	stmia	r1!, {r2, r3, r5, r6}
     fdc:	6f40      	ldr	r0, [r0, #116]	@ 0x74
     fde:	0c28      	lsrs	r0, r5, #16
     fe0:	40c3      	lsrs	r3, r0
     fe2:	6a47      	ldr	r7, [r0, #36]	@ 0x24
     fe4:	4734      	bxns	r6
     fe6:	046b      	lsls	r3, r5, #17
     fe8:	e802 ef4c 			@ <UNDEFINED> instruction: 0xe802ef4c
     fec:	5fea      	ldrsh	r2, [r5, r7]
     fee:	e046      	b.n	0x107e
     ff0:	1114      	asrs	r4, r2, #4
     ff2:	feed 00fc 	mcr2	0, 7, r0, cr13, cr12, {7}
     ff6:	cff1      	ldmia	r7, {r0, r4, r5, r6, r7}
     ff8:	67f1      	str	r1, [r6, #124]	@ 0x7c
     ffa:	247e      	movs	r4, #126	@ 0x7e
     ffc:	6cd2      	ldr	r2, [r2, #76]	@ 0x4c
     ffe:	a002      	add	r0, pc, #8	@ (adr r0, 0x1008)
    1000:	60a2      	str	r2, [r4, #8]
    1002:	3470      	adds	r4, #112	@ 0x70
    1004:	01ec      	lsls	r4, r5, #7
    1006:	6f36      	ldr	r6, [r6, #112]	@ 0x70
    1008:	6c25      	ldr	r5, [r4, #64]	@ 0x40
    100a:	4002      	ands	r2, r0
    100c:	676f      	str	r7, [r5, #116]	@ 0x74
    100e:	0224      	lsls	r4, r4, #8
    1010:	3ce8      	subs	r4, #232	@ 0xe8
    1012:	8aef      	ldrh	r7, [r5, #22]
    1014:	01a9      	lsls	r1, r5, #6
    1016:	f3ac 6606 	usat	r6, #6, ip, asr #24
    101a:	1ec2      	subs	r2, r0, #3
    101c:	2360      	movs	r3, #96	@ 0x60
    101e:	8ac4      	ldrh	r4, [r0, #22]
    1020:	1811      	adds	r1, r2, r0
    1022:	e664      	b.n	0xcee
    1024:	0fcf      	lsrs	r7, r1, #31
    1026:	cf10      	ldmia	r7!, {r4}
    1028:	47f4      	blxns	lr
    102a:	80a0      	strh	r0, [r4, #4]
    102c:	1470      	asrs	r0, r6, #17
    102e:	01ec      	lsls	r4, r5, #7
    1030:	6f3e      	ldr	r6, [r7, #112]	@ 0x70
    1032:	d6c3      	bvs.n	0xfbc
    1034:	56fc      	ldrsb	r4, [r7, r3]
    1036:	cf6c      	ldmia	r7!, {r2, r3, r5, r6}
    1038:	c76f      	stmia	r7!, {r0, r1, r2, r3, r5, r6}
    103a:	fd16 4696 	ldc2	6, cr4, [r6, #-600]	@ 0xfffffda8
    103e:	8020      	strh	r0, [r4, #0]
    1040:	f1ce cfae 	blx	0x9cffa0
    1044:	100c      	asrs	r4, r1, #32
    1046:	f4cf a047 	bcc.w	0xfff500d8
    104a:	7060      	strb	r0, [r4, #1]
    104c:	ec14 5e01 	ldc	14, cr5, [r4], {1}
    1050:	036f      	lsls	r7, r5, #13
    1052:	f00c c056 	blx	0xc0d100
    1056:	6f00      	ldr	r0, [r0, #112]	@ 0x70
    1058:	0467      	lsls	r7, r4, #17
    105a:	e802 ef1c 			@ <UNDEFINED> instruction: 0xe802ef1c
    105e:	ccfa      	ldmia	r4, {r1, r3, r4, r5, r6, r7}
    1060:	f100 f2cf 	bl	0x501602
    1064:	f047 d214 	bl	0xc48490
    1068:	01cc      	lsls	r4, r1, #7
    106a:	e500      	b.n	0xa6e
    106c:	8614      	strh	r4, [r2, #48]	@ 0x30
    106e:	c104      	stmia	r1!, {r2}
    1070:	8d40      	ldrh	r0, [r0, #42]	@ 0x2a
    1072:	2140      	movs	r1, #64	@ 0x40
    1074:	030a      	lsls	r2, r1, #12
    1076:	c347      	stmia	r3!, {r0, r1, r2, r6}
    1078:	201e      	movs	r0, #30
    107a:	56f0      	ldrsb	r0, [r6, r3]
    107c:	2046      	movs	r0, #70	@ 0x46
    107e:	ce80      	ldmia	r6!, {r7}
    1080:	aef3      	add	r6, sp, #972	@ 0x3cc
    1082:	4211      	tst	r1, r2
    1084:	cd2a      	ldmia	r5, {r1, r3, r5}
    1086:	0123      	lsls	r3, r4, #4
    1088:	d209      	bcs.n	0x109e
    108a:	026c      	lsls	r4, r5, #9
    108c:	60c0      	str	r0, [r0, #12]
    108e:	4e04      	ldr	r6, [pc, #16]	@ (0x10a0)
    1090:	0311      	lsls	r1, r2, #12
    1092:	f2db 00ec 			@ <UNDEFINED> instruction: 0xf2db00ec
    1096:	dff1      	svc	241	@ 0xf1
    1098:	04fd      	lsls	r5, r7, #19
    109a:	604e      	str	r6, [r1, #4]
    109c:	7048      	strb	r0, [r1, #1]
    109e:	4624      	mov	r4, r4
    10a0:	3542      	adds	r5, #66	@ 0x42
    10a2:	4232      	tst	r2, r6
    10a4:	11a8      	asrs	r0, r5, #6
    10a6:	5246      	strh	r6, [r0, r1]
    10a8:	4234      	tst	r4, r6
    10aa:	1234      	asrs	r4, r6, #8
    10ac:	f563 3df2 	sbc.w	sp, r3, #123904	@ 0x1e400
    10b0:	df10      	svc	16
    10b2:	567a      	ldrsb	r2, [r7, r1]
    10b4:	f247 4e34 	movw	lr, #29748	@ 0x7434
    10b8:	4863      	ldr	r0, [pc, #396]	@ (0x1248)
    10ba:	08d0      	lsrs	r0, r2, #3
    10bc:	2470      	movs	r4, #112	@ 0x70
    10be:	26cd      	movs	r6, #205	@ 0xcd
    10c0:	2100      	movs	r1, #0
    10c2:	5246      	strh	r6, [r0, r1]
    10c4:	cd34      	ldmia	r5, {r2, r4, r5}
    10c6:	000e      	movs	r6, r1
    10c8:	56d1      	ldrsb	r1, [r2, r3]
    10ca:	a41d      	add	r4, pc, #116	@ (adr r4, 0x1140)
    10cc:	1002      	asrs	r2, r0, #32
    10ce:	1294      	asrs	r4, r2, #10
    10d0:	8980      	ldrh	r0, [r0, #12]
    10d2:	ac02      	add	r4, sp, #8
    10d4:	06f3      	lsls	r3, r6, #27
    10d6:	c266      	stmia	r2!, {r1, r2, r5, r6}
    10d8:	632e      	str	r6, [r5, #48]	@ 0x30
    10da:	c420      	stmia	r4!, {r5}
    10dc:	118a      	asrs	r2, r1, #6
    10de:	e35b      	b.n	0x1798
    10e0:	465f      	mov	r7, fp
    10e2:	34e2      	adds	r4, #226	@ 0xe2
    10e4:	fa11 566d 			@ <UNDEFINED> instruction: 0xfa11566d
    10e8:	06df      	lsls	r7, r3, #27
    10ea:	cff1      	ldmia	r7, {r0, r4, r5, r6, r7}
    10ec:	72e9      	strb	r1, [r5, #11]
    10ee:	7166      	strb	r6, [r4, #5]
    10f0:	4f24      	ldr	r7, [pc, #144]	@ (0x1184)
    10f2:	34e3      	adds	r4, #227	@ 0xe3
    10f4:	0686      	lsls	r6, r0, #26
    10f6:	08d2      	lsrs	r2, r2, #3
    10f8:	0830      	lsrs	r0, r6, #32
    10fa:	6cd2      	ldr	r2, [r2, #76]	@ 0x4c
    10fc:	d002      	beq.n	0x1104
    10fe:	34e5      	adds	r4, #229	@ 0xe5
    1100:	e4ce      	b.n	0xaa0
    1102:	56f0      	ldrsb	r0, [r6, r3]
    1104:	f56e 0a06 	sbc.w	sl, lr, #8781824	@ 0x860000
    1108:	5a01      	ldrh	r1, [r0, r0]
    110a:	0204      	lsls	r4, r0, #8
    110c:	7ce8      	ldrb	r0, [r5, #19]
    110e:	1121      	asrs	r1, r4, #4
    1110:	0a1f      	lsrs	r7, r3, #8
    1112:	4708      	bx	r1
    1114:	2ecb      	cmp	r6, #203	@ 0xcb
    1116:	f0e3 6ed6 			@ <UNDEFINED> instruction: 0xf0e36ed6
    111a:	f6f5 276e 			@ <UNDEFINED> instruction: 0xf6f5276e
    111e:	116f      	asrs	r7, r5, #5
    1120:	296e      	cmp	r1, #110	@ 0x6e
    1122:	136f      	asrs	r7, r5, #13
    1124:	2246      	movs	r2, #70	@ 0x46
    1126:	e280      	b.n	0x162a
    1128:	f0bc 98ae 	b.w	0x8bd288
    112c:	c028      	stmia	r0!, {r3, r5}
    112e:	6f3a      	ldr	r2, [r7, #112]	@ 0x70
    1130:	2660      	movs	r6, #96	@ 0x60
    1132:	32ec      	adds	r2, #236	@ 0xec
    1134:	420e      	tst	r6, r1
    1136:	18ac      	adds	r4, r5, r2
    1138:	3010      	adds	r0, #16
    113a:	65fe      	str	r6, [r7, #92]	@ 0x5c
    113c:	4e24      	ldr	r6, [pc, #144]	@ (0x11d0)
    113e:	0013      	movs	r3, r2
    1140:	62da      	str	r2, [r3, #44]	@ 0x2c
    1142:	f166 017c 	sbc.w	r1, r6, #124	@ 0x7c
    1146:	cff1      	ldmia	r7, {r0, r4, r5, r6, r7}
    1148:	4ff1      	ldr	r7, [pc, #964]	@ (0x1510)
    114a:	04e0      	lsls	r0, r4, #19
    114c:	0486      	lsls	r6, r0, #18
    114e:	e247      	b.n	0x15e0
    1150:	8604      	strh	r4, [r0, #48]	@ 0x30
    1152:	4705      	bx	r0
    1154:	2463      	movs	r4, #99	@ 0x63
    1156:	018d      	lsls	r5, r1, #6
    1158:	4618      	mov	r0, r3
    115a:	7452      	strb	r2, [r2, #17]
    115c:	3462      	adds	r4, #98	@ 0x62
    115e:	2545      	movs	r5, #69	@ 0x45
    1160:	2841      	cmp	r0, #65	@ 0x41
    1162:	9800      	ldr	r0, [sp, #0]
    1164:	467d      	mov	r5, pc
    1166:	48c2      	ldr	r0, [pc, #776]	@ (0x1470)
    1168:	6090      	str	r0, [r2, #8]
    116a:	8d24      	ldrh	r4, [r4, #40]	@ 0x28
    116c:	1805      	adds	r5, r0, r0
    116e:	5246      	strh	r6, [r0, r1]
    1170:	6274      	str	r4, [r6, #36]	@ 0x24
    1172:	4534      	cmp	r4, r6
    1174:	4125      	asrs	r5, r4
    1176:	0028      	movs	r0, r5
    1178:	5398      	strh	r0, [r3, r6]
    117a:	d246      	bcs.n	0x120a
    117c:	a008      	add	r0, pc, #32	@ (adr r0, 0x11a0)
    117e:	6414      	str	r4, [r2, #64]	@ 0x40
    1180:	1002      	asrs	r2, r0, #32
    1182:	0274      	lsls	r4, r6, #9
    1184:	9410      	str	r4, [sp, #64]	@ 0x40
    1186:	a001      	add	r0, pc, #4	@ (adr r0, 0x118c)
    1188:	1000      	asrs	r0, r0, #32
    118a:	70d0      	strb	r0, [r2, #3]
    118c:	060a      	lsls	r2, r1, #24
    118e:	c447      	stmia	r4!, {r0, r1, r2, r6}
    1190:	232e      	movs	r3, #46	@ 0x2e
    1192:	66f1      	str	r1, [r6, #108]	@ 0x6c
    1194:	000a      	movs	r2, r1
    1196:	6847      	ldr	r7, [r0, #4]
    1198:	4734      	bxns	r6
    119a:	3469      	adds	r4, #105	@ 0x69
    119c:	e802 ef4c 			@ <UNDEFINED> instruction: 0xe802ef4c
    11a0:	b31a      	cbz	r2, 0x11ea
    11a2:	f2dc 00fc 			@ <UNDEFINED> instruction: 0xf2dc00fc
    11a6:	cff1      	ldmia	r7, {r0, r4, r5, r6, r7}
    11a8:	7fef      	ldrb	r7, [r5, #31]
    11aa:	04ff      	lsls	r7, r7, #19
    11ac:	7dd2      	ldrb	r2, [r2, #23]
    11ae:	b002      	add	sp, #8
    11b0:	4e0f      	ldr	r6, [pc, #60]	@ (0x11f0)
    11b2:	4ce0      	ldr	r4, [pc, #896]	@ (0x1534)
    11b4:	6f0e      	ldr	r6, [r1, #112]	@ 0x70
    11b6:	ed22 0127 	stfs	f0, [r2, #-156]!	@ 0xffffff64
    11ba:	442b      	add	r3, r5
    11bc:	5828      	ldr	r0, [r5, r0]
    11be:	d052      	beq.n	0x1266
    11c0:	219e      	movs	r1, #158	@ 0x9e
    11c2:	8524      	strh	r4, [r4, #40]	@ 0x28
    11c4:	7e0e      	ldrb	r6, [r1, #24]
    11c6:	6822      	ldr	r2, [r4, #0]
    11c8:	67b8      	str	r0, [r7, #120]	@ 0x78
    11ca:	2844      	cmp	r0, #68	@ 0x44
    11cc:	d108      	bne.n	0x11e0
    11ce:	a980      	add	r1, sp, #512	@ 0x200
    11d0:	ed25 0427 	cfstrs	mvf0, [r5, #-156]!	@ 0xffffff64
    11d4:	442b      	add	r3, r5
    11d6:	5828      	ldr	r0, [r5, r0]
    11d8:	d052      	beq.n	0x1280
    11da:	225e      	movs	r2, #94	@ 0x5e
    11dc:	8524      	strh	r4, [r4, #40]	@ 0x28
    11de:	7e0e      	ldrb	r6, [r1, #24]
    11e0:	6822      	ldr	r2, [r4, #0]
    11e2:	33b8      	adds	r3, #184	@ 0xb8
    11e4:	2844      	cmp	r0, #68	@ 0x44
    11e6:	d108      	bne.n	0x11fa
    11e8:	6980      	ldr	r0, [r0, #24]
    11ea:	8442      	strh	r2, [r0, #34]	@ 0x22
    11ec:	2582      	movs	r5, #130	@ 0x82
    11ee:	ed05 4231 	sfm	f4, 4, [r5, #-196]	@ 0xffffff3c
    11f2:	e852 27e0 			@ <UNDEFINED> instruction: 0xe85227e0
    11f6:	9682      	str	r6, [sp, #520]	@ 0x208
    11f8:	4443      	add	r3, r8
    11fa:	0828      	lsrs	r0, r5, #32
    11fc:	00d1      	lsls	r1, r2, #3
    11fe:	5284      	strh	r4, [r0, r2]
    1200:	8d80      	ldrh	r0, [r0, #44]	@ 0x2c
    1202:	7445      	strb	r5, [r0, #17]
    1204:	6452      	str	r2, [r2, #68]	@ 0x44
    1206:	8412      	strh	r2, [r2, #32]
    1208:	4002      	ands	r2, r0
    120a:	5254      	strh	r4, [r2, r1]
    120c:	4194      	sbcs	r4, r2
    120e:	1194      	asrs	r4, r2, #6
    1210:	6870      	ldr	r0, [r6, #4]
    1212:	060a      	lsls	r2, r1, #24
    1214:	c447      	stmia	r4!, {r0, r1, r2, r6}
    1216:	232e      	movs	r3, #46	@ 0x2e
    1218:	66f1      	str	r1, [r6, #108]	@ 0x6c
    121a:	2644      	movs	r6, #68	@ 0x44
    121c:	4847      	ldr	r0, [pc, #284]	@ (0x133c)
    121e:	7254      	strb	r4, [r2, #9]
    1220:	4494      	add	ip, r2
    1222:	0225      	lsls	r5, r4, #8
    1224:	4ce8      	ldr	r4, [pc, #928]	@ (0x15c8)
    1226:	4aef      	ldr	r2, [pc, #956]	@ (0x15e4)
    1228:	4254      	negs	r4, r2
    122a:	1265      	asrs	r5, r4, #9
    122c:	d323      	bcc.n	0x1276
    122e:	f7e2 11cf 			@ <UNDEFINED> instruction: 0xf7e211cf
    1232:	cf10      	ldmia	r7!, {r4}
    1234:	47f4      	blxns	lr
    1236:	60a0      	str	r0, [r4, #8]
    1238:	1470      	asrs	r0, r6, #17
    123a:	32ec      	adds	r2, #236	@ 0xec
    123c:	6f3e      	ldr	r6, [r7, #112]	@ 0x70
    123e:	6c23      	ldr	r3, [r4, #64]	@ 0x40
    1240:	40c8      	lsrs	r0, r1
    1242:	656f      	str	r7, [r5, #84]	@ 0x54
    1244:	0204      	lsls	r4, r0, #8
    1246:	1ce8      	adds	r0, r5, #3
    1248:	faef 00cc 			@ <UNDEFINED> instruction: 0xfaef00cc
    124c:	dff1      	svc	241	@ 0xf1
    124e:	047f      	lsls	r7, r7, #17
    1250:	1046      	asrs	r6, r0, #1
    1252:	bc80      	pop	{r7}
    1254:	01df      	lsls	r7, r3, #7
    1256:	cff1      	ldmia	r7, {r0, r4, r5, r6, r7}
    1258:	f2e9 7157 			@ <UNDEFINED> instruction: 0xf2e97157
    125c:	4f24      	ldr	r7, [pc, #144]	@ (0x12f0)
    125e:	dd23      	ble.n	0x12a8
    1260:	0026      	movs	r6, r4
    1262:	e084      	b.n	0x136e
    1264:	8634      	strh	r4, [r6, #48]	@ 0x30
    1266:	0204      	lsls	r4, r0, #8
    1268:	6ce8      	ldr	r0, [r5, #76]	@ 0x4c
    126a:	fdc2 0207 	stc2l	2, cr0, [r2, #28]
    126e:	5ce8      	ldrb	r0, [r5, r3]
    1270:	4921      	ldr	r1, [pc, #132]	@ (0x12f8)
    1272:	6f1d      	ldr	r5, [r3, #112]	@ 0x70
    1274:	86e8      	strh	r0, [r5, #54]	@ 0x36
    1276:	00cc      	lsls	r4, r1, #3
    1278:	2200      	movs	r2, #0
    127a:	a363      	add	r3, pc, #396	@ (adr r3, 0x1408)
    127c:	7080      	strb	r0, [r0, #2]
    127e:	eca4 8632 	stc	6, cr8, [r4], #200	@ 0xc8
    1282:	6c6f      	ldr	r7, [r5, #68]	@ 0x44
    1284:	4754      	bxns	sl
    1286:	66ee      	str	r6, [r5, #108]	@ 0x6c
    1288:	ef6f f286 	vhsub.s32	d31, d31, d6
    128c:	6116      	str	r6, [r2, #16]
    128e:	0224      	lsls	r4, r4, #8
    1290:	ce28      	ldmia	r6!, {r3, r5}
    1292:	ef0a 898a 	vmla.i8	d8, d26, d10
    1296:	ac03      	add	r4, sp, #12
    1298:	06f3      	lsls	r3, r6, #27
    129a:	c266      	stmia	r2!, {r1, r2, r5, r6}
    129c:	632e      	str	r6, [r5, #48]	@ 0x30
    129e:	c428      	stmia	r4!, {r3, r5}
    12a0:	118a      	asrs	r2, r1, #6
    12a2:	8197      	strh	r7, [r2, #12]
    12a4:	01a9      	lsls	r1, r5, #6
    12a6:	f3ac 6606 	usat	r6, #6, ip, asr #24
    12aa:	2ec2      	cmp	r6, #194	@ 0xc2
    12ac:	2863      	cmp	r0, #99	@ 0x63
    12ae:	8ac4      	ldrh	r4, [r0, #22]
    12b0:	8811      	ldrh	r1, [r2, #0]
    12b2:	7e21      	ldrb	r1, [r4, #24]
    12b4:	cf15      	ldmia	r7!, {r0, r2, r4}
    12b6:	1017      	asrs	r7, r2, #32
    12b8:	7adf      	ldrb	r7, [r3, #11]
    12ba:	4f56      	ldr	r7, [pc, #344]	@ (0x1414)
    12bc:	2473      	movs	r4, #115	@ 0x73
    12be:	6cd2      	ldr	r2, [r2, #76]	@ 0x4c
    12c0:	a002      	add	r0, pc, #8	@ (adr r0, 0x12cc)
    12c2:	2463      	movs	r4, #99	@ 0x63
    12c4:	d345      	bcc.n	0x1352
    12c6:	634e      	str	r6, [r1, #52]	@ 0x34
    12c8:	5048      	str	r0, [r1, r1]
    12ca:	ed44 ce34 	stcl	14, cr12, [r4, #-208]	@ 0xffffff30
    12ce:	d0e5      	beq.n	0x129c
    12d0:	ed56 ce34 	ldcl	14, cr12, [r6, #-208]	@ 0xffffff30
    12d4:	d0e7      	beq.n	0x12a6
    12d6:	1d76      	adds	r6, r6, #5
    12d8:	02a4      	lsls	r4, r4, #10
    12da:	9410      	str	r4, [sp, #64]	@ 0x40
    12dc:	8022      	strh	r2, [r4, #0]
    12de:	01a9      	lsls	r1, r5, #6
    12e0:	f3ac 6606 	usat	r6, #6, ip, asr #24
    12e4:	2ec2      	cmp	r6, #194	@ 0xc2
    12e6:	28e3      	cmp	r0, #227	@ 0xe3
    12e8:	8ac4      	ldrh	r4, [r0, #22]
    12ea:	4e11      	ldr	r6, [pc, #68]	@ (0x1330)
    12ec:	5661      	ldrsb	r1, [r4, r1]
    12ee:	06df      	lsls	r7, r3, #27
    12f0:	cff1      	ldmia	r7, {r0, r4, r5, r6, r7}
    12f2:	72ef      	strb	r7, [r5, #11]
    12f4:	7106      	strb	r6, [r0, #4]
    12f6:	4f04      	ldr	r7, [pc, #16]	@ (0x1308)
    12f8:	14e1      	asrs	r1, r4, #19
    12fa:	0486      	lsls	r6, r0, #18
    12fc:	6347      	str	r7, [r0, #52]	@ 0x34
    12fe:	c134      	stmia	r1!, {r2, r4, r5}
    1300:	12f0      	asrs	r0, r6, #11
    1302:	c32b      	stmia	r3!, {r0, r1, r3, r5}
    1304:	4258      	negs	r0, r3
    1306:	a62c      	add	r6, pc, #176	@ (adr r6, 0x13b8)
    1308:	3e80      	subs	r6, #128	@ 0x80
    130a:	1356      	asrs	r6, r2, #13
    130c:	a0fd      	add	r0, pc, #1012	@ (adr r0, 0x1704)
    130e:	c010      	stmia	r0!, {r4}
    1310:	8001      	strh	r1, [r0, #0]
    1312:	30df      	adds	r0, #223	@ 0xdf
    1314:	a203      	add	r2, pc, #12	@ (adr r2, 0x1324)
    1316:	2015      	movs	r0, #21
    1318:	f312 9273 	b.w	0xf13802
    131c:	0a31      	lsrs	r1, r6, #8
    131e:	ee01 00a2 	cdp	0, 0, cr0, cr1, cr2, {5}
    1322:	4470      	add	r0, lr
    1324:	060a      	lsls	r2, r1, #24
    1326:	c547      	stmia	r5!, {r0, r1, r2, r6}
    1328:	632e      	str	r6, [r5, #48]	@ 0x30
    132a:	76f9      	strb	r1, [r7, #27]
    132c:	7346      	strb	r6, [r0, #13]
    132e:	4694      	mov	ip, r2
    1330:	a474      	add	r4, pc, #464	@ (adr r4, 0x1504)
    1332:	2046      	movs	r0, #70	@ 0x46
    1334:	ce80      	ldmia	r6!, {r7}
    1336:	aef5      	add	r6, sp, #980	@ 0x3d4
    1338:	0662      	lsls	r2, r4, #25
    133a:	1cf1      	adds	r1, r6, #3
    133c:	f101 7cdf 	add.w	ip, r1, #29229056	@ 0x1be0000
    1340:	4736      	bx	r6
    1342:	bc02      	pop	{r1}
    1344:	06f3      	lsls	r3, r6, #27
    1346:	c266      	stmia	r2!, {r1, r2, r5, r6}
    1348:	232e      	movs	r3, #46	@ 0x2e
    134a:	c42a      	stmia	r4!, {r1, r3, r5}
    134c:	118a      	asrs	r2, r1, #6
    134e:	60eb      	str	r3, [r5, #12]
    1350:	df36      	svc	54	@ 0x36
    1352:	f104 f4cf 	bl	0x505cf4
    1356:	a047      	add	r0, pc, #284	@ (adr r0, 0x1474)
    1358:	7060      	strb	r0, [r4, #1]
    135a:	ec14 b632 	ldc	6, cr11, [r4], {50}	@ 0x32
    135e:	a36f      	add	r3, pc, #444	@ (adr r3, 0x151c)
    1360:	7020      	strb	r0, [r4, #0]
    1362:	0a54      	lsrs	r4, r2, #9
    1364:	470b      	bx	r1
    1366:	00a6      	lsls	r6, r4, #2
    1368:	7470      	strb	r0, [r6, #17]
    136a:	2046      	movs	r0, #70	@ 0x46
    136c:	ce80      	ldmia	r6!, {r7}
    136e:	aef1      	add	r6, sp, #964	@ 0x3c4
    1370:	0ccf      	lsrs	r7, r1, #19
    1372:	cf10      	ldmia	r7!, {r4}
    1374:	d2ef      	bcs.n	0x1356
    1376:	129e      	asrs	r6, r3, #10
    1378:	c770      	stmia	r7!, {r4, r5, r6}
    137a:	fd56 0a06 	ldc2l	10, cr0, [r6, #-24]	@ 0xffffffe8	@ <UNPREDICTABLE>
    137e:	5a01      	ldrh	r1, [r0, r0]
    1380:	0204      	lsls	r4, r0, #8
    1382:	2ce8      	cmp	r4, #232	@ 0xe8
    1384:	9b21      	ldr	r3, [sp, #132]	@ 0x84
    1386:	0a1c      	lsrs	r4, r3, #8
    1388:	4708      	bx	r1
    138a:	2ec6      	cmp	r6, #198	@ 0xc6
    138c:	f063 6c86 	orn	ip, r3, #70254592	@ 0x4300000
    1390:	6fd5      	ldr	r5, [r2, #124]	@ 0x7c
    1392:	26ea      	movs	r6, #234	@ 0xea
    1394:	ec6f 6f46 	stcl	15, cr6, [pc], #-280	@ 0x1280
    1398:	344e      	adds	r4, #78	@ 0x4e
    139a:	802d      	strh	r5, [r5, #0]
    139c:	f6ce 6cae 	movt	ip, #61102	@ 0xeeae
    13a0:	ccd5      	ldmia	r4, {r0, r2, r4, r6, r7}
    13a2:	2ffb      	cmp	r7, #251	@ 0xfb
    13a4:	2222      	movs	r2, #34	@ 0x22
    13a6:	56c1      	ldrsb	r1, [r0, r3]
    13a8:	452d      	cmp	r5, r5
    13aa:	0004      	movs	r4, r0
    13ac:	9949      	ldr	r1, [sp, #292]	@ 0x124
    13ae:	1110      	asrs	r0, r2, #4
    13b0:	0294      	lsls	r4, r2, #10
    13b2:	5990      	ldr	r0, [r2, r6]
    13b4:	d210      	bcs.n	0x13d8
    13b6:	229f      	movs	r2, #159	@ 0x9f
    13b8:	0fb0      	lsrs	r0, r6, #30
    13ba:	d76c      	bvc.n	0x1496
    13bc:	03cc      	lsls	r4, r1, #15
    13be:	d800      	bhi.n	0x13c2
    13c0:	6c2c      	ldr	r4, [r5, #64]	@ 0x40
    13c2:	6fd5      	ldr	r5, [r2, #124]	@ 0x7c
    13c4:	4440      	add	r0, r8
    13c6:	35ad      	adds	r5, #173	@ 0xad
    13c8:	8020      	strh	r0, [r4, #0]
    13ca:	12ce      	asrs	r6, r1, #11
    13cc:	c533      	stmia	r5!, {r0, r1, r4, r5}
    13ce:	76c1      	strb	r1, [r0, #27]
    13d0:	442d      	add	r5, r5
    13d2:	0003      	movs	r3, r0
    13d4:	9849      	ldr	r0, [sp, #292]	@ 0x124
    13d6:	6c58      	ldr	r0, [r3, #68]	@ 0x44
    13d8:	ccd7      	ldmia	r4, {r0, r1, r2, r4, r6, r7}
    13da:	0002      	movs	r2, r0
    13dc:	27d8      	movs	r7, #216	@ 0xd8
    13de:	d56c      	bpl.n	0x14ba
    13e0:	406f      	eors	r7, r5
    13e2:	ad44      	add	r5, sp, #272	@ 0x110
    13e4:	2025      	movs	r0, #37	@ 0x25
    13e6:	ce80      	ldmia	r6!, {r7}
    13e8:	6312      	str	r2, [r2, #48]	@ 0x30
    13ea:	01c3      	lsls	r3, r0, #7
    13ec:	d00c      	beq.n	0x1408
    13ee:	8d76      	ldrh	r6, [r6, #42]	@ 0x2a
    13f0:	c239      	stmia	r2!, {r0, r3, r4, r5}
    13f2:	fd56 4406 	ldc2l	4, cr4, [r6, #-24]	@ 0xffffffe8
    13f6:	5ad4      	ldrh	r4, [r2, r3]
    13f8:	0201      	lsls	r1, r0, #8
    13fa:	2ce8      	cmp	r4, #232	@ 0xe8
    13fc:	2321      	movs	r3, #33	@ 0x21
    13fe:	c01c      	stmia	r0!, {r2, r3, r4}
    1400:	6d00      	ldr	r0, [r0, #80]	@ 0x50
    1402:	0ad7      	lsrs	r7, r2, #11
    1404:	4708      	bx	r1
    1406:	2ec6      	cmp	r6, #198	@ 0xc6
    1408:	f8e3 4486 	str??.w	r4, [r3, #1158]	@ 0x486
    140c:	47d4      	blxns	sl
    140e:	802a      	strh	r2, [r5, #0]
    1410:	42ce      	cmn	r6, r1
    1412:	d478      	bmi.n	0x1506
    1414:	d56c      	bpl.n	0x14f0
    1416:	2b6f      	cmp	r3, #111	@ 0x6f
    1418:	ce80      	ldmia	r6!, {r7}
    141a:	1ce2      	adds	r2, r4, #3
    141c:	6f0e      	ldr	r6, [r1, #112]	@ 0x70
    141e:	344e      	adds	r4, #78	@ 0x4e
    1420:	802d      	strh	r5, [r5, #0]
    1422:	f6ce 6cae 	movt	ip, #61102	@ 0xeeae
    1426:	ccd7      	ldmia	r4, {r0, r1, r2, r4, r6, r7}
    1428:	0000      	movs	r0, r0
    142a:	0322      	lsls	r2, r4, #12
    142c:	56c1      	ldrsb	r1, [r0, r3]
    142e:	452d      	cmp	r5, r5
    1430:	0003      	movs	r3, r0
    1432:	ee49 9413 	mcr	4, 2, r9, cr9, cr3, {0}
    1436:	f002 011c 	and.w	r1, r2, #28
    143a:	cff1      	ldmia	r7, {r0, r4, r5, r6, r7}
    143c:	47f2      			@ <UNDEFINED> instruction: 0x47f2
    143e:	14f0      	asrs	r0, r6, #19
    1440:	060a      	lsls	r2, r1, #24
    1442:	e347      	b.n	0x1ad4
    1444:	6f16      	ldr	r6, [r2, #112]	@ 0x70
    1446:	6465      	str	r5, [r4, #68]	@ 0x44
    1448:	0181      	lsls	r1, r0, #6
    144a:	e20d      	b.n	0x1868
    144c:	f116 4676 	adds.w	r6, r6, #4127195136	@ 0xf6000000
    1450:	8020      	strh	r0, [r4, #0]
    1452:	f3ce cfae 	blx	0xbd03b0
    1456:	100e      	asrs	r6, r1, #32
    1458:	f9df 4f57 	ldr??.w	r4, [pc, #3927]	@ 0x23b3
    145c:	0471      	lsls	r1, r6, #17
    145e:	2412      	movs	r4, #18
    1460:	bf29      	itett	cs
    1462:	6347      	strcs	r7, [r0, #52]	@ 0x34
    1464:	4e04      	ldrcc	r6, [pc, #16]	@ (0x1478)
    1466:	8011      	strhcs	r1, [r2, #0]
    1468:	4744      	bxns	r8
    146a:	4464      	add	r4, ip
    146c:	008c      	lsls	r4, r1, #2
    146e:	465a      	mov	r2, fp
    1470:	0a24      	lsrs	r4, r4, #8
    1472:	1201      	asrs	r1, r0, #8
    1474:	c32b      	stmia	r3!, {r0, r1, r3, r5}
    1476:	5258      	strh	r0, [r3, r1]
    1478:	9e00      	ldr	r6, [sp, #0]
    147a:	852c      	strh	r4, [r5, #40]	@ 0x28
    147c:	461e      	mov	r6, r3
    147e:	0a24      	lsrs	r4, r4, #8
    1480:	c101      	stmia	r1!, {r0}
    1482:	580f      	ldr	r7, [r1, r0]
    1484:	d052      	beq.n	0x152c
    1486:	48fe      	ldr	r0, [pc, #1016]	@ (0x1880)
    1488:	8524      	strh	r4, [r4, #40]	@ 0x28
    148a:	630e      	str	r6, [r1, #48]	@ 0x30
    148c:	7632      	strb	r2, [r6, #24]
    148e:	2446      	movs	r4, #70	@ 0x46
    1490:	010a      	lsls	r2, r1, #4
    1492:	2b12      	cmp	r3, #18
    1494:	58c3      	ldr	r3, [r0, r3]
    1496:	0052      	lsls	r2, r2, #1
    1498:	2c9e      	cmp	r4, #158	@ 0x9e
    149a:	1f85      	subs	r5, r0, #6
    149c:	1356      	asrs	r6, r2, #13
    149e:	240d      	movs	r4, #13
    14a0:	c141      	stmia	r1!, {r0, r6}
    14a2:	63bf      	str	r7, [r7, #56]	@ 0x38
    14a4:	4924      	ldr	r1, [pc, #144]	@ (0x1538)
    14a6:	f57e 107d 	sbcs.w	r0, lr, #4145152	@ 0x3f4000
    14aa:	7cdf      	ldrb	r7, [r3, #19]
    14ac:	4f04      	ldr	r7, [pc, #16]	@ (0x14c0)
    14ae:	1572      	asrs	r2, r6, #21
    14b0:	1898      	adds	r0, r3, r2
    14b2:	2146      	movs	r1, #70	@ 0x46
    14b4:	010a      	lsls	r2, r1, #4
    14b6:	460d      	mov	r5, r1
    14b8:	24e0      	movs	r4, #224	@ 0xe0
    14ba:	2156      	movs	r1, #86	@ 0x56
    14bc:	8598      	strh	r0, [r3, #44]	@ 0x2c
    14be:	c146      	stmia	r1!, {r1, r2, r6}
    14c0:	2000      	movs	r0, #0
    14c2:	dc22      	bgt.n	0x150a
    14c4:	04df      	lsls	r7, r3, #19
    14c6:	dff1      	svc	241	@ 0xf1
    14c8:	047b      	lsls	r3, r7, #17
    14ca:	724f      	strb	r7, [r1, #9]
    14cc:	0a15      	lsrs	r5, r2, #8
    14ce:	4700      	bx	r0
    14d0:	8984      	ldrh	r4, [r0, #12]
    14d2:	1462      	asrs	r2, r4, #17
    14d4:	10a2      	asrs	r2, r4, #2
    14d6:	e0d0      	b.n	0x167a
    14d8:	4624      	mov	r4, r4
    14da:	8821      	ldrh	r1, [r4, #0]
    14dc:	5684      	ldrsb	r4, [r0, r2]
    14de:	4230      	tst	r0, r6
    14e0:	a509      	add	r5, pc, #36	@ (adr r5, 0x1508)
    14e2:	7010      	strb	r0, [r2, #0]
    14e4:	ee44 1466 	cdp	4, 4, cr1, cr4, cr6, {3}
    14e8:	000c      	movs	r4, r1
    14ea:	c222      	stmia	r2!, {r1, r5}
    14ec:	446c      	add	r4, sp
    14ee:	05df      	lsls	r7, r3, #23
    14f0:	dff1      	svc	241	@ 0xf1
    14f2:	14fd      	asrs	r5, r7, #19
    14f4:	8047      	strh	r7, [r0, #2]
    14f6:	6209      	str	r1, [r1, #32]
    14f8:	a204      	add	r2, pc, #16	@ (adr r2, 0x150c)
    14fa:	d010      	beq.n	0x151e
    14fc:	64e0      	str	r0, [r4, #76]	@ 0x4c
    14fe:	2046      	movs	r0, #70	@ 0x46
    1500:	8488      	strh	r0, [r1, #36]	@ 0x24
    1502:	614e      	str	r6, [r1, #20]
    1504:	8205      	strh	r5, [r0, #16]
    1506:	6859      	ldr	r1, [r3, #4]
    1508:	0c04      	lsrs	r4, r0, #16
    150a:	2200      	movs	r2, #0
    150c:	fd42 103d 	stc2l	0, cr1, [r2, #-244]	@ 0xffffff0c
    1510:	fedf 6e06 	cdp2	14, 13, cr6, cr15, cr6, {0}
	...
    151c:	4520      	cmp	r0, r4
    151e:	ffff e5b8 	vsli.64	d30, d24, #63	@ 0x3f
    1522:	df00      	svc	0
    1524:	f102 eacf 	bfcsel	4, 0x1ac6, 8, eq
    1528:	27f2      	movs	r7, #242	@ 0xf2
    152a:	5f21      	ldrsh	r1, [r4, r4]
    152c:	4f14      	ldr	r7, [pc, #80]	@ (0x1580)
    152e:	04e0      	lsls	r0, r4, #19
    1530:	78a4      	ldrb	r4, [r4, #2]
    1532:	604e      	str	r6, [r1, #4]
    1534:	8018      	strh	r0, [r3, #0]
    1536:	04e5      	lsls	r5, r4, #19
    1538:	686f      	ldr	r7, [r5, #4]
    153a:	8028      	strh	r0, [r5, #0]
    153c:	c425      	stmia	r4!, {r0, r2, r5}
    153e:	605e      	str	r6, [r3, #4]
    1540:	803c      	strh	r4, [r7, #0]
    1542:	d425      	bmi.n	0x1590
    1544:	ea5f c605 			@ <UNDEFINED> instruction: 0xea5fc605
    1548:	5804      	ldr	r4, [r0, r0]
    154a:	e26f      	b.n	0x1a2c
    154c:	c605      	stmia	r6!, {r0, r2}
    154e:	5805      	ldr	r5, [r0, r0]
    1550:	fa5e 6e46 			@ <UNDEFINED> instruction: 0xfa5e6e46
    1554:	8ba8      	ldrh	r0, [r5, #28]
    1556:	8226      	strh	r6, [r4, #16]
    1558:	2922      	cmp	r1, #34	@ 0x22
    155a:	c215      	stmia	r2!, {r0, r2, r4}
    155c:	81ac      	strh	r4, [r5, #12]
    155e:	1524      	asrs	r4, r4, #20
    1560:	2ec2      	cmp	r6, #194	@ 0xc2
    1562:	2282      	movs	r2, #130	@ 0x82
    1564:	1529      	asrs	r1, r5, #20
    1566:	a26e      	add	r2, pc, #440	@ (adr r2, 0x1720)
    1568:	2481      	movs	r4, #129	@ 0x81
    156a:	6e15      	ldr	r5, [r2, #96]	@ 0x60
    156c:	8224      	strh	r4, [r4, #16]
    156e:	2922      	cmp	r1, #34	@ 0x22
    1570:	7c25      	ldrb	r5, [r4, #16]
    1572:	522c      	strh	r4, [r5, r0]
    1574:	e492      	b.n	0xe9c
    1576:	8404      	strh	r4, [r0, #32]
    1578:	4e58      	ldr	r6, [pc, #352]	@ (0x16dc)
    157a:	1a60      	subs	r0, r4, r1
    157c:	2780      	movs	r7, #128	@ 0x80
    157e:	5ee4      	ldrsh	r4, [r4, r3]
    1580:	2e60      	cmp	r6, #96	@ 0x60
    1582:	2780      	movs	r7, #128	@ 0x80
    1584:	5ff4      	ldrsh	r4, [r6, r7]
    1586:	05ec      	lsls	r4, r5, #23
    1588:	03e6      	lsls	r6, r4, #15
    158a:	7f78      	ldrb	r0, [r7, #29]
    158c:	05e4      	lsls	r4, r4, #23
    158e:	04e6      	lsls	r6, r4, #19
    1590:	7f78      	ldrb	r0, [r7, #29]
    1592:	05e2      	lsls	r2, r4, #23
    1594:	05e6      	lsls	r6, r4, #23
    1596:	5e78      	ldrsh	r0, [r7, r1]
    1598:	67fc      	str	r4, [r7, #124]	@ 0x7c
    159a:	481a      	ldr	r0, [pc, #104]	@ (0x1604)
    159c:	2182      	movs	r1, #130	@ 0x82
    159e:	22a2      	movs	r2, #162	@ 0xa2
    15a0:	cc2b      	ldmia	r4!, {r0, r1, r3, r5}
    15a2:	2822      	cmp	r0, #34	@ 0x22
    15a4:	5292      	strh	r2, [r2, r2]
    15a6:	ec21 481a 	stc	8, cr4, [r1], #-104	@ 0xffffff98
    15aa:	2822      	cmp	r0, #34	@ 0x22
    15ac:	5292      	strh	r2, [r2, r2]
    15ae:	47e2      			@ <UNDEFINED> instruction: 0x47e2
    15b0:	e152      	b.n	0x1858
    15b2:	1a26      	subs	r6, r4, r0
    15b4:	5248      	strh	r0, [r1, r1]
    15b6:	67e2      	str	r2, [r4, #124]	@ 0x7c
    15b8:	c252      	stmia	r2!, {r1, r4, r6}
    15ba:	22e7      	movs	r2, #231	@ 0xe7
    15bc:	4925      	ldr	r1, [pc, #148]	@ (0x1654)
    15be:	404e      	eors	r6, r1
    15c0:	e588      	b.n	0x10d4
    15c2:	a604      	add	r6, pc, #16	@ (adr r6, 0x15d4)
    15c4:	7801      	ldrb	r1, [r0, #0]
    15c6:	f04e a6e7 	bne.w	0x50398
    15ca:	7802      	ldrb	r2, [r0, #0]
    15cc:	ee42 e605 	cdp	6, 4, cr14, cr2, cr5, {0}
    15d0:	7803      	ldrb	r3, [r0, #0]
    15d2:	2f42      	cmp	r7, #66	@ 0x42
    15d4:	105f      	asrs	r7, r3, #1
    15d6:	605e      	str	r6, [r3, #4]
    15d8:	804e      	strh	r6, [r1, #2]
    15da:	27f7      	movs	r7, #247	@ 0xf7
    15dc:	605e      	str	r6, [r3, #4]
    15de:	805e      	strh	r6, [r3, #2]
    15e0:	5e27      	ldrsh	r7, [r4, r0]
    15e2:	7f10      	ldrb	r0, [r2, #28]
    15e4:	e7e0      	b.n	0x15a8
    15e6:	481a      	ldr	r0, [pc, #104]	@ (0x1650)
    15e8:	2152      	movs	r1, #82	@ 0x52
    15ea:	1acc      	subs	r4, r1, r3
    15ec:	2248      	movs	r2, #72	@ 0x48
    15ee:	9228      	str	r2, [sp, #160]	@ 0xa0
    15f0:	2152      	movs	r1, #82	@ 0x52
    15f2:	22ec      	movs	r2, #236	@ 0xec
    15f4:	9228      	str	r2, [sp, #160]	@ 0xa0
    15f6:	e152      	b.n	0x189e
    15f8:	1a26      	subs	r6, r4, r0
    15fa:	2248      	movs	r2, #72	@ 0x48
    15fc:	9228      	str	r2, [sp, #160]	@ 0xa0
    15fe:	e252      	b.n	0x1aa6
    1600:	5207      	strh	r7, [r0, r0]
    1602:	07c2      	lsls	r2, r0, #31
    1604:	2523      	movs	r5, #35	@ 0x23
    1606:	e249      	b.n	0x1a9c
    1608:	2127      	movs	r1, #39	@ 0x27
    160a:	145e      	asrs	r6, r3, #17
    160c:	16cf      	asrs	r7, r1, #27
    160e:	df10      	svc	16
    1610:	57f9      	ldrsb	r1, [r7, r7]
    1612:	7047      	strb	r7, [r0, #1]
    1614:	d215      	bcs.n	0x1642
    1616:	02be      	lsls	r6, r7, #10
    1618:	c260      	stmia	r2!, {r5, r6}
    161a:	02c6      	lsls	r6, r0, #11
    161c:	00dd      	lsls	r5, r3, #3
    161e:	1072      	asrs	r2, r6, #1
    1620:	4520      	cmp	r0, r4
    1622:	0013      	movs	r3, r2
    1624:	2c6d      	cmp	r4, #109	@ 0x6d
    1626:	136f      	asrs	r7, r5, #13
    1628:	12b4      	asrs	r4, r6, #10
    162a:	1980      	adds	r0, r0, r6
    162c:	ed25 012b 	stfs	f0, [r5, #-172]!	@ 0xffffff54
    1630:	6c26      	ldr	r6, [r4, #64]	@ 0x40
    1632:	d02e      	beq.n	0x1692
    1634:	2017      	movs	r0, #23
    1636:	0107      	lsls	r7, r0, #4
    1638:	f452 d001 	bl	0xff05363e
    163c:	f2e6 4136 			@ <UNDEFINED> instruction: 0xf2e64136
    1640:	022b      	lsls	r3, r5, #8
    1642:	2298      	movs	r2, #152	@ 0x98
    1644:	306c      	adds	r0, #108	@ 0x6c
    1646:	11d0      	asrs	r0, r2, #7
    1648:	0720      	lsls	r0, r4, #28
    164a:	5201      	strh	r1, [r0, r0]
    164c:	01d4      	lsls	r4, r2, #7
    164e:	06d0      	lsls	r0, r2, #27
    1650:	36f3      	adds	r6, #243	@ 0xf3
    1652:	2b41      	cmp	r3, #65	@ 0x41
    1654:	4600      	mov	r0, r0
    1656:	0561      	lsls	r1, r4, #21
    1658:	84a2      	strh	r2, [r4, #36]	@ 0x24
    165a:	4710      	bx	r2
    165c:	2462      	movs	r4, #98	@ 0x62
    165e:	008c      	lsls	r4, r1, #2
    1660:	4620      	mov	r0, r4
    1662:	2582      	movs	r5, #130	@ 0x82
    1664:	6ec4      	ldr	r4, [r0, #108]	@ 0x6c
    1666:	3423      	adds	r4, #35	@ 0x23
    1668:	0720      	lsls	r0, r4, #28
    166a:	8204      	strh	r4, [r0, #16]
    166c:	0562      	lsls	r2, r4, #21
    166e:	e433      	b.n	0xed8
    1670:	461f      	mov	r7, r3
    1672:	57e0      	ldrsb	r0, [r4, r7]
    1674:	07df      	lsls	r7, r3, #31
    1676:	cff1      	ldmia	r7, {r0, r4, r5, r6, r7}
    1678:	7ff6      	ldrb	r6, [r6, #31]
    167a:	06f8      	lsls	r0, r7, #27
    167c:	224f      	movs	r2, #79	@ 0x4f
    167e:	2bed      	cmp	r3, #237	@ 0xed
    1680:	2600      	movs	r6, #0
    1682:	2c6c      	cmp	r4, #108	@ 0x6c
    1684:	0dd0      	lsrs	r0, r2, #23
    1686:	0720      	lsls	r0, r4, #28
    1688:	5201      	strh	r1, [r0, r0]
    168a:	0134      	lsls	r4, r6, #4
    168c:	c6d0      	stmia	r6!, {r4, r6, r7}
    168e:	46f2      	mov	sl, lr
    1690:	2b41      	cmp	r3, #65	@ 0x41
    1692:	9801      	ldr	r0, [sp, #4]
    1694:	d251      	bcs.n	0x173a
    1696:	12be      	asrs	r6, r7, #10
    1698:	c260      	stmia	r2!, {r5, r6}
    169a:	02e6      	lsls	r6, r4, #11
    169c:	017d      	lsls	r5, r7, #5
    169e:	1072      	asrs	r2, r6, #1
    16a0:	4520      	cmp	r0, r4
    16a2:	001f      	movs	r7, r3
    16a4:	2e6d      	cmp	r6, #109	@ 0x6d
    16a6:	146f      	asrs	r7, r5, #17
    16a8:	22b4      	movs	r2, #180	@ 0xb4
    16aa:	2980      	cmp	r1, #128	@ 0x80
    16ac:	06c2      	lsls	r2, r0, #27
    16ae:	1d03      	adds	r3, r0, #4
    16b0:	7201      	strb	r1, [r0, #8]
    16b2:	2010      	movs	r0, #16
    16b4:	1d45      	adds	r5, r0, #5
    16b6:	6d00      	ldr	r0, [r0, #80]	@ 0x50
    16b8:	6f30      	ldr	r0, [r6, #112]	@ 0x70
    16ba:	b414      	push	{r2, r4}
    16bc:	e002      	b.n	0x16c4
    16be:	7e26      	ldrb	r6, [r4, #24]
    16c0:	2420      	movs	r4, #32
    16c2:	1452      	asrs	r2, r2, #17
    16c4:	f000 6e66 	and.w	lr, r0, #241172480	@ 0xe600000
    16c8:	0cc6      	lsrs	r6, r0, #19
    16ca:	8000      	strh	r0, [r0, #0]
    16cc:	e1ba      	b.n	0x1a44
    16ce:	4246      	negs	r6, r0
    16d0:	64e3      	str	r3, [r4, #76]	@ 0x4c
    16d2:	0720      	lsls	r0, r4, #28
    16d4:	8204      	strh	r4, [r0, #16]
    16d6:	07e2      	lsls	r2, r4, #31
    16d8:	e252      	b.n	0x1b80
    16da:	6e1f      	ldr	r7, [r3, #96]	@ 0x60
    16dc:	87e0      	strh	r0, [r4, #62]	@ 0x3e
    16de:	0acf      	lsrs	r7, r1, #11
    16e0:	d310      	bcc.n	0x1704
    16e2:	df09      	svc	9
    16e4:	3003      	adds	r0, #3
    16e6:	569d      	ldrsb	r5, [r3, r2]
    16e8:	003e      	movs	r6, r7
    16ea:	a483      	add	r4, pc, #524	@ (adr r4, 0x18f8)
    16ec:	0061      	lsls	r1, r4, #1
    16ee:	fc10 0818 	ldc2	8, cr0, [r0], {24}
    16f2:	30d1      	adds	r0, #209	@ 0xd1
    16f4:	1a08      	subs	r0, r1, r0
    16f6:	69d3      	ldr	r3, [r2, #28]
    16f8:	13e5      	asrs	r5, r4, #15
    16fa:	0ec0      	lsrs	r0, r0, #27
    16fc:	10fa      	asrs	r2, r7, #3
    16fe:	e100      	b.n	0x1902
    1700:	3811      	subs	r0, #17
    1702:	9d30      	ldr	r5, [sp, #192]	@ 0xc0
    1704:	3e56      	subs	r6, #86	@ 0x56
    1706:	8300      	strh	r0, [r0, #24]
    1708:	31a7      	adds	r1, #167	@ 0xa7
    170a:	1ac8      	subs	r0, r1, r3
    170c:	69d3      	ldr	r3, [r2, #28]
    170e:	13e5      	asrs	r5, r4, #15
    1710:	f100 69d3 	add.w	r9, r0, #110624768	@ 0x6980000
    1714:	03e5      	lsls	r5, r4, #15
    1716:	8830      	ldrh	r0, [r6, #0]
    1718:	d31b      	bcc.n	0x1752
    171a:	e569      	b.n	0x11f0
    171c:	0013      	movs	r3, r2
    171e:	11ec      	asrs	r4, r5, #7
    1720:	dee0      	udf	#224	@ 0xe0
    1722:	69d3      	ldr	r3, [r2, #28]
    1724:	03e5      	lsls	r5, r4, #15
    1726:	0060      	lsls	r0, r4, #1
    1728:	fc10 00d8 	ldc2	0, cr0, [r0], {216}	@ 0xd8
    172c:	0062      	lsls	r2, r4, #1
    172e:	9830      	ldr	r0, [sp, #192]	@ 0xc0
    1730:	001a      	movs	r2, r3
    1732:	8300      	strh	r0, [r0, #24]
    1734:	31a8      	adds	r1, #168	@ 0xa8
    1736:	569d      	ldrsb	r5, [r3, r2]
    1738:	013e      	lsls	r6, r7, #4
    173a:	d310      	bcc.n	0x175e
    173c:	e569      	b.n	0x1212
    173e:	3003      	adds	r0, #3
    1740:	1a18      	subs	r0, r3, r0
    1742:	0000      	movs	r0, r0
    1744:	b083      	sub	sp, #12
    1746:	9d31      	ldr	r5, [sp, #196]	@ 0xc4
    1748:	3e56      	subs	r6, #86	@ 0x56
    174a:	1001      	asrs	r1, r0, #32
    174c:	69d3      	ldr	r3, [r2, #28]
    174e:	03e5      	lsls	r5, r4, #15
    1750:	0830      	lsrs	r0, r6, #32
    1752:	201a      	movs	r0, #26
    1754:	0406      	lsls	r6, r0, #16
    1756:	0006      	movs	r6, r0
    1758:	8fc1      	ldrh	r1, [r0, #62]	@ 0x3e
    175a:	1081      	asrs	r1, r0, #2
    175c:	d30d      	bcc.n	0x177a
    175e:	e569      	b.n	0x1234
    1760:	0013      	movs	r3, r2
    1762:	d3f1      	bcc.n	0x1748
    1764:	e509      	b.n	0x117a
    1766:	0883      	lsrs	r3, r0, #2
    1768:	c4c2      	stmia	r4!, {r1, r6, r7}
    176a:	9d3c      	ldr	r5, [sp, #240]	@ 0xf0
    176c:	3e50      	subs	r6, #80	@ 0x50
    176e:	1100      	asrs	r0, r0, #4
    1770:	300d      	adds	r0, #13
    1772:	509d      	str	r5, [r3, r2]
    1774:	663e      	str	r6, [r7, #96]	@ 0x60
    1776:	0520      	lsls	r0, r4, #20
    1778:	d30b      	bcc.n	0x1792
    177a:	e509      	b.n	0x1190
    177c:	0003      	movs	r3, r0
    177e:	dff1      	svc	241	@ 0xf1
    1780:	412f      	asrs	r7, r5
    1782:	f292 047b 			@ <UNDEFINED> instruction: 0xf292047b
    1786:	09d3      	lsrs	r3, r2, #7
    1788:	a3e5      	add	r3, pc, #916	@ (adr r3, 0x1b20)
    178a:	d20a      	bcs.n	0x17a2
    178c:	3554      	adds	r5, #84	@ 0x54
    178e:	509d      	str	r5, [r3, r2]
    1790:	003e      	movs	r6, r7
    1792:	1056      	asrs	r6, r2, #1
    1794:	240d      	movs	r4, #13
    1796:	c141      	stmia	r1!, {r0, r6}
    1798:	63bf      	str	r7, [r7, #56]	@ 0x38
    179a:	4924      	ldr	r1, [pc, #144]	@ (0x182c)
    179c:	01df      	lsls	r7, r3, #7
    179e:	dff1      	svc	241	@ 0xf1
    17a0:	802f      	strh	r7, [r5, #0]
    17a2:	9511      	str	r5, [sp, #68]	@ 0x44
    17a4:	2412      	movs	r4, #18
    17a6:	3003      	adds	r0, #3
    17a8:	379d      	adds	r7, #157	@ 0x9d
    17aa:	0032      	movs	r2, r6
    17ac:	d9d3      	bls.n	0x1756
    17ae:	1320      	asrs	r0, r4, #12
    17b0:	9d30      	ldr	r5, [sp, #192]	@ 0xc0
    17b2:	3301      	adds	r3, #1
    17b4:	d301      	bcc.n	0x17ba
    17b6:	1169      	asrs	r1, r5, #5
    17b8:	31f3      	adds	r1, #243	@ 0xf3
    17ba:	809d      	strh	r5, [r3, #4]
    17bc:	3033      	adds	r0, #51	@ 0x33
    17be:	79d3      	ldrb	r3, [r2, #7]
    17c0:	0323      	lsls	r3, r4, #12
    17c2:	0414      	lsls	r4, r2, #16
    17c4:	100e      	asrs	r6, r1, #32
    17c6:	0e34      	lsrs	r4, r6, #24
    17c8:	1410      	asrs	r0, r2, #16
    17ca:	100e      	asrs	r6, r1, #32
    17cc:	1e24      	subs	r4, r4, #0
    17ce:	f410 100d 	ands.w	r0, r0, #2310144	@ 0x234000
    17d2:	6470      	str	r0, [r6, #68]	@ 0x44
    17d4:	7b21      	ldrb	r1, [r4, #12]
    17d6:	d30f      	bcc.n	0x17f8
    17d8:	20c9      	movs	r0, #201	@ 0xc9
    17da:	3c53      	subs	r4, #83	@ 0x53
    17dc:	019d      	lsls	r5, r3, #6
    17de:	0032      	movs	r2, r6
    17e0:	09d3      	lsrs	r3, r2, #7
    17e2:	f320 9d31 	b.w	0xb22248
    17e6:	3204      	adds	r2, #4
    17e8:	d300      	bcc.n	0x17ec
    17ea:	2059      	movs	r0, #89	@ 0x59
    17ec:	3003      	adds	r0, #3
    17ee:	069d      	lsls	r5, r3, #26
    17f0:	0032      	movs	r2, r6
    17f2:	79d3      	ldrb	r3, [r2, #7]
    17f4:	0320      	lsls	r0, r4, #12
    17f6:	9d38      	ldr	r5, [sp, #224]	@ 0xe0
    17f8:	3109      	adds	r1, #9
    17fa:	0a4b      	lsrs	r3, r1, #9
    17fc:	2100      	movs	r1, #0
    17fe:	0ca7      	lsrs	r7, r4, #18
    1800:	c311      	stmia	r3!, {r0, r4}
    1802:	b012      	add	sp, #72	@ 0x48
    1804:	212c      	movs	r1, #44	@ 0x2c
    1806:	0d82      	lsrs	r2, r0, #22
    1808:	22c0      	movs	r2, #192	@ 0xc0
    180a:	0311      	lsls	r1, r2, #12
    180c:	802d      	strh	r5, [r5, #0]
    180e:	4c11      	ldr	r4, [pc, #68]	@ (0x1854)
    1810:	1df2      	adds	r2, r6, #7
    1812:	df10      	svc	16
    1814:	802f      	strh	r7, [r5, #0]
    1816:	2111      	movs	r1, #17
    1818:	6f32      	ldr	r2, [r6, #112]	@ 0x70
    181a:	3237      	adds	r2, #55	@ 0x37
    181c:	d312      	bcc.n	0x1844
    181e:	2379      	movs	r3, #121	@ 0x79
    1820:	0403      	lsls	r3, r0, #16
    1822:	132c      	asrs	r4, r5, #12
    1824:	cea0      	ldmia	r6!, {r5, r7}
    1826:	6121      	str	r1, [r4, #16]
    1828:	d30d      	bcc.n	0x1846
    182a:	2289      	movs	r2, #137	@ 0x89
    182c:	1023      	asrs	r3, r4, #32
    182e:	0e14      	lsrs	r4, r2, #24
    1830:	2410      	movs	r4, #16
    1832:	101e      	asrs	r6, r3, #32
    1834:	0e34      	lsrs	r4, r6, #24
    1836:	0410      	lsls	r0, r2, #16
    1838:	101e      	asrs	r6, r3, #32
    183a:	8e44      	ldrh	r4, [r0, #50]	@ 0x32
    183c:	2410      	movs	r4, #16
    183e:	3013      	adds	r0, #19
    1840:	0d9d      	lsrs	r5, r3, #22
    1842:	0032      	movs	r2, r6
    1844:	1802      	adds	r2, r0, r0
    1846:	2150      	movs	r1, #80	@ 0x50
    1848:	01df      	lsls	r7, r3, #7
    184a:	dff1      	svc	241	@ 0xf1
    184c:	802f      	strh	r7, [r5, #0]
    184e:	e911 2411 	ldmdb	r1, {r0, r4, sl, sp}
    1852:	3003      	adds	r0, #3
    1854:	0d9d      	lsrs	r5, r3, #22
    1856:	0132      	lsls	r2, r6, #4
    1858:	79d3      	ldrb	r3, [r2, #7]
    185a:	0323      	lsls	r3, r4, #12
    185c:	0410      	lsls	r0, r2, #16
    185e:	100e      	asrs	r6, r1, #32
    1860:	0e34      	lsrs	r4, r6, #24
    1862:	1410      	asrs	r0, r2, #16
    1864:	100e      	asrs	r6, r1, #32
    1866:	1e24      	subs	r4, r4, #0
    1868:	0010      	movs	r0, r2
    186a:	215b      	movs	r1, #91	@ 0x5b
    186c:	0ee4      	lsrs	r4, r4, #27
    186e:	5511      	strb	r1, [r2, r4]
    1870:	d012      	beq.n	0x1898
    1872:	2125      	movs	r1, #37	@ 0x25
    1874:	0d14      	lsrs	r4, r2, #20
    1876:	1802      	adds	r2, r0, r0
    1878:	1e30      	subs	r0, r6, #0
    187a:	01df      	lsls	r7, r3, #7
    187c:	dff1      	svc	241	@ 0xf1
    187e:	04fd      	lsls	r5, r7, #19
    1880:	e802 112c 			@ <UNDEFINED> instruction: 0xe802112c
    1884:	e1b4      	b.n	0x1bf0
    1886:	1104      	asrs	r4, r0, #4
    1888:	1513      	asrs	r3, r2, #20
    188a:	de53      	udf	#83	@ 0x53
    188c:	e040      	b.n	0x1910
    188e:	4574      	cmp	r4, lr
    1890:	02df      	lsls	r7, r3, #11
    1892:	2ce8      	cmp	r4, #232	@ 0xe8
    1894:	c611      	stmia	r6!, {r0, r4}
    1896:	3df1      	subs	r5, #241	@ 0xf1
    1898:	df10      	svc	16
    189a:	047e      	lsls	r6, r7, #17
    189c:	e802 111c 			@ <UNDEFINED> instruction: 0xe802111c
    18a0:	6198      	str	r0, [r3, #24]
    18a2:	2104      	movs	r1, #4
    18a4:	0c01      	lsrs	r1, r0, #16
    18a6:	2711      	movs	r7, #17
    18a8:	8022      	strh	r2, [r4, #0]
    18aa:	11ce      	asrs	r6, r1, #7
    18ac:	1af0      	subs	r0, r6, r3
    18ae:	02df      	lsls	r7, r3, #11
    18b0:	dff1      	svc	241	@ 0xf1
    18b2:	14fb      	asrs	r3, r7, #19
    18b4:	a047      	add	r0, pc, #284	@ (adr r0, 0x19d4)
    18b6:	7000      	strb	r0, [r0, #0]
    18b8:	0234      	lsls	r4, r6, #8
    18ba:	4ce8      	ldr	r4, [pc, #928]	@ (0x1c5c)
    18bc:	7b11      	ldrb	r1, [r2, #12]
    18be:	0311      	lsls	r1, r2, #12
    18c0:	c0ac      	stmia	r0!, {r2, r3, r5, r7}
    18c2:	4008      	ands	r0, r1
    18c4:	0461      	lsls	r1, r4, #17
    18c6:	114e      	asrs	r6, r1, #5
    18c8:	22f0      	movs	r2, #240	@ 0xf0
    18ca:	1347      	asrs	r7, r0, #13
    18cc:	da33      	bge.n	0x1936
    18ce:	8020      	strh	r0, [r4, #0]
    18d0:	14ce      	asrs	r6, r1, #19
    18d2:	1890      	adds	r0, r2, r2
    18d4:	f346 105d 	sbfx	r0, r6, #5, #30
    18d8:	fbdf 4714 			@ <UNDEFINED> instruction: 0xfbdf4714
    18dc:	00a0      	lsls	r0, r4, #2
    18de:	3470      	adds	r4, #112	@ 0x70
    18e0:	e802 114c 			@ <UNDEFINED> instruction: 0xe802114c
    18e4:	6154      	str	r4, [r2, #20]
    18e6:	4e04      	ldr	r6, [pc, #16]	@ (0x18f8)
    18e8:	b011      	add	sp, #68	@ 0x44
    18ea:	472f      	bx	r5
    18ec:	8023      	strh	r3, [r4, #0]
    18ee:	14ce      	asrs	r6, r1, #19
    18f0:	16b0      	asrs	r0, r6, #26
    18f2:	f346 105d 	sbfx	r0, r6, #5, #30
    18f6:	7ddf      	ldrb	r7, [r3, #23]
    18f8:	5704      	ldrsb	r4, [r0, r4]
    18fa:	8021      	strh	r1, [r4, #0]
    18fc:	12ce      	asrs	r6, r1, #11
    18fe:	13a0      	asrs	r0, r4, #14
    1900:	3241      	adds	r2, #65	@ 0x41
    1902:	d300      	bcc.n	0x1906
    1904:	20d9      	movs	r0, #217	@ 0xd9
    1906:	3013      	adds	r0, #19
    1908:	376f      	adds	r7, #111	@ 0x6f
    190a:	1232      	asrs	r2, r6, #8
    190c:	79d3      	ldrb	r3, [r2, #7]
    190e:	0323      	lsls	r3, r4, #12
    1910:	2c04      	cmp	r4, #4
    1912:	b013      	add	sp, #76	@ 0x4c
    1914:	c2bf      	stmia	r2!, {r0, r1, r2, r3, r4, r5, r7}
    1916:	20c0      	movs	r0, #192	@ 0xc0
    1918:	f813 10df 	ldrb.w	r1, [r3, pc, lsl #1]
    191c:	0e04      	lsrs	r4, r0, #24
    191e:	3410      	adds	r4, #16
    1920:	100e      	asrs	r6, r1, #32
    1922:	0e14      	lsrs	r4, r2, #24
    1924:	2410      	movs	r4, #16
    1926:	101e      	asrs	r6, r3, #32
    1928:	4f10      	ldr	r7, [pc, #64]	@ (0x196c)
    192a:	2521      	movs	r5, #33	@ 0x21
    192c:	110e      	asrs	r6, r1, #4
    192e:	1196      	asrs	r6, r2, #6
    1930:	19e0      	adds	r0, r4, r7
    1932:	5521      	strb	r1, [r4, r4]
    1934:	460c      	mov	r4, r1
    1936:	08d1      	lsrs	r1, r2, #3
    1938:	60c0      	str	r0, [r0, #12]
    193a:	2104      	movs	r1, #4
    193c:	0f6f      	lsrs	r7, r5, #29
    193e:	64fe      	str	r6, [r7, #76]	@ 0x4c
    1940:	2104      	movs	r1, #4
    1942:	0f9f      	lsrs	r7, r3, #30
    1944:	c9d3      	ldmia	r1, {r0, r1, r4, r6, r7}
    1946:	5320      	strh	r0, [r4, r4]
    1948:	802c      	strh	r4, [r5, #0]
    194a:	12ce      	asrs	r6, r1, #11
    194c:	10f0      	asrs	r0, r6, #3
    194e:	03df      	lsls	r7, r3, #15
    1950:	dff1      	svc	241	@ 0xf1
    1952:	047e      	lsls	r6, r7, #17
    1954:	e802 111c 			@ <UNDEFINED> instruction: 0xe802111c
    1958:	60e0      	str	r0, [r4, #12]
    195a:	4504      	cmp	r4, r0
    195c:	d2e3      	bcs.n	0x1926
    195e:	0e3e      	lsrs	r6, r7, #24
    1960:	1090      	asrs	r0, r2, #2
    1962:	1e24      	subs	r4, r4, #0
    1964:	3ee0      	subs	r6, #224	@ 0xe0
    1966:	e241      	b.n	0x1dec
    1968:	4008      	ands	r0, r1
    196a:	00e1      	lsls	r1, r4, #3
    196c:	8322      	strh	r2, [r4, #24]
    196e:	2440      	movs	r4, #64	@ 0x40
    1970:	145e      	asrs	r6, r3, #17
    1972:	e04e      	b.n	0x1a12
    1974:	4574      	cmp	r4, lr
    1976:	02df      	lsls	r7, r3, #11
    1978:	1ce8      	adds	r0, r5, #3
    197a:	e011      	b.n	0x19a0
    197c:	2df0      	cmp	r5, #240	@ 0xf0
    197e:	4110      	asrs	r0, r2
    1980:	08e4      	lsrs	r4, r4, #3
    1982:	df10      	svc	16
    1984:	802f      	strh	r7, [r5, #0]
    1986:	f711 6310 			@ <UNDEFINED> instruction: 0xf7116310
    198a:	10c2      	asrs	r2, r0, #3
    198c:	ce33      	ldmia	r6!, {r0, r1, r4, r5}
    198e:	e040      	b.n	0x1a12
    1990:	4574      	cmp	r4, lr
    1992:	02df      	lsls	r7, r3, #11
    1994:	c018      	stmia	r0!, {r3, r4}
    1996:	df10      	svc	16
    1998:	f101 2fdf 	add.w	pc, r1, #3741376256	@ 0xdf00df00
    199c:	1180      	asrs	r0, r0, #6
    199e:	10e0      	asrs	r0, r4, #3
    19a0:	9eb3      	ldr	r6, [sp, #716]	@ 0x2cc
    19a2:	c310      	stmia	r3!, {r4}
    19a4:	40cc      	lsrs	r4, r1
    19a6:	74e0      	strb	r0, [r4, #19]
    19a8:	df45      	svc	69	@ 0x45
    19aa:	09d3      	lsrs	r3, r2, #7
    19ac:	8322      	strh	r2, [r4, #24]
    19ae:	8020      	strh	r0, [r4, #0]
    19b0:	f011 1df0 	ands.w	sp, r1, #15728880	@ 0xf000f0
    19b4:	1010      	asrs	r0, r2, #32
    19b6:	2fdf      	cmp	r7, #223	@ 0xdf
    19b8:	1180      	asrs	r0, r0, #6
    19ba:	20c4      	movs	r0, #196	@ 0xc4
    19bc:	32dd      	adds	r2, #221	@ 0xdd
    19be:	e500      	b.n	0x13c2
    19c0:	ed20 00e3 	stc	0, cr0, [r0, #-908]!	@ 0xfffffc74
    19c4:	d20a      	bcs.n	0x19dc
    19c6:	0e4f      	lsrs	r7, r1, #25
    19c8:	0820      	lsrs	r0, r4, #32
    19ca:	0cd2      	lsrs	r2, r2, #19
    19cc:	400e      	ands	r6, r1
    19ce:	1e37      	subs	r7, r6, #0
    19d0:	3228      	adds	r2, #40	@ 0x28
    19d2:	d330      	bcc.n	0x1a36
    19d4:	2289      	movs	r2, #137	@ 0x89
    19d6:	2023      	movs	r0, #35	@ 0x23
    19d8:	e1ed      	b.n	0x1db6
    19da:	1200      	asrs	r0, r0, #8
    19dc:	e244      	b.n	0x1e68
    19de:	e145      	b.n	0x1c6c
    19e0:	9a21      	ldr	r2, [sp, #132]	@ 0x84
    19e2:	98ee      	ldr	r0, [sp, #952]	@ 0x3b8
    19e4:	4447      	add	r7, r8
    19e6:	45e2      	cmp	sl, ip
    19e8:	98e1      	ldr	r0, [sp, #900]	@ 0x384
    19ea:	403b      	ands	r3, r7
    19ec:	00e1      	lsls	r1, r4, #3
    19ee:	2322      	movs	r3, #34	@ 0x22
    19f0:	1442      	asrs	r2, r0, #17
    19f2:	0a2e      	lsrs	r6, r5, #8
    19f4:	0d01      	lsrs	r1, r0, #20
    19f6:	1ed2      	subs	r2, r2, #3
    19f8:	c00e      	stmia	r0!, {r1, r2, r3}
    19fa:	e011      	b.n	0x1a20
    19fc:	2141      	movs	r1, #65	@ 0x41
    19fe:	ee81 27ee 	cdp	7, 8, cr2, cr1, cr14, {7}
    1a02:	dfcd      	svc	205	@ 0xcd
    1a04:	0500      	lsls	r0, r0, #20
    1a06:	1211      	asrs	r1, r2, #8
    1a08:	8014      	strh	r4, [r2, #0]
    1a0a:	d20d      	bcs.n	0x1a28
    1a0c:	0e4e      	lsrs	r6, r1, #25
    1a0e:	10b0      	asrs	r0, r6, #2
    1a10:	e7d3      	b.n	0x19ba
    1a12:	e010      	b.n	0x1a36
    1a14:	d20c      	bcs.n	0x1a30
    1a16:	0dfc      	lsrs	r4, r7, #23
    1a18:	1140      	asrs	r0, r0, #5
    1a1a:	7d40      	ldrb	r0, [r0, #21]
    1a1c:	5321      	strh	r1, [r4, r4]
    1a1e:	040c      	lsls	r4, r1, #16
    1a20:	574e      	ldrsb	r6, [r1, r5]
    1a22:	0df4      	lsrs	r4, r6, #23
    1a24:	0e44      	lsrs	r4, r0, #25
    1a26:	2220      	movs	r2, #32
    1a28:	4109      	asrs	r1, r1
    1a2a:	08e4      	lsrs	r4, r4, #3
    1a2c:	45fe      	cmp	lr, pc
    1a2e:	2e44      	cmp	r6, #68	@ 0x44
    1a30:	010a      	lsls	r2, r1, #4
    1a32:	020d      	lsls	r5, r1, #8
    1a34:	c018      	stmia	r0!, {r3, r4}
    1a36:	df06      	svc	6
    1a38:	f101 fedf 	bl	0x1037fa
    1a3c:	1204      	asrs	r4, r0, #8
    1a3e:	2924      	cmp	r1, #36	@ 0x24
    1a40:	4ebf      	ldr	r6, [pc, #764]	@ (0x1d40)
    1a42:	0850      	lsrs	r0, r2, #1
    1a44:	0f42      	lsrs	r2, r0, #29
    1a46:	5204      	strh	r4, [r0, r0]
    1a48:	040f      	lsls	r7, r1, #16
    1a4a:	0f62      	lsrs	r2, r4, #29
    1a4c:	b204      	sxth	r4, r0
    1a4e:	e80e 9404 			@ <UNDEFINED> instruction: 0xe80e9404
    1a52:	40d1      	lsrs	r1, r2
    1a54:	1412      	asrs	r2, r2, #16
    1a56:	3bfc      	subs	r3, #252	@ 0xfc
    1a58:	9246      	str	r2, [sp, #280]	@ 0x118
    1a5a:	2df4      	cmp	r5, #244	@ 0xf4
    1a5c:	df10      	svc	16
    1a5e:	04fe      	lsls	r6, r7, #19
    1a60:	2412      	movs	r4, #18
    1a62:	bf29      	itett	cs
    1a64:	504e      	strcs	r6, [r1, r1]
    1a66:	4208      	tstcc	r0, r1
    1a68:	042f      	lslcs	r7, r5, #16
    1a6a:	2f52      	cmpcs	r7, #82	@ 0x52
    1a6c:	6204      	str	r4, [r0, #32]
    1a6e:	042f      	lsls	r7, r5, #16
    1a70:	2eb2      	cmp	r6, #178	@ 0xb2
    1a72:	04e8      	lsls	r0, r5, #19
    1a74:	d194      	bne.n	0x19a0
    1a76:	1240      	asrs	r0, r0, #9
    1a78:	fc14 463b 	ldc2	6, cr4, [r4], {59}	@ 0x3b
    1a7c:	f492 102d 	eors.w	r0, r2, #2834432	@ 0x2b4000
    1a80:	fedf 1204 	cdp2	2, 13, cr1, cr15, cr4, {0}
    1a84:	2924      	cmp	r1, #36	@ 0x24
    1a86:	4ebf      	ldr	r6, [pc, #764]	@ (0x1d84)
    1a88:	0850      	lsrs	r0, r2, #1
    1a8a:	0f42      	lsrs	r2, r0, #29
    1a8c:	5204      	strh	r4, [r0, r0]
    1a8e:	040f      	lsls	r7, r1, #16
    1a90:	0f62      	lsrs	r2, r4, #29
    1a92:	b204      	sxth	r4, r0
    1a94:	e80e 9404 			@ <UNDEFINED> instruction: 0xe80e9404
    1a98:	40d1      	lsrs	r1, r2
    1a9a:	1412      	asrs	r2, r2, #16
    1a9c:	3bfc      	subs	r3, #252	@ 0xfc
    1a9e:	9246      	str	r2, [sp, #280]	@ 0x118
    1aa0:	2df4      	cmp	r5, #244	@ 0xf4
    1aa2:	df10      	svc	16
    1aa4:	04fe      	lsls	r6, r7, #19
    1aa6:	2412      	movs	r4, #18
    1aa8:	bf29      	itett	cs
    1aaa:	504e      	strcs	r6, [r1, r1]
    1aac:	4208      	tstcc	r0, r1
    1aae:	042f      	lslcs	r7, r5, #16
    1ab0:	2f52      	cmpcs	r7, #82	@ 0x52
    1ab2:	6204      	str	r4, [r0, #32]
    1ab4:	042f      	lsls	r7, r5, #16
    1ab6:	2eb2      	cmp	r6, #178	@ 0xb2
    1ab8:	04e8      	lsls	r0, r5, #19
    1aba:	d194      	bne.n	0x19e6
    1abc:	1240      	asrs	r0, r0, #9
    1abe:	fc14 463b 	ldc2	6, cr4, [r4], {59}	@ 0x3b
    1ac2:	f492 102d 	eors.w	r0, r2, #2834432	@ 0x2b4000
    1ac6:	e541      	b.n	0x154c
    1ac8:	4100      	asrs	r0, r0
    1aca:	00e6      	lsls	r6, r4, #3
    1acc:	e741      	b.n	0x1952
    1ace:	1000      	asrs	r0, r0, #32
    1ad0:	7e51      	ldrb	r1, [r2, #25]
    1ad2:	1001      	asrs	r1, r0, #32
    1ad4:	17f5      	asrs	r5, r6, #31
    1ad6:	5100      	str	r0, [r0, r4]
    1ad8:	0180      	lsls	r0, r0, #6
    1ada:	9510      	str	r5, [sp, #64]	@ 0x40
    1adc:	ff1f fa51 	vpmin.u16	<illegal reg q7.5>, <illegal reg q7.5>, <illegal reg q0.5>
    1ae0:	0001      	movs	r1, r0
    1ae2:	50f1      	str	r1, [r6, r3]
    1ae4:	01fa      	lsls	r2, r7, #7
    1ae6:	3220      	adds	r2, #32
    1ae8:	041e      	lsls	r6, r3, #16
    1aea:	21fa      	movs	r1, #250	@ 0xfa
    1aec:	010a      	lsls	r2, r1, #4
    1aee:	d30d      	bcc.n	0x1b0c
    1af0:	1fae      	subs	r6, r5, #6
    1af2:	7000      	strb	r0, [r0, #0]
    1af4:	9510      	str	r5, [sp, #64]	@ 0x40
    1af6:	ff1f df10 	vmaxnm.f16	d13, d15, d0
    1afa:	047c      	lsls	r4, r7, #17
    1afc:	a14f      	add	r1, pc, #316	@ (adr r1, 0x1c3c)
    1afe:	7000      	strb	r0, [r0, #0]
    1b00:	4e34      	ldr	r6, [pc, #208]	@ (0x1bd4)
    1b02:	c841      	ldmia	r0, {r0, r6}
    1b04:	2030      	movs	r0, #48	@ 0x30
    1b06:	2622      	movs	r6, #34	@ 0x22
    1b08:	e740      	b.n	0x198c
    1b0a:	321d      	adds	r2, #29
    1b0c:	0a42      	lsrs	r2, r0, #9
    1b0e:	e046      	b.n	0x1b9e
    1b10:	ce14      	ldmia	r6!, {r2, r4}
    1b12:	05a2      	lsls	r2, r4, #22
    1b14:	201c      	movs	r0, #28
    1b16:	4720      	bx	r4
    1b18:	a993      	add	r1, sp, #588	@ 0x24c
    1b1a:	4e08      	ldr	r6, [pc, #32]	@ (0x1b3c)
    1b1c:	c841      	ldmia	r0, {r0, r6}
    1b1e:	2060      	movs	r0, #96	@ 0x60
    1b20:	3622      	adds	r6, #34	@ 0x22
    1b22:	e740      	b.n	0x19a6
    1b24:	221c      	movs	r2, #28
    1b26:	6712      	str	r2, [r2, #112]	@ 0x70
    1b28:	4e04      	ldr	r6, [pc, #16]	@ (0x1b3c)
    1b2a:	2ce1      	cmp	r4, #225	@ 0xe1
    1b2c:	805a      	strh	r2, [r3, #2]
    1b2e:	e811 0461 			@ <UNDEFINED> instruction: 0xe8110461
    1b32:	e14e      	b.n	0x1dd2
    1b34:	5a5c      	ldrh	r4, [r3, r1]
    1b36:	1140      	asrs	r0, r0, #5
    1b38:	71df      	strb	r7, [r3, #7]
    1b3a:	9834      	ldr	r0, [sp, #208]	@ 0xd0
    1b3c:	4046      	eors	r6, r0
    1b3e:	1be7      	subs	r7, r4, r7
    1b40:	b222      	sxth	r2, r4
    1b42:	0463      	lsls	r3, r4, #17
    1b44:	e14e      	b.n	0x1de4
    1b46:	5a2c      	ldrh	r4, [r5, r0]
    1b48:	1180      	asrs	r0, r0, #6
    1b4a:	61cd      	str	r5, [r1, #28]
    1b4c:	4e04      	ldr	r6, [pc, #16]	@ (0x1b60)
    1b4e:	5ce1      	ldrb	r1, [r4, r3]
    1b50:	005a      	lsls	r2, r3, #1
    1b52:	c411      	stmia	r4!, {r0, r4}
    1b54:	0461      	lsls	r1, r4, #17
    1b56:	214e      	movs	r1, #78	@ 0x4e
    1b58:	08ce      	lsrs	r6, r1, #3
    1b5a:	405a      	eors	r2, r3
    1b5c:	ba11      	rev	r1, r2
    1b5e:	3471      	adds	r4, #113	@ 0x71
    1b60:	f346 104d 	sbfx	r0, r6, #5, #14
    1b64:	fbdf 4f35 			@ <UNDEFINED> instruction: 0xfbdf4f35
    1b68:	00a0      	lsls	r0, r4, #2
    1b6a:	2470      	movs	r4, #112	@ 0x70
    1b6c:	8050      	strh	r0, [r2, #2]
    1b6e:	81e1      	strh	r1, [r4, #14]
    1b70:	456c      	cmp	r4, sp
    1b72:	17f0      	asrs	r0, r6, #31
    1b74:	7108      	strb	r0, [r1, #4]
    1b76:	5e24      	ldrsh	r4, [r4, r0]
    1b78:	f040 5817 	orr.w	r8, r0, #633339904	@ 0x25c00000
    1b7c:	2912      	cmp	r1, #18
    1b7e:	ed05 0181 	stfs	f0, [r5, #-516]	@ 0xfffffdfc
    1b82:	e852 e0f2 			@ <UNDEFINED> instruction: 0xe852e0f2
    1b86:	2e2d      	cmp	r6, #45	@ 0x2d
    1b88:	f2ce f040 	bl	0x6cfc0c
    1b8c:	5a17      	ldrh	r7, [r2, r0]
    1b8e:	111e      	asrs	r6, r3, #4
    1b90:	51f4      	str	r4, [r6, r7]
    1b92:	17f0      	asrs	r0, r6, #31
    1b94:	8004      	strh	r4, [r0, #0]
    1b96:	1081      	asrs	r1, r0, #2
    1b98:	510d      	str	r5, [r1, r4]
    1b9a:	41fa      	rors	r2, r7
    1b9c:	2460      	movs	r4, #96	@ 0x60
    1b9e:	f35e 105d 			@ <UNDEFINED> instruction: 0xf35e105d
    1ba2:	f9df 6f55 	ldr??.w	r6, [pc, #3925]	@ 0x2af9
    1ba6:	24f0      	movs	r4, #240	@ 0xf0
    1ba8:	000a      	movs	r2, r1
    1baa:	0447      	lsls	r7, r0, #17
    1bac:	0e74      	lsrs	r4, r6, #25
    1bae:	3220      	adds	r2, #32
    1bb0:	445e      	add	r6, fp
    1bb2:	08e5      	lsrs	r5, r4, #3
    1bb4:	4471      	add	r1, lr
    1bb6:	e8e0 e544 	strd	lr, r5, [r0], #272	@ 0x110
    1bba:	4882      	ldr	r0, [pc, #520]	@ (0x1dc4)
    1bbc:	24e8      	movs	r4, #232	@ 0xe8
    1bbe:	4485      	add	sp, r0
    1bc0:	58e5      	ldr	r5, [r4, r3]
    1bc2:	2912      	cmp	r1, #18
    1bc4:	ed05 0106 	stfs	f0, [r5, #-24]	@ 0xffffffe8
    1bc8:	e852 0e05 			@ <UNDEFINED> instruction: 0xe8520e05
    1bcc:	ce2f      	ldmia	r6!, {r0, r1, r2, r3, r5}
    1bce:	e0e2      	b.n	0x1d96
    1bd0:	2f2d      	cmp	r7, #45	@ 0x2d
    1bd2:	e544      	b.n	0x165e
    1bd4:	1e5a      	subs	r2, r3, #1
    1bd6:	ad11      	add	r5, sp, #68	@ 0x44
    1bd8:	5451      	strb	r1, [r2, r1]
    1bda:	744e      	strb	r6, [r1, #17]
    1bdc:	0a2e      	lsrs	r6, r5, #8
    1bde:	0d01      	lsrs	r1, r0, #20
    1be0:	e446      	b.n	0x1470
    1be2:	df55      	svc	85	@ 0x55
    1be4:	f107 f5cf 	bl	0x509786
    1be8:	a24f      	add	r2, pc, #316	@ (adr r2, 0x1d28)
    1bea:	7000      	strb	r0, [r0, #0]
    1bec:	0a44      	lsrs	r4, r0, #9
    1bee:	47c0      	blx	r8
    1bf0:	9045      	str	r0, [sp, #276]	@ 0x114
    1bf2:	471f      	bx	r3
    1bf4:	0046      	lsls	r6, r0, #1
    1bf6:	4718      	bx	r3
    1bf8:	e047      	b.n	0x1c8a
    1bfa:	4717      	bx	r2
    1bfc:	3998      	subs	r1, #152	@ 0x98
    1bfe:	4621      	mov	r1, r4
    1c00:	2588      	movs	r5, #136	@ 0x88
    1c02:	5291      	strh	r1, [r2, r2]
    1c04:	1ed0      	subs	r0, r2, #3
    1c06:	2018      	movs	r0, #24
    1c08:	8485      	strh	r5, [r0, #36]	@ 0x24
    1c0a:	6947      	ldr	r7, [r0, #20]
    1c0c:	c194      	stmia	r1!, {r2, r4, r7}
    1c0e:	471f      	bx	r3
    1c10:	946a      	str	r4, [sp, #424]	@ 0x1a8
    1c12:	c0c1      	stmia	r0!, {r0, r6, r7}
    1c14:	460d      	mov	r5, r1
    1c16:	08d9      	lsrs	r1, r3, #3
    1c18:	65bc      	str	r4, [r7, #88]	@ 0x58
    1c1a:	5664      	ldrsb	r4, [r4, r1]
    1c1c:	423a      	tst	r2, r7
    1c1e:	23a8      	movs	r3, #168	@ 0xa8
    1c20:	030a      	lsls	r2, r1, #12
    1c22:	524e      	strh	r6, [r1, r1]
    1c24:	1ec8      	subs	r0, r1, #3
    1c26:	f018 4e06 	ands.w	lr, r8, #2248146944	@ 0x86000000
    1c2a:	2ce2      	cmp	r4, #226	@ 0xe2
    1c2c:	1846      	adds	r6, r0, r1
    1c2e:	1340      	asrs	r0, r0, #13
    1c30:	6447      	str	r7, [r0, #68]	@ 0x44
    1c32:	5a84      	ldrh	r4, [r0, r2]
    1c34:	111e      	asrs	r6, r3, #4
    1c36:	514e      	str	r6, [r1, r5]
    1c38:	17e0      	asrs	r0, r4, #31
    1c3a:	2746      	movs	r7, #70	@ 0x46
    1c3c:	010a      	lsls	r2, r1, #4
    1c3e:	8005      	strh	r5, [r0, #0]
    1c40:	a461      	add	r4, pc, #388	@ (adr r4, 0x1dc8)
    1c42:	f905 e991 	vst2.32	{d14,d16}, [r5 :64], r1
    1c46:	4615      	mov	r5, r2
    1c48:	08d9      	lsrs	r1, r3, #3
    1c4a:	c1c8      	stmia	r1!, {r3, r6, r7}
    1c4c:	181e      	adds	r6, r3, r0
    1c4e:	06f0      	lsls	r0, r6, #27
    1c50:	e24e      	b.n	0x20f0
    1c52:	462c      	mov	r4, r5
    1c54:	d018      	beq.n	0x1c88
    1c56:	9910      	ldr	r1, [sp, #64]	@ 0x40
    1c58:	6139      	str	r1, [r7, #16]
    1c5a:	d294      	bcs.n	0x1b86
    1c5c:	2008      	movs	r0, #8
    1c5e:	4608      	mov	r0, r1
    1c60:	08d5      	lsrs	r5, r2, #3
    1c62:	6308      	str	r0, [r1, #48]	@ 0x30
    1c64:	0864      	lsrs	r4, r4, #1
    1c66:	fc11 a561 	ldc2	5, cr10, [r1], {97}	@ 0x61
    1c6a:	8423      	strh	r3, [r4, #32]
    1c6c:	c1cb      	stmia	r1!, {r0, r1, r3, r6, r7}
    1c6e:	181e      	adds	r6, r3, r0
    1c70:	06f0      	lsls	r0, r6, #27
    1c72:	e24e      	b.n	0x2112
    1c74:	465c      	mov	r4, fp
    1c76:	b018      	add	sp, #96	@ 0x60
    1c78:	990e      	ldr	r1, [sp, #56]	@ 0x38
    1c7a:	60f5      	str	r5, [r6, #12]
    1c7c:	8d54      	ldrh	r4, [r2, #42]	@ 0x2a
    1c7e:	0e00      	lsrs	r0, r0, #24
    1c80:	6646      	str	r6, [r0, #100]	@ 0x64
    1c82:	23a5      	movs	r3, #165	@ 0xa5
    1c84:	ea94 460d 	eors.w	r6, r4, sp, lsl #16
    1c88:	e5a8      	b.n	0x17dc
    1c8a:	9011      	str	r0, [sp, #68]	@ 0x44
    1c8c:	050f      	lsls	r7, r1, #20
    1c8e:	617e      	str	r6, [r7, #20]
    1c90:	a274      	add	r2, pc, #464	@ (adr r2, 0x1e64)
    1c92:	5010      	str	r0, [r2, r0]
    1c94:	1800      	adds	r0, r0, r0
    1c96:	5a46      	ldrh	r6, [r0, r1]
    1c98:	1f90      	subs	r0, r2, #6
    1c9a:	c00a      	stmia	r0!, {r1, r3}
    1c9c:	9947      	ldr	r1, [sp, #284]	@ 0x11c
    1c9e:	0ac9      	lsrs	r1, r1, #11
    1ca0:	d546      	bpl.n	0x1d30
    1ca2:	b808      			@ <UNDEFINED> instruction: 0xb808
    1ca4:	6463      	str	r3, [r4, #68]	@ 0x44
    1ca6:	1108      	asrs	r0, r1, #4
    1ca8:	61fc      	str	r4, [r7, #28]
    1caa:	23a5      	movs	r3, #165	@ 0xa5
    1cac:	7b84      	ldrb	r4, [r0, #14]
    1cae:	60a2      	str	r2, [r4, #8]
    1cb0:	24e0      	movs	r4, #224	@ 0xe0
    1cb2:	ec85 0181 	stfs	f0, [r5], {129}	@ 0x81
    1cb6:	e06f      	b.n	0x1d98
    1cb8:	ce24      	ldmia	r6!, {r2, r5}
    1cba:	8465      	strh	r5, [r4, #34]	@ 0x22
    1cbc:	a511      	add	r5, pc, #68	@ (adr r5, 0x1d04)
    1cbe:	4470      	add	r0, lr
    1cc0:	4298      	cmp	r0, r3
    1cc2:	d546      	bpl.n	0x1d52
    1cc4:	9008      	str	r0, [sp, #32]
    1cc6:	6463      	str	r3, [r4, #68]	@ 0x44
    1cc8:	1108      	asrs	r0, r1, #4
    1cca:	61fc      	str	r4, [r7, #28]
    1ccc:	23a5      	movs	r3, #165	@ 0xa5
    1cce:	5b84      	ldrh	r4, [r0, r6]
    1cd0:	90a2      	str	r0, [sp, #648]	@ 0x288
    1cd2:	24e0      	movs	r4, #224	@ 0xe0
    1cd4:	ec85 0181 	stfs	f0, [r5], {129}	@ 0x81
    1cd8:	e06f      	b.n	0x1dba
    1cda:	e224      	b.n	0x2126
    1cdc:	608c      	str	r4, [r1, #8]
    1cde:	1184      	asrs	r4, r0, #6
    1ce0:	7082      	strb	r2, [r0, #2]
    1ce2:	4644      	mov	r4, r8
    1ce4:	e5a8      	b.n	0x1838
    1ce6:	d011      	beq.n	0x1d0c
    1ce8:	0509      	lsls	r1, r1, #20
    1cea:	617e      	str	r6, [r7, #20]
    1cec:	a274      	add	r2, pc, #464	@ (adr r2, 0x1ec0)
    1cee:	5010      	str	r0, [r2, r0]
    1cf0:	1800      	adds	r0, r0, r0
    1cf2:	5a46      	ldrh	r6, [r0, r1]
    1cf4:	1f90      	subs	r0, r2, #6
    1cf6:	7946      	ldrb	r6, [r0, #5]
    1cf8:	4654      	mov	r4, sl
    1cfa:	647a      	str	r2, [r7, #68]	@ 0x44
    1cfc:	a846      	add	r0, sp, #280	@ 0x118
    1cfe:	11e5      	asrs	r5, r4, #7
    1d00:	0840      	lsrs	r0, r0, #1
    1d02:	6847      	ldr	r7, [r0, #4]
    1d04:	a274      	add	r2, pc, #464	@ (adr r2, 0x1ed8)
    1d06:	d010      	beq.n	0x1d2a
    1d08:	7460      	strb	r0, [r4, #17]
    1d0a:	000c      	movs	r4, r1
    1d0c:	b322      	cbz	r2, 0x1d58
    1d0e:	4460      	add	r0, ip
    1d10:	08c2      	lsrs	r2, r0, #3
    1d12:	dd60      	ble.n	0x1dd6
    1d14:	f446 00bc 	orr.w	r0, r6, #6160384	@ 0x5e0000
    1d18:	dff1      	svc	241	@ 0xf1
    1d1a:	24f9      	movs	r4, #249	@ 0xf9
    1d1c:	7057      	strb	r7, [r2, #1]
    1d1e:	4414      	add	r4, r2
    1d20:	08e6      	lsrs	r6, r4, #3
    1d22:	4471      	add	r1, lr
    1d24:	e644      	b.n	0x19b0
    1d26:	1258      	asrs	r0, r3, #9
    1d28:	0529      	lsls	r1, r5, #20
    1d2a:	6452      	str	r2, [r2, #68]	@ 0x44
    1d2c:	f010 4656 	ands.w	r6, r0, #3590324224	@ 0xd6000000
    1d30:	8e01      	ldrh	r1, [r0, #48]	@ 0x30
    1d32:	654e      	str	r6, [r1, #84]	@ 0x54
    1d34:	982e      	ldr	r0, [sp, #184]	@ 0xb8
    1d36:	4685      	mov	sp, r0
    1d38:	3540      	adds	r5, #64	@ 0x40
    1d3a:	4633      	mov	r3, r6
    1d3c:	554e      	strb	r6, [r1, r5]
    1d3e:	24e8      	movs	r4, #232	@ 0xe8
    1d40:	4e0e      	ldr	r6, [pc, #56]	@ (0x1d7c)
    1d42:	1ce5      	adds	r5, r4, #3
    1d44:	4e0f      	ldr	r6, [pc, #60]	@ (0x1d84)
    1d46:	2862      	cmp	r0, #98	@ 0x62
    1d48:	54e0      	strb	r0, [r4, r3]
    1d4a:	0387      	lsls	r7, r0, #14
    1d4c:	e644      	b.n	0x19d8
    1d4e:	1e5a      	subs	r2, r3, #1
    1d50:	3311      	adds	r3, #17
    1d52:	6450      	str	r0, [r2, #68]	@ 0x44
    1d54:	744e      	strb	r6, [r1, #17]
    1d56:	108e      	asrs	r6, r1, #2
    1d58:	440d      	add	r5, r1
    1d5a:	0833      	lsrs	r3, r6, #32
    1d5c:	fc11 60d1 	ldc2	0, cr6, [r1], {209}	@ 0xd1
    1d60:	df44      	svc	68	@ 0x44
    1d62:	f107 fbdf 	bl	0x109524
    1d66:	4714      	bxns	r2
    1d68:	0460      	lsls	r0, r4, #17
    1d6a:	1258      	asrs	r0, r3, #9
    1d6c:	0529      	lsls	r1, r5, #20
    1d6e:	284e      	cmp	r0, #78	@ 0x4e
    1d70:	ce85      	ldmia	r6!, {r0, r2, r7}
    1d72:	34f1      	adds	r4, #241	@ 0xf1
    1d74:	e34e      	b.n	0x2414
    1d76:	14e0      	asrs	r0, r4, #19
    1d78:	4e0f      	ldr	r6, [pc, #60]	@ (0x1db8)
    1d7a:	2863      	cmp	r0, #99	@ 0x63
    1d7c:	14e0      	asrs	r0, r4, #19
    1d7e:	0287      	lsls	r7, r0, #10
    1d80:	8046      	strh	r6, [r0, #2]
    1d82:	df10      	svc	16
    1d84:	f105 7edf 	add.w	lr, r5, #29229056	@ 0x1be0000
    1d88:	5704      	ldrsb	r4, [r0, r4]
    1d8a:	1461      	asrs	r1, r4, #17
    1d8c:	10a2      	asrs	r2, r4, #2
    1d8e:	0560      	lsls	r0, r4, #21
    1d90:	2423      	movs	r4, #35	@ 0x23
    1d92:	0722      	lsls	r2, r4, #28
    1d94:	000a      	movs	r2, r1
    1d96:	63ee      	str	r6, [r5, #60]	@ 0x3c
    1d98:	0804      	lsrs	r4, r0, #32
    1d9a:	2df1      	cmp	r5, #241	@ 0xf1
    1d9c:	df10      	svc	16
    1d9e:	04fe      	lsls	r6, r7, #19
    1da0:	d9d3      	bls.n	0x1d4a
    1da2:	1320      	asrs	r0, r4, #12
    1da4:	9d30      	ldr	r5, [sp, #192]	@ 0xc0
    1da6:	3200      	adds	r2, #0
    1da8:	d31f      	bcc.n	0x1dea
    1daa:	2049      	movs	r0, #73	@ 0x49
    1dac:	3003      	adds	r0, #3
    1dae:	059d      	lsls	r5, r3, #22
    1db0:	0032      	movs	r2, r6
    1db2:	69d3      	ldr	r3, [r2, #28]
    1db4:	0320      	lsls	r0, r4, #12
    1db6:	9d30      	ldr	r5, [sp, #192]	@ 0xc0
    1db8:	3207      	adds	r2, #7
    1dba:	c200      	stmia	r2!, {}
    1dbc:	48e0      	ldr	r0, [pc, #896]	@ (0x2140)
    1dbe:	0d24      	lsrs	r4, r4, #20
    1dc0:	3207      	adds	r2, #7
    1dc2:	c511      	stmia	r5!, {r0, r4}
    1dc4:	9d37      	ldr	r5, [sp, #220]	@ 0xdc
    1dc6:	320d      	adds	r2, #13
    1dc8:	1100      	asrs	r0, r0, #4
    1dca:	1bb3      	subs	r3, r6, r6
    1dcc:	2015      	movs	r0, #21
    1dce:	511f      	str	r7, [r3, r4]
    1dd0:	f202 3511 	addw	r5, r2, #785	@ 0x311
    1dd4:	0020      	movs	r0, r4
    1dd6:	0a51      	lsrs	r1, r2, #9
    1dd8:	1002      	asrs	r2, r0, #32
    1dda:	20b5      	movs	r0, #181	@ 0xb5
    1ddc:	1100      	asrs	r0, r0, #4
    1dde:	1ce6      	adds	r6, r4, #3
    1de0:	cee0      	ldmia	r6, {r5, r6, r7}
    1de2:	404e      	eors	r6, r1
    1de4:	b058      	add	sp, #352	@ 0x160
    1de6:	4e1f      	ldr	r6, [pc, #124]	@ (0x1e64)
    1de8:	2860      	cmp	r0, #96	@ 0x60
    1dea:	c050      	stmia	r0!, {r4, r6}
    1dec:	4e1f      	ldr	r6, [pc, #124]	@ (0x1e6c)
    1dee:	4860      	ldr	r0, [pc, #384]	@ (0x1f70)
    1df0:	d050      	beq.n	0x1e94
    1df2:	4e1f      	ldr	r6, [pc, #124]	@ (0x1e70)
    1df4:	1860      	adds	r0, r4, r1
    1df6:	e050      	b.n	0x1e9a
    1df8:	4e1f      	ldr	r6, [pc, #124]	@ (0x1e78)
    1dfa:	3860      	subs	r0, #96	@ 0x60
    1dfc:	f050 4e1f 	orrs.w	lr, r0, #2667577344	@ 0x9f000000
    1e00:	5860      	ldr	r0, [r4, r1]
    1e02:	0050      	lsls	r0, r2, #1
    1e04:	5120      	str	r0, [r4, r4]
    1e06:	3207      	adds	r2, #7
    1e08:	00a0      	lsls	r0, r4, #2
    1e0a:	e5a0      	b.n	0x194e
    1e0c:	0011      	movs	r1, r2
    1e0e:	0580      	lsls	r0, r0, #22
    1e10:	1204      	asrs	r4, r0, #8
    1e12:	2035      	movs	r0, #53	@ 0x35
    1e14:	5101      	str	r1, [r0, r4]
    1e16:	174e      	asrs	r6, r1, #29
    1e18:	2df0      	cmp	r5, #240	@ 0xf0
    1e1a:	d310      	bcc.n	0x1e3e
    1e1c:	203d      	movs	r0, #61	@ 0x3d
    1e1e:	3050      	adds	r0, #80	@ 0x50
    1e20:	d309      	bcc.n	0x1e36
    1e22:	203d      	movs	r0, #61	@ 0x3d
    1e24:	7000      	strb	r0, [r0, #0]
    1e26:	d308      	bcc.n	0x1e3a
    1e28:	20d9      	movs	r0, #217	@ 0xd9
    1e2a:	3013      	adds	r0, #19
    1e2c:	009d      	lsls	r5, r3, #2
    1e2e:	1f32      	subs	r2, r6, #4
    1e30:	49d3      	ldr	r1, [pc, #844]	@ (0x2180)
    1e32:	0320      	lsls	r0, r4, #12
    1e34:	9d30      	ldr	r5, [sp, #192]	@ 0xc0
    1e36:	3205      	adds	r2, #5
    1e38:	d300      	bcc.n	0x1e3c
    1e3a:	2069      	movs	r0, #105	@ 0x69
    1e3c:	3003      	adds	r0, #3
    1e3e:	079d      	lsls	r5, r3, #30
    1e40:	0032      	movs	r2, r6
    1e42:	e0c2      	b.n	0x1fca
    1e44:	2448      	movs	r4, #72	@ 0x48
    1e46:	070d      	lsls	r5, r1, #28
    1e48:	1132      	asrs	r2, r6, #4
    1e4a:	373e      	adds	r7, #62	@ 0x3e
    1e4c:	0d9d      	lsrs	r5, r3, #22
    1e4e:	0032      	movs	r2, r6
    1e50:	2c11      	cmp	r4, #17
    1e52:	151b      	asrs	r3, r3, #20
    1e54:	1f20      	subs	r0, r4, #4
    1e56:	0251      	lsls	r1, r2, #9
    1e58:	11f2      	asrs	r2, r6, #7
    1e5a:	2035      	movs	r0, #53	@ 0x35
    1e5c:	5100      	str	r0, [r0, r4]
    1e5e:	074e      	lsls	r6, r1, #29
    1e60:	a510      	add	r5, pc, #64	@ (adr r5, 0x1ea4)
    1e62:	0020      	movs	r0, r4
    1e64:	0b51      	lsrs	r1, r2, #13
    1e66:	1002      	asrs	r2, r0, #32
    1e68:	faa3 f10e 	sasx	r1, r3, lr
    1e6c:	fcdf 4f27 	ldc2l	15, cr4, [pc], {39}	@ 0x27
    1e70:	cd30      	ldmia	r5, {r4, r5}
    1e72:	0203      	lsls	r3, r0, #8
    1e74:	0c01      	lsrs	r1, r0, #16
    1e76:	3fd3      	subs	r7, #211	@ 0xd3
    1e78:	2020      	movs	r0, #32
    1e7a:	16a0      	asrs	r0, r4, #26
    1e7c:	e04e      	b.n	0x1f1c
    1e7e:	1e1c      	subs	r4, r3, #0
    1e80:	b6c2      			@ <UNDEFINED> instruction: 0xb6c2
    1e82:	201f      	movs	r0, #31
    1e84:	b958      	cbnz	r0, 0x1e9e
    1e86:	e153      	b.n	0x2130
    1e88:	9604      	str	r6, [sp, #16]
    1e8a:	0403      	lsls	r3, r0, #16
    1e8c:	31fd      	adds	r1, #253	@ 0xfd
    1e8e:	b912      	cbnz	r2, 0x1e96
    1e90:	113f      	asrs	r7, r7, #4
    1e92:	20b5      	movs	r0, #181	@ 0xb5
    1e94:	5100      	str	r0, [r0, r4]
    1e96:	3203      	adds	r2, #3
    1e98:	e510      	b.n	0x18bc
    1e9a:	0174      	lsls	r4, r6, #5
    1e9c:	0851      	lsrs	r1, r2, #1
    1e9e:	1032      	asrs	r2, r6, #32
    1ea0:	2095      	movs	r0, #149	@ 0x95
    1ea2:	5103      	str	r3, [r0, r4]
    1ea4:	2204      	movs	r2, #4
    1ea6:	5518      	strb	r0, [r3, r4]
    1ea8:	1e20      	subs	r0, r4, #0
    1eaa:	000a      	movs	r2, r1
    1eac:	1e5a      	subs	r2, r3, #1
    1eae:	5e21      	ldrsh	r1, [r4, r0]
    1eb0:	05f7      	lsls	r7, r6, #23
    1eb2:	e206      	b.n	0x22c2
    1eb4:	8404      	strh	r4, [r0, #32]
    1eb6:	1fc1      	subs	r1, r0, #7
    1eb8:	0105      	lsls	r5, r0, #4
    1eba:	9d32      	ldr	r5, [sp, #200]	@ 0xc8
    1ebc:	320d      	adds	r2, #13
    1ebe:	0401      	lsls	r1, r0, #16
    1ec0:	2201      	movs	r2, #1
    1ec2:	000d      	movs	r5, r1
    1ec4:	d332      	bcc.n	0x1f2c
    1ec6:	2049      	movs	r0, #73	@ 0x49
    1ec8:	3003      	adds	r0, #3
    1eca:	059d      	lsls	r5, r3, #22
    1ecc:	0032      	movs	r2, r6
    1ece:	69d3      	ldr	r3, [r2, #28]
    1ed0:	0320      	lsls	r0, r4, #12
    1ed2:	9d30      	ldr	r5, [sp, #192]	@ 0xc0
    1ed4:	3207      	adds	r2, #7
    1ed6:	5000      	str	r0, [r0, r0]
    1ed8:	8201      	strh	r1, [r0, #16]
    1eda:	1c80      	adds	r0, r0, #2
    1edc:	1042      	asrs	r2, r0, #1
    1ede:	c120      	stmia	r1!, {r5}
    1ee0:	5807      	ldr	r7, [r0, r0]
    1ee2:	87ed      	strh	r5, [r5, #62]	@ 0x3e
    1ee4:	5244      	strh	r4, [r0, r1]
    1ee6:	2848      	cmp	r0, #72	@ 0x48
    1ee8:	040d      	lsls	r5, r1, #16
    1eea:	9832      	ldr	r0, [sp, #200]	@ 0xc8
    1eec:	5075      	str	r5, [r6, r1]
    1eee:	0201      	lsls	r1, r0, #8
    1ef0:	1c81      	adds	r1, r0, #2
    1ef2:	1042      	asrs	r2, r0, #1
    1ef4:	c120      	stmia	r1!, {r5}
    1ef6:	5807      	ldr	r7, [r0, r0]
    1ef8:	87ed      	strh	r5, [r5, #62]	@ 0x3e
    1efa:	5244      	strh	r4, [r0, r1]
    1efc:	2848      	cmp	r0, #72	@ 0x48
    1efe:	050d      	lsls	r5, r1, #20
    1f00:	9832      	ldr	r0, [sp, #200]	@ 0xc8
    1f02:	5049      	str	r1, [r1, r1]
    1f04:	8201      	strh	r1, [r0, #16]
    1f06:	1c81      	adds	r1, r0, #2
    1f08:	1042      	asrs	r2, r0, #1
    1f0a:	c120      	stmia	r1!, {r5}
    1f0c:	5807      	ldr	r7, [r0, r0]
    1f0e:	87ed      	strh	r5, [r5, #62]	@ 0x3e
    1f10:	5244      	strh	r4, [r0, r1]
    1f12:	2848      	cmp	r0, #72	@ 0x48
    1f14:	060d      	lsls	r5, r1, #24
    1f16:	9832      	ldr	r0, [sp, #200]	@ 0xc8
    1f18:	041d      	lsls	r5, r3, #16
    1f1a:	1201      	asrs	r1, r0, #8
    1f1c:	807c      	strh	r4, [r7, #2]
    1f1e:	7ed5      	ldrb	r5, [r2, #27]
    1f20:	2448      	movs	r4, #72	@ 0x48
    1f22:	8485      	strh	r5, [r0, #36]	@ 0x24
    1f24:	70d2      	strb	r2, [r2, #3]
    1f26:	1320      	asrs	r0, r4, #12
    1f28:	6600      	str	r0, [r0, #96]	@ 0x60
    1f2a:	d9d3      	bls.n	0x1ed4
    1f2c:	0320      	lsls	r0, r4, #12
    1f2e:	e010      	b.n	0x1f52
    1f30:	7ea4      	ldrb	r4, [r4, #26]
    1f32:	4df2      	ldr	r5, [pc, #968]	@ (0x22fc)
    1f34:	df10      	svc	16
    1f36:	27fc      	movs	r7, #252	@ 0xfc
    1f38:	304f      	adds	r0, #79	@ 0x4f
    1f3a:	03ed      	lsls	r5, r5, #15
    1f3c:	0302      	lsls	r2, r0, #12
    1f3e:	4e5f      	ldr	r6, [pc, #380]	@ (0x20bc)
    1f40:	1ce0      	adds	r0, r4, #3
    1f42:	c21e      	stmia	r2!, {r1, r2, r3, r4}
    1f44:	1fe6      	subs	r6, r4, #7
    1f46:	5820      	ldr	r0, [r4, r0]
    1f48:	82b9      	strh	r1, [r7, #20]
    1f4a:	04e0      	lsls	r0, r4, #19
    1f4c:	0396      	lsls	r6, r2, #14
    1f4e:	0004      	movs	r4, r0
    1f50:	1232      	asrs	r2, r6, #8
    1f52:	6fb8      	ldr	r0, [r7, #120]	@ 0x78
    1f54:	0b51      	lsrs	r1, r2, #13
    1f56:	1002      	asrs	r2, r0, #32
    1f58:	2035      	movs	r0, #53	@ 0x35
    1f5a:	5104      	str	r4, [r0, r4]
    1f5c:	174e      	asrs	r6, r1, #29
    1f5e:	4510      	cmp	r0, r2
    1f60:	1e20      	subs	r0, r4, #0
    1f62:	404e      	eors	r6, r1
    1f64:	fc18 2051 	ldc2	0, cr2, [r8], {81}	@ 0x51
    1f68:	5120      	str	r0, [r4, r4]
    1f6a:	120a      	asrs	r2, r1, #8
    1f6c:	a980      	add	r1, sp, #512	@ 0x200
    1f6e:	ed33 0203 	lfm	f0, 4, [r3, #-12]!
    1f72:	2f04      	cmp	r7, #4
    1f74:	e04e      	b.n	0x2014
    1f76:	1e1c      	subs	r4, r3, #0
    1f78:	e6c2      	b.n	0x1d00
    1f7a:	201f      	movs	r0, #31
    1f7c:	b858      			@ <UNDEFINED> instruction: 0xb858
    1f7e:	4e19      	ldr	r6, [pc, #100]	@ (0x1fe4)
    1f80:	3960      	subs	r1, #96	@ 0x60
    1f82:	0040      	lsls	r0, r0, #1
    1f84:	2320      	movs	r3, #32
    1f86:	3391      	adds	r3, #145	@ 0x91
    1f88:	0a51      	lsrs	r1, r2, #9
    1f8a:	e012      	b.n	0x1fb2
    1f8c:	df27      	svc	39	@ 0x27
    1f8e:	f104 fddf 	bl	0x106b50
    1f92:	4e04      	ldr	r6, [pc, #16]	@ (0x1fa4)
    1f94:	1840      	adds	r0, r0, r1
    1f96:	71fc      	strb	r4, [r7, #7]
    1f98:	4624      	mov	r4, r4
    1f9a:	2142      	movs	r1, #66	@ 0x42
    1f9c:	2320      	movs	r3, #32
    1f9e:	0a84      	lsrs	r4, r0, #10
    1fa0:	2461      	movs	r4, #97	@ 0x61
    1fa2:	0114      	lsls	r4, r2, #4
    1fa4:	4232      	tst	r2, r6
    1fa6:	8ab9      	ldrh	r1, [r7, #20]
    1fa8:	b510      	push	{r4, lr}
    1faa:	0020      	movs	r0, r4
    1fac:	d9d3      	bls.n	0x1f56
    1fae:	1320      	asrs	r0, r4, #12
    1fb0:	9d30      	ldr	r5, [sp, #192]	@ 0xc0
    1fb2:	3200      	adds	r2, #0
    1fb4:	d31f      	bcc.n	0x1ff6
    1fb6:	2049      	movs	r0, #73	@ 0x49
    1fb8:	3003      	adds	r0, #3
    1fba:	059d      	lsls	r5, r3, #22
    1fbc:	0032      	movs	r2, r6
    1fbe:	69d3      	ldr	r3, [r2, #28]
    1fc0:	0320      	lsls	r0, r4, #12
    1fc2:	9d30      	ldr	r5, [sp, #192]	@ 0xc0
    1fc4:	3207      	adds	r2, #7
    1fc6:	c200      	stmia	r2!, {}
    1fc8:	48e0      	ldr	r0, [pc, #896]	@ (0x234c)
    1fca:	0d24      	lsrs	r4, r4, #20
    1fcc:	3207      	adds	r2, #7
    1fce:	b911      	cbnz	r1, 0x1fd6
    1fd0:	9d35      	ldr	r5, [sp, #212]	@ 0xd4
    1fd2:	320d      	adds	r2, #13
    1fd4:	1100      	asrs	r0, r0, #4
    1fd6:	19a7      	adds	r7, r4, r6
    1fd8:	2015      	movs	r0, #21
    1fda:	511f      	str	r7, [r3, r4]
    1fdc:	f202 3511 	addw	r5, r2, #785	@ 0x311
    1fe0:	0020      	movs	r0, r4
    1fe2:	4e51      	ldr	r6, [pc, #324]	@ (0x2128)
    1fe4:	1007      	asrs	r7, r0, #32
    1fe6:	20a5      	movs	r0, #165	@ 0xa5
    1fe8:	4600      	mov	r0, r0
    1fea:	e312      	b.n	0x2612
    1fec:	fee2 103d 	mcr2	0, 7, r1, cr2, cr13, {1}
    1ff0:	f9df 6f57 	ldr??.w	r6, [pc, #3927]	@ 0x2f4b
    1ff4:	24f0      	movs	r4, #240	@ 0xf0
    1ff6:	000a      	movs	r2, r1
    1ff8:	3447      	adds	r4, #71	@ 0x47
    1ffa:	0add      	lsrs	r5, r3, #11
    1ffc:	0002      	movs	r2, r0
    1ffe:	320f      	adds	r2, #15
    2000:	03ed      	lsls	r5, r5, #15
    2002:	0202      	lsls	r2, r0, #8
    2004:	0a62      	lsrs	r2, r4, #9
    2006:	4e00      	ldr	r6, [pc, #0]	@ (0x2008)
    2008:	4852      	ldr	r0, [pc, #328]	@ (0x2154)
    200a:	1fb0      	subs	r0, r6, #6
    200c:	fc24 d141 	stc2	1, cr13, [r4], #-260	@ 0xfffffefc
    2010:	fa1f a200 			@ <UNDEFINED> instruction: 0xfa1fa200
    2014:	2ca3      	cmp	r4, #163	@ 0xa3
    2016:	a28a      	add	r2, pc, #552	@ (adr r2, 0x2240)
    2018:	fc14 0811 	ldc2	8, cr0, [r4], {17}
    201c:	04ea      	lsls	r2, r5, #19
    201e:	0485      	lsls	r5, r0, #18
    2020:	e1fb      	b.n	0x241a
    2022:	8704      	strh	r4, [r0, #56]	@ 0x38
    2024:	c201      	stmia	r2!, {r0}
    2026:	1fc6      	subs	r6, r0, #7
    2028:	04e0      	lsls	r0, r4, #19
    202a:	f2ce b510 	b.w	0x6d0a4e
    202e:	0120      	lsls	r0, r4, #4
    2030:	010a      	lsls	r2, r1, #4
    2032:	9447      	str	r4, [sp, #284]	@ 0x11c
    2034:	1a29      	subs	r1, r5, r0
    2036:	3ed3      	subs	r6, #211	@ 0xd3
    2038:	3020      	adds	r0, #32
    203a:	a620      	add	r6, pc, #128	@ (adr r6, 0x20bc)
    203c:	e000      	b.n	0x2040
    203e:	8524      	strh	r4, [r4, #40]	@ 0x28
    2040:	fe04 f241 	cdp2	2, 0, cr15, cr4, cr1, {2}
    2044:	141f      	asrs	r7, r3, #16
    2046:	a200      	add	r2, pc, #0	@ (adr r2, 0x2048)
    2048:	200f      	movs	r0, #15
    204a:	ca3a      	ldmia	r2!, {r1, r3, r4, r5}
    204c:	28a2      	cmp	r0, #162	@ 0xa2
    204e:	c14a      	stmia	r1!, {r1, r3, r6}
    2050:	811f      	strh	r7, [r3, #8]
    2052:	4ee0      	ldr	r6, [pc, #896]	@ (0x23d4)
    2054:	4850      	ldr	r0, [pc, #320]	@ (0x2198)
    2056:	1fe0      	subs	r0, r4, #7
    2058:	704e      	strb	r6, [r1, #1]
    205a:	2018      	movs	r0, #24
    205c:	ff6c 4e01 	vcgt.f32	d20, d12, d1
    2060:	2ce0      	cmp	r4, #224	@ 0xe0
    2062:	510f      	str	r7, [r1, r4]
    2064:	120b      	asrs	r3, r1, #8
    2066:	10a0      	asrs	r0, r4, #2
    2068:	4470      	add	r0, lr
    206a:	3599      	adds	r5, #153	@ 0x99
    206c:	fd31 0203 	ldc2	2, cr0, [r1, #-12]!
    2070:	2904      	cmp	r1, #4
    2072:	00a1      	lsls	r1, r4, #2
    2074:	24e0      	movs	r4, #224	@ 0xe0
    2076:	0485      	lsls	r5, r0, #18
    2078:	1202      	asrs	r2, r0, #8
    207a:	e608      	b.n	0x1c8e
    207c:	8504      	strh	r4, [r0, #40]	@ 0x28
    207e:	000a      	movs	r2, r1
    2080:	704e      	strb	r6, [r1, #1]
    2082:	0018      	movs	r0, r3
    2084:	e00c      	b.n	0x20a0
    2086:	ce04      	ldmia	r6!, {r2}
    2088:	30f2      	adds	r0, #242	@ 0xf2
    208a:	0d9d      	lsrs	r5, r3, #22
    208c:	0132      	lsls	r2, r6, #4
    208e:	0204      	lsls	r4, r0, #8
    2090:	0d22      	lsrs	r2, r4, #20
    2092:	3200      	adds	r2, #0
    2094:	49d3      	ldr	r1, [pc, #844]	@ (0x23e4)
    2096:	0320      	lsls	r0, r4, #12
    2098:	9d30      	ldr	r5, [sp, #192]	@ 0xc0
    209a:	3205      	adds	r2, #5
    209c:	d300      	bcc.n	0x20a0
    209e:	2069      	movs	r0, #105	@ 0x69
    20a0:	3003      	adds	r0, #3
    20a2:	079d      	lsls	r5, r3, #30
    20a4:	0032      	movs	r2, r6
    20a6:	0250      	lsls	r0, r2, #9
    20a8:	8082      	strh	r2, [r0, #4]
    20aa:	421c      	tst	r4, r3
    20ac:	2020      	movs	r0, #32
    20ae:	07c1      	lsls	r1, r0, #31
    20b0:	ed58 4487 	cfldrd	mvd4, [r8, #-540]	@ 0xfffffde4
    20b4:	4852      	ldr	r0, [pc, #328]	@ (0x2200)
    20b6:	0d28      	lsrs	r0, r5, #20
    20b8:	3204      	adds	r2, #4
    20ba:	7598      	strb	r0, [r3, #22]
    20bc:	0250      	lsls	r0, r2, #9
    20be:	8102      	strh	r2, [r0, #8]
    20c0:	421c      	tst	r4, r3
    20c2:	2020      	movs	r0, #32
    20c4:	07c1      	lsls	r1, r0, #31
    20c6:	ed58 4487 	cfldrd	mvd4, [r8, #-540]	@ 0xfffffde4
    20ca:	4852      	ldr	r0, [pc, #328]	@ (0x2214)
    20cc:	0d28      	lsrs	r0, r5, #20
    20ce:	3205      	adds	r2, #5
    20d0:	4998      	ldr	r1, [pc, #608]	@ (0x2334)
    20d2:	0250      	lsls	r0, r2, #9
    20d4:	8182      	strh	r2, [r0, #12]
    20d6:	421c      	tst	r4, r3
    20d8:	2020      	movs	r0, #32
    20da:	07c1      	lsls	r1, r0, #31
    20dc:	ed58 4487 	cfldrd	mvd4, [r8, #-540]	@ 0xfffffde4
    20e0:	4852      	ldr	r0, [pc, #328]	@ (0x222c)
    20e2:	0d28      	lsrs	r0, r5, #20
    20e4:	3206      	adds	r2, #6
    20e6:	1d98      	adds	r0, r3, #6
    20e8:	0204      	lsls	r4, r0, #8
    20ea:	7c12      	ldrb	r2, [r2, #16]
    20ec:	d580      	bpl.n	0x1ff0
    20ee:	487e      	ldr	r0, [pc, #504]	@ (0x22e8)
    20f0:	8524      	strh	r4, [r4, #40]	@ 0x28
    20f2:	d284      	bcs.n	0x1ffe
    20f4:	2070      	movs	r0, #112	@ 0x70
    20f6:	1013      	asrs	r3, r2, #32
    20f8:	d349      	bcc.n	0x218e
    20fa:	20d9      	movs	r0, #217	@ 0xd9
    20fc:	1003      	asrs	r3, r0, #32
    20fe:	87f0      	strh	r0, [r6, #62]	@ 0x3e
    2100:	0b51      	lsrs	r1, r2, #13
    2102:	a012      	add	r0, pc, #72	@ (adr r0, 0x214c)
    2104:	7010      	strb	r0, [r2, #0]
    2106:	4644      	mov	r4, r8
    2108:	57e4      	ldrsb	r4, [r4, r7]
    210a:	07df      	lsls	r7, r3, #31
    210c:	d3f1      	bcc.n	0x20f2
    210e:	20bd      	movs	r0, #189	@ 0xbd
    2110:	7000      	strb	r0, [r0, #0]
    2112:	d31b      	bcc.n	0x214c
    2114:	203e      	movs	r0, #62	@ 0x3e
    2116:	8020      	strh	r0, [r4, #0]
    2118:	7504      	strb	r4, [r0, #20]
    211a:	0020      	movs	r0, r4
    211c:	1332      	asrs	r2, r6, #12
    211e:	0419      	lsls	r1, r3, #16
    2120:	2207      	movs	r2, #7
    2122:	010a      	lsls	r2, r1, #4
    2124:	d30d      	bcc.n	0x2142
    2126:	207e      	movs	r0, #126	@ 0x7e
    2128:	c000      	stmia	r0!, {}
    212a:	4510      	cmp	r0, r2
    212c:	2820      	cmp	r0, #32
    212e:	6e99      	ldr	r1, [r3, #104]	@ 0x68
    2130:	c0a1      	stmia	r0!, {r0, r5, r7}
    2132:	85a8      	strh	r0, [r5, #44]	@ 0x2c
    2134:	731c      	strb	r4, [r3, #12]
    2136:	5f4d      	ldrsh	r5, [r1, r5]
    2138:	2040      	movs	r0, #64	@ 0x40
    213a:	5699      	ldrsb	r1, [r3, r2]
    213c:	ed31 0203 	lfm	f0, 4, [r1, #-12]!
    2140:	5103      	str	r3, [r0, r4]
    2142:	0850      	lsrs	r0, r2, #1
    2144:	2002      	movs	r0, #2
    2146:	3e33      	subs	r6, #51	@ 0x33
    2148:	8041      	strh	r1, [r0, #2]
    214a:	a220      	add	r2, pc, #128	@ (adr r2, 0x21cc)
    214c:	d010      	beq.n	0x2170
    214e:	9500      	str	r5, [sp, #0]
    2150:	0020      	movs	r0, r4
    2152:	5332      	strh	r2, [r6, r4]
    2154:	0412      	lsls	r2, r2, #16
    2156:	4209      	tst	r1, r1
    2158:	2081      	movs	r0, #129	@ 0x81
    215a:	9423      	str	r4, [sp, #140]	@ 0x8c
    215c:	113c      	asrs	r4, r7, #4
    215e:	000a      	movs	r2, r1
    2160:	0514      	lsls	r4, r2, #20
    2162:	9312      	str	r3, [sp, #72]	@ 0x48
    2164:	5f4a      	ldrsh	r2, [r1, r5]
    2166:	2060      	movs	r0, #96	@ 0x60
    2168:	fa99 fd30 			@ <UNDEFINED> instruction: 0xfa99fd30
    216c:	0203      	lsls	r3, r0, #8
    216e:	ee04 9d30 	mcr	13, 0, r9, cr4, cr0, {1}
    2172:	320d      	adds	r2, #13
    2174:	0401      	lsls	r1, r0, #16
    2176:	2201      	movs	r2, #1
    2178:	000d      	movs	r5, r1
    217a:	d332      	bcc.n	0x21e2
    217c:	2049      	movs	r0, #73	@ 0x49
    217e:	3003      	adds	r0, #3
    2180:	059d      	lsls	r5, r3, #22
    2182:	0032      	movs	r2, r6
    2184:	69d3      	ldr	r3, [r2, #28]
    2186:	0320      	lsls	r0, r4, #12
    2188:	9d30      	ldr	r5, [sp, #192]	@ 0xc0
    218a:	3207      	adds	r2, #7
    218c:	5000      	str	r0, [r0, r0]
    218e:	8201      	strh	r1, [r0, #16]
    2190:	1c80      	adds	r0, r0, #2
    2192:	1042      	asrs	r2, r0, #1
    2194:	c120      	stmia	r1!, {r5}
    2196:	5807      	ldr	r7, [r0, r0]
    2198:	87ed      	strh	r5, [r5, #62]	@ 0x3e
    219a:	5244      	strh	r4, [r0, r1]
    219c:	2848      	cmp	r0, #72	@ 0x48
    219e:	040d      	lsls	r5, r1, #16
    21a0:	9832      	ldr	r0, [sp, #200]	@ 0xc8
    21a2:	5075      	str	r5, [r6, r1]
    21a4:	0201      	lsls	r1, r0, #8
    21a6:	1c81      	adds	r1, r0, #2
    21a8:	1042      	asrs	r2, r0, #1
    21aa:	c120      	stmia	r1!, {r5}
    21ac:	5807      	ldr	r7, [r0, r0]
    21ae:	87ed      	strh	r5, [r5, #62]	@ 0x3e
    21b0:	5244      	strh	r4, [r0, r1]
    21b2:	2848      	cmp	r0, #72	@ 0x48
    21b4:	050d      	lsls	r5, r1, #20
    21b6:	9832      	ldr	r0, [sp, #200]	@ 0xc8
    21b8:	5049      	str	r1, [r1, r1]
    21ba:	8201      	strh	r1, [r0, #16]
    21bc:	1c81      	adds	r1, r0, #2
    21be:	1042      	asrs	r2, r0, #1
    21c0:	c120      	stmia	r1!, {r5}
    21c2:	5807      	ldr	r7, [r0, r0]
    21c4:	87ed      	strh	r5, [r5, #62]	@ 0x3e
    21c6:	5244      	strh	r4, [r0, r1]
    21c8:	2848      	cmp	r0, #72	@ 0x48
    21ca:	060d      	lsls	r5, r1, #24
    21cc:	9832      	ldr	r0, [sp, #200]	@ 0xc8
    21ce:	041d      	lsls	r5, r3, #16
    21d0:	1201      	asrs	r1, r0, #8
    21d2:	807c      	strh	r4, [r7, #2]
    21d4:	7ed5      	ldrb	r5, [r2, #27]
    21d6:	2448      	movs	r4, #72	@ 0x48
    21d8:	8485      	strh	r5, [r0, #36]	@ 0x24
    21da:	70d2      	strb	r2, [r2, #3]
    21dc:	1320      	asrs	r0, r4, #12
    21de:	3aa0      	subs	r2, #160	@ 0xa0
    21e0:	d9d3      	bls.n	0x218a
    21e2:	0320      	lsls	r0, r4, #12
    21e4:	7310      	strb	r0, [r2, #12]
    21e6:	1f79      	subs	r1, r7, #5
    21e8:	20a5      	movs	r0, #165	@ 0xa5
    21ea:	5100      	str	r0, [r0, r4]
    21ec:	020b      	lsls	r3, r1, #8
    21ee:	f100 0450 	add.w	r4, r0, #80	@ 0x50
    21f2:	2002      	movs	r0, #2
    21f4:	0c32      	lsrs	r2, r6, #16
    21f6:	0404      	lsls	r4, r0, #16
    21f8:	0a22      	lsrs	r2, r4, #8
    21fa:	0d01      	lsrs	r1, r0, #20
    21fc:	0550      	lsls	r0, r2, #21
    21fe:	2002      	movs	r0, #2
    2200:	0c32      	lsrs	r2, r6, #16
    2202:	0504      	lsls	r4, r0, #20
    2204:	0a22      	lsrs	r2, r4, #8
    2206:	0d01      	lsrs	r1, r0, #20
    2208:	0650      	lsls	r0, r2, #25
    220a:	2002      	movs	r0, #2
    220c:	0c32      	lsrs	r2, r6, #16
    220e:	0604      	lsls	r4, r0, #24
    2210:	0a22      	lsrs	r2, r4, #8
    2212:	0d01      	lsrs	r1, r0, #20
    2214:	3ed3      	subs	r6, #211	@ 0xd3
    2216:	1020      	asrs	r0, r4, #32
    2218:	3400      	adds	r4, #0
    221a:	04fd      	lsls	r5, r7, #19
    221c:	0002      	movs	r2, r0
    221e:	12c3      	asrs	r3, r0, #11
    2220:	20b5      	movs	r0, #181	@ 0xb5
    2222:	5100      	str	r0, [r0, r4]
    2224:	2203      	movs	r2, #3
    2226:	e510      	b.n	0x1c4a
    2228:	0174      	lsls	r4, r6, #5
    222a:	8c0a      	ldrh	r2, [r1, #32]
    222c:	c85a      	ldmia	r0!, {r1, r3, r4, r6}
    222e:	de21      	udf	#33	@ 0x21
    2230:	05f3      	lsls	r3, r6, #23
    2232:	1204      	asrs	r4, r0, #8
    2234:	20a5      	movs	r0, #165	@ 0xa5
    2236:	9901      	ldr	r1, [sp, #4]
    2238:	328f      	adds	r2, #143	@ 0x8f
    223a:	03ed      	lsls	r5, r5, #15
    223c:	0202      	lsls	r2, r0, #8
    223e:	d32d      	bcc.n	0x229c
    2240:	204f      	movs	r0, #79	@ 0x4f
    2242:	8000      	strh	r0, [r0, #0]
    2244:	d327      	bcc.n	0x2296
    2246:	207e      	movs	r0, #126	@ 0x7e
    2248:	a000      	add	r0, pc, #0	@ (adr r0, 0x224c)
    224a:	e010      	b.n	0x226e
    224c:	99bc      	ldr	r1, [sp, #752]	@ 0x2f0
    224e:	1263      	asrs	r3, r4, #9
    2250:	20a5      	movs	r0, #165	@ 0xa5
    2252:	9901      	ldr	r1, [sp, #4]
    2254:	3257      	adds	r2, #87	@ 0x57
    2256:	03fd      	lsls	r5, r7, #15
    2258:	0302      	lsls	r2, r0, #12
    225a:	311e      	adds	r1, #30
    225c:	04fd      	lsls	r5, r7, #19
    225e:	0002      	movs	r2, r0
    2260:	309a      	adds	r0, #154	@ 0x9a
    2262:	07ed      	lsls	r5, r5, #31
    2264:	0002      	movs	r2, r0
    2266:	110a      	asrs	r2, r1, #4
    2268:	9bb1      	ldr	r3, [sp, #708]	@ 0x2c4
    226a:	22a9      	movs	r2, #169	@ 0xa9
    226c:	d9d3      	bls.n	0x2216
    226e:	1320      	asrs	r0, r4, #12
    2270:	9d30      	ldr	r5, [sp, #192]	@ 0xc0
    2272:	3200      	adds	r2, #0
    2274:	d31f      	bcc.n	0x22b6
    2276:	2049      	movs	r0, #73	@ 0x49
    2278:	3003      	adds	r0, #3
    227a:	059d      	lsls	r5, r3, #22
    227c:	0032      	movs	r2, r6
    227e:	69d3      	ldr	r3, [r2, #28]
    2280:	0320      	lsls	r0, r4, #12
    2282:	9d30      	ldr	r5, [sp, #192]	@ 0xc0
    2284:	3207      	adds	r2, #7
    2286:	c200      	stmia	r2!, {}
    2288:	48e0      	ldr	r0, [pc, #896]	@ (0x260c)
    228a:	0d24      	lsrs	r4, r4, #20
    228c:	3207      	adds	r2, #7
    228e:	f911 9d32 	ldrsb.w	r9, [r1, #-50]!
    2292:	320d      	adds	r2, #13
    2294:	2100      	movs	r1, #0
    2296:	f6e7 0b51 			@ <UNDEFINED> instruction: 0xf6e70b51
    229a:	1002      	asrs	r2, r0, #32
    229c:	2035      	movs	r0, #53	@ 0x35
    229e:	5102      	str	r2, [r0, r4]
    22a0:	174e      	asrs	r6, r1, #29
    22a2:	00a0      	lsls	r0, r4, #2
    22a4:	e5a0      	b.n	0x1de8
    22a6:	5311      	strh	r1, [r2, r4]
    22a8:	5f36      	ldrsh	r6, [r6, r4]
    22aa:	2040      	movs	r0, #64	@ 0x40
    22ac:	a599      	add	r5, pc, #612	@ (adr r5, 0x2514)
    22ae:	ed31 0205 	lfm	f0, 4, [r1, #-20]!	@ 0xffffffec
    22b2:	4300      	orrs	r0, r0
    22b4:	0950      	lsrs	r0, r2, #5
    22b6:	2002      	movs	r0, #2
    22b8:	3732      	adds	r7, #50	@ 0x32
    22ba:	0551      	lsls	r1, r2, #21
    22bc:	41e2      	rors	r2, r4
    22be:	2090      	movs	r0, #144	@ 0x90
    22c0:	10a2      	asrs	r2, r4, #2
    22c2:	40d0      	lsrs	r0, r2
    22c4:	2090      	movs	r0, #144	@ 0x90
    22c6:	0814      	lsrs	r4, r2, #32
    22c8:	4232      	tst	r2, r6
    22ca:	13b8      	asrs	r0, r7, #14
    22cc:	000a      	movs	r2, r1
    22ce:	1e5a      	subs	r2, r3, #1
    22d0:	3c21      	subs	r4, #33	@ 0x21
    22d2:	05f3      	lsls	r3, r6, #23
    22d4:	3206      	adds	r2, #6
    22d6:	06fd      	lsls	r5, r7, #27
    22d8:	0002      	movs	r2, r0
    22da:	414b      	adcs	r3, r1
    22dc:	2090      	movs	r0, #144	@ 0x90
    22de:	0814      	lsrs	r4, r2, #32
    22e0:	4232      	tst	r2, r6
    22e2:	39c9      	subs	r1, #201	@ 0xc9
    22e4:	a511      	add	r5, pc, #68	@ (adr r5, 0x232c)
    22e6:	0120      	lsls	r0, r4, #4
    22e8:	2d99      	cmp	r5, #153	@ 0x99
    22ea:	fd31 0203 	ldc2	2, cr0, [r1, #-12]!
    22ee:	2104      	movs	r1, #4
    22f0:	fd31 0204 	ldc2	2, cr0, [r1, #-16]!
    22f4:	1500      	asrs	r0, r0, #20
    22f6:	b511      	push	{r0, r4, lr}
    22f8:	0020      	movs	r0, r4
    22fa:	0a51      	lsrs	r1, r2, #9
    22fc:	1002      	asrs	r2, r0, #32
    22fe:	2035      	movs	r0, #53	@ 0x35
    2300:	5105      	str	r5, [r0, r4]
    2302:	074e      	lsls	r6, r1, #29
    2304:	9d30      	ldr	r5, [sp, #192]	@ 0xc0
    2306:	320d      	adds	r2, #13
    2308:	0401      	lsls	r1, r0, #16
    230a:	2202      	movs	r2, #2
    230c:	000d      	movs	r5, r1
    230e:	d332      	bcc.n	0x2376
    2310:	2049      	movs	r0, #73	@ 0x49
    2312:	3003      	adds	r0, #3
    2314:	059d      	lsls	r5, r3, #22
    2316:	0032      	movs	r2, r6
    2318:	69d3      	ldr	r3, [r2, #28]
    231a:	0320      	lsls	r0, r4, #12
    231c:	9d30      	ldr	r5, [sp, #192]	@ 0xc0
    231e:	3207      	adds	r2, #7
    2320:	5000      	str	r0, [r0, r0]
    2322:	8202      	strh	r2, [r0, #16]
    2324:	1c80      	adds	r0, r0, #2
    2326:	2042      	movs	r0, #66	@ 0x42
    2328:	c120      	stmia	r1!, {r5}
    232a:	5807      	ldr	r7, [r0, r0]
    232c:	87ed      	strh	r5, [r5, #62]	@ 0x3e
    232e:	5244      	strh	r4, [r0, r1]
    2330:	2848      	cmp	r0, #72	@ 0x48
    2332:	040d      	lsls	r5, r1, #16
    2334:	9832      	ldr	r0, [sp, #200]	@ 0xc8
    2336:	5075      	str	r5, [r6, r1]
    2338:	0202      	lsls	r2, r0, #8
    233a:	1c81      	adds	r1, r0, #2
    233c:	2042      	movs	r0, #66	@ 0x42
    233e:	c120      	stmia	r1!, {r5}
    2340:	5807      	ldr	r7, [r0, r0]
    2342:	87ed      	strh	r5, [r5, #62]	@ 0x3e
    2344:	5244      	strh	r4, [r0, r1]
    2346:	2848      	cmp	r0, #72	@ 0x48
    2348:	050d      	lsls	r5, r1, #20
    234a:	9832      	ldr	r0, [sp, #200]	@ 0xc8
    234c:	5049      	str	r1, [r1, r1]
    234e:	8202      	strh	r2, [r0, #16]
    2350:	1c81      	adds	r1, r0, #2
    2352:	2042      	movs	r0, #66	@ 0x42
    2354:	c120      	stmia	r1!, {r5}
    2356:	5807      	ldr	r7, [r0, r0]
    2358:	87ed      	strh	r5, [r5, #62]	@ 0x3e
    235a:	5244      	strh	r4, [r0, r1]
    235c:	2848      	cmp	r0, #72	@ 0x48
    235e:	060d      	lsls	r5, r1, #24
    2360:	9832      	ldr	r0, [sp, #200]	@ 0xc8
    2362:	041d      	lsls	r5, r3, #16
    2364:	1202      	asrs	r2, r0, #8
    2366:	807c      	strh	r4, [r7, #2]
    2368:	7ed5      	ldrb	r5, [r2, #27]
    236a:	2448      	movs	r4, #72	@ 0x48
    236c:	8485      	strh	r5, [r0, #36]	@ 0x24
    236e:	70d2      	strb	r2, [r2, #3]
    2370:	1320      	asrs	r0, r4, #12
    2372:	2160      	movs	r1, #96	@ 0x60
    2374:	d9d3      	bls.n	0x231e
    2376:	0320      	lsls	r0, r4, #12
    2378:	3310      	adds	r3, #16
    237a:	4f60      	ldr	r7, [pc, #384]	@ (0x24fc)
    237c:	2020      	movs	r0, #32
    237e:	7c21      	ldrb	r1, [r4, #16]
    2380:	10ea      	asrs	r2, r5, #3
    2382:	3ed3      	subs	r6, #211	@ 0xd3
    2384:	5020      	str	r0, [r4, r0]
    2386:	a070      	add	r0, pc, #448	@ (adr r0, 0x2548)
    2388:	e010      	b.n	0x23ac
    238a:	0a2e      	lsrs	r6, r5, #8
    238c:	1000      	asrs	r0, r0, #32
    238e:	eccf 27f2 	stcl	7, cr2, [pc], {242}	@ 0xf2
    2392:	1e31      	subs	r1, r6, #0
    2394:	3220      	adds	r2, #32
    2396:	c242      	stmia	r2!, {r1, r6}
    2398:	2290      	movs	r2, #144	@ 0x90
    239a:	4473      	add	r3, lr
    239c:	a6c2      	add	r6, pc, #776	@ (adr r6, 0x26a8)
    239e:	f322 c256 	blx	0xf2484c
    23a2:	22c6      	movs	r2, #198	@ 0xc6
    23a4:	76f3      	strb	r3, [r6, #27]
    23a6:	e6c2      	b.n	0x212e
    23a8:	f322 d396 	bl	0xf24ad8
    23ac:	2209      	movs	r2, #9
    23ae:	2023      	movs	r0, #35	@ 0x23
    23b0:	ce80      	ldmia	r6!, {r7}
    23b2:	5014      	str	r4, [r2, r0]
    23b4:	4719      	bx	r3
    23b6:	3fe0      	subs	r7, #224	@ 0xe0
    23b8:	000a      	movs	r2, r1
    23ba:	3047      	adds	r0, #71	@ 0x47
    23bc:	208e      	movs	r0, #142	@ 0x8e
    23be:	8c32      	ldrh	r2, [r6, #32]
    23c0:	0c20      	lsrs	r0, r4, #16
    23c2:	3221      	adds	r2, #33	@ 0x21
    23c4:	2b47      	cmp	r3, #71	@ 0x47
    23c6:	226c      	movs	r2, #108	@ 0x6c
    23c8:	6f32      	ldr	r2, [r6, #112]	@ 0x70
    23ca:	6c2c      	ldr	r4, [r5, #64]	@ 0x40
    23cc:	3224      	adds	r2, #36	@ 0x24
    23ce:	2e6f      	cmp	r6, #111	@ 0x6f
    23d0:	266c      	movs	r6, #108	@ 0x6c
    23d2:	f232 3106 			@ <UNDEFINED> instruction: 0xf2323106
    23d6:	209d      	movs	r0, #157	@ 0x9d
    23d8:	0132      	lsls	r2, r6, #4
    23da:	2802      	cmp	r0, #2
    23dc:	0bce      	lsrs	r6, r1, #15
    23de:	6911      	ldr	r1, [r2, #16]
    23e0:	1471      	asrs	r1, r6, #17
    23e2:	c046      	stmia	r0!, {r1, r2, r6}
    23e4:	7008      	strb	r0, [r1, #0]
    23e6:	b564      	push	{r2, r5, r6, lr}
    23e8:	3446      	adds	r4, #70	@ 0x46
    23ea:	b812      			@ <UNDEFINED> instruction: 0xb812
    23ec:	7e3a      	ldrb	r2, [r7, #24]
    23ee:	56ec      	ldrsb	r4, [r5, r3]
    23f0:	8582      	strh	r2, [r0, #44]	@ 0x2c
    23f2:	e2db      	b.n	0x29ac
    23f4:	6ee7      	ldr	r7, [r4, #108]	@ 0x6c
    23f6:	5827      	ldr	r7, [r4, r0]
    23f8:	20b8      	movs	r0, #184	@ 0xb8
    23fa:	07e2      	lsls	r2, r4, #31
    23fc:	96e1      	str	r6, [sp, #900]	@ 0x384
    23fe:	8582      	strh	r2, [r0, #44]	@ 0x2c
    2400:	a11b      	add	r1, pc, #108	@ (adr r1, 0x2470)
    2402:	7000      	strb	r0, [r0, #0]
    2404:	fe04 00a3 	cdp2	0, 0, cr0, cr4, cr3, {5}
    2408:	1470      	asrs	r0, r6, #17
    240a:	2146      	movs	r1, #70	@ 0x46
    240c:	038d      	lsls	r5, r1, #14
    240e:	60f3      	str	r3, [r6, #12]
    2410:	d204      	bcs.n	0x241c
    2412:	d038      	beq.n	0x2486
    2414:	460b      	mov	r3, r1
    2416:	fc1e 2471 	ldc2	4, cr2, [lr], {113}	@ 0x71
    241a:	1746      	asrs	r6, r0, #29
    241c:	71fc      	strb	r4, [r7, #7]
    241e:	4634      	mov	r4, r6
    2420:	f8c3 6531 	str.w	r6, [r3, #1329]	@ 0x531
    2424:	5624      	ldrsb	r4, [r4, r0]
    2426:	4233      	tst	r3, r6
    2428:	23c8      	movs	r3, #200	@ 0xc8
    242a:	2146      	movs	r1, #70	@ 0x46
    242c:	e280      	b.n	0x2930
    242e:	10bc      	asrs	r4, r7, #2
    2430:	07f0      	lsls	r0, r6, #31
    2432:	2046      	movs	r0, #70	@ 0x46
    2434:	ce80      	ldmia	r6!, {r7}
    2436:	8014      	strh	r4, [r2, #0]
    2438:	9907      	ldr	r1, [sp, #28]
    243a:	60cb      	str	r3, [r1, #12]
    243c:	0204      	lsls	r4, r0, #8
    243e:	4ce8      	ldr	r4, [pc, #928]	@ (0x27e0)
    2440:	6e11      	ldr	r1, [r2, #96]	@ 0x60
    2442:	1460      	asrs	r0, r4, #17
    2444:	2802      	cmp	r0, #2
    2446:	0bce      	lsrs	r6, r1, #15
    2448:	6611      	str	r1, [r2, #96]	@ 0x60
    244a:	8990      	ldrh	r0, [r2, #12]
    244c:	460a      	mov	r2, r1
    244e:	08c2      	lsrs	r2, r0, #3
    2450:	6220      	str	r0, [r4, #32]
    2452:	0214      	lsls	r4, r2, #8
    2454:	ce28      	ldmia	r6!, {r3, r5}
    2456:	110b      	asrs	r3, r1, #4
    2458:	6057      	str	r7, [r2, #4]
    245a:	0204      	lsls	r4, r0, #8
    245c:	4ce8      	ldr	r4, [pc, #928]	@ (0x2800)
    245e:	5011      	str	r1, [r2, r0]
    2460:	d980      	bls.n	0x2364
    2462:	0467      	lsls	r7, r4, #17
    2464:	e802 114c 			@ <UNDEFINED> instruction: 0xe802114c
    2468:	6047      	str	r7, [r0, #4]
    246a:	0214      	lsls	r4, r2, #8
    246c:	ce28      	ldmia	r6!, {r3, r5}
    246e:	110b      	asrs	r3, r1, #4
    2470:	803f      	strh	r7, [r7, #0]
    2472:	65b9      	str	r1, [r7, #88]	@ 0x58
    2474:	8c04      	ldrh	r4, [r0, #32]
    2476:	0e00      	lsrs	r0, r0, #24
    2478:	2046      	movs	r0, #70	@ 0x46
    247a:	ce80      	ldmia	r6!, {r7}
    247c:	2014      	movs	r0, #20
    247e:	4603      	mov	r3, r0
    2480:	8021      	strh	r1, [r4, #0]
    2482:	bce2      	pop	{r1, r5, r6, r7}
    2484:	a010      	add	r0, pc, #64	@ (adr r0, 0x24c8)
    2486:	9802      	ldr	r0, [sp, #8]
    2488:	4630      	mov	r0, r6
    248a:	08c1      	lsrs	r1, r0, #3
    248c:	6100      	str	r0, [r0, #16]
    248e:	0214      	lsls	r4, r2, #8
    2490:	ce28      	ldmia	r6!, {r3, r5}
    2492:	110b      	asrs	r3, r1, #4
    2494:	601b      	str	r3, [r3, #0]
    2496:	8c04      	ldrh	r4, [r0, #32]
    2498:	0e00      	lsrs	r0, r0, #24
    249a:	2046      	movs	r0, #70	@ 0x46
    249c:	ce80      	ldmia	r6!, {r7}
    249e:	0014      	movs	r4, r2
    24a0:	e201      	b.n	0x28a6
    24a2:	f127 014c 			@ <UNDEFINED> instruction: 0xf127014c
    24a6:	dff1      	svc	241	@ 0xf1
    24a8:	047f      	lsls	r7, r7, #17
    24aa:	5046      	str	r6, [r0, r1]
    24ac:	20c0      	movs	r0, #192	@ 0xc0
    24ae:	01df      	lsls	r7, r3, #7
    24b0:	dff1      	svc	241	@ 0xf1
    24b2:	14fb      	asrs	r3, r7, #19
    24b4:	6047      	str	r7, [r0, #4]
    24b6:	d204      	bcs.n	0x24c2
    24b8:	4018      	ands	r0, r3
    24ba:	4e08      	ldr	r6, [pc, #32]	@ (0x24dc)
    24bc:	2861      	cmp	r0, #97	@ 0x61
    24be:	fc10 3473 	ldc2	4, cr3, [r0], {115}	@ 0x73
    24c2:	414e      	adcs	r6, r1
    24c4:	3568      	adds	r5, #104	@ 0x68
    24c6:	9123      	str	r1, [sp, #140]	@ 0x8c
    24c8:	0fab      	lsrs	r3, r5, #30
    24ca:	614e      	str	r6, [r1, #20]
    24cc:	1038      	asrs	r0, r7, #32
    24ce:	7e0c      	ldrb	r4, [r1, #24]
    24d0:	4644      	mov	r4, r8
    24d2:	8d23      	ldrh	r3, [r4, #40]	@ 0x28
    24d4:	e100      	b.n	0x26d8
    24d6:	4460      	add	r0, ip
    24d8:	608d      	str	r5, [r1, #8]
    24da:	4e10      	ldr	r6, [pc, #64]	@ (0x251c)
    24dc:	3ce1      	subs	r4, #225	@ 0xe1
    24de:	8b11      	ldrh	r1, [r2, #24]
    24e0:	8999      	ldrh	r1, [r3, #12]
    24e2:	460c      	mov	r4, r1
    24e4:	08d4      	lsrs	r4, r2, #3
    24e6:	e10a      	b.n	0x26fe
    24e8:	ce14      	ldmia	r6!, {r2, r4}
    24ea:	8013      	strh	r3, [r2, #0]
    24ec:	99a4      	ldr	r1, [sp, #656]	@ 0x290
    24ee:	60af      	str	r7, [r5, #8]
    24f0:	d244      	bcs.n	0x257c
    24f2:	4e08      	ldr	r6, [pc, #32]	@ (0x2514)
    24f4:	4e0a      	ldr	r6, [pc, #40]	@ (0x2520)
    24f6:	3ce1      	subs	r4, #225	@ 0xe1
    24f8:	9511      	str	r5, [sp, #68]	@ 0x44
    24fa:	499a      	ldr	r1, [pc, #616]	@ (0x2764)
    24fc:	4609      	mov	r1, r1
    24fe:	28d0      	cmp	r0, #208	@ 0xd0
    2500:	e2e0      	b.n	0x2ac4
    2502:	8414      	strh	r4, [r2, #32]
    2504:	008d      	lsls	r5, r1, #2
    2506:	4e0f      	ldr	r6, [pc, #60]	@ (0x2544)
    2508:	2861      	cmp	r0, #97	@ 0x61
    250a:	0c10      	lsrs	r0, r2, #16
    250c:	1a88      	subs	r0, r1, r2
    250e:	14e7      	asrs	r7, r4, #19
    2510:	4e84      	ldr	r6, [pc, #528]	@ (0x2724)
    2512:	3ce1      	subs	r4, #225	@ 0xe1
    2514:	4911      	ldr	r1, [pc, #68]	@ (0x255c)
    2516:	d982      	bls.n	0x241e
    2518:	14e5      	asrs	r5, r4, #19
    251a:	0286      	lsls	r6, r0, #10
    251c:	3fc1      	subs	r7, #193	@ 0xc1
    251e:	e347      	b.n	0x2bb0
    2520:	8414      	strh	r4, [r2, #32]
    2522:	3356      	adds	r3, #86	@ 0x56
    2524:	b812      			@ <UNDEFINED> instruction: 0xb812
    2526:	1140      	asrs	r0, r0, #5
    2528:	ce58      	ldmia	r6, {r3, r4, r6}
    252a:	5008      	str	r0, [r1, r0]
    252c:	3463      	adds	r4, #99	@ 0x63
    252e:	0c14      	lsrs	r4, r2, #16
    2530:	4232      	tst	r2, r6
    2532:	26b8      	movs	r6, #184	@ 0xb8
    2534:	e346      	b.n	0x2bc4
    2536:	ce14      	ldmia	r6!, {r2, r4}
    2538:	8313      	strh	r3, [r2, #24]
    253a:	ef62 8614 	vmin.s32	d24, d2, d4
    253e:	c103      	stmia	r1!, {r0, r1}
    2540:	1940      	adds	r0, r0, r5
    2542:	3464      	adds	r4, #100	@ 0x64
    2544:	9121      	str	r1, [sp, #132]	@ 0x84
    2546:	dfe9      	svc	233	@ 0xe9
    2548:	f105 fcdf 	bl	0x107f0a
    254c:	0a04      	lsrs	r4, r0, #8
    254e:	4700      	bx	r0
    2550:	04e2      	lsls	r2, r4, #19
    2552:	0186      	lsls	r6, r0, #6
    2554:	c0c1      	stmia	r0!, {r0, r6, r7}
    2556:	6347      	str	r7, [r0, #52]	@ 0x34
    2558:	8d34      	ldrh	r4, [r6, #40]	@ 0x28
    255a:	2400      	movs	r4, #0
    255c:	604e      	str	r6, [r1, #4]
    255e:	1038      	asrs	r0, r7, #32
    2560:	920c      	str	r2, [sp, #48]	@ 0x30
    2562:	0a53      	lsrs	r3, r2, #9
    2564:	4703      	bx	r0
    2566:	b982      	cbnz	r2, 0x258a
    2568:	10a3      	asrs	r3, r4, #2
    256a:	2470      	movs	r4, #112	@ 0x70
    256c:	3098      	adds	r0, #152	@ 0x98
    256e:	d346      	bcc.n	0x25fe
    2570:	7c08      	ldrb	r0, [r1, #16]
    2572:	04e2      	lsls	r2, r4, #19
    2574:	0186      	lsls	r6, r0, #6
    2576:	20c1      	movs	r0, #193	@ 0xc1
    2578:	18b8      	adds	r0, r7, r2
    257a:	604e      	str	r6, [r1, #4]
    257c:	1028      	asrs	r0, r5, #32
    257e:	d38c      	bcc.n	0x249a
    2580:	7088      	strb	r0, [r1, #2]
    2582:	20a0      	movs	r0, #160	@ 0xa0
    2584:	2470      	movs	r4, #112	@ 0x70
    2586:	f246 104d 	movw	r0, #24909	@ 0x614d
    258a:	0d51      	lsrs	r1, r2, #21
    258c:	1002      	asrs	r2, r0, #32
    258e:	2135      	movs	r1, #53	@ 0x35
    2590:	5100      	str	r0, [r0, r4]
    2592:	0219      	lsls	r1, r3, #8
    2594:	1510      	asrs	r0, r2, #20
    2596:	0022      	movs	r2, r4
    2598:	1f51      	subs	r1, r2, #5
    259a:	1002      	asrs	r2, r0, #32
    259c:	2205      	movs	r2, #5
    259e:	c200      	stmia	r2!, {}
    25a0:	2000      	movs	r0, #0
    25a2:	fc13 0d23 	ldc2	13, cr0, [r3], {35}	@ 0x23
    25a6:	321b      	adds	r2, #27
    25a8:	19d3      	adds	r3, r2, r7
    25aa:	0321      	lsls	r1, r4, #12
    25ac:	9d30      	ldr	r5, [sp, #192]	@ 0xc0
    25ae:	3219      	adds	r2, #25
    25b0:	1000      	asrs	r0, r0, #32
    25b2:	3ddf      	subs	r5, #223	@ 0xdf
    25b4:	100f      	asrs	r7, r1, #32
    25b6:	6932      	ldr	r2, [r6, #16]
    25b8:	00c2      	lsls	r2, r0, #3
    25ba:	1321      	asrs	r1, r4, #12
    25bc:	70cc      	strb	r4, [r1, #3]
    25be:	4604      	mov	r4, r0
    25c0:	08c0      	lsrs	r0, r0, #3
    25c2:	6520      	str	r0, [r4, #80]	@ 0x50
    25c4:	c104      	stmia	r1!, {r2}
    25c6:	1904      	adds	r4, r0, r4
    25c8:	10a3      	asrs	r3, r4, #2
    25ca:	2ee0      	cmp	r6, #224	@ 0xe0
    25cc:	000a      	movs	r2, r1
    25ce:	6047      	str	r7, [r0, #4]
    25d0:	8d04      	ldrh	r4, [r0, #40]	@ 0x28
    25d2:	0c00      	lsrs	r0, r0, #16
    25d4:	09d3      	lsrs	r3, r2, #7
    25d6:	8321      	strh	r1, [r4, #24]
    25d8:	4fe0      	ldr	r7, [pc, #896]	@ (0x295c)
    25da:	09d3      	lsrs	r3, r2, #7
    25dc:	4321      	orrs	r1, r4
    25de:	9d30      	ldr	r5, [sp, #192]	@ 0xc0
    25e0:	3211      	adds	r2, #17
    25e2:	5100      	str	r0, [r0, r4]
    25e4:	020d      	lsls	r5, r1, #8
    25e6:	f510 0021 	adds.w	r0, r0, #10551296	@ 0xa10000
    25ea:	2011      	movs	r0, #17
    25ec:	8f3b      	ldrh	r3, [r7, #56]	@ 0x38
    25ee:	3218      	adds	r2, #24
    25f0:	20fb      	movs	r0, #251	@ 0xfb
    25f2:	180c      	adds	r4, r1, r0
    25f4:	c132      	stmia	r1!, {r1, r4, r5}
    25f6:	470c      	bxns	r1
    25f8:	0460      	lsls	r0, r4, #17
    25fa:	08c2      	lsrs	r2, r0, #3
    25fc:	0e20      	lsrs	r0, r4, #24
    25fe:	1046      	asrs	r6, r0, #1
    2600:	904c      	str	r0, [sp, #304]	@ 0x130
    2602:	0a31      	lsrs	r1, r6, #8
    2604:	ee01 00a2 	cdp	0, 0, cr0, cr1, cr2, {5}
    2608:	0470      	lsls	r0, r6, #17
    260a:	d046      	beq.n	0x269a
    260c:	c008      	stmia	r0!, {r3}
    260e:	9d30      	ldr	r5, [sp, #192]	@ 0xc0
    2610:	3218      	adds	r2, #24
    2612:	fe08 9d34 	mcr2	13, 0, r9, cr8, cr4, {1}
    2616:	3218      	adds	r2, #24
    2618:	d304      	bcc.n	0x2624
    261a:	2199      	movs	r1, #153	@ 0x99
    261c:	3003      	adds	r0, #3
    261e:	20ed      	movs	r0, #237	@ 0xed
    2620:	0202      	lsls	r2, r0, #8
    2622:	5129      	str	r1, [r5, r4]
    2624:	0213      	lsls	r3, r2, #8
    2626:	0c20      	lsrs	r0, r4, #16
    2628:	3200      	adds	r2, #0
    262a:	3fc1      	subs	r7, #193	@ 0xc1
    262c:	b0d2      	sub	sp, #328	@ 0x148
    262e:	1321      	asrs	r1, r4, #12
    2630:	2205      	movs	r2, #5
    2632:	1100      	asrs	r0, r0, #4
    2634:	8259      	strh	r1, [r3, #18]
    2636:	46f9      	mov	r9, pc
    2638:	2190      	movs	r1, #144	@ 0x90
    263a:	4147      	adcs	r7, r0
    263c:	21b0      	movs	r1, #176	@ 0xb0
    263e:	40c1      	lsrs	r1, r0
    2640:	1247      	asrs	r7, r0, #9
    2642:	2195      	movs	r1, #149	@ 0x95
    2644:	5100      	str	r0, [r0, r4]
    2646:	0220      	lsls	r0, r4, #8
    2648:	2460      	movs	r4, #96	@ 0x60
    264a:	008c      	lsls	r4, r1, #2
    264c:	4634      	mov	r4, r6
    264e:	08c0      	lsrs	r0, r0, #3
    2650:	30b0      	adds	r0, #176	@ 0xb0
    2652:	21cd      	movs	r1, #205	@ 0xcd
    2654:	0002      	movs	r2, r0
    2656:	460c      	mov	r4, r1
    2658:	6311      	str	r1, [r2, #48]	@ 0x30
    265a:	ee82 464f 	cdp	6, 8, cr4, cr2, cr15, {2}
    265e:	a311      	add	r3, pc, #68	@ (adr r3, 0x26a4)
    2660:	1e7c      	subs	r4, r7, #1
    2662:	2215      	movs	r2, #21
    2664:	9800      	ldr	r0, [sp, #0]
    2666:	4610      	mov	r0, r2
    2668:	08d0      	lsrs	r0, r2, #3
    266a:	1070      	asrs	r0, r6, #1
    266c:	2215      	movs	r2, #21
    266e:	df01      	svc	1
    2670:	f103 fedf 	bl	0x106432
    2674:	d305      	bcc.n	0x2682
    2676:	213e      	movs	r1, #62	@ 0x3e
    2678:	c000      	stmia	r0!, {}
    267a:	4fd1      	ldr	r7, [pc, #836]	@ (0x29c0)
    267c:	d021      	beq.n	0x26c2
    267e:	215e      	movs	r1, #94	@ 0x5e
    2680:	cc20      	ldmia	r4!, {r5}
    2682:	1202      	asrs	r2, r0, #8
    2684:	18f0      	adds	r0, r6, r3
    2686:	1305      	asrs	r5, r0, #12
    2688:	ed32 020d 	lfm	f0, 4, [r2, #-52]!	@ 0xffffffcc
    268c:	1c00      	adds	r0, r0, #0
    268e:	0efd      	lsrs	r5, r7, #27
    2690:	ed02 020f 	sfm	f0, 4, [r2, #-60]	@ 0xffffffc4
    2694:	2cc2      	cmp	r4, #194	@ 0xc2
    2696:	1120      	asrs	r0, r4, #4
    2698:	5956      	ldr	r6, [r2, r5]
    269a:	20d0      	movs	r0, #208	@ 0xd0
    269c:	9ed3      	ldr	r6, [sp, #844]	@ 0x34c
    269e:	0021      	movs	r1, r4
    26a0:	d1d0      	bne.n	0x2644
    26a2:	21af      	movs	r1, #175	@ 0xaf
    26a4:	bed0      	bkpt	0x00d0
    26a6:	2021      	movs	r0, #33	@ 0x21
    26a8:	02cc      	lsls	r4, r1, #11
    26aa:	4312      	orrs	r2, r2
    26ac:	5f4f      	ldrsh	r7, [r1, r5]
    26ae:	2190      	movs	r1, #144	@ 0x90
    26b0:	3cd3      	subs	r4, #211	@ 0xd3
    26b2:	0021      	movs	r1, r4
    26b4:	36b0      	adds	r6, #176	@ 0xb0
    26b6:	1ffd      	subs	r5, r7, #7
    26b8:	0002      	movs	r2, r0
    26ba:	3124      	adds	r1, #36	@ 0x24
    26bc:	20fd      	movs	r0, #253	@ 0xfd
    26be:	0002      	movs	r2, r0
    26c0:	1118      	asrs	r0, r3, #4
    26c2:	2205      	movs	r2, #5
    26c4:	d302      	bcc.n	0x26cc
    26c6:	2199      	movs	r1, #153	@ 0x99
    26c8:	2103      	movs	r1, #3
    26ca:	156c      	asrs	r4, r5, #21
    26cc:	d202      	bcs.n	0x26d4
    26ce:	21c6      	movs	r1, #198	@ 0xc6
    26d0:	6c23      	ldr	r3, [r4, #64]	@ 0x40
    26d2:	0217      	lsls	r7, r2, #8
    26d4:	e6d2      	b.n	0x247c
    26d6:	4321      	orrs	r1, r4
    26d8:	2140      	movs	r1, #64	@ 0x40
    26da:	c081      	stmia	r0!, {r0, r7}
    26dc:	a0d2      	add	r0, pc, #840	@ (adr r0, 0x2a28)
    26de:	3321      	adds	r3, #33	@ 0x21
    26e0:	1b9d      	subs	r5, r3, r6
    26e2:	0832      	lsrs	r2, r6, #32
    26e4:	89d3      	ldrh	r3, [r2, #14]
    26e6:	1321      	asrs	r1, r4, #12
    26e8:	5990      	ldr	r0, [r2, r6]
    26ea:	d30c      	bcc.n	0x2706
    26ec:	20dc      	movs	r0, #220	@ 0xdc
    26ee:	c000      	stmia	r0!, {}
    26f0:	ed34 021f 	lfm	f0, 4, [r4, #-124]!	@ 0xffffff84
    26f4:	4100      	asrs	r0, r0
    26f6:	1f51      	subs	r1, r2, #5
    26f8:	3012      	adds	r0, #18
    26fa:	119d      	asrs	r5, r3, #6
    26fc:	1032      	asrs	r2, r6, #32
    26fe:	f6c2 2020 	movt	r0, #10784	@ 0x2a20
    2702:	146d      	asrs	r5, r5, #17
    2704:	c232      	stmia	r2!, {r1, r4, r5}
    2706:	2116      	movs	r1, #22
    2708:	6d20      	ldr	r0, [r4, #80]	@ 0x50
    270a:	3216      	adds	r2, #22
    270c:	0e04      	lsrs	r4, r0, #24
    270e:	0d22      	lsrs	r2, r4, #20
    2710:	3212      	adds	r2, #18
    2712:	09d3      	lsrs	r3, r2, #7
    2714:	1321      	asrs	r1, r4, #12
    2716:	cd30      	ldmia	r5, {r4, r5}
    2718:	0219      	lsls	r1, r3, #8
    271a:	6300      	str	r0, [r0, #48]	@ 0x30
    271c:	0ed3      	lsrs	r3, r2, #27
    271e:	0022      	movs	r2, r4
    2720:	1580      	asrs	r0, r0, #22
    2722:	2205      	movs	r2, #5
    2724:	d303      	bcc.n	0x272e
    2726:	21ae      	movs	r1, #174	@ 0xae
    2728:	c3f0      	stmia	r3!, {r4, r5, r6, r7}
    272a:	9d30      	ldr	r5, [sp, #192]	@ 0xc0
    272c:	3219      	adds	r2, #25
    272e:	fe10 9d34 	mrc2	13, 0, r9, cr0, cr4, {1}
    2732:	3219      	adds	r2, #25
    2734:	c212      	stmia	r2!, {r1, r4}
    2736:	21b6      	movs	r1, #182	@ 0xb6
    2738:	6d20      	ldr	r0, [r4, #80]	@ 0x50
    273a:	321c      	adds	r2, #28
    273c:	d6c2      	bvs.n	0x26c4
    273e:	2021      	movs	r0, #33	@ 0x21
    2740:	1e6d      	subs	r5, r5, #1
    2742:	0432      	lsls	r2, r6, #16
    2744:	221a      	movs	r2, #26
    2746:	1a0d      	subs	r5, r1, r0
    2748:	d332      	bcc.n	0x27b0
    274a:	2189      	movs	r1, #137	@ 0x89
    274c:	e013      	b.n	0x2776
    274e:	df05      	svc	5
    2750:	f102 2251 	add.w	r2, r2, #1358975232	@ 0x51005100
    2754:	0002      	movs	r2, r0
    2756:	200c      	movs	r0, #12
    2758:	256d      	movs	r5, #109	@ 0x6d
    275a:	5102      	str	r2, [r0, r4]
    275c:	0223      	lsls	r3, r4, #8
    275e:	f100 fadf 	bl	0x102d20
    2762:	4747      	bx	r8
    2764:	14f0      	asrs	r0, r6, #19
    2766:	614e      	str	r6, [r1, #20]
    2768:	e03b      	b.n	0x27e2
    276a:	a414      	add	r4, pc, #80	@ (adr r4, 0x27bc)
    276c:	614e      	str	r6, [r1, #20]
    276e:	e018      	b.n	0x27a2
    2770:	9614      	str	r6, [sp, #80]	@ 0x50
    2772:	3302      	adds	r3, #2
    2774:	38a2      	subs	r0, #162	@ 0xa2
    2776:	8043      	strh	r3, [r0, #2]
    2778:	2308      	movs	r3, #8
    277a:	7b93      	ldrb	r3, [r2, #14]
    277c:	4e12      	ldr	r6, [pc, #72]	@ (0x27c8)
    277e:	7841      	ldrb	r1, [r0, #1]
    2780:	4634      	mov	r4, r6
    2782:	10c3      	asrs	r3, r0, #3
    2784:	1d80      	adds	r0, r0, #6
    2786:	3465      	adds	r4, #101	@ 0x65
    2788:	050c      	lsls	r4, r1, #20
    278a:	5222      	strh	r2, [r4, r0]
    278c:	3464      	adds	r4, #100	@ 0x64
    278e:	10a2      	asrs	r2, r4, #2
    2790:	d580      	bpl.n	0x2694
    2792:	23de      	movs	r3, #222	@ 0xde
    2794:	8524      	strh	r4, [r4, #40]	@ 0x28
    2796:	4e94      	ldr	r6, [pc, #592]	@ (0x29e8)
    2798:	1861      	adds	r1, r4, r1
    279a:	1230      	asrs	r0, r6, #8
    279c:	22b8      	movs	r2, #184	@ 0xb8
    279e:	2346      	movs	r3, #70	@ 0x46
    27a0:	010a      	lsls	r2, r1, #4
    27a2:	ed58 4242 	lfm	f4, 2, [r8, #-264]	@ 0xfffffef8
    27a6:	4852      	ldr	r0, [pc, #328]	@ (0x28f0)
    27a8:	14e9      	asrs	r1, r5, #19
    27aa:	0286      	lsls	r6, r0, #10
    27ac:	9123      	str	r1, [sp, #140]	@ 0x8c
    27ae:	0a31      	lsrs	r1, r6, #8
    27b0:	4700      	bx	r0
    27b2:	7ed3      	ldrb	r3, [r2, #27]
    27b4:	4424      	add	r4, r4
    27b6:	2220      	movs	r2, #32
    27b8:	4882      	ldr	r0, [pc, #520]	@ (0x29c4)
    27ba:	3568      	adds	r5, #104	@ 0x68
    27bc:	8123      	strh	r3, [r4, #8]
    27be:	447b      	add	r3, pc
    27c0:	2220      	movs	r2, #32
    27c2:	d108      	bne.n	0x27d6
    27c4:	0ec0      	lsrs	r0, r0, #27
    27c6:	20fa      	movs	r0, #250	@ 0xfa
    27c8:	256d      	movs	r5, #109	@ 0x6d
    27ca:	5102      	str	r2, [r0, r4]
    27cc:	1223      	asrs	r3, r4, #8
    27ce:	0460      	lsls	r0, r4, #17
    27d0:	2405      	movs	r4, #5
    27d2:	2502      	movs	r5, #2
    27d4:	0522      	lsls	r2, r4, #20
    27d6:	71d8      	strb	r0, [r3, #7]
    27d8:	0221      	lsls	r1, r4, #8
    27da:	92e7      	str	r2, [sp, #924]	@ 0x39c
    27dc:	3bf2      	subs	r3, #242	@ 0xf2
    27de:	c429      	stmia	r4!, {r0, r3, r5}
    27e0:	9830      	ldr	r0, [sp, #192]	@ 0xc0
    27e2:	ed5b 424c 	lfm	f4, 2, [fp, #-304]	@ 0xfffffed0
    27e6:	2204      	movs	r2, #4
    27e8:	8822      	ldrh	r2, [r4, #0]
    27ea:	5684      	ldrsb	r4, [r0, r2]
    27ec:	1233      	asrs	r3, r6, #8
    27ee:	13b8      	asrs	r0, r7, #14
    27f0:	2351      	movs	r3, #81	@ 0x51
    27f2:	6012      	str	r2, [r2, #0]
    27f4:	0504      	lsls	r4, r0, #20
    27f6:	8224      	strh	r4, [r4, #16]
    27f8:	e2e9      	b.n	0x2dce
    27fa:	8414      	strh	r4, [r2, #32]
    27fc:	10c1      	asrs	r1, r0, #3
    27fe:	21b8      	movs	r1, #184	@ 0xb8
    2800:	2251      	movs	r2, #81	@ 0x51
    2802:	0002      	movs	r2, r0
    2804:	200c      	movs	r0, #12
    2806:	256d      	movs	r5, #109	@ 0x6d
    2808:	5102      	str	r2, [r0, r4]
    280a:	2223      	movs	r2, #35	@ 0x23
    280c:	0460      	lsls	r0, r4, #17
    280e:	2405      	movs	r4, #5
    2810:	47e2      			@ <UNDEFINED> instruction: 0x47e2
    2812:	06df      	lsls	r7, r3, #27
    2814:	dff1      	svc	241	@ 0xf1
    2816:	567a      	ldrsb	r2, [r7, r1]
    2818:	f06f 0a24 	mvn.w	sl, #36	@ 0x24
    281c:	4700      	bx	r0
    281e:	ed34 0223 	lfm	f0, 4, [r4, #-140]!	@ 0xffffff74
    2822:	6201      	str	r1, [r0, #32]
    2824:	2404      	movs	r4, #4
    2826:	24e2      	movs	r4, #226	@ 0xe2
    2828:	0a85      	lsrs	r5, r0, #10
    282a:	4e11      	ldr	r6, [pc, #68]	@ (0x2870)
    282c:	4850      	ldr	r0, [pc, #320]	@ (0x2970)
    282e:	2220      	movs	r2, #32
    2830:	704e      	strb	r6, [r1, #1]
    2832:	a018      	add	r0, pc, #96	@ (adr r0, 0x2894)
    2834:	e000      	b.n	0x2838
    2836:	8704      	strh	r4, [r0, #56]	@ 0x38
    2838:	4e02      	ldr	r6, [pc, #8]	@ (0x2844)
    283a:	ea40 8604 			@ <UNDEFINED> instruction: 0xea408604
    283e:	4e01      	ldr	r6, [pc, #4]	@ (0x2844)
    2840:	2960      	cmp	r1, #96	@ 0x60
    2842:	2330      	movs	r3, #48	@ 0x30
    2844:	338a      	adds	r3, #138	@ 0x8a
    2846:	8804      	ldrh	r4, [r0, #0]
    2848:	04e0      	lsls	r0, r4, #19
    284a:	0387      	lsls	r7, r0, #14
    284c:	2351      	movs	r3, #81	@ 0x51
    284e:	a002      	add	r0, pc, #8	@ (adr r0, 0x2858)
    2850:	7010      	strb	r0, [r2, #0]
    2852:	9844      	ldr	r0, [sp, #272]	@ 0x110
    2854:	d368      	bcc.n	0x2928
    2856:	223e      	movs	r2, #62	@ 0x3e
    2858:	d020      	beq.n	0x289c
    285a:	4045      	eors	r5, r0
    285c:	4e22      	ldr	r6, [pc, #136]	@ (0x28e8)
    285e:	a852      	add	r0, sp, #328	@ 0x148
    2860:	e120      	b.n	0x2aa4
    2862:	8504      	strh	r4, [r0, #40]	@ 0x28
    2864:	000a      	movs	r2, r1
    2866:	704e      	strb	r6, [r1, #1]
    2868:	a018      	add	r0, pc, #96	@ (adr r0, 0x28cc)
    286a:	e000      	b.n	0x286e
    286c:	8704      	strh	r4, [r0, #56]	@ 0x38
    286e:	4e02      	ldr	r6, [pc, #8]	@ (0x2878)
    2870:	ea40 8604 			@ <UNDEFINED> instruction: 0xea408604
    2874:	4e01      	ldr	r6, [pc, #4]	@ (0x287c)
    2876:	2960      	cmp	r1, #96	@ 0x60
    2878:	2330      	movs	r3, #48	@ 0x30
    287a:	a633      	add	r6, pc, #204	@ (adr r6, 0x2948)
    287c:	8808      	ldrh	r0, [r1, #0]
    287e:	04e0      	lsls	r0, r4, #19
    2880:	0387      	lsls	r7, r0, #14
    2882:	2351      	movs	r3, #81	@ 0x51
    2884:	a002      	add	r0, pc, #8	@ (adr r0, 0x2890)
    2886:	7010      	strb	r0, [r2, #0]
    2888:	4644      	mov	r4, r8
    288a:	5664      	ldrsb	r4, [r4, r1]
    288c:	06df      	lsls	r7, r3, #27
    288e:	10f1      	asrs	r1, r6, #3
    2890:	56c2      	ldrsb	r2, [r0, r3]
    2892:	c022      	stmia	r0!, {r1, r5}
    2894:	000c      	movs	r4, r1
    2896:	3220      	adds	r2, #32
    2898:	c225      	stmia	r2!, {r0, r2, r5}
    289a:	2256      	movs	r2, #86	@ 0x56
    289c:	4420      	add	r0, r4
    289e:	0001      	movs	r1, r0
    28a0:	c249      	stmia	r2!, {r0, r3, r6}
    28a2:	2256      	movs	r2, #86	@ 0x56
    28a4:	0cc0      	lsrs	r0, r0, #19
    28a6:	9000      	str	r0, [sp, #0]
    28a8:	1123      	asrs	r3, r4, #4
    28aa:	0ea6      	lsrs	r6, r4, #26
    28ac:	dff1      	svc	241	@ 0xf1
    28ae:	047d      	lsls	r5, r7, #17
    28b0:	030a      	lsls	r2, r1, #12
    28b2:	1147      	asrs	r7, r0, #5
    28b4:	0810      	lsrs	r0, r2, #32
    28b6:	b0ec      	sub	sp, #432	@ 0x1b0
    28b8:	2104      	movs	r1, #4
    28ba:	ec54 7e11 	mrrc	14, 1, r7, r4, cr1
    28be:	1460      	asrs	r0, r4, #17
    28c0:	10a2      	asrs	r2, r4, #2
    28c2:	60d0      	str	r0, [r2, #12]
    28c4:	0c14      	lsrs	r4, r2, #16
    28c6:	2200      	movs	r2, #0
    28c8:	62e3      	str	r3, [r4, #44]	@ 0x2c
    28ca:	4704      	bxns	r0
    28cc:	4982      	ldr	r1, [pc, #520]	@ (0x2ad8)
    28ce:	dc01      	bgt.n	0x28d4
    28d0:	c317      	stmia	r3!, {r0, r1, r2, r4}
    28d2:	6ec3      	ldr	r3, [r0, #108]	@ 0x6c
    28d4:	a224      	add	r2, pc, #144	@ (adr r2, 0x2968)
    28d6:	d010      	beq.n	0x28fa
    28d8:	2460      	movs	r4, #96	@ 0x60
    28da:	000c      	movs	r4, r1
    28dc:	0222      	lsls	r2, r4, #8
    28de:	698e      	ldr	r6, [r1, #24]
    28e0:	3dfa      	subs	r5, #250	@ 0xfa
    28e2:	df10      	svc	16
    28e4:	47fa      			@ <UNDEFINED> instruction: 0x47fa
    28e6:	a0ec      	add	r0, pc, #944	@ (adr r0, 0x2c98)
    28e8:	6f0f      	ldr	r7, [r1, #112]	@ 0x70
    28ea:	e980 cfc7 			@ <UNDEFINED> instruction: 0xe980cfc7
    28ee:	c012      	stmia	r0!, {r1, r4}
    28f0:	384e      	subs	r0, #78	@ 0x4e
    28f2:	c420      	stmia	r4!, {r5}
    28f4:	1282      	asrs	r2, r0, #10
    28f6:	d7e3      	bvc.n	0x28c0
    28f8:	26fe      	movs	r6, #254	@ 0xfe
    28fa:	e07e      	b.n	0x29fa
    28fc:	5226      	strh	r6, [r4, r0]
    28fe:	00a4      	lsls	r4, r4, #2
    2900:	1420      	asrs	r0, r4, #16
    2902:	f282 1106 			@ <UNDEFINED> instruction: 0xf2821106
    2906:	e02f      	b.n	0x2968
    2908:	2126      	movs	r1, #38	@ 0x26
    290a:	ec04 2e11 	stc	14, cr2, [r4], {17}
    290e:	cfc0      	ldmia	r7, {r6, r7}
    2910:	c012      	stmia	r0!, {r1, r4}
    2912:	384e      	subs	r0, #78	@ 0x4e
    2914:	c420      	stmia	r4!, {r5}
    2916:	1282      	asrs	r2, r0, #10
    2918:	d5c3      	bpl.n	0x28a2
    291a:	26fe      	movs	r6, #254	@ 0xfe
    291c:	e07e      	b.n	0x2a1c
    291e:	5226      	strh	r6, [r4, r0]
    2920:	00a4      	lsls	r4, r4, #2
    2922:	1420      	asrs	r0, r4, #16
    2924:	f282 6e06 			@ <UNDEFINED> instruction: 0xf2826e06
    2928:	4312      	orrs	r2, r2
    292a:	eebe cc06 	cdp	12, 11, cr12, cr14, cr6, {0}
    292e:	0000      	movs	r0, r0
    2930:	3132      	adds	r1, #50	@ 0x32
    2932:	7ef7      	ldrb	r7, [r6, #27]
    2934:	6df4      	ldr	r4, [r6, #92]	@ 0x5c
    2936:	d310      	bcc.n	0x295a
    2938:	1159      	asrs	r1, r3, #5
    293a:	0013      	movs	r3, r2
    293c:	d3f1      	bcc.n	0x2922
    293e:	1159      	asrs	r1, r3, #5
    2940:	0003      	movs	r3, r0
    2942:	d3f1      	bcc.n	0x2928
    2944:	ee09 3003 	cdp	0, 0, cr3, cr9, cr3, {0}
    2948:	709d      	strb	r5, [r3, #2]
    294a:	c03e      	stmia	r0!, {r1, r2, r3, r4, r5}
    294c:	09d3      	lsrs	r3, r2, #7
    294e:	f3e9 9d3d 	b.w	0xbec3cc
    2952:	3ea0      	subs	r6, #160	@ 0xa0
    2954:	d300      	bcc.n	0x2958
    2956:	ef09 3003 	vhadd.s8	d3, d9, d3
    295a:	b09d      	sub	sp, #116	@ 0x74
    295c:	003e      	movs	r6, r7
    295e:	29d3      	cmp	r1, #211	@ 0xd3
    2960:	03e7      	lsls	r7, r4, #15
    2962:	9d38      	ldr	r5, [sp, #224]	@ 0xe0
    2964:	3e92      	subs	r6, #146	@ 0x92
    2966:	d31d      	bcc.n	0x29a4
    2968:	ea29 3003 	bic.w	r0, r9, r3, lsl #12
    296c:	f29d 003e 			@ <UNDEFINED> instruction: 0xf29d003e
    2970:	39d3      	subs	r1, #211	@ 0xd3
    2972:	03e7      	lsls	r7, r4, #15
    2974:	9d30      	ldr	r5, [sp, #192]	@ 0xc0
    2976:	3e93      	subs	r6, #147	@ 0x93
    2978:	d303      	bcc.n	0x2982
    297a:	ea39 3003 	bics.w	r0, r9, r3, lsl #12
    297e:	7a9d      	ldrb	r5, [r3, #10]
    2980:	003e      	movs	r6, r7
    2982:	a9d3      	add	r1, sp, #844	@ 0x34c
    2984:	f3e9 9d3f 	b.w	0xbec406
    2988:	3eaa      	subs	r6, #170	@ 0xaa
    298a:	d300      	bcc.n	0x298e
    298c:	efa9 3003 	vaddl.s32	<illegal reg q1.5>, d9, d3
    2990:	ba9d      	hlt	0x001d
    2992:	003e      	movs	r6, r7
    2994:	a9d3      	add	r1, sp, #844	@ 0x34c
    2996:	03ec      	lsls	r4, r5, #15
    2998:	e200      	b.n	0x2d9c
    299a:	0005      	movs	r5, r0
    299c:	05f2      	lsls	r2, r6, #23
    299e:	0200      	lsls	r0, r0, #8
    29a0:	000d      	movs	r5, r1
    29a2:	d1e2      	bne.n	0x296a
    29a4:	7200      	strb	r0, [r0, #8]
    29a6:	010d      	lsls	r5, r1, #4
    29a8:	0d12      	lsrs	r2, r2, #20
    29aa:	2200      	movs	r2, #0
    29ac:	000d      	movs	r5, r1
    29ae:	0d32      	lsrs	r2, r6, #20
    29b0:	4200      	tst	r0, r0
    29b2:	000d      	movs	r5, r1
    29b4:	0d52      	lsrs	r2, r2, #21
    29b6:	2200      	movs	r2, #0
    29b8:	000e      	movs	r6, r1
    29ba:	0e32      	lsrs	r2, r6, #24
    29bc:	420a      	tst	r2, r1
    29be:	000e      	movs	r6, r1
    29c0:	0e52      	lsrs	r2, r2, #25
    29c2:	6200      	str	r0, [r0, #32]
    29c4:	000e      	movs	r6, r1
    29c6:	03e2      	lsls	r2, r4, #15
    29c8:	f200 0003 	addw	r0, r0, #3
    29cc:	f5e2 f101 	bl	0xff9e4bd2
    29d0:	2983      	cmp	r1, #131	@ 0x83
    29d2:	983e      	ldr	r0, [sp, #248]	@ 0xf8
    29d4:	83e3      	strh	r3, [r4, #30]
    29d6:	3e49      	subs	r6, #73	@ 0x49
    29d8:	e598      	b.n	0x250c
    29da:	5e20      	ldrsh	r0, [r4, r0]
    29dc:	2000      	movs	r0, #0
    29de:	00d7      	lsls	r7, r2, #3
    29e0:	5e20      	ldrsh	r0, [r4, r0]
    29e2:	201f      	movs	r0, #31
    29e4:	0f5f      	lsrs	r7, r3, #29
    29e6:	1283      	asrs	r3, r0, #10
    29e8:	8830      	ldrh	r0, [r6, #0]
    29ea:	83e2      	strh	r2, [r4, #30]
    29ec:	3e38      	subs	r6, #56	@ 0x38
    29ee:	e488      	b.n	0x2302
    29f0:	5883      	ldr	r3, [r0, r2]
    29f2:	a83e      	add	r0, sp, #248	@ 0xf8
    29f4:	2001      	movs	r0, #1
    29f6:	00e2      	lsls	r2, r4, #3
    29f8:	e320      	b.n	0x303c
    29fa:	20a2      	movs	r0, #162	@ 0xa2
    29fc:	00e4      	lsls	r4, r4, #3
    29fe:	e520      	b.n	0x2442
    2a00:	1000      	asrs	r0, r0, #32
    2a02:	2983      	cmp	r1, #131	@ 0x83
    2a04:	983e      	ldr	r0, [sp, #248]	@ 0xf8
    2a06:	83e3      	strh	r3, [r4, #30]
    2a08:	3e49      	subs	r6, #73	@ 0x49
    2a0a:	e598      	b.n	0x253e
    2a0c:	5f20      	ldrsh	r0, [r4, r4]
    2a0e:	2000      	movs	r0, #0
    2a10:	005e      	lsls	r6, r3, #1
    2a12:	d720      	bvc.n	0x2a56
    2a14:	2000      	movs	r0, #0
    2a16:	1f5e      	subs	r6, r3, #5
    2a18:	1283      	asrs	r3, r0, #10
    2a1a:	8830      	ldrh	r0, [r6, #0]
    2a1c:	83e2      	strh	r2, [r4, #30]
    2a1e:	3e38      	subs	r6, #56	@ 0x38
    2a20:	e488      	b.n	0x2334
    2a22:	5883      	ldr	r3, [r0, r2]
    2a24:	a83e      	add	r0, sp, #248	@ 0xf8
    2a26:	2001      	movs	r0, #1
    2a28:	00e2      	lsls	r2, r4, #3
    2a2a:	e320      	b.n	0x306e
    2a2c:	20a0      	movs	r0, #160	@ 0xa0
    2a2e:	00e4      	lsls	r4, r4, #3
    2a30:	e520      	b.n	0x2474
    2a32:	1000      	asrs	r0, r0, #32
    2a34:	6983      	ldr	r3, [r0, #24]
    2a36:	0c2e      	lsrs	r6, r5, #16
    2a38:	3e92      	subs	r6, #146	@ 0x92
    2a3a:	10c1      	asrs	r1, r0, #3
    2a3c:	2705      	movs	r7, #5
    2a3e:	0c22      	lsrs	r2, r4, #16
    2a40:	3e72      	subs	r6, #114	@ 0x72
    2a42:	10c1      	asrs	r1, r0, #3
    2a44:	2805      	cmp	r0, #5
    2a46:	4c32      	ldr	r4, [pc, #200]	@ (0x2b10)
    2a48:	3e92      	subs	r6, #146	@ 0x92
    2a4a:	24c3      	movs	r4, #195	@ 0xc3
    2a4c:	03e7      	lsls	r7, r4, #15
    2a4e:	05e2      	lsls	r2, r4, #23
    2a50:	0200      	lsls	r0, r0, #8
    2a52:	010d      	lsls	r5, r1, #4
    2a54:	d1e2      	bne.n	0x2a1c
    2a56:	7200      	strb	r0, [r0, #8]
    2a58:	000d      	movs	r5, r1
    2a5a:	0d52      	lsrs	r2, r2, #21
    2a5c:	e20d      	b.n	0x2e7a
    2a5e:	0003      	movs	r3, r0
    2a60:	f5e2 2831 			@ <UNDEFINED> instruction: 0xf5e22831
    2a64:	8301      	strh	r1, [r0, #24]
    2a66:	3e68      	subs	r6, #104	@ 0x68
    2a68:	01a8      	lsls	r0, r5, #6
    2a6a:	e620      	b.n	0x26ae
    2a6c:	1002      	asrs	r2, r0, #32
    2a6e:	6983      	ldr	r3, [r0, #24]
    2a70:	e20e      	b.n	0x2e90
    2a72:	0005      	movs	r5, r0
    2a74:	0d02      	lsrs	r2, r0, #20
    2a76:	e200      	b.n	0x2e7a
    2a78:	00d1      	lsls	r1, r2, #3
    2a7a:	0d72      	lsrs	r2, r6, #21
    2a7c:	5201      	strh	r1, [r0, r0]
    2a7e:	000d      	movs	r5, r1
    2a80:	03e2      	lsls	r2, r4, #15
    2a82:	e200      	b.n	0x2e86
    2a84:	21f5      	movs	r1, #245	@ 0xf5
    2a86:	920c      	str	r2, [sp, #48]	@ 0x30
    2a88:	c13e      	stmia	r1!, {r1, r2, r3, r4, r5}
    2a8a:	14ef      	asrs	r7, r5, #19
    2a8c:	3227      	adds	r2, #39	@ 0x27
    2a8e:	d246      	bcs.n	0x2b1e
    2a90:	e920 0c23 	stmdb	r0!, {r0, r1, r5, sl, fp}
    2a94:	3e72      	subs	r6, #114	@ 0x72
    2a96:	efc1 2814 	vmov.i16	d18, #20	@ 0x0014
    2a9a:	4632      	mov	r2, r6
    2a9c:	20d2      	movs	r0, #210	@ 0xd2
    2a9e:	33e7      	adds	r3, #231	@ 0xe7
    2aa0:	0128      	lsls	r0, r5, #4
    2aa2:	6883      	ldr	r3, [r0, #8]
    2aa4:	a83e      	add	r0, sp, #248	@ 0xf8
    2aa6:	2001      	movs	r0, #1
    2aa8:	00e6      	lsls	r6, r4, #3
    2aaa:	2010      	movs	r0, #16
    2aac:	db79      	blt.n	0x2ba2
    2aae:	7a20      	ldrb	r0, [r4, #8]
    2ab0:	200b      	movs	r0, #11
    2ab2:	007c      	lsls	r4, r7, #1
    2ab4:	ee20 2080 	cdp	0, 2, cr2, cr0, cr0, {4}
    2ab8:	c0ef      	stmia	r0!, {r0, r1, r2, r3, r5, r6, r7}
    2aba:	b120      	cbz	r0, 0x2ac6
    2abc:	2000      	movs	r0, #0
    2abe:	03b3      	lsls	r3, r6, #14
    2ac0:	ffc0 46d2 	vqshlu.s64	q10, q1, #0
    2ac4:	03f8      	lsls	r0, r7, #15
    2ac6:	2ffc      	cmp	r7, #252	@ 0xfc
    2ac8:	8c6d      	ldrh	r5, [r5, #34]	@ 0x22
    2aca:	203f      	movs	r0, #63	@ 0x3f
    2acc:	4088      	lsls	r0, r1
    2ace:	8920      	ldrh	r0, [r4, #8]
    2ad0:	20f3      	movs	r0, #243	@ 0xf3
    2ad2:	409e      	lsls	r6, r3
    2ad4:	7e20      	ldrb	r0, [r4, #24]
    2ad6:	2001      	movs	r0, #1
    2ad8:	c0f0      	stmia	r0!, {r4, r5, r6, r7}
    2ada:	ffc0 46d2 	vqshlu.s64	q10, q1, #0
    2ade:	03f9      	lsls	r1, r7, #15
    2ae0:	2ffc      	cmp	r7, #252	@ 0xfc
    2ae2:	9c6d      	ldr	r4, [sp, #436]	@ 0x1b4
    2ae4:	203f      	movs	r0, #63	@ 0x3f
    2ae6:	4098      	lsls	r0, r3
    2ae8:	9920      	ldr	r1, [sp, #128]	@ 0x80
    2aea:	20f3      	movs	r0, #243	@ 0xf3
    2aec:	409f      	lsls	r7, r3
    2aee:	7f20      	ldrb	r0, [r4, #28]
    2af0:	2001      	movs	r0, #1
    2af2:	c0f2      	stmia	r0!, {r1, r4, r5, r6, r7}
    2af4:	df10      	svc	16
    2af6:	15fd      	asrs	r5, r7, #23
    2af8:	3047      	adds	r0, #71	@ 0x47
    2afa:	0128      	lsls	r0, r5, #4
    2afc:	8046      	strh	r6, [r0, #2]
    2afe:	0525      	lsls	r5, r4, #20
    2b00:	79ed      	ldrb	r5, [r5, #7]
    2b02:	5242      	strh	r2, [r0, r1]
    2b04:	9e28      	ldr	r6, [sp, #160]	@ 0xa0
    2b06:	8046      	strh	r6, [r0, #2]
    2b08:	0525      	lsls	r5, r4, #20
    2b0a:	79ed      	ldrb	r5, [r5, #7]
    2b0c:	5242      	strh	r2, [r0, r1]
    2b0e:	8e28      	ldrh	r0, [r5, #48]	@ 0x30
    2b10:	c184      	stmia	r1!, {r2, r7}
    2b12:	c5fe      	stmia	r5!, {r1, r2, r3, r4, r5, r6, r7}
    2b14:	1a83      	subs	r3, r0, r2
    2b16:	0460      	lsls	r0, r4, #17
    2b18:	038d      	lsls	r5, r1, #14
    2b1a:	8310      	strh	r0, [r2, #24]
    2b1c:	67af      	str	r7, [r5, #120]	@ 0x78
    2b1e:	d790      	bvc.n	0x2a42
    2b20:	7830      	ldrb	r0, [r6, #0]
    2b22:	467a      	mov	r2, pc
    2b24:	2580      	movs	r5, #128	@ 0x80
    2b26:	ed05 4279 	sfm	f4, 4, [r5, #-484]	@ 0xfffffe1c
    2b2a:	2852      	cmp	r0, #82	@ 0x52
    2b2c:	469e      	mov	lr, r3
    2b2e:	2580      	movs	r5, #128	@ 0x80
    2b30:	ed05 4279 	sfm	f4, 4, [r5, #-484]	@ 0xfffffe1c
    2b34:	2852      	cmp	r0, #82	@ 0x52
    2b36:	848e      	strh	r6, [r1, #36]	@ 0x24
    2b38:	0281      	lsls	r1, r0, #10
    2b3a:	46c5      	mov	sp, r8
    2b3c:	2580      	movs	r5, #128	@ 0x80
    2b3e:	ed05 4251 	sfm	f4, 4, [r5, #-324]	@ 0xfffffebc
    2b42:	2852      	cmp	r0, #82	@ 0x52
    2b44:	469e      	mov	lr, r3
    2b46:	2580      	movs	r5, #128	@ 0x80
    2b48:	ed05 4251 	sfm	f4, 4, [r5, #-324]	@ 0xfffffebc
    2b4c:	2852      	cmp	r0, #82	@ 0x52
    2b4e:	948e      	str	r4, [sp, #568]	@ 0x238
    2b50:	61ed      	str	r5, [r5, #28]
    2b52:	4642      	mov	r2, r8
    2b54:	8820      	ldrh	r0, [r4, #0]
    2b56:	6384      	str	r4, [r0, #56]	@ 0x38
    2b58:	ed51 df15 	ldcl	15, cr13, [r1, #-84]	@ 0xffffffac
    2b5c:	f103 fddf 	bl	0x10671e
    2b60:	4715      	bx	r2
    2b62:	0460      	lsls	r0, r4, #17
    2b64:	5258      	strh	r0, [r3, r1]
    2b66:	9ed0      	ldr	r6, [sp, #832]	@ 0x340
    2b68:	2427      	movs	r4, #39	@ 0x27
    2b6a:	e285      	b.n	0x3078
    2b6c:	0469      	lsls	r1, r5, #17
    2b6e:	5258      	strh	r0, [r3, r1]
    2b70:	9ed0      	ldr	r6, [sp, #832]	@ 0x340
    2b72:	2427      	movs	r4, #39	@ 0x27
    2b74:	e285      	b.n	0x3082
    2b76:	1848      	adds	r0, r1, r1
    2b78:	5fdc      	ldrsh	r4, [r3, r7]
    2b7a:	046c      	lsls	r4, r5, #17
    2b7c:	5258      	strh	r0, [r3, r1]
    2b7e:	1ed0      	subs	r0, r2, #3
    2b80:	2425      	movs	r4, #37	@ 0x25
    2b82:	e285      	b.n	0x3090
    2b84:	0469      	lsls	r1, r5, #17
    2b86:	5258      	strh	r0, [r3, r1]
    2b88:	1ed0      	subs	r0, r2, #3
    2b8a:	2425      	movs	r4, #37	@ 0x25
    2b8c:	e285      	b.n	0x309a
    2b8e:	d948      	bls.n	0x2c22
    2b90:	261e      	movs	r6, #30
    2b92:	0464      	lsls	r4, r4, #17
    2b94:	4882      	ldr	r0, [pc, #520]	@ (0x2da0)
    2b96:	8228      	strh	r0, [r5, #16]
    2b98:	5173      	str	r3, [r6, r5]
    2b9a:	15ed      	asrs	r5, r5, #23
    2b9c:	03df      	lsls	r7, r3, #15
    2b9e:	dff1      	svc	241	@ 0xf1
    2ba0:	14fd      	asrs	r5, r7, #19
    2ba2:	6047      	str	r7, [r0, #4]
    2ba4:	8d04      	ldrh	r4, [r0, #40]	@ 0x28
    2ba6:	0e05      	lsrs	r5, r0, #24
    2ba8:	216e      	movs	r1, #110	@ 0x6e
    2baa:	846d      	strh	r5, [r5, #34]	@ 0x22
    2bac:	983f      	ldr	r0, [sp, #252]	@ 0xfc
    2bae:	4630      	mov	r0, r6
    2bb0:	68d0      	ldr	r0, [r2, #12]
    2bb2:	e0e0      	b.n	0x2d76
    2bb4:	d216      	bcs.n	0x2be4
    2bb6:	f946 9983 	vst2.32	{d25,d27}, [r6], r3
    2bba:	0461      	lsls	r1, r4, #17
    2bbc:	5258      	strh	r0, [r3, r1]
    2bbe:	9ed0      	ldr	r6, [sp, #832]	@ 0x340
    2bc0:	2426      	movs	r4, #38	@ 0x26
    2bc2:	e285      	b.n	0x30d0
    2bc4:	16e8      	asrs	r0, r5, #27
    2bc6:	df85      	svc	133	@ 0x85
    2bc8:	f103 fddf 	bl	0x10678a
    2bcc:	4714      	bxns	r2
    2bce:	0460      	lsls	r0, r4, #17
    2bd0:	058d      	lsls	r5, r1, #22
    2bd2:	6e0e      	ldr	r6, [r1, #96]	@ 0x60
    2bd4:	6d21      	ldr	r1, [r4, #80]	@ 0x50
    2bd6:	3f8c      	subs	r7, #140	@ 0x8c
    2bd8:	1398      	asrs	r0, r3, #14
    2bda:	d046      	beq.n	0x2c6a
    2bdc:	a068      	add	r0, pc, #416	@ (adr r0, 0x2d80)
    2bde:	16e0      	asrs	r0, r4, #27
    2be0:	c6d2      	stmia	r6!, {r1, r4, r6, r7}
    2be2:	f3f9 103d 			@ <UNDEFINED> instruction: 0xf3f9103d
    2be6:	fcdf 6f04 	ldc2l	15, cr6, [pc], {4}
    2bea:	26e2      	movs	r6, #226	@ 0xe2
    2bec:	46d2      	mov	sl, sl
    2bee:	e3f8      	b.n	0x33e2
    2bf0:	d206      	bcs.n	0x2c00
    2bf2:	f946 4df3 			@ <UNDEFINED> instruction: 0xf9464df3
    2bf6:	df10      	svc	16
    2bf8:	04fc      	lsls	r4, r7, #19
    2bfa:	e26f      	b.n	0x30dc
    2bfc:	d226      	bcs.n	0x2c4c
    2bfe:	f8c6 06e3 	str.w	r0, [r6, #1763]	@ 0x6e3
    2c02:	c6d2      	stmia	r6!, {r1, r4, r6, r7}
    2c04:	f3f9 104d 			@ <UNDEFINED> instruction: 0xf3f9104d
    2c08:	7fdf      	ldrb	r7, [r3, #31]
    2c0a:	4604      	mov	r4, r0
    2c0c:	58d0      	ldr	r0, [r2, r3]
    2c0e:	20b0      	movs	r0, #176	@ 0xb0
    2c10:	866c      	strh	r4, [r5, #50]	@ 0x32
    2c12:	983f      	ldr	r0, [sp, #252]	@ 0xfc
    2c14:	4617      	mov	r7, r2
    2c16:	68d0      	ldr	r0, [r2, #12]
    2c18:	20a0      	movs	r0, #160	@ 0xa0
    2c1a:	966c      	str	r6, [sp, #432]	@ 0x1b0
    2c1c:	ee3f 0c02 	cdp	12, 3, cr0, cr15, cr2, {0}
    2c20:	1df0      	adds	r0, r6, #7
    2c22:	5110      	str	r0, [r2, r4]
    2c24:	0289      	lsls	r1, r1, #10
    2c26:	0c00      	lsrs	r0, r0, #16
    2c28:	6d20      	ldr	r0, [r4, #80]	@ 0x50
    2c2a:	028a      	lsls	r2, r1, #10
    2c2c:	00c0      	lsls	r0, r0, #3
    2c2e:	c6d2      	stmia	r6!, {r1, r4, r6, r7}
    2c30:	0028      	movs	r0, r5
    2c32:	200c      	movs	r0, #12
    2c34:	8e6d      	ldrh	r5, [r5, #50]	@ 0x32
    2c36:	c002      	stmia	r0!, {r1}
    2c38:	d200      	bcs.n	0x2c3c
    2c3a:	2906      	cmp	r1, #6
    2c3c:	0200      	lsls	r0, r0, #8
    2c3e:	0075      	lsls	r5, r6, #1
    2c40:	4512      	cmp	r2, r2
    2c42:	2207      	movs	r2, #7
    2c44:	0005      	movs	r5, r0
    2c46:	0532      	lsls	r2, r6, #20
    2c48:	4200      	tst	r0, r0
    2c4a:	0005      	movs	r5, r0
    2c4c:	0552      	lsls	r2, r2, #21
    2c4e:	6200      	str	r0, [r0, #32]
    2c50:	0005      	movs	r5, r0
    2c52:	0572      	lsls	r2, r6, #21
    2c54:	a200      	add	r2, pc, #0	@ (adr r2, 0x2c58)
    2c56:	0075      	lsls	r5, r6, #1
    2c58:	0fc2      	lsrs	r2, r0, #31
    2c5a:	b208      	sxth	r0, r1
    2c5c:	300f      	adds	r0, #15
    2c5e:	5238      	strh	r0, [r7, r0]
    2c60:	c183      	stmia	r1!, {r0, r1, r7}
    2c62:	f10f 7043 	add.w	r0, pc, #51118080	@ 0x30c0000
    2c66:	a095      	add	r0, pc, #596	@ (adr r0, 0x2ebc)
    2c68:	1010      	asrs	r0, r2, #32
    2c6a:	0a30      	lsrs	r0, r6, #8
    2c6c:	6443      	str	r3, [r0, #68]	@ 0x44
    2c6e:	60a5      	str	r5, [r4, #8]
    2c70:	1580      	asrs	r0, r0, #22
    2c72:	c963      	ldmia	r1, {r0, r1, r5, r6}
    2c74:	5534      	strb	r4, [r6, r4]
    2c76:	5556      	strb	r6, [r2, r5]
    2c78:	9ed3      	ldr	r6, [sp, #844]	@ 0x34c
    2c7a:	1028      	asrs	r0, r5, #32
    2c7c:	24a0      	movs	r4, #160	@ 0xa0
    2c7e:	8a6c      	ldrh	r4, [r5, #18]
    2c80:	cc02      	ldmia	r4!, {r1}
    2c82:	0000      	movs	r0, r0
    2c84:	2ca8      	cmp	r4, #168	@ 0xa8
    2c86:	a6c2      	add	r6, pc, #776	@ (adr r6, 0x2f90)
    2c88:	2028      	movs	r0, #40	@ 0x28
    2c8a:	0144      	lsls	r4, r0, #5
    2c8c:	4900      	ldr	r1, [pc, #0]	@ (0x2c90)
    2c8e:	e4c2      	b.n	0x2616
    2c90:	4028      	ands	r0, r5
    2c92:	9078      	str	r0, [sp, #480]	@ 0x1e0
    2c94:	4c25      	ldr	r4, [pc, #148]	@ (0x2d2c)
    2c96:	028e      	lsls	r6, r1, #10
    2c98:	91ce      	str	r1, [sp, #824]	@ 0x338
    2c9a:	6fe6      	ldr	r6, [r4, #124]	@ 0x7c
    2c9c:	8951      	ldrh	r1, [r2, #10]
    2c9e:	1002      	asrs	r2, r0, #32
    2ca0:	d053      	beq.n	0x2d4a
    2ca2:	f104 fcdf 	bl	0x107664
    2ca6:	4714      	bxns	r2
    2ca8:	10a0      	asrs	r0, r4, #2
    2caa:	3470      	adds	r4, #112	@ 0x70
    2cac:	d046      	beq.n	0x2d3c
    2cae:	b018      	add	sp, #96	@ 0x60
    2cb0:	ed35 0289 	lfm	f0, 4, [r5, #-548]!	@ 0xfffffddc
    2cb4:	4600      	mov	r0, r0
    2cb6:	e14e      	b.n	0x2f56
    2cb8:	d21c      	bcs.n	0x2cf4
    2cba:	28e4      	cmp	r0, #228	@ 0xe4
    2cbc:	16e0      	asrs	r0, r4, #27
    2cbe:	06d2      	lsls	r2, r2, #27
    2cc0:	e029      	b.n	0x2d16
    2cc2:	4276      	negs	r6, r6
    2cc4:	0014      	movs	r4, r2
    2cc6:	6d20      	ldr	r0, [r4, #80]	@ 0x50
    2cc8:	028a      	lsls	r2, r1, #10
    2cca:	276e      	movs	r7, #110	@ 0x6e
    2ccc:	8c6d      	ldrh	r5, [r5, #34]	@ 0x22
    2cce:	5102      	str	r2, [r0, r4]
    2cd0:	1289      	asrs	r1, r1, #10
    2cd2:	14e0      	asrs	r0, r4, #19
    2cd4:	0784      	lsls	r4, r0, #30
    2cd6:	9859      	ldr	r0, [sp, #356]	@ 0x164
    2cd8:	0a11      	lsrs	r1, r2, #8
    2cda:	4700      	bx	r0
    2cdc:	3fe3      	subs	r7, #227	@ 0xe3
    2cde:	000a      	movs	r2, r1
    2ce0:	6347      	str	r7, [r0, #52]	@ 0x34
    2ce2:	df34      	svc	52	@ 0x34
    2ce4:	f104 7fdf 	add.w	pc, r4, #29229056	@ 0x1be0000
    2ce8:	4604      	mov	r4, r0
    2cea:	18d0      	adds	r0, r2, r3
    2cec:	33d0      	adds	r3, #208	@ 0xd0
    2cee:	fc98 8951 	ldc2	9, cr8, [r8], {81}	@ 0x51	@ <UNPREDICTABLE>
    2cf2:	0002      	movs	r2, r0
    2cf4:	200c      	movs	r0, #12
    2cf6:	8a6d      	ldrh	r5, [r5, #18]
    2cf8:	c002      	stmia	r0!, {r1}
    2cfa:	d200      	bcs.n	0x2cfe
    2cfc:	28c6      	cmp	r0, #198	@ 0xc6
    2cfe:	0c00      	lsrs	r0, r0, #16
    2d00:	6d20      	ldr	r0, [r4, #80]	@ 0x50
    2d02:	028e      	lsls	r6, r1, #10
    2d04:	00c0      	lsls	r0, r0, #3
    2d06:	06d2      	lsls	r2, r2, #27
    2d08:	3029      	adds	r0, #41	@ 0x29
    2d0a:	fc18 01df 	ldc2	1, cr0, [r8], {223}	@ 0xdf
    2d0e:	dff1      	svc	241	@ 0xf1
    2d10:	047e      	lsls	r6, r7, #17
    2d12:	d046      	beq.n	0x2da2
    2d14:	1018      	asrs	r0, r3, #32
    2d16:	9836      	ldr	r0, [sp, #216]	@ 0xd8
    2d18:	06fc      	lsls	r4, r7, #27
    2d1a:	4751      	bx	sl
    2d1c:	1461      	asrs	r1, r4, #17
    2d1e:	cfc1      	ldmia	r7, {r0, r6, r7}
    2d20:	5107      	str	r7, [r0, r4]
    2d22:	7146      	strb	r6, [r0, #5]
    2d24:	3510      	adds	r5, #16
    2d26:	89ed      	ldrh	r5, [r5, #14]
    2d28:	0102      	lsls	r2, r0, #4
    2d2a:	c233      	stmia	r2!, {r0, r1, r4, r5}
    2d2c:	2904      	cmp	r1, #4
    2d2e:	1ce0      	adds	r0, r4, #3
    2d30:	e4d2      	b.n	0x26d8
    2d32:	2028      	movs	r0, #40	@ 0x28
    2d34:	8c6c      	ldrh	r4, [r5, #34]	@ 0x22
    2d36:	4202      	tst	r2, r0
    2d38:	0014      	movs	r4, r2
    2d3a:	6d20      	ldr	r0, [r4, #80]	@ 0x50
    2d3c:	028a      	lsls	r2, r1, #10
    2d3e:	04c2      	lsls	r2, r0, #19
    2d40:	4029      	ands	r1, r5
    2d42:	9078      	str	r0, [sp, #480]	@ 0x1e0
    2d44:	1835      	adds	r5, r6, r0
    2d46:	dffc      	svc	252	@ 0xfc
    2d48:	f102 7fdf 	add.w	pc, r2, #29229056	@ 0x1be0000
    2d4c:	4604      	mov	r4, r0
    2d4e:	18d0      	adds	r0, r2, r3
    2d50:	3190      	adds	r1, #144	@ 0x90
    2d52:	89ed      	ldrh	r5, [r5, #14]
    2d54:	0002      	movs	r2, r0
    2d56:	0a07      	lsrs	r7, r0, #8
    2d58:	ee00 10a2 	cdp	0, 0, cr1, cr0, cr2, {5}
    2d5c:	2ee0      	cmp	r6, #224	@ 0xe0
    2d5e:	000a      	movs	r2, r1
    2d60:	01df      	lsls	r7, r3, #7
    2d62:	dff1      	svc	241	@ 0xf1
    2d64:	057e      	lsls	r6, r7, #21
    2d66:	6147      	str	r7, [r0, #20]
    2d68:	8d14      	ldrh	r4, [r2, #40]	@ 0x28
    2d6a:	5201      	strh	r1, [r0, r0]
    2d6c:	c983      	ldmia	r1, {r0, r1, r7}
    2d6e:	106f      	asrs	r7, r5, #1
    2d70:	fc15 60dc 	ldc2	0, cr6, [r5], {220}	@ 0xdc
    2d74:	8104      	strh	r4, [r0, #8]
    2d76:	0744      	lsls	r4, r0, #29
    2d78:	5151      	str	r1, [r2, r5]
    2d7a:	0289      	lsls	r1, r1, #10
    2d7c:	0c00      	lsrs	r0, r0, #16
    2d7e:	6d20      	ldr	r0, [r4, #80]	@ 0x50
    2d80:	028a      	lsls	r2, r1, #10
    2d82:	00c0      	lsls	r0, r0, #3
    2d84:	c6d2      	stmia	r6!, {r1, r4, r6, r7}
    2d86:	0028      	movs	r0, r5
    2d88:	200c      	movs	r0, #12
    2d8a:	8e6d      	ldrh	r5, [r5, #50]	@ 0x32
    2d8c:	c002      	stmia	r0!, {r1}
    2d8e:	d200      	bcs.n	0x2d92
    2d90:	2906      	cmp	r1, #6
    2d92:	1830      	adds	r0, r6, r0
    2d94:	dffc      	svc	252	@ 0xfc
    2d96:	f102 fc21 	bl	0x1055dc
    2d9a:	212d      	movs	r1, #45	@ 0x2d
    2d9c:	4a12      	ldr	r2, [pc, #72]	@ (0x2de8)
    2d9e:	ab21      	add	r3, sp, #132	@ 0x84
    2da0:	2130      	movs	r1, #48	@ 0x30
    2da2:	1062      	asrs	r2, r4, #1
    2da4:	000a      	movs	r2, r1
    2da6:	0a21      	lsrs	r1, r4, #8
    2da8:	102e      	asrs	r6, r5, #32
    2daa:	7fdf      	ldrb	r7, [r3, #31]
    2dac:	2106      	movs	r1, #6
    2dae:	4a51      	ldr	r2, [pc, #324]	@ (0x2ef4)
    2db0:	b421      	push	{r0, r5}
    2db2:	2130      	movs	r1, #48	@ 0x30
    2db4:	1167      	asrs	r7, r4, #5
    2db6:	3611      	adds	r6, #17
    2db8:	18d0      	adds	r0, r2, r3
    2dba:	a160      	add	r1, pc, #384	@ (adr r1, 0x2f3c)
    2dbc:	000a      	movs	r2, r1
    2dbe:	200c      	movs	r0, #12
    2dc0:	8ac4      	ldrh	r4, [r0, #22]
    2dc2:	8921      	ldrh	r1, [r4, #8]
    2dc4:	eedb a313 	mrc	3, 6, sl, cr11, cr3, {0}
    2dc8:	6db9      	ldr	r1, [r7, #88]	@ 0x58
    2dca:	df06      	svc	6
    2dcc:	f101 e321 	bfcsel	4, 0x2410, 6, eq
    2dd0:	8d4a      	ldrh	r2, [r1, #42]	@ 0x2a
    2dd2:	0900      	lsrs	r0, r0, #4
    2dd4:	e921 ee49 	stmdb	r1!, {r0, r3, r6, r9, sl, fp, sp, lr, pc}
    2dd8:	8313      	strh	r3, [r2, #24]
    2dda:	0db8      	lsrs	r0, r7, #22
    2ddc:	21f1      	movs	r1, #241	@ 0xf1
    2dde:	db84      	blt.n	0x2cea
    2de0:	de21      	udf	#33	@ 0x21
    2de2:	1049      	asrs	r1, r1, #1
    2de4:	d921      	bls.n	0x2e2a
    2de6:	0a49      	lsrs	r1, r1, #9
    2de8:	2111      	movs	r1, #17
    2dea:	2dc7      	cmp	r5, #199	@ 0xc7
    2dec:	0eef      	lsrs	r7, r5, #27
    2dee:	dff1      	svc	241	@ 0xf1
    2df0:	831f      	strh	r7, [r3, #24]
    2df2:	d125      	bne.n	0x2e40
    2df4:	8018      	strh	r0, [r3, #0]
    2df6:	a311      	add	r3, pc, #68	@ (adr r3, 0x2e3c)
    2df8:	c310      	stmia	r3!, {r4}
    2dfa:	c018      	stmia	r0!, {r3, r4}
    2dfc:	3310      	adds	r3, #16
    2dfe:	d4a9      	bmi.n	0x2d54
    2e00:	a018      	add	r0, pc, #96	@ (adr r0, 0x2e64)
    2e02:	00a0      	lsls	r0, r4, #2
    2e04:	0470      	lsls	r0, r6, #17
    2e06:	a3fe      	add	r3, pc, #1016	@ (adr r3, 0x3200)
    2e08:	7010      	strb	r0, [r2, #0]
    2e0a:	4604      	mov	r4, r0
    2e0c:	1df0      	adds	r0, r6, #7
    2e0e:	df10      	svc	16
    2e10:	2ece      	cmp	r6, #206	@ 0xce
    2e12:	2029      	movs	r0, #41	@ 0x29
    2e14:	d26d      	bcs.n	0x2ef2
    2e16:	5102      	str	r2, [r0, r4]
    2e18:	12d6      	asrs	r6, r2, #11
    2e1a:	0c00      	lsrs	r0, r0, #16
    2e1c:	6d20      	ldr	r0, [r4, #80]	@ 0x50
    2e1e:	02d4      	lsls	r4, r2, #11
    2e20:	d751      	bvc.n	0x2ec6
    2e22:	0002      	movs	r2, r0
    2e24:	200c      	movs	r0, #12
    2e26:	d86d      	bhi.n	0x2f04
    2e28:	ec02 0292 	sfm	f0, 4, [r2], {146}	@ 0x92
    2e2c:	a6d2      	add	r6, pc, #840	@ (adr r6, 0x3178)
    2e2e:	102d      	asrs	r5, r5, #32
    2e30:	2dc5      	cmp	r5, #197	@ 0xc5
    2e32:	0a03      	lsrs	r3, r0, #8
    2e34:	4700      	bx	r0
    2e36:	e980 0463 			@ <UNDEFINED> instruction: 0xe9800463
    2e3a:	095a      	lsrs	r2, r3, #5
    2e3c:	def2      	udf	#242	@ 0xf2
    2e3e:	2dde      	cmp	r5, #222	@ 0xde
    2e40:	8520      	strh	r0, [r4, #40]	@ 0x28
    2e42:	000a      	movs	r2, r1
    2e44:	0687      	lsls	r7, r0, #26
    2e46:	a046      	add	r0, pc, #280	@ (adr r0, 0x2f60)
    2e48:	2095      	movs	r0, #149	@ 0x95
    2e4a:	edef 02dd 	sfm	f0, 2, [pc, #884]!	@ 0x31c0
    2e4e:	a852      	add	r0, sp, #328	@ 0x148
    2e50:	7000      	strb	r0, [r0, #0]
    2e52:	6088      	str	r0, [r1, #8]
    2e54:	0804      	lsrs	r4, r0, #32
    2e56:	60d1      	str	r1, [r2, #12]
    2e58:	0c04      	lsrs	r4, r0, #16
    2e5a:	d826      	bhi.n	0x2eaa
    2e5c:	51b7      	str	r7, [r6, r6]
    2e5e:	0435      	lsls	r5, r6, #16
    2e60:	6510      	str	r0, [r2, #80]	@ 0x50
    2e62:	0043      	lsls	r3, r0, #1
    2e64:	3751      	adds	r7, #81	@ 0x51
    2e66:	1004      	asrs	r4, r0, #32
    2e68:	4385      	bics	r5, r0
    2e6a:	1100      	asrs	r0, r0, #4
    2e6c:	11d8      	asrs	r0, r3, #7
    2e6e:	9123      	str	r1, [sp, #140]	@ 0x8c
    2e70:	1470      	asrs	r0, r6, #17
    2e72:	d146      	bne.n	0x2f02
    2e74:	9018      	str	r0, [sp, #96]	@ 0x60
    2e76:	1310      	asrs	r0, r2, #12
    2e78:	e09e      	b.n	0x2fb8
    2e7a:	213e      	movs	r1, #62	@ 0x3e
    2e7c:	0a99      	lsrs	r1, r3, #10
    2e7e:	02df      	lsls	r7, r3, #11
    2e80:	d3f1      	bcc.n	0x2e66
    2e82:	435c      	muls	r4, r3
    2e84:	5000      	str	r0, [r0, r0]
    2e86:	cd32      	ldmia	r5, {r1, r4, r5}
    2e88:	0435      	lsls	r5, r6, #16
    2e8a:	2301      	movs	r3, #1
    2e8c:	5cd3      	ldrb	r3, [r2, r3]
    2e8e:	2043      	movs	r0, #67	@ 0x43
    2e90:	3210      	adds	r2, #16
    2e92:	35cd      	adds	r5, #205	@ 0xcd
    2e94:	0304      	lsls	r4, r0, #12
    2e96:	981e      	ldr	r0, [sp, #120]	@ 0x78
    2e98:	1122      	asrs	r2, r4, #4
    2e9a:	82ae      	strh	r6, [r5, #20]
    2e9c:	1209      	asrs	r1, r1, #8
    2e9e:	3ab0      	subs	r2, #176	@ 0xb0
    2ea0:	1798      	asrs	r0, r3, #30
    2ea2:	6d11      	ldr	r1, [r2, #80]	@ 0x50
    2ea4:	7fe4      	ldrb	r4, [r4, #31]
    2ea6:	3a11      	subs	r2, #17
    2ea8:	3fe7      	subs	r7, #231	@ 0xe7
    2eaa:	3551      	adds	r5, #81	@ 0x51
    2eac:	0004      	movs	r4, r0
    2eae:	dff1      	svc	241	@ 0xf1
    2eb0:	504e      	str	r6, [r1, r1]
    2eb2:	4743      	bx	r8
    2eb4:	ed30 0435 	cfldrs	mvf0, [r0, #-212]!	@ 0xffffff2c
    2eb8:	4600      	mov	r0, r0
    2eba:	000a      	movs	r2, r1
    2ebc:	8147      	strh	r7, [r0, #10]
    2ebe:	6309      	str	r1, [r1, #48]	@ 0x30
    2ec0:	5a14      	ldrh	r4, [r2, r0]
    2ec2:	f209 dede 	bl	0xa0cc82
    2ec6:	202d      	movs	r0, #45	@ 0x2d
    2ec8:	8685      	strh	r5, [r0, #52]	@ 0x34
    2eca:	8d06      	ldrh	r6, [r0, #40]	@ 0x28
    2ecc:	0b01      	lsrs	r1, r0, #12
    2ece:	010a      	lsls	r2, r1, #4
    2ed0:	8047      	strh	r7, [r0, #2]
    2ed2:	6139      	str	r1, [r7, #16]
    2ed4:	0814      	lsrs	r4, r2, #32
    2ed6:	60d1      	str	r1, [r2, #12]
    2ed8:	0c14      	lsrs	r4, r2, #16
    2eda:	d826      	bhi.n	0x2f2a
    2edc:	46c5      	mov	sp, r8
    2ede:	2df0      	cmp	r5, #240	@ 0xf0
    2ee0:	df10      	svc	16
    2ee2:	67f8      	str	r0, [r7, #124]	@ 0x7c
    2ee4:	714f      	strb	r7, [r1, #5]
    2ee6:	4604      	mov	r4, r0
    2ee8:	60c0      	str	r0, [r0, #12]
    2eea:	1c92      	adds	r2, r2, #2
    2eec:	0a0d      	lsrs	r5, r1, #8
    2eee:	4700      	bx	r0
    2ef0:	0c03      	lsrs	r3, r0, #16
    2ef2:	46f0      	mov	r8, lr
    2ef4:	4c98      	ldr	r4, [pc, #608]	@ (0x3158)
    2ef6:	e44e      	b.n	0x2796
    2ef8:	5216      	strh	r6, [r2, r0]
    2efa:	6a48      	ldr	r0, [r1, #36]	@ 0x24
    2efc:	5804      	ldr	r4, [r0, r0]
    2efe:	2a12      	cmp	r2, #18
    2f00:	ed05 44af 	cfstrs	mvf4, [r5, #-700]	@ 0xfffffd44
    2f04:	e852 e25c 			@ <UNDEFINED> instruction: 0xe852e25c
    2f08:	46e8      	mov	r8, sp
    2f0a:	5852      	ldr	r2, [r2, r1]
    2f0c:	44ea      	add	sl, sp
    2f0e:	216e      	movs	r1, #110	@ 0x6e
    2f10:	8485      	strh	r5, [r0, #36]	@ 0x24
    2f12:	3356      	adds	r3, #86	@ 0x56
    2f14:	0d43      	lsrs	r3, r0, #21
    2f16:	246e      	movs	r4, #110	@ 0x6e
    2f18:	0145      	lsls	r5, r0, #5
    2f1a:	4900      	ldr	r1, [pc, #0]	@ (0x2f1c)
    2f1c:	8046      	strh	r6, [r0, #2]
    2f1e:	a125      	add	r1, pc, #148	@ (adr r1, 0x2fb4)
    2f20:	d052      	beq.n	0x2fc8
    2f22:	4afe      	ldr	r2, [pc, #1016]	@ (0x331c)
    2f24:	8524      	strh	r4, [r4, #40]	@ 0x28
    2f26:	0486      	lsls	r6, r0, #18
    2f28:	10a2      	asrs	r2, r4, #2
    2f2a:	e580      	b.n	0x2a2e
    2f2c:	8247      	strh	r7, [r0, #18]
    2f2e:	bd85      	pop	{r0, r2, r7, pc}
    2f30:	0468      	lsls	r0, r5, #17
    2f32:	1258      	asrs	r0, r3, #9
    2f34:	052a      	lsls	r2, r5, #20
    2f36:	afed      	add	r7, sp, #948	@ 0x3b4
    2f38:	5244      	strh	r4, [r0, r1]
    2f3a:	5ce8      	ldrb	r0, [r5, r3]
    2f3c:	a8e2      	add	r0, sp, #904	@ 0x388
    2f3e:	6ff0      	ldr	r0, [r6, #124]	@ 0x7c
    2f40:	a235      	add	r2, pc, #212	@ (adr r2, 0x3018)
    2f42:	1084      	asrs	r4, r0, #2
    2f44:	247e      	movs	r4, #126	@ 0x7e
    2f46:	85a5      	strh	r5, [r4, #44]	@ 0x2c
    2f48:	a046      	add	r0, pc, #280	@ (adr r0, 0x3064)
    2f4a:	2095      	movs	r0, #149	@ 0x95
    2f4c:	edef 02dd 	sfm	f0, 2, [pc, #884]!	@ 0x32c4
    2f50:	a852      	add	r0, sp, #328	@ 0x148
    2f52:	7010      	strb	r0, [r2, #0]
    2f54:	e068      	b.n	0x3028
    2f56:	cf67      	ldmia	r7!, {r0, r1, r2, r5, r6}
    2f58:	1008      	asrs	r0, r1, #32
    2f5a:	2221      	movs	r2, #33	@ 0x21
    2f5c:	11e8      	asrs	r0, r5, #7
    2f5e:	3f21      	subs	r7, #33	@ 0x21
    2f60:	35ed      	adds	r5, #237	@ 0xed
    2f62:	0004      	movs	r4, r0
    2f64:	10ea      	asrs	r2, r5, #3
    2f66:	7edf      	ldrb	r7, [r3, #27]
    2f68:	4604      	mov	r4, r0
    2f6a:	95a0      	str	r5, [sp, #640]	@ 0x280
    2f6c:	ef20 dded 	vsub.f32	<illegal reg q6.5>, q8, <illegal reg q14.5>
    2f70:	5202      	strh	r2, [r0, r0]
    2f72:	8868      	ldrh	r0, [r5, #2]
    2f74:	18d0      	adds	r0, r2, r3
    2f76:	a0a0      	add	r0, pc, #640	@ (adr r0, 0x31f8)
    2f78:	7010      	strb	r0, [r2, #0]
    2f7a:	fe14 00a3 	cdp2	0, 1, cr0, cr4, cr3, {5}
    2f7e:	1470      	asrs	r0, r6, #17
    2f80:	f146 102d 	adc.w	r0, r6, #2949165	@ 0x2d002d
    2f84:	7ddf      	ldrb	r7, [r3, #23]
    2f86:	4604      	mov	r4, r0
    2f88:	95a0      	str	r5, [sp, #640]	@ 0x280
    2f8a:	ef20 dded 	vsub.f32	<illegal reg q6.5>, q8, <illegal reg q14.5>
    2f8e:	5202      	strh	r2, [r0, r0]
    2f90:	c0e8      	stmia	r0!, {r3, r5, r6, r7}
    2f92:	fffc db8f 	vtbl.8	d29, {d28-d31}, d15
    2f96:	0461      	lsls	r1, r4, #17
    2f98:	095a      	lsrs	r2, r3, #5
    2f9a:	def2      	udf	#242	@ 0xf2
    2f9c:	2dde      	cmp	r5, #222	@ 0xde
    2f9e:	8520      	strh	r0, [r4, #40]	@ 0x28
    2fa0:	0686      	lsls	r6, r0, #26
    2fa2:	018d      	lsls	r5, r1, #6
    2fa4:	461f      	mov	r7, r3
    2fa6:	2580      	movs	r5, #128	@ 0x80
    2fa8:	52a1      	strh	r1, [r4, r2]
    2faa:	fed0 244a 	cdp2	4, 13, cr2, cr0, cr10, {2}
    2fae:	ce85      	ldmia	r6!, {r0, r2, r7}
    2fb0:	f0e5 fe16 	bl	0xe8be0
    2fb4:	0c03      	lsrs	r3, r0, #16
    2fb6:	16f0      	asrs	r0, r6, #27
    2fb8:	f14e 103d 	adc.w	r0, lr, #3997757	@ 0x3d003d
    2fbc:	fbdf 4714 			@ <UNDEFINED> instruction: 0xfbdf4714
    2fc0:	0c00      	lsrs	r0, r0, #16
    2fc2:	36f0      	adds	r6, #240	@ 0xf0
    2fc4:	a046      	add	r0, pc, #280	@ (adr r0, 0x30e0)
    2fc6:	2095      	movs	r0, #149	@ 0x95
    2fc8:	edef 02dd 	sfm	f0, 2, [pc, #884]!	@ 0x3340
    2fcc:	e852 fcc0 			@ <UNDEFINED> instruction: 0xe852fcc0
    2fd0:	9fff      	ldr	r7, [sp, #1020]	@ 0x3fc
    2fd2:	093a      	lsrs	r2, r7, #4
    2fd4:	8046      	strh	r6, [r0, #2]
    2fd6:	a125      	add	r1, pc, #148	@ (adr r1, 0x306c)
    2fd8:	d052      	beq.n	0x3080
    2fda:	4afe      	ldr	r2, [pc, #1016]	@ (0x33d4)
    2fdc:	8524      	strh	r4, [r4, #40]	@ 0x28
    2fde:	0486      	lsls	r6, r0, #18
    2fe0:	10a2      	asrs	r2, r4, #2
    2fe2:	f580 0a36 			@ <UNDEFINED> instruction: 0xf5800a36
    2fe6:	4e01      	ldr	r6, [pc, #4]	@ (0x2fec)
    2fe8:	4851      	ldr	r0, [pc, #324]	@ (0x3130)
    2fea:	4330      	orrs	r0, r6
    2fec:	028d      	lsls	r5, r1, #10
    2fee:	4626      	mov	r6, r4
    2ff0:	95a0      	str	r5, [sp, #640]	@ 0x280
    2ff2:	ef20 dded 	vsub.f32	<illegal reg q6.5>, q8, <illegal reg q14.5>
    2ff6:	5202      	strh	r2, [r0, r0]
    2ff8:	10e8      	asrs	r0, r5, #3
    2ffa:	1008      	asrs	r0, r1, #32
    2ffc:	e109      	b.n	0x3212
    2ffe:	0f84      	lsrs	r4, r0, #30
    3000:	3798      	adds	r7, #152	@ 0x98
    3002:	3304      	adds	r3, #4
    3004:	38d4      	subs	r0, #212	@ 0xd4
    3006:	6250      	str	r0, [r2, #36]	@ 0x24
    3008:	5a04      	ldrh	r4, [r0, r0]
    300a:	f209 dede 	bl	0xa0cdca
    300e:	202d      	movs	r0, #45	@ 0x2d
    3010:	0e85      	lsrs	r5, r0, #26
    3012:	0081      	lsls	r1, r0, #2
    3014:	2091      	movs	r0, #145	@ 0x91
    3016:	f84e 3fe0 	str.w	r3, [lr, #224]!
    301a:	00c0      	lsls	r0, r0, #3
    301c:	e36f      	b.n	0x36fe
    301e:	df36      	svc	54	@ 0x36
    3020:	f105 fadf 	bl	0x1085e2
    3024:	5744      	ldrsb	r4, [r0, r5]
    3026:	3472      	adds	r4, #114	@ 0x72
    3028:	d346      	bcc.n	0x30b8
    302a:	3018      	adds	r0, #24
    302c:	96e1      	str	r6, [sp, #900]	@ 0x384
    302e:	606f      	str	r7, [r5, #4]
    3030:	4e24      	ldr	r6, [pc, #144]	@ (0x30c4)
    3032:	2ef4      	cmp	r6, #244	@ 0xf4
    3034:	1298      	asrs	r0, r3, #10
    3036:	f96e 4606 	vld1.8	{d20-d22}, [lr], r6
    303a:	44e2      	add	sl, ip
    303c:	d321      	bcc.n	0x3082
    303e:	df0c      	svc	12
    3040:	f106 7ced 	add.w	ip, r6, #31064064	@ 0x1da0000
    3044:	1004      	asrs	r4, r0, #32
    3046:	e7cf      	b.n	0x2fe8
    3048:	77f2      	strb	r2, [r6, #31]
    304a:	a511      	add	r5, pc, #68	@ (adr r5, 0x3090)
    304c:	0047      	lsls	r7, r0, #1
    304e:	7b51      	ldrb	r1, [r2, #13]
    3050:	c004      	stmia	r0!, {r2}
    3052:	ff8e 06f1 	vqshlu.s64	q0, <illegal reg q8.5>, #14
    3056:	070a      	lsls	r2, r1, #28
    3058:	2802      	cmp	r0, #2
    305a:	09ce      	lsrs	r6, r1, #7
    305c:	c2ef      	stmia	r2!, {r0, r1, r2, r3, r5, r6, r7}
    305e:	ff8e 06f2 	vqshlu.s64	q0, q9, #14
    3062:	070a      	lsls	r2, r1, #28
    3064:	2802      	cmp	r0, #2
    3066:	10ce      	asrs	r6, r1, #3
    3068:	a2ef      	add	r2, pc, #956	@ (adr r2, 0x3428)
    306a:	7000      	strb	r0, [r0, #0]
    306c:	0a24      	lsrs	r4, r4, #8
    306e:	4700      	bx	r0
    3070:	0c03      	lsrs	r3, r0, #16
    3072:	56f0      	ldrsb	r0, [r6, r3]
    3074:	00c0      	lsls	r0, r0, #3
    3076:	a76f      	add	r7, pc, #444	@ (adr r7, 0x3234)
    3078:	7000      	strb	r0, [r0, #0]
    307a:	9844      	ldr	r0, [sp, #272]	@ 0x110
    307c:	4674      	mov	r4, lr
    307e:	2584      	movs	r5, #132	@ 0x84
    3080:	e280      	b.n	0x3584
    3082:	209c      	movs	r0, #156	@ 0x9c
    3084:	8485      	strh	r5, [r0, #36]	@ 0x24
    3086:	3256      	adds	r2, #86	@ 0x56
    3088:	0d4a      	lsrs	r2, r1, #21
    308a:	8446      	strh	r6, [r0, #34]	@ 0x22
    308c:	8025      	strh	r5, [r4, #0]
    308e:	0ce2      	lsrs	r2, r4, #19
    3090:	8521      	strh	r1, [r4, #40]	@ 0x28
    3092:	5684      	ldrsb	r4, [r0, r2]
    3094:	4a33      	ldr	r2, [pc, #204]	@ (0x3164)
    3096:	460d      	mov	r5, r1
    3098:	2584      	movs	r5, #132	@ 0x84
    309a:	e280      	b.n	0x359e
    309c:	209c      	movs	r0, #156	@ 0x9c
    309e:	8485      	strh	r5, [r0, #36]	@ 0x24
    30a0:	7e58      	ldrb	r0, [r3, #25]
    30a2:	1525      	asrs	r5, r4, #20
    30a4:	4659      	mov	r1, fp
    30a6:	2584      	movs	r5, #132	@ 0x84
    30a8:	e280      	b.n	0x35ac
    30aa:	210c      	movs	r1, #12
    30ac:	8485      	strh	r5, [r0, #36]	@ 0x24
    30ae:	7e58      	ldrb	r0, [r3, #25]
    30b0:	1527      	asrs	r7, r4, #20
    30b2:	4659      	mov	r1, fp
    30b4:	1084      	asrs	r4, r0, #2
    30b6:	460d      	mov	r5, r1
    30b8:	70c4      	strb	r4, [r0, #3]
    30ba:	1d80      	adds	r0, r0, #6
    30bc:	2468      	movs	r4, #104	@ 0x68
    30be:	008d      	lsls	r5, r1, #2
    30c0:	6e77      	ldr	r7, [r6, #100]	@ 0x64
    30c2:	0cc5      	lsrs	r5, r0, #19
    30c4:	8000      	strh	r0, [r0, #0]
    30c6:	a6aa      	add	r6, pc, #680	@ (adr r6, 0x3370)
    30c8:	7000      	strb	r0, [r0, #0]
    30ca:	9844      	ldr	r0, [sp, #272]	@ 0x110
    30cc:	4628      	mov	r0, r5
    30ce:	2584      	movs	r5, #132	@ 0x84
    30d0:	e280      	b.n	0x35d4
    30d2:	209c      	movs	r0, #156	@ 0x9c
    30d4:	8485      	strh	r5, [r0, #36]	@ 0x24
    30d6:	7ced      	ldrb	r5, [r5, #19]
    30d8:	5604      	ldrsb	r4, [r0, r0]
    30da:	9824      	ldr	r0, [sp, #144]	@ 0x90
    30dc:	4685      	mov	sp, r0
    30de:	1084      	asrs	r4, r0, #2
    30e0:	460d      	mov	r5, r1
    30e2:	70c4      	strb	r4, [r0, #3]
    30e4:	dd80      	ble.n	0x2fe8
    30e6:	a51c      	add	r5, pc, #112	@ (adr r5, 0x3158)
    30e8:	0147      	lsls	r7, r0, #5
    30ea:	2346      	movs	r3, #70	@ 0x46
    30ec:	008d      	lsls	r5, r1, #2
    30ee:	e0aa      	b.n	0x3246
    30f0:	cc76      	ldmia	r4, {r1, r2, r4, r5, r6}
    30f2:	0000      	movs	r0, r0
    30f4:	9ca9      	ldr	r4, [sp, #676]	@ 0x2a4
    30f6:	b510      	push	{r4, lr}
    30f8:	0147      	lsls	r7, r0, #5
    30fa:	9099      	str	r0, [sp, #612]	@ 0x264
    30fc:	3460      	adds	r4, #96	@ 0x60
    30fe:	008d      	lsls	r5, r1, #2
    3100:	6e56      	ldr	r6, [r2, #100]	@ 0x64
    3102:	0cc7      	lsrs	r7, r0, #19
    3104:	8000      	strh	r0, [r0, #0]
    3106:	a49a      	add	r4, pc, #616	@ (adr r4, 0x3370)
    3108:	7000      	strb	r0, [r0, #0]
    310a:	9844      	ldr	r0, [sp, #272]	@ 0x110
    310c:	4628      	mov	r0, r5
    310e:	2584      	movs	r5, #132	@ 0x84
    3110:	e280      	b.n	0x3614
    3112:	210c      	movs	r1, #12
    3114:	8485      	strh	r5, [r0, #36]	@ 0x24
    3116:	7ced      	ldrb	r5, [r5, #19]
    3118:	5604      	ldrsb	r4, [r0, r0]
    311a:	9824      	ldr	r0, [sp, #144]	@ 0x90
    311c:	4685      	mov	sp, r0
    311e:	1084      	asrs	r4, r0, #2
    3120:	460d      	mov	r5, r1
    3122:	70c4      	strb	r4, [r0, #3]
    3124:	dd80      	ble.n	0x3028
    3126:	b51c      	push	{r2, r3, r4, lr}
    3128:	0147      	lsls	r7, r0, #5
    312a:	3198      	adds	r1, #152	@ 0x98
    312c:	7c51      	ldrb	r1, [r2, #17]
    312e:	1ff4      	subs	r4, r6, #7
    3130:	47d5      			@ <UNDEFINED> instruction: 0x47d5
    3132:	51ff      	str	r7, [r7, r7]
    3134:	f47e f51f 	bl	0xff881b76
    3138:	ff47 8051 	vqadd.u8	q12, <illegal reg q3.5>, <illegal reg q0.5>
    313c:	10c4      	asrs	r4, r0, #3
    313e:	4815      	ldr	r0, [pc, #84]	@ (0x3194)
    3140:	5102      	str	r2, [r0, r4]
    3142:	e482      	b.n	0x2a4a
    3144:	7e20      	ldrb	r0, [r4, #24]
    3146:	cf17      	ldmia	r7!, {r0, r1, r2, r4}
    3148:	1019      	asrs	r1, r3, #32
    314a:	f7cf a77f 	undefined (bcc, cond=0xF)
    314e:	7000      	strb	r0, [r0, #0]
    3150:	9824      	ldr	r0, [sp, #144]	@ 0x90
    3152:	464c      	mov	r4, r9
    3154:	95a2      	str	r5, [sp, #648]	@ 0x288
    3156:	ef20 dded 	vsub.f32	<illegal reg q6.5>, q8, <illegal reg q14.5>
    315a:	5202      	strh	r2, [r0, r0]
    315c:	6868      	ldr	r0, [r5, #4]
    315e:	18d0      	adds	r0, r2, r3
    3160:	6270      	str	r0, [r6, #36]	@ 0x24
    3162:	0524      	lsls	r4, r4, #20
    3164:	6438      	str	r0, [r7, #64]	@ 0x40
    3166:	5a24      	ldrh	r4, [r4, r0]
    3168:	f209 dede 	bl	0xa0cf28
    316c:	202d      	movs	r0, #45	@ 0x2d
    316e:	0a85      	lsrs	r5, r0, #10
    3170:	8700      	strh	r0, [r0, #56]	@ 0x38
    3172:	9806      	ldr	r0, [sp, #24]
    3174:	4613      	mov	r3, r2
    3176:	1082      	asrs	r2, r0, #2
    3178:	460d      	mov	r5, r1
    317a:	60c2      	str	r2, [r0, #12]
    317c:	9d82      	ldr	r5, [sp, #520]	@ 0x208
    317e:	246a      	movs	r4, #106	@ 0x6a
    3180:	268d      	movs	r6, #141	@ 0x8d
    3182:	510c      	str	r4, [r1, r4]
    3184:	0435      	lsls	r5, r6, #16
    3186:	a990      	add	r1, sp, #576	@ 0x240
    3188:	0417      	lsls	r7, r2, #16
    318a:	a438      	add	r4, pc, #224	@ (adr r4, 0x326c)
    318c:	2095      	movs	r0, #149	@ 0x95
    318e:	edef 02dd 	sfm	f0, 2, [pc, #884]!	@ 0x3504
    3192:	e852 1e2c 			@ <UNDEFINED> instruction: 0xe8521e2c
    3196:	3804      	subs	r0, #4
    3198:	2584      	movs	r5, #132	@ 0x84
    319a:	52a1      	strh	r1, [r4, r2]
    319c:	fed0 244a 	cdp2	4, 13, cr2, cr0, cr10, {2}
    31a0:	8685      	strh	r5, [r0, #52]	@ 0x34
    31a2:	5804      	ldr	r4, [r0, r0]
    31a4:	2252      	movs	r2, #82	@ 0x52
    31a6:	0144      	lsls	r4, r0, #5
    31a8:	6f00      	ldr	r0, [r0, #112]	@ 0x70
    31aa:	8045      	strh	r5, [r0, #2]
    31ac:	5843      	ldr	r3, [r0, r1]
    31ae:	2a12      	cmp	r2, #18
    31b0:	ed05 44af 	cfstrs	mvf4, [r5, #-700]	@ 0xfffffd44
    31b4:	e852 0e2c 			@ <UNDEFINED> instruction: 0xe8520e2c
    31b8:	257e      	movs	r5, #126	@ 0x7e
    31ba:	2258      	movs	r2, #88	@ 0x58
    31bc:	16b2      	asrs	r2, r6, #26
    31be:	4355      	muls	r5, r2
    31c0:	0401      	lsls	r1, r0, #16
    31c2:	a438      	add	r4, pc, #224	@ (adr r4, 0x32a4)
    31c4:	2095      	movs	r0, #149	@ 0x95
    31c6:	edef 02dd 	sfm	f0, 2, [pc, #884]!	@ 0x353c
    31ca:	e852 0e2c 			@ <UNDEFINED> instruction: 0xe8520e2c
    31ce:	406f      	eors	r7, r5
    31d0:	4380      	bics	r0, r0
    31d2:	1258      	asrs	r0, r3, #9
    31d4:	052a      	lsls	r2, r5, #20
    31d6:	afed      	add	r7, sp, #948	@ 0x3b4
    31d8:	5244      	strh	r4, [r0, r1]
    31da:	4a68      	ldr	r2, [pc, #416]	@ (0x337c)
    31dc:	3340      	adds	r3, #64	@ 0x40
    31de:	0443      	lsls	r3, r0, #17
    31e0:	8438      	strh	r0, [r7, #32]
    31e2:	a125      	add	r1, pc, #148	@ (adr r1, 0x3278)
    31e4:	d052      	beq.n	0x328c
    31e6:	4afe      	ldr	r2, [pc, #1016]	@ (0x35e0)
    31e8:	8524      	strh	r4, [r4, #40]	@ 0x28
    31ea:	25ce      	movs	r5, #206	@ 0xce
    31ec:	da8e      	bge.n	0x310c
    31ee:	ef8a 6997 			@ <UNDEFINED> instruction: 0xef8a6997
    31f2:	040a      	lsls	r2, r1, #16
    31f4:	d433      	bmi.n	0x325e
    31f6:	0028      	movs	r0, r5
    31f8:	3ec3      	subs	r6, #195	@ 0xc3
    31fa:	f1ff 0a06 			@ <UNDEFINED> instruction: 0xf1ff0a06
    31fe:	0201      	lsls	r1, r0, #8
    3200:	3ce8      	subs	r4, #232	@ 0xe8
    3202:	c2ef      	stmia	r2!, {r0, r1, r2, r3, r5, r6, r7}
    3204:	ff1e 06f2 	vmin.u16	q0, q15, q9
    3208:	010a      	lsls	r2, r1, #4
    320a:	e802 ef4c 			@ <UNDEFINED> instruction: 0xe802ef4c
    320e:	c982      	ldmia	r1, {r1, r7}
    3210:	3ec2      	subs	r6, #194	@ 0xc2
    3212:	f2ff 0a06 			@ <UNDEFINED> instruction: 0xf2ff0a06
    3216:	0201      	lsls	r1, r0, #8
    3218:	3ce8      	subs	r4, #232	@ 0xe8
    321a:	c2ef      	stmia	r2!, {r0, r1, r2, r3, r5, r6, r7}
    321c:	ff1e 06f1 	vmin.u16	q0, q15, <illegal reg q8.5>
    3220:	010a      	lsls	r2, r1, #4
    3222:	e802 ef4c 			@ <UNDEFINED> instruction: 0xe802ef4c
    3226:	3462      	adds	r4, #98	@ 0x62
    3228:	008d      	lsls	r5, r1, #2
    322a:	461b      	mov	r3, r3
    322c:	f8d4 112f 	ldr.w	r1, [r4, #303]	@ 0x12f
    3230:	4355      	muls	r5, r2
    3232:	5102      	str	r2, [r0, r4]
    3234:	0436      	lsls	r6, r6, #16
    3236:	b980      	cbnz	r0, 0x325a
    3238:	2461      	movs	r4, #97	@ 0x61
    323a:	095a      	lsrs	r2, r3, #5
    323c:	def2      	udf	#242	@ 0xf2
    323e:	2dde      	cmp	r5, #222	@ 0xde
    3240:	8520      	strh	r0, [r4, #40]	@ 0x28
    3242:	000a      	movs	r2, r1
    3244:	0887      	lsrs	r7, r0, #2
    3246:	f77e 009c 			@ <UNDEFINED> instruction: 0xf77e009c
    324a:	dff1      	svc	241	@ 0xf1
    324c:	17fb      	asrs	r3, r7, #31
    324e:	d35f      	bcc.n	0x3310
    3250:	2d2e      	cmp	r5, #46	@ 0x2e
    3252:	e310      	b.n	0x3876
    3254:	70b6      	strb	r6, [r6, #2]
    3256:	4604      	mov	r4, r0
    3258:	08c0      	lsrs	r0, r0, #3
    325a:	6100      	str	r0, [r0, #16]
    325c:	c204      	stmia	r2!, {r2}
    325e:	d808      	bhi.n	0x3272
    3260:	990b      	ldr	r1, [sp, #44]	@ 0x2c
    3262:	40d9      	lsrs	r1, r3
    3264:	4380      	bics	r0, r0
    3266:	095a      	lsrs	r2, r3, #5
    3268:	def2      	udf	#242	@ 0xf2
    326a:	2dde      	cmp	r5, #222	@ 0xde
    326c:	8520      	strh	r0, [r4, #40]	@ 0x28
    326e:	e2ce      	b.n	0x380e
    3270:	8041      	strh	r1, [r0, #2]
    3272:	5a43      	ldrh	r3, [r0, r1]
    3274:	f209 dede 	bl	0xa0d034
    3278:	202d      	movs	r0, #45	@ 0x2d
    327a:	1f85      	subs	r5, r0, #6
    327c:	3804      	subs	r0, #4
    327e:	95a4      	str	r5, [sp, #656]	@ 0x290
    3280:	ef20 dded 	vsub.f32	<illegal reg q6.5>, q8, <illegal reg q14.5>
    3284:	5202      	strh	r2, [r0, r0]
    3286:	2ce8      	cmp	r4, #232	@ 0xe8
    3288:	49e2      	ldr	r1, [pc, #904]	@ (0x3614)
    328a:	4380      	bics	r0, r0
    328c:	1258      	asrs	r0, r3, #9
    328e:	052a      	lsls	r2, r5, #20
    3290:	afed      	add	r7, sp, #948	@ 0x3b4
    3292:	5244      	strh	r4, [r0, r1]
    3294:	4868      	ldr	r0, [pc, #416]	@ (0x3438)
    3296:	2580      	movs	r5, #128	@ 0x80
    3298:	04c4      	lsls	r4, r0, #19
    329a:	a438      	add	r4, pc, #224	@ (adr r4, 0x337c)
    329c:	2095      	movs	r0, #149	@ 0x95
    329e:	82ef      	strh	r7, [r5, #22]
    32a0:	cc21      	ldmia	r4!, {r0, r5}
    32a2:	2952      	cmp	r1, #82	@ 0x52
    32a4:	edec 02dd 	sfm	f0, 2, [ip, #884]!	@ 0x374
    32a8:	ea52 0f2c 	orrs.w	pc, r2, ip, asr #32
    32ac:	3804      	subs	r0, #4
    32ae:	95a4      	str	r5, [sp, #656]	@ 0x290
    32b0:	ef20 dded 	vsub.f32	<illegal reg q6.5>, q8, <illegal reg q14.5>
    32b4:	5202      	strh	r2, [r0, r0]
    32b6:	10a8      	asrs	r0, r5, #2
    32b8:	8870      	ldrh	r0, [r6, #2]
    32ba:	d010      	beq.n	0x32de
    32bc:	99e8      	ldr	r1, [sp, #928]	@ 0x3a0
    32be:	409a      	lsls	r2, r3
    32c0:	4380      	bics	r0, r0
    32c2:	095a      	lsrs	r2, r3, #5
    32c4:	def2      	udf	#242	@ 0xf2
    32c6:	2dde      	cmp	r5, #222	@ 0xde
    32c8:	8520      	strh	r0, [r4, #40]	@ 0x28
    32ca:	020a      	lsls	r2, r1, #8
    32cc:	0887      	lsrs	r7, r0, #2
    32ce:	7998      	ldrb	r0, [r3, #6]
    32d0:	3804      	subs	r0, #4
    32d2:	95a4      	str	r5, [sp, #656]	@ 0x290
    32d4:	ef20 dded 	vsub.f32	<illegal reg q6.5>, q8, <illegal reg q14.5>
    32d8:	5202      	strh	r2, [r0, r0]
    32da:	2ce8      	cmp	r4, #232	@ 0xe8
    32dc:	49e2      	ldr	r1, [pc, #904]	@ (0x3668)
    32de:	4380      	bics	r0, r0
    32e0:	1258      	asrs	r0, r3, #9
    32e2:	052a      	lsls	r2, r5, #20
    32e4:	afed      	add	r7, sp, #948	@ 0x3b4
    32e6:	5244      	strh	r4, [r0, r1]
    32e8:	4a68      	ldr	r2, [pc, #416]	@ (0x348c)
    32ea:	4780      	blx	r0
    32ec:	4380      	bics	r0, r0
    32ee:	095a      	lsrs	r2, r3, #5
    32f0:	2ef2      	cmp	r6, #242	@ 0xf2
    32f2:	c2b5      	stmia	r2!, {r0, r2, r4, r5, r7}
    32f4:	dedf      	udf	#223	@ 0xdf
    32f6:	202d      	movs	r0, #45	@ 0x2d
    32f8:	ce85      	ldmia	r6!, {r0, r2, r7}
    32fa:	41f2      	rors	r2, r6
    32fc:	4380      	bics	r0, r0
    32fe:	095a      	lsrs	r2, r3, #5
    3300:	def2      	udf	#242	@ 0xf2
    3302:	2dde      	cmp	r5, #222	@ 0xde
    3304:	8520      	strh	r0, [r4, #40]	@ 0x28
    3306:	000a      	movs	r2, r1
    3308:	0887      	lsrs	r7, r0, #2
    330a:	3d11      	subs	r5, #17
    330c:	17ee      	asrs	r6, r5, #31
    330e:	f35e 105d 			@ <UNDEFINED> instruction: 0xf35e105d
    3312:	f5cf f77f 	bl	0xff9d3214
    3316:	0a95      	lsrs	r5, r2, #10
    3318:	4700      	bx	r0
    331a:	cd32      	ldmia	r5, {r1, r4, r5}
    331c:	0436      	lsls	r6, r6, #16
    331e:	2900      	cmp	r1, #0
    3320:	6dd3      	ldr	r3, [r2, #92]	@ 0x5c
    3322:	1043      	asrs	r3, r0, #1
    3324:	39c0      	subs	r1, #192	@ 0xc0
    3326:	6dd3      	ldr	r3, [r2, #92]	@ 0x5c
    3328:	2043      	movs	r0, #67	@ 0x43
    332a:	3a10      	subs	r2, #16
    332c:	6dd3      	ldr	r3, [r2, #92]	@ 0x5c
    332e:	3043      	adds	r0, #67	@ 0x43
    3330:	3ef0      	subs	r6, #240	@ 0xf0
    3332:	4c99      	ldr	r4, [pc, #612]	@ (0x3598)
    3334:	1ec5      	subs	r5, r0, #3
    3336:	f0ff 1406 			@ <UNDEFINED> instruction: 0xf0ff1406
    333a:	a434      	add	r4, pc, #208	@ (adr r4, 0x340c)
    333c:	2010      	movs	r0, #16
    333e:	ce80      	ldmia	r6!, {r7}
    3340:	7ef2      	ldrb	r2, [r6, #27]
    3342:	d2ed      	bcs.n	0x3320
    3344:	ef02 347b 	vqshl.s8	<illegal reg q1.5>, <illegal reg q13.5>, q1
    3348:	2346      	movs	r3, #70	@ 0x46
    334a:	008d      	lsls	r5, r1, #2
    334c:	112a      	asrs	r2, r5, #4
    334e:	4385      	bics	r5, r0
    3350:	0400      	lsls	r0, r0, #16
    3352:	8438      	strh	r0, [r7, #32]
    3354:	a125      	add	r1, pc, #148	@ (adr r1, 0x33ec)
    3356:	d052      	beq.n	0x33fe
    3358:	4afe      	ldr	r2, [pc, #1016]	@ (0x3754)
    335a:	8524      	strh	r4, [r4, #40]	@ 0x28
    335c:	0786      	lsls	r6, r0, #30
    335e:	3445      	adds	r4, #69	@ 0x45
    3360:	3651      	adds	r6, #81	@ 0x51
    3362:	a014      	add	r0, pc, #80	@ (adr r0, 0x33b4)
    3364:	7000      	strb	r0, [r0, #0]
    3366:	9944      	ldr	r1, [sp, #272]	@ 0x110
    3368:	60e3      	str	r3, [r4, #12]
    336a:	5a44      	ldrh	r4, [r0, r1]
    336c:	f209 dede 	bl	0xa0d12c
    3370:	202d      	movs	r0, #45	@ 0x2d
    3372:	0e85      	lsrs	r5, r0, #26
    3374:	ffcc b8ff 			@ <UNDEFINED> instruction: 0xffccb8ff
    3378:	461d      	mov	r5, r3
    337a:	95a4      	str	r5, [sp, #656]	@ 0x290
    337c:	ef20 dded 	vsub.f32	<illegal reg q6.5>, q8, <illegal reg q14.5>
    3380:	5202      	strh	r2, [r0, r0]
    3382:	6868      	ldr	r0, [r5, #4]
    3384:	18d0      	adds	r0, r2, r3
    3386:	6680      	str	r0, [r0, #104]	@ 0x68
    3388:	5a44      	ldrh	r4, [r0, r1]
    338a:	f209 dede 	bl	0xa0d14a
    338e:	202d      	movs	r0, #45	@ 0x2d
    3390:	0a85      	lsrs	r5, r0, #10
    3392:	8700      	strh	r0, [r0, #56]	@ 0x38
    3394:	4606      	mov	r6, r0
    3396:	95a4      	str	r5, [sp, #656]	@ 0x290
    3398:	ef20 dded 	vsub.f32	<illegal reg q6.5>, q8, <illegal reg q14.5>
    339c:	5202      	strh	r2, [r0, r0]
    339e:	10a8      	asrs	r0, r5, #2
    33a0:	7870      	ldrb	r0, [r6, #1]
    33a2:	4460      	add	r0, ip
    33a4:	1258      	asrs	r0, r3, #9
    33a6:	052a      	lsls	r2, r5, #20
    33a8:	afed      	add	r7, sp, #948	@ 0x3b4
    33aa:	5244      	strh	r4, [r0, r1]
    33ac:	61e8      	str	r0, [r5, #28]
    33ae:	5a44      	ldrh	r4, [r0, r1]
    33b0:	f209 dede 	bl	0xa0d170
    33b4:	202d      	movs	r0, #45	@ 0x2d
    33b6:	ce85      	ldmia	r6!, {r0, r2, r7}
    33b8:	81f4      	strh	r4, [r6, #14]
    33ba:	6379      	str	r1, [r7, #52]	@ 0x34
    33bc:	5a44      	ldrh	r4, [r0, r1]
    33be:	f209 dede 	bl	0xa0d17e
    33c2:	202d      	movs	r0, #45	@ 0x2d
    33c4:	0a85      	lsrs	r5, r0, #10
    33c6:	8700      	strh	r0, [r0, #56]	@ 0x38
    33c8:	4607      	mov	r7, r0
    33ca:	95a4      	str	r5, [sp, #656]	@ 0x290
    33cc:	ef20 dded 	vsub.f32	<illegal reg q6.5>, q8, <illegal reg q14.5>
    33d0:	5202      	strh	r2, [r0, r0]
    33d2:	fc08 4cef 	vmmla.bf16	q2, q12, <illegal reg q15.5>
    33d6:	460f      	mov	r7, r1
    33d8:	1084      	asrs	r4, r0, #2
    33da:	460d      	mov	r5, r1
    33dc:	60c4      	str	r4, [r0, #12]
    33de:	1d92      	adds	r2, r2, #6
    33e0:	fef1 1012 	mrc2	0, 7, r1, cr1, cr2, {0}
    33e4:	0a36      	lsrs	r6, r6, #8
    33e6:	4700      	bx	r0
    33e8:	3984      	subs	r1, #132	@ 0x84
    33ea:	4462      	add	r2, ip
    33ec:	095a      	lsrs	r2, r3, #5
    33ee:	def2      	udf	#242	@ 0xf2
    33f0:	2dde      	cmp	r5, #222	@ 0xde
    33f2:	8520      	strh	r0, [r4, #40]	@ 0x28
    33f4:	000a      	movs	r2, r1
    33f6:	0887      	lsrs	r7, r0, #2
    33f8:	8446      	strh	r6, [r0, #34]	@ 0x22
    33fa:	0d10      	lsrs	r0, r2, #20
    33fc:	c446      	stmia	r4!, {r1, r2, r6}
    33fe:	8260      	strh	r0, [r4, #18]
    3400:	9d2d      	ldr	r5, [sp, #180]	@ 0xb4
    3402:	3b29      	subs	r3, #41	@ 0x29
    3404:	3850      	subs	r0, #80	@ 0x50
    3406:	9264      	str	r2, [sp, #400]	@ 0x190
    3408:	1cdc      	adds	r4, r3, #3
    340a:	3804      	subs	r0, #4
    340c:	95a4      	str	r5, [sp, #656]	@ 0x290
    340e:	ef20 dded 	vsub.f32	<illegal reg q6.5>, q8, <illegal reg q14.5>
    3412:	5202      	strh	r2, [r0, r0]
    3414:	7868      	ldrb	r0, [r5, #1]
    3416:	8d20      	ldrh	r0, [r4, #40]	@ 0x28
    3418:	6b01      	ldr	r1, [r0, #48]	@ 0x30
    341a:	4401      	add	r1, r0
    341c:	2003      	movs	r0, #3
    341e:	d833      	bhi.n	0x3488
    3420:	8040      	strh	r0, [r0, #2]
    3422:	5443      	strb	r3, [r0, r1]
    3424:	1134      	asrs	r4, r6, #4
    3426:	f758 4454 			@ <UNDEFINED> instruction: 0xf7584454
    342a:	a234      	add	r2, pc, #208	@ (adr r2, 0x34fc)
    342c:	d010      	beq.n	0x3450
    342e:	56e0      	ldrsb	r0, [r4, r3]
    3430:	00cc      	lsls	r4, r1, #3
    3432:	a900      	add	r1, sp, #0
    3434:	417d      	adcs	r5, r7
    3436:	4380      	bics	r0, r0
    3438:	095a      	lsrs	r2, r3, #5
    343a:	def2      	udf	#242	@ 0xf2
    343c:	2dde      	cmp	r5, #222	@ 0xde
    343e:	8520      	strh	r0, [r4, #40]	@ 0x28
    3440:	e4ce      	b.n	0x2de0
    3442:	06f0      	lsls	r0, r6, #27
    3444:	3804      	subs	r0, #4
    3446:	2584      	movs	r5, #132	@ 0x84
    3448:	52a1      	strh	r1, [r4, r2]
    344a:	fed0 244a 	cdp2	4, 13, cr2, cr0, cr10, {2}
    344e:	8685      	strh	r5, [r0, #52]	@ 0x34
    3450:	1404      	asrs	r4, r0, #16
    3452:	e434      	b.n	0x2cbe
    3454:	ef54 8047 	vhadd.s16	q12, q2, <illegal reg q3.5>
    3458:	5a43      	ldrh	r3, [r0, r1]
    345a:	f209 dede 	bl	0xa0d21a
    345e:	202d      	movs	r0, #45	@ 0x2d
    3460:	ce85      	ldmia	r6!, {r0, r2, r7}
    3462:	9e24      	ldr	r6, [sp, #144]	@ 0x90
    3464:	3804      	subs	r0, #4
    3466:	2584      	movs	r5, #132	@ 0x84
    3468:	52a1      	strh	r1, [r4, r2]
    346a:	fed0 244a 	cdp2	4, 13, cr2, cr0, cr10, {2}
    346e:	8685      	strh	r5, [r0, #52]	@ 0x34
    3470:	5804      	ldr	r4, [r0, r0]
    3472:	4c42      	ldr	r4, [pc, #264]	@ (0x357c)
    3474:	4380      	bics	r0, r0
    3476:	095a      	lsrs	r2, r3, #5
    3478:	2ef2      	cmp	r6, #242	@ 0xf2
    347a:	c218      	stmia	r2!, {r3, r4}
    347c:	952c      	str	r5, [sp, #176]	@ 0xb0
    347e:	dec2      	udf	#194	@ 0xc2
    3480:	2dde      	cmp	r5, #222	@ 0xde
    3482:	a520      	add	r5, pc, #128	@ (adr r5, 0x3504)
    3484:	f4ce 6510 			@ <UNDEFINED> instruction: 0xf4ce6510
    3488:	0243      	lsls	r3, r0, #9
    348a:	cf99      	ldmia	r7, {r0, r3, r4, r7}
    348c:	8040      	strh	r0, [r0, #2]
    348e:	5a43      	ldrh	r3, [r0, r1]
    3490:	f209 dede 	bl	0xa0d250
    3494:	202d      	movs	r0, #45	@ 0x2d
    3496:	ce85      	ldmia	r6!, {r0, r2, r7}
    3498:	f0e4 0406 			@ <UNDEFINED> instruction: 0xf0e40406
    349c:	8438      	strh	r0, [r7, #32]
    349e:	a125      	add	r1, pc, #148	@ (adr r1, 0x3534)
    34a0:	d052      	beq.n	0x3548
    34a2:	4afe      	ldr	r2, [pc, #1016]	@ (0x389c)
    34a4:	8524      	strh	r4, [r4, #40]	@ 0x28
    34a6:	04a6      	lsls	r6, r4, #18
    34a8:	3434      	adds	r4, #52	@ 0x34
    34aa:	8044      	strh	r4, [r0, #2]
    34ac:	5843      	ldr	r3, [r0, r1]
    34ae:	2a12      	cmp	r2, #18
    34b0:	ed05 44af 	cfstrs	mvf4, [r5, #-700]	@ 0xfffffd44
    34b4:	e852 e25c 			@ <UNDEFINED> instruction: 0xe852e25c
    34b8:	ada8      	add	r5, sp, #672	@ 0x2a0
    34ba:	7ef8      	ldrb	r0, [r7, #27]
    34bc:	3804      	subs	r0, #4
    34be:	95a4      	str	r5, [sp, #656]	@ 0x290
    34c0:	ef20 dded 	vsub.f32	<illegal reg q6.5>, q8, <illegal reg q14.5>
    34c4:	5202      	strh	r2, [r0, r0]
    34c6:	00a8      	lsls	r0, r5, #2
    34c8:	7870      	ldrb	r0, [r6, #1]
    34ca:	6510      	str	r0, [r2, #80]	@ 0x50
    34cc:	0243      	lsls	r3, r0, #9
    34ce:	4898      	ldr	r0, [pc, #608]	@ (0x3730)
    34d0:	3804      	subs	r0, #4
    34d2:	1084      	asrs	r4, r0, #2
    34d4:	500d      	str	r5, [r1, r0]
    34d6:	6438      	str	r0, [r7, #64]	@ 0x40
    34d8:	2c82      	cmp	r4, #130	@ 0x82
    34da:	8042      	strh	r2, [r0, #2]
    34dc:	5843      	ldr	r3, [r0, r1]
    34de:	2a12      	cmp	r2, #18
    34e0:	ed05 44af 	cfstrs	mvf4, [r5, #-700]	@ 0xfffffd44
    34e4:	6852      	ldr	r2, [r2, #4]
    34e6:	5078      	str	r0, [r7, r1]
    34e8:	8344      	strh	r4, [r0, #26]
    34ea:	1119      	asrs	r1, r3, #4
    34ec:	4365      	muls	r5, r4
    34ee:	fe03 6513 	mcr2	5, 0, r6, cr3, cr3, {0}
    34f2:	0343      	lsls	r3, r0, #13
    34f4:	6dd3      	ldr	r3, [r2, #92]	@ 0x5c
    34f6:	1043      	asrs	r3, r0, #1
    34f8:	e140      	b.n	0x377c
    34fa:	c199      	stmia	r1!, {r0, r3, r4, r7}
    34fc:	2ed1      	cmp	r6, #209	@ 0xd1
    34fe:	102d      	asrs	r5, r5, #32
    3500:	8c13      	ldrh	r3, [r2, #32]
    3502:	3470      	adds	r4, #112	@ 0x70
    3504:	c346      	stmia	r3!, {r1, r2, r6}
    3506:	f008 3460 	and.w	r4, r8, #1616928864	@ 0x60606060
    350a:	08c2      	lsrs	r2, r0, #3
    350c:	19e8      	adds	r0, r5, r7
    350e:	2998      	cmp	r1, #152	@ 0x98
    3510:	3804      	subs	r0, #4
    3512:	95a4      	str	r5, [sp, #656]	@ 0x290
    3514:	ef20 dded 	vsub.f32	<illegal reg q6.5>, q8, <illegal reg q14.5>
    3518:	5202      	strh	r2, [r0, r0]
    351a:	10a8      	asrs	r0, r5, #2
    351c:	8870      	ldrh	r0, [r6, #2]
    351e:	6510      	str	r0, [r2, #80]	@ 0x50
    3520:	0143      	lsls	r3, r0, #5
    3522:	7199      	strb	r1, [r3, #6]
    3524:	f011 9921 	b.w	0x81476a
    3528:	4167      	adcs	r7, r4
    352a:	4330      	orrs	r0, r6
    352c:	028d      	lsls	r5, r1, #10
    352e:	5111      	str	r1, [r2, r4]
    3530:	3433      	adds	r4, #51	@ 0x33
    3532:	4510      	cmp	r0, r2
    3534:	0243      	lsls	r3, r0, #9
    3536:	17ee      	asrs	r6, r5, #31
    3538:	4335      	orrs	r5, r6
    353a:	5102      	str	r2, [r0, r4]
    353c:	3434      	adds	r4, #52	@ 0x34
    353e:	00a0      	lsls	r0, r4, #2
    3540:	4470      	add	r0, lr
    3542:	f499 4460 	eors.w	r4, r9, #57344	@ 0xe000
    3546:	095a      	lsrs	r2, r3, #5
    3548:	def2      	udf	#242	@ 0xf2
    354a:	2dde      	cmp	r5, #222	@ 0xde
    354c:	8520      	strh	r0, [r4, #40]	@ 0x28
    354e:	e4ce      	b.n	0x2eee
    3550:	fcc0 9fff 	stc2l	15, cr9, [r0], {255}	@ 0xff
    3554:	082a      	lsrs	r2, r5, #32
    3556:	a446      	add	r4, pc, #280	@ (adr r4, 0x3670)
    3558:	2095      	movs	r0, #149	@ 0x95
    355a:	edef 02dd 	sfm	f0, 2, [pc, #884]!	@ 0x38d0
    355e:	e852 1e4c 			@ <UNDEFINED> instruction: 0xe8521e4c
    3562:	a446      	add	r4, pc, #280	@ (adr r4, 0x367c)
    3564:	2095      	movs	r0, #149	@ 0x95
    3566:	edef 02dd 	sfm	f0, 2, [pc, #884]!	@ 0x38dc
    356a:	f852 4461 	ldr.w	r4, [r2, <undefined>]
    356e:	095a      	lsrs	r2, r3, #5
    3570:	def2      	udf	#242	@ 0xf2
    3572:	2dde      	cmp	r5, #222	@ 0xde
    3574:	8520      	strh	r0, [r4, #40]	@ 0x28
    3576:	24ce      	movs	r4, #206	@ 0xce
    3578:	469e      	mov	lr, r3
    357a:	2584      	movs	r5, #132	@ 0x84
    357c:	52a1      	strh	r1, [r4, r2]
    357e:	fed0 244a 	cdp2	4, 13, cr2, cr0, cr10, {2}
    3582:	a685      	add	r6, pc, #532	@ (adr r6, 0x3798)
    3584:	7804      	ldrb	r4, [r0, #0]
    3586:	a446      	add	r4, pc, #280	@ (adr r4, 0x36a0)
    3588:	2095      	movs	r0, #149	@ 0x95
    358a:	52ef      	strh	r7, [r5, r3]
    358c:	fc2b dded 	vsdot.s8	<illegal reg q6.5>, <illegal reg q13.5>, <illegal reg q14.5>
    3590:	5202      	strh	r2, [r0, r0]
    3592:	2ce8      	cmp	r4, #232	@ 0xe8
    3594:	981f      	ldr	r0, [sp, #124]	@ 0x7c
    3596:	4647      	mov	r7, r8
    3598:	95a4      	str	r5, [sp, #656]	@ 0x290
    359a:	ef20 ffd0 	vrsqrts.f32	<illegal reg q7.5>, q8, q0
    359e:	dded      	ble.n	0x357c
    35a0:	5202      	strh	r2, [r0, r0]
    35a2:	61f8      	str	r0, [r7, #28]
    35a4:	5844      	ldr	r4, [r0, r1]
    35a6:	2a12      	cmp	r2, #18
    35a8:	ed05 44af 	cfstrs	mvf4, [r5, #-700]	@ 0xfffffd44
    35ac:	e852 4461 			@ <UNDEFINED> instruction: 0xe8524461
    35b0:	095a      	lsrs	r2, r3, #5
    35b2:	def2      	udf	#242	@ 0xf2
    35b4:	2dde      	cmp	r5, #222	@ 0xde
    35b6:	8520      	strh	r0, [r4, #40]	@ 0x28
    35b8:	f2ce 4461 	movt	r4, #58465	@ 0xe461
    35bc:	d108      	bne.n	0x35d0
    35be:	4460      	add	r0, ip
    35c0:	260c      	movs	r6, #12
    35c2:	00d9      	lsls	r1, r3, #3
    35c4:	0ecf      	lsrs	r7, r1, #27
    35c6:	f0ff 1406 			@ <UNDEFINED> instruction: 0xf0ff1406
    35ca:	a433      	add	r4, pc, #204	@ (adr r4, 0x3698)
    35cc:	2010      	movs	r0, #16
    35ce:	ce80      	ldmia	r6!, {r7}
    35d0:	7ef2      	ldrb	r2, [r6, #27]
    35d2:	d2ed      	bcs.n	0x35b0
    35d4:	ef02 d01b 	vqadd.s8	d13, d2, d11
    35d8:	fe16 9012 	mrc2	0, 0, r9, cr6, cr2, {0}
    35dc:	7e16      	ldrb	r6, [r2, #24]
    35de:	95e7      	str	r5, [sp, #924]	@ 0x39c
    35e0:	0bcf      	lsrs	r7, r1, #15
    35e2:	df10      	svc	16
    35e4:	00a8      	lsls	r0, r5, #2
    35e6:	2470      	movs	r4, #112	@ 0x70
    35e8:	7cd3      	ldrb	r3, [r2, #19]
    35ea:	0043      	lsls	r3, r0, #1
    35ec:	3410      	adds	r4, #16
    35ee:	37dd      	adds	r7, #221	@ 0xdd
    35f0:	0104      	lsls	r4, r0, #4
    35f2:	308c      	adds	r0, #140	@ 0x8c
    35f4:	37dd      	adds	r7, #221	@ 0xdd
    35f6:	0204      	lsls	r4, r0, #8
    35f8:	30d2      	adds	r0, #210	@ 0xd2
    35fa:	37dd      	adds	r7, #221	@ 0xdd
    35fc:	0304      	lsls	r4, r0, #12
    35fe:	3118      	adds	r1, #24
    3600:	37dd      	adds	r7, #221	@ 0xdd
    3602:	0404      	lsls	r4, r0, #16
    3604:	31a5      	adds	r1, #165	@ 0xa5
    3606:	37dd      	adds	r7, #221	@ 0xdd
    3608:	0504      	lsls	r4, r0, #20
    360a:	9224      	str	r2, [sp, #144]	@ 0x90
    360c:	2699      	movs	r6, #153	@ 0x99
    360e:	7950      	ldrb	r0, [r2, #5]
    3610:	8024      	strh	r4, [r4, #0]
    3612:	d40c      	bmi.n	0x362e
    3614:	2dae      	cmp	r5, #174	@ 0xae
    3616:	c010      	stmia	r0!, {r4}
    3618:	477c      	bxns	pc
    361a:	3463      	adds	r4, #99	@ 0x63
    361c:	008c      	lsls	r4, r1, #2
    361e:	460e      	mov	r6, r1
    3620:	8c23      	ldrh	r3, [r4, #32]
    3622:	3c80      	subs	r4, #128	@ 0x80
    3624:	6ee2      	ldr	r2, [r4, #108]	@ 0x6c
    3626:	3751      	adds	r7, #81	@ 0x51
    3628:	9014      	str	r0, [sp, #80]	@ 0x50
    362a:	22d9      	movs	r2, #217	@ 0xd9
    362c:	7904      	ldrb	r4, [r0, #4]
    362e:	1084      	asrs	r4, r0, #2
    3630:	990d      	ldr	r1, [sp, #52]	@ 0x34
    3632:	121e      	asrs	r6, r3, #8
    3634:	4355      	muls	r5, r2
    3636:	9900      	ldr	r1, [sp, #0]
    3638:	c212      	stmia	r2!, {r1, r4}
    363a:	ff2e 06f0 	vmin.u32	q0, q15, q8
    363e:	3314      	adds	r3, #20
    3640:	10a4      	asrs	r4, r4, #2
    3642:	8020      	strh	r0, [r4, #0]
    3644:	f2ce ed7e 	blx	0x2d2144
    3648:	02d2      	lsls	r2, r2, #11
    364a:	7bef      	ldrb	r7, [r5, #15]
    364c:	4634      	mov	r4, r6
    364e:	08d3      	lsrs	r3, r2, #3
    3650:	10c0      	asrs	r0, r0, #3
    3652:	4375      	muls	r5, r6
    3654:	9902      	ldr	r1, [sp, #8]
    3656:	41d6      	rors	r6, r2
    3658:	4790      	blx	r2
    365a:	d108      	bne.n	0x366e
    365c:	7510      	strb	r0, [r2, #20]
    365e:	0043      	lsls	r3, r0, #1
    3660:	c099      	stmia	r0!, {r0, r3, r4, r7}
    3662:	8ec1      	ldrh	r1, [r0, #54]	@ 0x36
    3664:	f0ff 1406 			@ <UNDEFINED> instruction: 0xf0ff1406
    3668:	a434      	add	r4, pc, #208	@ (adr r4, 0x373c)
    366a:	d070      	beq.n	0x374e
    366c:	47ce      			@ <UNDEFINED> instruction: 0x47ce
    366e:	7ef0      	ldrb	r0, [r6, #27]
    3670:	d2ed      	bcs.n	0x364e
    3672:	ef02 347b 	vqshl.s8	<illegal reg q1.5>, <illegal reg q13.5>, q1
    3676:	d346      	bcc.n	0x3706
    3678:	c008      	stmia	r0!, {r3}
    367a:	7510      	strb	r0, [r2, #20]
    367c:	0343      	lsls	r3, r0, #13
    367e:	8499      	strh	r1, [r3, #36]	@ 0x24
    3680:	9041      	str	r0, [sp, #260]	@ 0x104
    3682:	0847      	lsrs	r7, r0, #1
    3684:	10d1      	asrs	r1, r2, #3
    3686:	4375      	muls	r5, r6
    3688:	9900      	ldr	r1, [sp, #0]
    368a:	416e      	adcs	r6, r5
    368c:	4330      	orrs	r0, r6
    368e:	028d      	lsls	r5, r1, #10
    3690:	ec1a 1ff6 	ldc	15, cr1, [sl], {246}	@ 0xf6
    3694:	a06f      	add	r0, pc, #444	@ (adr r0, 0x3854)
    3696:	2020      	movs	r0, #32
    3698:	ce80      	ldmia	r6!, {r7}
    369a:	2ef4      	cmp	r6, #244	@ 0xf4
    369c:	1698      	asrs	r0, r3, #26
    369e:	f6ec 6f2f 			@ <UNDEFINED> instruction: 0xf6ec6f2f
    36a2:	20a0      	movs	r0, #160	@ 0xa0
    36a4:	8020      	strh	r0, [r4, #0]
    36a6:	f4ce 6e2e 			@ <UNDEFINED> instruction: 0xf4ce6e2e
    36aa:	4524      	cmp	r4, r4
    36ac:	0001      	movs	r1, r0
    36ae:	ec49 0ff4 	mcrr	15, 15, r0, r9, cr4
    36b2:	406f      	eors	r7, r5
    36b4:	4341      	muls	r1, r0
    36b6:	020a      	lsls	r2, r1, #8
    36b8:	e802 ef4c 			@ <UNDEFINED> instruction: 0xe802ef4c
    36bc:	2ed7      	cmp	r6, #215	@ 0xd7
    36be:	f02d 47be 	bic.w	r7, sp, #1593835520	@ 0x5f000000
    36c2:	3463      	adds	r4, #99	@ 0x63
    36c4:	008d      	lsls	r5, r1, #2
    36c6:	510c      	str	r4, [r1, r4]
    36c8:	4437      	add	r7, r6
    36ca:	b990      	cbnz	r0, 0x36f2
    36cc:	040e      	lsls	r6, r1, #16
    36ce:	8479      	strh	r1, [r7, #34]	@ 0x22
    36d0:	0d10      	lsrs	r0, r2, #20
    36d2:	3751      	adds	r7, #81	@ 0x51
    36d4:	9004      	str	r0, [sp, #16]
    36d6:	0d59      	lsrs	r1, r3, #21
    36d8:	3304      	adds	r3, #4
    36da:	28d4      	cmp	r0, #212	@ 0xd4
    36dc:	c1a0      	stmia	r1!, {r5, r7}
    36de:	ff4e 06f1 	vmin.u8	q8, q15, <illegal reg q8.5>
    36e2:	020a      	lsls	r2, r1, #8
    36e4:	e802 ef6c 			@ <UNDEFINED> instruction: 0xe802ef6c
    36e8:	6982      	ldr	r2, [r0, #24]
    36ea:	4ec1      	ldr	r6, [pc, #772]	@ (0x39f0)
    36ec:	f2ff 0a06 			@ <UNDEFINED> instruction: 0xf2ff0a06
    36f0:	0202      	lsls	r2, r0, #8
    36f2:	6ce8      	ldr	r0, [r5, #76]	@ 0x4c
    36f4:	c2ef      	stmia	r2!, {r0, r1, r2, r3, r5, r6, r7}
    36f6:	ff6e 06f0 	vmin.u32	q8, q15, q8
    36fa:	3414      	adds	r4, #20
    36fc:	20a4      	movs	r0, #164	@ 0xa4
    36fe:	8020      	strh	r0, [r4, #0]
    3700:	f6ce ed7e 	blx	0xffed2200
    3704:	02d2      	lsls	r2, r2, #11
    3706:	7bef      	ldrb	r7, [r5, #15]
    3708:	4634      	mov	r4, r6
    370a:	08d3      	lsrs	r3, r2, #3
    370c:	10b0      	asrs	r0, r6, #2
    370e:	4375      	muls	r5, r6
    3710:	9805      	ldr	r0, [sp, #20]
    3712:	045f      	lsls	r7, r3, #17
    3714:	8479      	strh	r1, [r7, #34]	@ 0x22
    3716:	0d10      	lsrs	r0, r2, #20
    3718:	3751      	adds	r7, #81	@ 0x51
    371a:	8004      	strh	r4, [r0, #0]
    371c:	c4a9      	stmia	r4!, {r0, r3, r5, r7}
    371e:	ff3e 06f0 	vmin.u<illegal width 64>	q0, q15, q8
    3722:	3314      	adds	r3, #20
    3724:	10a4      	asrs	r4, r4, #2
    3726:	8020      	strh	r0, [r4, #0]
    3728:	f2ce ed7e 	blx	0x2d2228
    372c:	02d2      	lsls	r2, r2, #11
    372e:	7bef      	ldrb	r7, [r5, #15]
    3730:	4634      	mov	r4, r6
    3732:	08d3      	lsrs	r3, r2, #3
    3734:	1090      	asrs	r0, r2, #2
    3736:	a120      	add	r1, pc, #128	@ (adr r1, 0x37b8)
    3738:	1198      	asrs	r0, r3, #6
    373a:	7904      	ldrb	r4, [r0, #4]
    373c:	1084      	asrs	r4, r0, #2
    373e:	510d      	str	r5, [r1, r4]
    3740:	0437      	lsls	r7, r6, #16
    3742:	8cf0      	ldrh	r0, [r6, #38]	@ 0x26
    3744:	f100 4cdf 	add.w	ip, r0, #1870659584	@ 0x6f800000
    3748:	4330      	orrs	r0, r6
    374a:	028d      	lsls	r5, r1, #10
    374c:	ec1a 1ff6 	ldc	15, cr1, [sl], {246}	@ 0xf6
    3750:	a06f      	add	r0, pc, #444	@ (adr r0, 0x3910)
    3752:	2020      	movs	r0, #32
    3754:	ce80      	ldmia	r6!, {r7}
    3756:	2ef2      	cmp	r6, #242	@ 0xf2
    3758:	1698      	asrs	r0, r3, #26
    375a:	f6ec 6f2f 			@ <UNDEFINED> instruction: 0xf6ec6f2f
    375e:	20a0      	movs	r0, #160	@ 0xa0
    3760:	8020      	strh	r0, [r4, #0]
    3762:	f2ce 6e2e 	movt	lr, #58926	@ 0xe62e
    3766:	4cc2      	ldr	r4, [pc, #776]	@ (0x3a70)
    3768:	803d      	strh	r5, [r7, #0]
    376a:	122c      	asrs	r4, r5, #8
    376c:	4355      	muls	r5, r2
    376e:	5103      	str	r3, [r0, r4]
    3770:	0437      	lsls	r7, r6, #16
    3772:	9510      	str	r5, [sp, #64]	@ 0x40
    3774:	0047      	lsls	r7, r0, #1
    3776:	3404      	adds	r4, #4
    3778:	c054      	stmia	r0!, {r2, r4, r6}
    377a:	fe2d 5513 	mcr2	5, 1, r5, cr13, cr3, {0}
    377e:	0043      	lsls	r3, r0, #1
    3780:	04df      	lsls	r7, r3, #19
    3782:	dff1      	svc	241	@ 0xf1
    3784:	0ec9      	lsrs	r1, r1, #27
    3786:	f1ff 0a06 			@ <UNDEFINED> instruction: 0xf1ff0a06
    378a:	0201      	lsls	r1, r0, #8
    378c:	2ce8      	cmp	r4, #232	@ 0xe8
    378e:	c2ef      	stmia	r2!, {r0, r1, r2, r3, r5, r6, r7}
    3790:	ff0e 06f2 	vmin.u8	q0, q15, q9
    3794:	010a      	lsls	r2, r1, #4
    3796:	e802 ef3c 			@ <UNDEFINED> instruction: 0xe802ef3c
    379a:	3ec2      	subs	r6, #194	@ 0xc2
    379c:	f1ff 0a06 			@ <UNDEFINED> instruction: 0xf1ff0a06
    37a0:	0201      	lsls	r1, r0, #8
    37a2:	4ce8      	ldr	r4, [pc, #928]	@ (0x3b44)
    37a4:	c2ef      	stmia	r2!, {r0, r1, r2, r3, r5, r6, r7}
    37a6:	ff3e 06f2 	vmin.u<illegal width 64>	q0, q15, q9
    37aa:	010a      	lsls	r2, r1, #4
    37ac:	e802 ef5c 			@ <UNDEFINED> instruction: 0xe802ef5c
    37b0:	2462      	movs	r4, #98	@ 0x62
    37b2:	008d      	lsls	r5, r1, #2
    37b4:	0a7e      	lsrs	r6, r7, #9
    37b6:	4702      	bx	r0
    37b8:	3466      	adds	r4, #102	@ 0x66
    37ba:	008d      	lsls	r5, r1, #2
    37bc:	d35c      	bcc.n	0x3878
    37be:	47ae      			@ <UNDEFINED> instruction: 0x47ae
    37c0:	9010      	str	r0, [sp, #64]	@ 0x40
    37c2:	ed32 047b 	cfldrs	mvf0, [r2, #-492]!	@ 0xfffffe14
    37c6:	0c01      	lsrs	r1, r0, #16
    37c8:	3351      	adds	r3, #81	@ 0x51
    37ca:	9ff4      	ldr	r7, [sp, #976]	@ 0x3d0
    37cc:	0839      	lsrs	r1, r7, #32
    37ce:	3351      	adds	r3, #81	@ 0x51
    37d0:	1024      	asrs	r4, r4, #32
    37d2:	4345      	muls	r5, r0
    37d4:	9803      	ldr	r0, [sp, #12]
    37d6:	d371      	bcc.n	0x38bc
    37d8:	47be      			@ <UNDEFINED> instruction: 0x47be
    37da:	2010      	movs	r0, #16
    37dc:	3511      	adds	r5, #17
    37de:	0343      	lsls	r3, r0, #13
    37e0:	3451      	adds	r4, #81	@ 0x51
    37e2:	8024      	strh	r4, [r4, #0]
    37e4:	1549      	asrs	r1, r1, #21
    37e6:	4335      	orrs	r5, r6
    37e8:	98ff      	ldr	r0, [sp, #1020]	@ 0x3fc
    37ea:	5149      	str	r1, [r1, r5]
    37ec:	2433      	movs	r4, #51	@ 0x33
    37ee:	4510      	cmp	r0, r2
    37f0:	0343      	lsls	r3, r0, #13
    37f2:	3798      	adds	r7, #152	@ 0x98
    37f4:	d346      	bcc.n	0x3884
    37f6:	9008      	str	r0, [sp, #32]
    37f8:	20a1      	movs	r0, #161	@ 0xa1
    37fa:	6470      	str	r0, [r6, #68]	@ 0x44
    37fc:	3351      	adds	r3, #81	@ 0x51
    37fe:	1034      	asrs	r4, r6, #32
    3800:	4345      	muls	r5, r0
    3802:	9802      	ldr	r0, [sp, #8]
    3804:	0a15      	lsrs	r5, r2, #8
    3806:	4701      	bx	r0
    3808:	3516      	adds	r5, #22
    380a:	0243      	lsls	r3, r0, #9
    380c:	3451      	adds	r4, #81	@ 0x51
    380e:	4034      	ands	r4, r6
    3810:	4330      	orrs	r0, r6
    3812:	f8d2 082f 	ldr.w	r0, [r2, #2095]	@ 0x82f
    3816:	d446      	bmi.n	0x38a6
    3818:	d008      	beq.n	0x382c
    381a:	5462      	strb	r2, [r4, r1]
    381c:	ff8d 5112 	vsra.u8	d5, d2, #3
    3820:	3433      	adds	r4, #51	@ 0x33
    3822:	4510      	cmp	r0, r2
    3824:	0243      	lsls	r3, r0, #9
    3826:	5e98      	ldrsh	r0, [r3, r2]
    3828:	3351      	adds	r3, #81	@ 0x51
    382a:	1024      	asrs	r4, r4, #32
    382c:	4345      	muls	r5, r0
    382e:	9803      	ldr	r0, [sp, #12]
    3830:	464c      	mov	r4, r9
    3832:	f8d4 112f 	ldr.w	r1, [r4, #303]	@ 0x12f
    3836:	4335      	orrs	r5, r6
    3838:	5102      	str	r2, [r0, r4]
    383a:	3434      	adds	r4, #52	@ 0x34
    383c:	1980      	adds	r0, r0, r6
    383e:	5463      	strb	r3, [r4, r1]
    3840:	008c      	lsls	r4, r1, #2
    3842:	4609      	mov	r1, r1
    3844:	f8d5 111f 	ldr.w	r1, [r5, #287]	@ 0x11f
    3848:	4335      	orrs	r5, r6
    384a:	5103      	str	r3, [r0, r4]
    384c:	2434      	movs	r4, #52	@ 0x34
    384e:	7ee0      	ldrb	r0, [r4, #27]
    3850:	3351      	adds	r3, #81	@ 0x51
    3852:	1024      	asrs	r4, r4, #32
    3854:	4345      	muls	r5, r0
    3856:	4603      	mov	r3, r0
    3858:	7df6      	ldrb	r6, [r6, #23]
    385a:	df10      	svc	16
    385c:	67f8      	str	r0, [r7, #124]	@ 0x7c
    385e:	00c0      	lsls	r0, r0, #3
    3860:	a46f      	add	r4, pc, #444	@ (adr r4, 0x3a20)
    3862:	7000      	strb	r0, [r0, #0]
    3864:	ec24 0ff4 	vstr	<invalid reg 0>, [r4], #-464	@ 0xfffffe30
    3868:	a06f      	add	r0, pc, #444	@ (adr r0, 0x3a28)
    386a:	a020      	add	r0, pc, #128	@ (adr r0, 0x38ec)
    386c:	2025      	movs	r0, #37	@ 0x25
    386e:	ce80      	ldmia	r6!, {r7}
    3870:	7ef4      	ldrb	r4, [r6, #27]
    3872:	d2ed      	bcs.n	0x3850
    3874:	ef02 6ecb 	vceq.f32	q3, q9, <illegal reg q5.5>
    3878:	f0ff 0a06 			@ <UNDEFINED> instruction: 0xf0ff0a06
    387c:	5a02      	ldrh	r2, [r0, r0]
    387e:	0202      	lsls	r2, r0, #8
    3880:	4ce8      	ldr	r4, [pc, #928]	@ (0x3c24)
    3882:	d7ef      	bvc.n	0x3864
    3884:	2d2e      	cmp	r5, #46	@ 0x2e
    3886:	bef0      	bkpt	0x00f0
    3888:	f4ec 6f0f 			@ <UNDEFINED> instruction: 0xf4ec6f0f
    388c:	20a0      	movs	r0, #160	@ 0xa0
    388e:	35a0      	adds	r5, #160	@ 0xa0
    3890:	8020      	strh	r0, [r4, #0]
    3892:	f4ce ed7e 	blx	0xffcd2390
    3896:	02d2      	lsls	r2, r2, #11
    3898:	cbef      	ldmia	r3, {r0, r1, r2, r3, r5, r6, r7}
    389a:	ff6e 06f0 	vmin.u32	q8, q15, q8
    389e:	020a      	lsls	r2, r1, #8
    38a0:	035a      	lsls	r2, r3, #13
    38a2:	e802 ef4c 			@ <UNDEFINED> instruction: 0xe802ef4c
    38a6:	2ed7      	cmp	r6, #215	@ 0xd7
    38a8:	f02d ecbe 	blx	0x31228
    38ac:	0ff2      	lsrs	r2, r6, #31
    38ae:	a06f      	add	r0, pc, #444	@ (adr r0, 0x3a6c)
    38b0:	a010      	add	r0, pc, #64	@ (adr r0, 0x38f4)
    38b2:	2025      	movs	r0, #37	@ 0x25
    38b4:	ce80      	ldmia	r6!, {r7}
    38b6:	7ef2      	ldrb	r2, [r6, #27]
    38b8:	d2ed      	bcs.n	0x3896
    38ba:	ef02 3ecb 	vceq.f32	<illegal reg q1.5>, q9, <illegal reg q5.5>
    38be:	f0ff 0a06 			@ <UNDEFINED> instruction: 0xf0ff0a06
    38c2:	5a01      	ldrh	r1, [r0, r0]
    38c4:	0202      	lsls	r2, r0, #8
    38c6:	2ce8      	cmp	r4, #232	@ 0xe8
    38c8:	d7ef      	bvc.n	0x38aa
    38ca:	2d2e      	cmp	r5, #46	@ 0x2e
    38cc:	bef0      	bkpt	0x00f0
    38ce:	f0ec 6f0f 			@ <UNDEFINED> instruction: 0xf0ec6f0f
    38d2:	10a0      	asrs	r0, r4, #2
    38d4:	25a0      	movs	r5, #160	@ 0xa0
    38d6:	8020      	strh	r0, [r4, #0]
    38d8:	f2ce ed7e 	blx	0x2d23d8
    38dc:	02d2      	lsls	r2, r2, #11
    38de:	abef      	add	r3, sp, #956	@ 0x3bc
    38e0:	7000      	strb	r0, [r0, #0]
    38e2:	9834      	ldr	r0, [sp, #208]	@ 0xd0
    38e4:	464f      	mov	r7, r9
    38e6:	95a3      	str	r5, [sp, #652]	@ 0x28c
    38e8:	ef20 ffd0 	vrsqrts.f32	<illegal reg q7.5>, q8, q0
    38ec:	dded      	ble.n	0x38ca
    38ee:	5202      	strh	r2, [r0, r0]
    38f0:	61f8      	str	r0, [r7, #28]
    38f2:	5834      	ldr	r4, [r6, r0]
    38f4:	2a12      	cmp	r2, #18
    38f6:	ed05 44af 	cfstrs	mvf4, [r5, #-700]	@ 0xfffffd44
    38fa:	e852 3461 			@ <UNDEFINED> instruction: 0xe8523461
    38fe:	095a      	lsrs	r2, r3, #5
    3900:	def2      	udf	#242	@ 0xf2
    3902:	2dde      	cmp	r5, #222	@ 0xde
    3904:	8520      	strh	r0, [r4, #40]	@ 0x28
    3906:	f2ce 3461 	movt	r4, #58209	@ 0xe361
    390a:	d108      	bne.n	0x391e
    390c:	3460      	adds	r4, #96	@ 0x60
    390e:	260c      	movs	r6, #12
    3910:	a6d8      	add	r6, pc, #864	@ (adr r6, 0x3c74)
    3912:	f67e 008c 			@ <UNDEFINED> instruction: 0xf67e008c
    3916:	cff1      	ldmia	r7, {r0, r4, r5, r6, r7}
    3918:	7ff2      	ldrb	r2, [r6, #31]
    391a:	304c      	adds	r0, #76	@ 0x4c
    391c:	8d43      	ldrh	r3, [r0, #42]	@ 0x2a
    391e:	1602      	asrs	r2, r0, #24
    3920:	00ec      	lsls	r4, r5, #3
    3922:	6f10      	ldr	r0, [r2, #112]	@ 0x70
    3924:	0ec4      	lsrs	r4, r0, #27
    3926:	f200 9866 	b.w	0xa039f6
    392a:	ec12 2000 	ldc	0, cr2, [r2], {-0}
    392e:	c46f      	stmia	r4!, {r0, r1, r2, r3, r5, r6}
    3930:	000e      	movs	r6, r1
    3932:	66f1      	str	r1, [r6, #108]	@ 0x6c
    3934:	146e      	asrs	r6, r5, #17
    3936:	1f38      	subs	r0, r7, #4
    3938:	f0f9 0a06 			@ <UNDEFINED> instruction: 0xf0f90a06
    393c:	0201      	lsls	r1, r0, #8
    393e:	2ce8      	cmp	r4, #232	@ 0xe8
    3940:	e2ef      	b.n	0x3f22
    3942:	8166      	strh	r6, [r4, #10]
    3944:	91f1      	str	r1, [sp, #964]	@ 0x3c4
    3946:	6f0f      	ldr	r7, [r1, #112]	@ 0x70
    3948:	10a0      	asrs	r0, r4, #2
    394a:	8020      	strh	r0, [r4, #0]
    394c:	f3ce 6e2e 			@ <UNDEFINED> instruction: 0xf3ce6e2e
    3950:	4814      	ldr	r0, [pc, #80]	@ (0x39a4)
    3952:	f91f 06f0 	ldrsb.w	r0, [pc, #-1776]	@ 0x3264
    3956:	020a      	lsls	r2, r1, #8
    3958:	2802      	cmp	r0, #2
    395a:	08ce      	lsrs	r6, r1, #3
    395c:	e2ef      	b.n	0x3f3e
    395e:	8166      	strh	r6, [r4, #10]
    3960:	91f6      	str	r1, [sp, #984]	@ 0x3d8
    3962:	6f0f      	ldr	r7, [r1, #112]	@ 0x70
    3964:	20a0      	movs	r0, #160	@ 0xa0
    3966:	8020      	strh	r0, [r4, #0]
    3968:	ace2      	add	r4, sp, #904	@ 0x388
    396a:	2ef0      	cmp	r6, #240	@ 0xf0
    396c:	d246      	bcs.n	0x39fc
    396e:	3008      	adds	r0, #8
    3970:	3464      	adds	r4, #100	@ 0x64
    3972:	ff8d 043a 	vsri.8	d0, d26, #3
    3976:	d433      	bmi.n	0x39e0
    3978:	b028      	add	sp, #160	@ 0xa0
    397a:	ed30 047b 	cfldrs	mvf0, [r0, #-492]!	@ 0xfffffe14
    397e:	2401      	movs	r4, #1
    3980:	3304      	adds	r3, #4
    3982:	38d4      	subs	r0, #212	@ 0xd4
    3984:	30b0      	adds	r0, #176	@ 0xb0
    3986:	7aed      	ldrb	r5, [r5, #11]
    3988:	0104      	lsls	r4, r0, #4
    398a:	6e0e      	ldr	r6, [r1, #96]	@ 0x60
    398c:	87ea      	strh	r2, [r5, #62]	@ 0x3e
    398e:	2682      	movs	r6, #130	@ 0x82
    3990:	0532      	lsls	r2, r6, #20
    3992:	0911      	lsrs	r1, r2, #4
    3994:	a010      	add	r0, pc, #64	@ (adr r0, 0x39d8)
    3996:	110e      	asrs	r6, r1, #4
    3998:	e316      	b.n	0x3fc8
    399a:	cfc7      	ldmia	r7, {r0, r1, r2, r6, r7}
    399c:	100e      	asrs	r6, r1, #32
    399e:	f7cf 000a 			@ <UNDEFINED> instruction: 0xf7cf000a
    39a2:	4247      	negs	r7, r0
    39a4:	4340      	muls	r0, r0
    39a6:	dc05      	bgt.n	0x39b4
    39a8:	3042      	adds	r0, #66	@ 0x42
    39aa:	8d43      	ldrh	r3, [r0, #42]	@ 0x2a
    39ac:	3002      	adds	r0, #2
    39ae:	f6ec 6f1f 			@ <UNDEFINED> instruction: 0xf6ec6f1f
    39b2:	20a0      	movs	r0, #160	@ 0xa0
    39b4:	8020      	strh	r0, [r4, #0]
    39b6:	f5ce ec2e 	blx	0xffdd2214
    39ba:	1ff4      	subs	r4, r6, #7
    39bc:	a06f      	add	r0, pc, #444	@ (adr r0, 0x3b7c)
    39be:	2020      	movs	r0, #32
    39c0:	ce80      	ldmia	r6!, {r7}
    39c2:	2ef7      	cmp	r6, #247	@ 0xf7
    39c4:	2c98      	cmp	r4, #152	@ 0x98
    39c6:	f6ec 6f2f 			@ <UNDEFINED> instruction: 0xf6ec6f2f
    39ca:	20a0      	movs	r0, #160	@ 0xa0
    39cc:	8020      	strh	r0, [r4, #0]
    39ce:	f5ce ec2e 	blx	0xffdd222c
    39d2:	2ff4      	cmp	r7, #244	@ 0xf4
    39d4:	a06f      	add	r0, pc, #444	@ (adr r0, 0x3b94)
    39d6:	2020      	movs	r0, #32
    39d8:	ce80      	ldmia	r6!, {r7}
    39da:	2ef7      	cmp	r6, #247	@ 0xf7
    39dc:	c56e      	stmia	r5!, {r1, r2, r3, r5, r6}
    39de:	3d4c      	subs	r5, #76	@ 0x4c
    39e0:	5c90      	ldrb	r0, [r2, r2]
    39e2:	0a13      	lsrs	r3, r2, #8
    39e4:	4700      	bx	r0
    39e6:	d993      	bls.n	0x3910
    39e8:	ed11 02da 	lfm	f0, 4, [r1, #-872]	@ 0xfffffc98
    39ec:	b411      	push	{r0, r4}
    39ee:	4473      	add	r3, lr
    39f0:	2446      	movs	r4, #70	@ 0x46
    39f2:	008d      	lsls	r5, r1, #2
    39f4:	c0fc      	stmia	r0!, {r2, r3, r4, r5, r6, r7}
    39f6:	ff2e 06f0 	vmin.u32	q0, q15, q8
    39fa:	3314      	adds	r3, #20
    39fc:	10a4      	asrs	r4, r4, #2
    39fe:	8020      	strh	r0, [r4, #0]
    3a00:	f2ce ed7e 	blx	0x2d2500
    3a04:	02d2      	lsls	r2, r2, #11
    3a06:	7bef      	ldrb	r7, [r5, #15]
    3a08:	4644      	mov	r4, r8
    3a0a:	08d4      	lsrs	r4, r2, #3
    3a0c:	c270      	stmia	r2!, {r4, r5, r6}
    3a0e:	ff8e 06f0 	vqshlu.s64	q0, q8, #14
    3a12:	3414      	adds	r4, #20
    3a14:	70a4      	strb	r4, [r4, #2]
    3a16:	ced0      	ldmia	r6, {r4, r6, r7}
    3a18:	f047 ed7e 	blx	0x4b518
    3a1c:	02d2      	lsls	r2, r2, #11
    3a1e:	7bef      	ldrb	r7, [r5, #15]
    3a20:	4644      	mov	r4, r8
    3a22:	08d4      	lsrs	r4, r2, #3
    3a24:	e330      	b.n	0x4088
    3a26:	5256      	strh	r6, [r2, r1]
    3a28:	0014      	movs	r4, r2
    3a2a:	c490      	stmia	r4!, {r4, r7}
    3a2c:	ff4e 06f0 	vmin.u8	q8, q15, q8
    3a30:	3414      	adds	r4, #20
    3a32:	20a4      	movs	r0, #164	@ 0xa4
    3a34:	8020      	strh	r0, [r4, #0]
    3a36:	f5ce ed7e 	blx	0xffdd2534
    3a3a:	02d2      	lsls	r2, r2, #11
    3a3c:	7bef      	ldrb	r7, [r5, #15]
    3a3e:	4644      	mov	r4, r8
    3a40:	08d4      	lsrs	r4, r2, #3
    3a42:	c270      	stmia	r2!, {r4, r5, r6}
    3a44:	ff6e 06f0 	vmin.u32	q8, q15, q8
    3a48:	3414      	adds	r4, #20
    3a4a:	20a4      	movs	r0, #164	@ 0xa4
    3a4c:	8020      	strh	r0, [r4, #0]
    3a4e:	f7ce ed7e 	blx	0xfffd254c
    3a52:	02d2      	lsls	r2, r2, #11
    3a54:	7bef      	ldrb	r7, [r5, #15]
    3a56:	4644      	mov	r4, r8
    3a58:	08d4      	lsrs	r4, r2, #3
    3a5a:	c270      	stmia	r2!, {r4, r5, r6}
    3a5c:	ff3e 06f0 	vmin.u<illegal width 64>	q0, q15, q8
    3a60:	3314      	adds	r3, #20
    3a62:	10a4      	asrs	r4, r4, #2
    3a64:	8020      	strh	r0, [r4, #0]
    3a66:	f2ce ed7e 	blx	0x2d2564
    3a6a:	02d2      	lsls	r2, r2, #11
    3a6c:	7bef      	ldrb	r7, [r5, #15]
    3a6e:	4644      	mov	r4, r8
    3a70:	08c4      	lsrs	r4, r0, #3
    3a72:	6140      	str	r0, [r0, #20]
    3a74:	0834      	lsrs	r4, r6, #32
    3a76:	60d1      	str	r1, [r2, #12]
    3a78:	0c34      	lsrs	r4, r6, #16
    3a7a:	d902      	bls.n	0x3a82
    3a7c:	fed7 009c 	mrc2	0, 6, r0, cr7, cr12, {4}
    3a80:	cff1      	ldmia	r7, {r0, r4, r5, r6, r7}
    3a82:	7ff6      	ldrb	r6, [r6, #31]
    3a84:	3048      	adds	r0, #72	@ 0x48
    3a86:	8d43      	ldrh	r3, [r0, #42]	@ 0x2a
    3a88:	0c02      	lsrs	r2, r0, #16
    3a8a:	00ec      	lsls	r4, r5, #3
    3a8c:	6f10      	ldr	r0, [r2, #112]	@ 0x70
    3a8e:	4fe4      	ldr	r7, [pc, #912]	@ (0x3e20)
    3a90:	00ec      	lsls	r4, r5, #3
    3a92:	6f20      	ldr	r0, [r4, #112]	@ 0x70
    3a94:	00a4      	lsls	r4, r4, #2
    3a96:	2470      	movs	r4, #112	@ 0x70
    3a98:	b699      			@ <UNDEFINED> instruction: 0xb699
    3a9a:	2461      	movs	r4, #97	@ 0x61
    3a9c:	1258      	asrs	r0, r3, #9
    3a9e:	052a      	lsls	r2, r5, #20
    3aa0:	afed      	add	r7, sp, #948	@ 0x3b4
    3aa2:	5244      	strh	r4, [r0, r1]
    3aa4:	f0e8 4666 			@ <UNDEFINED> instruction: 0xf0e84666
    3aa8:	95a2      	str	r5, [sp, #648]	@ 0x288
    3aaa:	ef20 ffd0 	vrsqrts.f32	<illegal reg q7.5>, q8, q0
    3aae:	dded      	ble.n	0x3a8c
    3ab0:	5202      	strh	r2, [r0, r0]
    3ab2:	91f8      	str	r1, [sp, #992]	@ 0x3e0
    3ab4:	0c59      	lsrs	r1, r3, #17
    3ab6:	e66e      	b.n	0x3796
    3ab8:	6347      	str	r7, [r0, #52]	@ 0x34
    3aba:	d638      	bvs.n	0x3b2e
    3abc:	606f      	str	r7, [r5, #4]
    3abe:	5824      	ldr	r4, [r4, r0]
    3ac0:	2a12      	cmp	r2, #18
    3ac2:	ed05 44af 	cfstrs	mvf4, [r5, #-700]	@ 0xfffffd44
    3ac6:	6852      	ldr	r2, [r2, #4]
    3ac8:	d048      	beq.n	0x3b5c
    3aca:	439e      	bics	r6, r3
    3acc:	2ef0      	cmp	r6, #240	@ 0xf0
    3ace:	8246      	strh	r6, [r0, #18]
    3ad0:	a125      	add	r1, pc, #148	@ (adr r1, 0x3b68)
    3ad2:	d052      	beq.n	0x3b7a
    3ad4:	4afe      	ldr	r2, [pc, #1016]	@ (0x3ed0)
    3ad6:	8524      	strh	r4, [r4, #40]	@ 0x28
    3ad8:	0486      	lsls	r6, r0, #18
    3ada:	39ed      	subs	r1, #237	@ 0xed
    3adc:	1104      	asrs	r4, r0, #4
    3ade:	718e      	strb	r6, [r1, #6]
    3ae0:	4634      	mov	r4, r6
    3ae2:	18d3      	adds	r3, r2, r3
    3ae4:	61c0      	str	r0, [r0, #28]
    3ae6:	5a24      	ldrh	r4, [r4, r0]
    3ae8:	f209 67ee 	addw	r7, r9, #1774	@ 0x6ee
    3aec:	dded      	ble.n	0x3aca
    3aee:	5202      	strh	r2, [r0, r0]
    3af0:	81f8      	strh	r0, [r7, #14]
    3af2:	6289      	str	r1, [r1, #40]	@ 0x28
    3af4:	8d34      	ldrh	r4, [r6, #40]	@ 0x28
    3af6:	1f00      	subs	r0, r0, #4
    3af8:	a246      	add	r2, pc, #280	@ (adr r2, 0x3c14)
    3afa:	2095      	movs	r0, #149	@ 0x95
    3afc:	edef 02dd 	sfm	f0, 2, [pc, #884]!	@ 0x3e74
    3b00:	e852 ce66 			@ <UNDEFINED> instruction: 0xe852ce66
    3b04:	80f2      	strh	r2, [r6, #6]
    3b06:	66e9      	str	r1, [r5, #108]	@ 0x6c
    3b08:	5824      	ldr	r4, [r4, r0]
    3b0a:	2a12      	cmp	r2, #18
    3b0c:	ed05 44af 	cfstrs	mvf4, [r5, #-700]	@ 0xfffffd44
    3b10:	6852      	ldr	r2, [r2, #4]
    3b12:	8048      	strh	r0, [r1, #2]
    3b14:	67e5      	str	r5, [r4, #124]	@ 0x7c
    3b16:	9152      	str	r1, [sp, #328]	@ 0x148
    3b18:	2465      	movs	r4, #101	@ 0x65
    3b1a:	1258      	asrs	r0, r3, #9
    3b1c:	052a      	lsls	r2, r5, #20
    3b1e:	afed      	add	r7, sp, #948	@ 0x3b4
    3b20:	5244      	strh	r4, [r0, r1]
    3b22:	2ce8      	cmp	r4, #232	@ 0xe8
    3b24:	461e      	mov	r6, r3
    3b26:	2582      	movs	r5, #130	@ 0x82
    3b28:	52a1      	strh	r1, [r4, r2]
    3b2a:	fed0 244a 	cdp2	4, 13, cr2, cr0, cr10, {2}
    3b2e:	8685      	strh	r5, [r0, #52]	@ 0x34
    3b30:	5804      	ldr	r4, [r0, r0]
    3b32:	2142      	movs	r1, #66	@ 0x42
    3b34:	5228      	strh	r0, [r5, r0]
    3b36:	0014      	movs	r4, r2
    3b38:	67e0      	str	r0, [r4, #124]	@ 0x7c
    3b3a:	2582      	movs	r5, #130	@ 0x82
    3b3c:	ef33 246e 	vshl.s64	q1, q15, <illegal reg q1.5>
    3b40:	1258      	asrs	r0, r3, #9
    3b42:	052a      	lsls	r2, r5, #20
    3b44:	afed      	add	r7, sp, #948	@ 0x3b4
    3b46:	5244      	strh	r4, [r0, r1]
    3b48:	2ce8      	cmp	r4, #232	@ 0xe8
    3b4a:	461e      	mov	r6, r3
    3b4c:	2582      	movs	r5, #130	@ 0x82
    3b4e:	52a1      	strh	r1, [r4, r2]
    3b50:	fed0 244a 	cdp2	4, 13, cr2, cr0, cr10, {2}
    3b54:	8685      	strh	r5, [r0, #52]	@ 0x34
    3b56:	5804      	ldr	r4, [r0, r0]
    3b58:	2142      	movs	r1, #66	@ 0x42
    3b5a:	5228      	strh	r0, [r5, r0]
    3b5c:	0014      	movs	r4, r2
    3b5e:	67e0      	str	r0, [r4, #124]	@ 0x7c
    3b60:	2582      	movs	r5, #130	@ 0x82
    3b62:	1b32      	subs	r2, r6, r4
    3b64:	a246      	add	r2, pc, #280	@ (adr r2, 0x3c80)
    3b66:	2095      	movs	r0, #149	@ 0x95
    3b68:	edef 02dd 	sfm	f0, 2, [pc, #884]!	@ 0x3ee0
    3b6c:	e852 ce66 			@ <UNDEFINED> instruction: 0xe852ce66
    3b70:	60f2      	str	r2, [r6, #12]
    3b72:	0824      	lsrs	r4, r4, #32
    3b74:	60d1      	str	r1, [r2, #12]
    3b76:	0c24      	lsrs	r4, r4, #16
    3b78:	d926      	bls.n	0x3bc8
    3b7a:	ee3e cf87 	cdp	15, 3, cr12, cr14, cr7, {4}
    3b7e:	100a      	asrs	r2, r1, #32
    3b80:	f3cf 7b7f 			@ <UNDEFINED> instruction: 0xf3cf7b7f
    3b84:	4725      	bx	r4
    3b86:	3043      	adds	r0, #67	@ 0x43
    3b88:	8d43      	ldrh	r3, [r0, #42]	@ 0x2a
    3b8a:	0c02      	lsrs	r2, r0, #16
    3b8c:	00ec      	lsls	r4, r5, #3
    3b8e:	6f10      	ldr	r0, [r2, #112]	@ 0x70
    3b90:	4fe5      	ldr	r7, [pc, #916]	@ (0x3f28)
    3b92:	00ec      	lsls	r4, r5, #3
    3b94:	6f20      	ldr	r0, [r4, #112]	@ 0x70
    3b96:	0c05      	lsrs	r5, r0, #16
    3b98:	76f0      	strb	r0, [r6, #27]
    3b9a:	a346      	add	r3, pc, #280	@ (adr r3, 0x3cb4)
    3b9c:	2095      	movs	r0, #149	@ 0x95
    3b9e:	edef 02dd 	sfm	f0, 2, [pc, #884]!	@ 0x3f14
    3ba2:	e852 fcc0 			@ <UNDEFINED> instruction: 0xe852fcc0
    3ba6:	9fff      	ldr	r7, [sp, #1020]	@ 0x3fc
    3ba8:	123a      	asrs	r2, r7, #8
    3baa:	a346      	add	r3, pc, #280	@ (adr r3, 0x3cc4)
    3bac:	2095      	movs	r0, #149	@ 0x95
    3bae:	edef 02dd 	sfm	f0, 2, [pc, #884]!	@ 0x3f24
    3bb2:	e852 96f0 			@ <UNDEFINED> instruction: 0xe85296f0
    3bb6:	e599      	b.n	0x36ec
    3bb8:	96e0      	str	r6, [sp, #896]	@ 0x380
    3bba:	357e      	adds	r5, #126	@ 0x7e
    3bbc:	6386      	str	r6, [r0, #56]	@ 0x38
    3bbe:	06fd      	lsls	r5, r7, #27
    3bc0:	8346      	strh	r6, [r0, #26]
    3bc2:	a125      	add	r1, pc, #148	@ (adr r1, 0x3c58)
    3bc4:	d052      	beq.n	0x3c6c
    3bc6:	4afe      	ldr	r2, [pc, #1016]	@ (0x3fc0)
    3bc8:	8524      	strh	r4, [r4, #40]	@ 0x28
    3bca:	0486      	lsls	r6, r0, #18
    3bcc:	39ed      	subs	r1, #237	@ 0xed
    3bce:	ef04 3462 	vshl.s8	<illegal reg q1.5>, q9, q2
    3bd2:	1258      	asrs	r0, r3, #9
    3bd4:	052a      	lsls	r2, r5, #20
    3bd6:	afed      	add	r7, sp, #948	@ 0x3b4
    3bd8:	5244      	strh	r4, [r0, r1]
    3bda:	4868      	ldr	r0, [pc, #416]	@ (0x3d7c)
    3bdc:	9ed0      	ldr	r6, [sp, #832]	@ 0x340
    3bde:	1043      	asrs	r3, r0, #1
    3be0:	08c0      	lsrs	r0, r0, #3
    3be2:	6447      	str	r7, [r0, #68]	@ 0x44
    3be4:	8d44      	ldrh	r4, [r0, #42]	@ 0x2a
    3be6:	2701      	movs	r7, #1
    3be8:	c246      	stmia	r2!, {r1, r2, r6}
    3bea:	2000      	movs	r0, #0
    3bec:	0d32      	lsrs	r2, r6, #20
    3bee:	2246      	movs	r2, #70	@ 0x46
    3bf0:	010a      	lsls	r2, r1, #4
    3bf2:	ee0d 9ec7 	cdp	14, 0, cr9, cr13, cr7, {6}
    3bf6:	f043 9976 	b.w	0x846ee6
    3bfa:	6080      	str	r0, [r0, #8]
    3bfc:	5834      	ldr	r4, [r6, r0]
    3bfe:	2a12      	cmp	r2, #18
    3c00:	ed05 44af 	cfstrs	mvf4, [r5, #-700]	@ 0xfffffd44
    3c04:	e852 3461 			@ <UNDEFINED> instruction: 0xe8523461
    3c08:	1258      	asrs	r0, r3, #9
    3c0a:	052a      	lsls	r2, r5, #20
    3c0c:	afed      	add	r7, sp, #948	@ 0x3b4
    3c0e:	5244      	strh	r4, [r0, r1]
    3c10:	4868      	ldr	r0, [pc, #416]	@ (0x3db4)
    3c12:	2580      	movs	r5, #128	@ 0x80
    3c14:	7e25      	ldrb	r5, [r4, #24]
    3c16:	5829      	ldr	r1, [r5, r0]
    3c18:	43d8      	mvns	r0, r3
    3c1a:	8346      	strh	r6, [r0, #26]
    3c1c:	a125      	add	r1, pc, #148	@ (adr r1, 0x3cb4)
    3c1e:	d052      	beq.n	0x3cc6
    3c20:	4afe      	ldr	r2, [pc, #1016]	@ (0x401c)
    3c22:	8524      	strh	r4, [r4, #40]	@ 0x28
    3c24:	0486      	lsls	r6, r0, #18
    3c26:	7e58      	ldrb	r0, [r3, #25]
    3c28:	1429      	asrs	r1, r5, #16
    3c2a:	4659      	mov	r1, fp
    3c2c:	2583      	movs	r5, #131	@ 0x83
    3c2e:	52a1      	strh	r1, [r4, r2]
    3c30:	fed0 244a 	cdp2	4, 13, cr2, cr0, cr10, {2}
    3c34:	0e85      	lsrs	r5, r0, #26
    3c36:	297e      	cmp	r1, #126	@ 0x7e
    3c38:	c958      	ldmia	r1!, {r3, r4, r6}
    3c3a:	eefa 7e74 	mrc	14, 7, r7, cr10, cr4, {3}
    3c3e:	dcfb      	bgt.n	0x3c38
    3c40:	f100 fcdf 	bl	0x104602
    3c44:	4724      	bxns	r4
    3c46:	1570      	asrs	r0, r6, #21
    3c48:	d146      	bne.n	0x3cd8
    3c4a:	5028      	str	r0, [r5, r0]
    3c4c:	76e1      	strb	r1, [r4, #27]
    3c4e:	0452      	lsls	r2, r2, #17
    3c50:	2100      	movs	r1, #0
    3c52:	d46d      	bmi.n	0x3d30
    3c54:	9802      	ldr	r0, [sp, #8]
    3c56:	6e11      	ldr	r1, [r2, #96]	@ 0x60
    3c58:	4527      	cmp	r7, r4
    3c5a:	2000      	movs	r0, #0
    3c5c:	46d2      	mov	sl, sl
    3c5e:	602d      	str	r5, [r5, #0]
    3c60:	a204      	add	r2, pc, #16	@ (adr r2, 0x3c74)
    3c62:	5010      	str	r0, [r2, r0]
    3c64:	2d70      	cmp	r5, #112	@ 0x70
    3c66:	226e      	movs	r2, #110	@ 0x6e
    3c68:	d86d      	bhi.n	0x3d46
    3c6a:	df02      	svc	2
    3c6c:	f104 7adf 	add.w	sl, r4, #29229056	@ 0x1be0000
    3c70:	4f04      	ldr	r7, [pc, #16]	@ (0x3c84)
    3c72:	00a1      	lsls	r1, r4, #2
    3c74:	3470      	adds	r4, #112	@ 0x70
    3c76:	000a      	movs	r2, r1
    3c78:	a447      	add	r4, pc, #284	@ (adr r4, 0x3d98)
    3c7a:	7000      	strb	r0, [r0, #0]
    3c7c:	9854      	ldr	r0, [sp, #336]	@ 0x150
    3c7e:	4e33      	ldr	r6, [pc, #204]	@ (0x3d4c)
    3c80:	5461      	strb	r1, [r4, r1]
    3c82:	4882      	ldr	r0, [pc, #520]	@ (0x3e8c)
    3c84:	f8c8 a07f 	str.w	sl, [r8, #127]	@ 0x7f
    3c88:	7010      	strb	r0, [r2, #0]
    3c8a:	4e34      	ldr	r6, [pc, #208]	@ (0x3d5c)
    3c8c:	5461      	strb	r1, [r4, r1]
    3c8e:	4882      	ldr	r0, [pc, #520]	@ (0x3e98)
    3c90:	4568      	cmp	r0, sp
    3c92:	d433      	bmi.n	0x3cfc
    3c94:	5460      	strb	r0, [r4, r1]
    3c96:	d108      	bne.n	0x3caa
    3c98:	5460      	strb	r0, [r4, r1]
    3c9a:	3056      	adds	r0, #86	@ 0x56
    3c9c:	d842      	bhi.n	0x3d24
    3c9e:	46c0      	nop			@ (mov r8, r8)
    3ca0:	18d3      	adds	r3, r2, r3
    3ca2:	6100      	str	r0, [r0, #16]
    3ca4:	8c44      	ldrh	r4, [r0, #34]	@ 0x22
    3ca6:	0700      	lsls	r0, r0, #28
    3ca8:	020a      	lsls	r2, r1, #8
    3caa:	6347      	str	r7, [r0, #52]	@ 0x34
    3cac:	df34      	svc	52	@ 0x34
    3cae:	f106 f9df 	bl	0x10a070
    3cb2:	0457      	lsls	r7, r2, #17
    3cb4:	d433      	bmi.n	0x3d1e
    3cb6:	c028      	stmia	r0!, {r3, r5}
    3cb8:	0ec0      	lsrs	r0, r0, #27
    3cba:	f100 fe36 	bl	0x10492a
    3cbe:	0ec4      	lsrs	r4, r0, #27
    3cc0:	f200 0a36 	addw	sl, r0, #54	@ 0x36
    3cc4:	4700      	bx	r0
    3cc6:	f982 2467 	vst1.16			@ <UNDEFINED> instruction: 0xf9822467
    3cca:	095a      	lsrs	r2, r3, #5
    3ccc:	def2      	udf	#242	@ 0xf2
    3cce:	2dde      	cmp	r5, #222	@ 0xde
    3cd0:	8520      	strh	r0, [r4, #40]	@ 0x28
    3cd2:	cc0e      	ldmia	r4!, {r1, r2, r3}
    3cd4:	ffff 58a8 	vtbl.8	d21, {d31}, d24
    3cd8:	a246      	add	r2, pc, #280	@ (adr r2, 0x3df4)
    3cda:	2095      	movs	r0, #149	@ 0x95
    3cdc:	edef 02dd 	sfm	f0, 2, [pc, #884]!	@ 0x4054
    3ce0:	e852 37e0 			@ <UNDEFINED> instruction: 0xe85237e0
    3ce4:	3863      	subs	r0, #99	@ 0x63
    3ce6:	6fd6      	ldr	r6, [r2, #124]	@ 0x7c
    3ce8:	2460      	movs	r4, #96	@ 0x60
    3cea:	1258      	asrs	r0, r3, #9
    3cec:	052a      	lsls	r2, r5, #20
    3cee:	afed      	add	r7, sp, #948	@ 0x3b4
    3cf0:	5244      	strh	r4, [r0, r1]
    3cf2:	4a68      	ldr	r2, [pc, #416]	@ (0x3e94)
    3cf4:	2460      	movs	r4, #96	@ 0x60
    3cf6:	1258      	asrs	r0, r3, #9
    3cf8:	052a      	lsls	r2, r5, #20
    3cfa:	afed      	add	r7, sp, #948	@ 0x3b4
    3cfc:	5244      	strh	r4, [r0, r1]
    3cfe:	5ce8      	ldrb	r0, [r5, r3]
    3d00:	a8e2      	add	r0, sp, #904	@ 0x388
    3d02:	2ef8      	cmp	r6, #248	@ 0xf8
    3d04:	8246      	strh	r6, [r0, #18]
    3d06:	0d10      	lsrs	r0, r2, #20
    3d08:	c246      	stmia	r2!, {r1, r2, r6}
    3d0a:	9260      	str	r2, [sp, #384]	@ 0x180
    3d0c:	f75d f57e 	bl	0xffb6180c
    3d10:	107d      	asrs	r5, r7, #1
    3d12:	7bdf      	ldrb	r7, [r3, #15]
    3d14:	4f04      	ldr	r7, [pc, #16]	@ (0x3d28)
    3d16:	4121      	asrs	r1, r4
    3d18:	f292 347b 			@ <UNDEFINED> instruction: 0xf292347b
    3d1c:	000a      	movs	r2, r1
    3d1e:	8447      	strh	r7, [r0, #34]	@ 0x22
    3d20:	e249      	b.n	0x41b6
    3d22:	8484      	strh	r4, [r0, #36]	@ 0x24
    3d24:	614e      	str	r6, [r1, #20]
    3d26:	8245      	strh	r5, [r0, #18]
    3d28:	e859 5286 			@ <UNDEFINED> instruction: 0xe8595286
    3d2c:	0014      	movs	r4, r2
    3d2e:	6490      	str	r0, [r2, #72]	@ 0x48
    3d30:	0844      	lsrs	r4, r0, #1
    3d32:	60d1      	str	r1, [r2, #12]
    3d34:	5644      	ldrsb	r4, [r0, r1]
    3d36:	4230      	tst	r0, r6
    3d38:	cfd8      	ldmia	r7, {r3, r4, r6, r7}
    3d3a:	1356      	asrs	r6, r2, #13
    3d3c:	240d      	movs	r4, #13
    3d3e:	c141      	stmia	r1!, {r0, r6}
    3d40:	63bf      	str	r7, [r7, #56]	@ 0x38
    3d42:	4924      	ldr	r1, [pc, #144]	@ (0x3dd4)
    3d44:	05df      	lsls	r7, r3, #23
    3d46:	dff1      	svc	241	@ 0xf1
    3d48:	047b      	lsls	r3, r7, #17
    3d4a:	214f      	movs	r1, #79	@ 0x4f
    3d4c:	9241      	str	r2, [sp, #260]	@ 0x104
    3d4e:	7bf2      	ldrb	r2, [r6, #15]
    3d50:	2034      	movs	r0, #52	@ 0x34
    3d52:	010a      	lsls	r2, r1, #4
    3d54:	000a      	movs	r2, r1
    3d56:	8447      	strh	r7, [r0, #34]	@ 0x22
    3d58:	e249      	b.n	0x41ee
    3d5a:	8484      	strh	r4, [r0, #36]	@ 0x24
    3d5c:	614e      	str	r6, [r1, #20]
    3d5e:	8245      	strh	r5, [r0, #18]
    3d60:	e859 5286 			@ <UNDEFINED> instruction: 0xe8595286
    3d64:	0014      	movs	r4, r2
    3d66:	6490      	str	r0, [r2, #72]	@ 0x48
    3d68:	0844      	lsrs	r4, r0, #1
    3d6a:	60d1      	str	r1, [r2, #12]
    3d6c:	5644      	ldrsb	r4, [r0, r1]
    3d6e:	4230      	tst	r0, r6
    3d70:	cfd8      	ldmia	r7, {r3, r4, r6, r7}
    3d72:	0a20      	lsrs	r0, r4, #8
    3d74:	5600      	ldrsb	r0, [r0, r0]
    3d76:	0d13      	lsrs	r3, r2, #20
    3d78:	4124      	asrs	r4, r4
    3d7a:	bfc1      	itttt	gt
    3d7c:	2463      	movgt	r4, #99	@ 0x63
    3d7e:	df49      	svcgt	73	@ 0x49
    3d80:	f105 fcdf 	blgt	0x109742	@ unpredictable branch in IT block

    3d84:	1204      	asrgt	r4, r0, #8
    3d86:	2924      	cmp	r1, #36	@ 0x24
    3d88:	47bf      			@ <UNDEFINED> instruction: 0x47bf
    3d8a:	d202      	bcs.n	0x3d92
    3d8c:	e4bb      	b.n	0x3706
    3d8e:	d304      	bcc.n	0x3d9a
    3d90:	ec0b 7f89 	stc	15, cr7, [fp], {137}	@ 0x89
    3d94:	5634      	ldrsb	r4, [r6, r0]
    3d96:	0d12      	lsrs	r2, r2, #20
    3d98:	4124      	asrs	r4, r4
    3d9a:	bfc1      	itttt	gt
    3d9c:	2463      	movgt	r4, #99	@ 0x63
    3d9e:	4649      	movgt	r1, r9
    3da0:	4df3      	ldrgt	r5, [pc, #972]	@ (0x4170)
    3da2:	df10      	svcgt	16
    3da4:	04fc      	lsls	r4, r7, #19
    3da6:	2412      	movs	r4, #18
    3da8:	bf29      	itett	cs
    3daa:	0247      	lslcs	r7, r0, #9
    3dac:	bbd2      	cbnz	r2, 0x3e24	@ unpredictable <IT:cc>
    3dae:	04e4      	lslcs	r4, r4, #19
    3db0:	0bd3      	lsrcs	r3, r2, #15
    3db2:	8a8c      	ldrh	r4, [r1, #20]
    3db4:	347f      	adds	r4, #127	@ 0x7f
    3db6:	1256      	asrs	r6, r2, #9
    3db8:	240d      	movs	r4, #13
    3dba:	c141      	stmia	r1!, {r0, r6}
    3dbc:	63bf      	str	r7, [r7, #56]	@ 0x38
    3dbe:	4924      	ldr	r1, [pc, #144]	@ (0x3e50)
    3dc0:	f346 104d 	sbfx	r0, r6, #5, #14
    3dc4:	fcdf 1204 	ldc2l	2, cr1, [pc], {4}
    3dc8:	2924      	cmp	r1, #36	@ 0x24
    3dca:	47bf      			@ <UNDEFINED> instruction: 0x47bf
    3dcc:	d202      	bcs.n	0x3dd4
    3dce:	e4bb      	b.n	0x3748
    3dd0:	d304      	bcc.n	0x3ddc
    3dd2:	9c0b      	ldr	r4, [sp, #44]	@ 0x2c
    3dd4:	7f89      	ldrb	r1, [r1, #30]
    3dd6:	5634      	ldrsb	r4, [r6, r0]
    3dd8:	0d12      	lsrs	r2, r2, #20
    3dda:	4124      	asrs	r4, r4
    3ddc:	bfc1      	itttt	gt
    3dde:	2463      	movgt	r4, #99	@ 0x63
    3de0:	4649      	movgt	r1, r9
    3de2:	4df3      	ldrgt	r5, [pc, #972]	@ (0x41b0)
    3de4:	df10      	svcgt	16
    3de6:	04fc      	lsls	r4, r7, #19
    3de8:	2412      	movs	r4, #18
    3dea:	bf29      	itett	cs
    3dec:	0247      	lslcs	r7, r0, #9
    3dee:	bbd2      	cbnz	r2, 0x3e66	@ unpredictable <IT:cc>
    3df0:	04e4      	lslcs	r4, r4, #19
    3df2:	0bd3      	lsrcs	r3, r2, #15
    3df4:	8a3c      	ldrh	r4, [r7, #16]
    3df6:	347f      	adds	r4, #127	@ 0x7f
    3df8:	1256      	asrs	r6, r2, #9
    3dfa:	240d      	movs	r4, #13
    3dfc:	c141      	stmia	r1!, {r0, r6}
    3dfe:	63bf      	str	r7, [r7, #56]	@ 0x38
    3e00:	4924      	ldr	r1, [pc, #144]	@ (0x3e94)
    3e02:	f346 104d 	sbfx	r0, r6, #5, #14
    3e06:	aedf      	add	r6, sp, #892	@ 0x37c
    3e08:	1250      	asrs	r0, r2, #9
    3e0a:	1773      	asrs	r3, r6, #29
    3e0c:	04ff      	lsls	r7, r7, #19
    3e0e:	c06e      	stmia	r0!, {r1, r2, r3, r5, r6}
    3e10:	000c      	movs	r4, r1
    3e12:	ca80      	ldmia	r2!, {r7}
    3e14:	04e2      	lsls	r2, r4, #19
    3e16:	0686      	lsls	r6, r0, #26
    3e18:	08c1      	lsrs	r1, r0, #3
    3e1a:	10a8      	asrs	r0, r5, #2
    3e1c:	020a      	lsls	r2, r1, #8
    3e1e:	005a      	lsls	r2, r3, #1
    3e20:	0011      	movs	r1, r2
    3e22:	6fe3      	ldr	r3, [r4, #124]	@ 0x7c
    3e24:	020a      	lsls	r2, r1, #8
    3e26:	015a      	lsls	r2, r3, #5
    3e28:	f811 eed2 	ldrbt	lr, [r1, #210]
    3e2c:	a048      	add	r0, pc, #288	@ (adr r0, 0x3f50)
    3e2e:	a000      	add	r0, pc, #0	@ (adr r0, 0x3e30)
    3e30:	1365      	asrs	r5, r4, #13
    3e32:	6753      	str	r3, [r2, #116]	@ 0x74
    3e34:	4edd      	ldr	r6, [pc, #884]	@ (0x41ac)
    3e36:	a04c      	add	r0, pc, #304	@ (adr r0, 0x3f68)
    3e38:	a000      	add	r0, pc, #0	@ (adr r0, 0x3e3c)
    3e3a:	14a5      	asrs	r5, r4, #18
    3e3c:	66b3      	str	r3, [r6, #104]	@ 0x68
    3e3e:	c01d      	stmia	r0!, {r0, r2, r3, r4}
    3e40:	df35      	svc	53	@ 0x35
    3e42:	f102 efcf 	bfcsel	4, 0x4de4, 8, eq
    3e46:	ff7f 4e44 	vcgt.f16	q10, <illegal reg q7.5>, q2
    3e4a:	2ce4      	cmp	r4, #228	@ 0xe4
    3e4c:	1642      	asrs	r2, r0, #25
    3e4e:	f000 4074 	and.w	r0, r0, #4093640704	@ 0xf4000000
    3e52:	0042      	lsls	r2, r0, #1
    3e54:	b322      	cbz	r2, 0x3ea0
    3e56:	2440      	movs	r4, #64	@ 0x40
    3e58:	0a24      	lsrs	r4, r4, #8
    3e5a:	0d01      	lsrs	r1, r0, #20
    3e5c:	e44e      	b.n	0x36fc
    3e5e:	0e2c      	lsrs	r4, r5, #24
    3e60:	ffc1 fed1 			@ <UNDEFINED> instruction: 0xffc1fed1
    3e64:	e96f 8644 	strd	r8, r6, [pc, #-272]!	@ 0x3d58	@ 0x110
    3e68:	c103      	stmia	r1!, {r0, r1}
    3e6a:	4701      	bx	r0
    3e6c:	8026      	strh	r6, [r4, #0]
    3e6e:	9ce2      	ldr	r4, [sp, #904]	@ 0x388
    3e70:	d840      	bhi.n	0x3ef4
    3e72:	5f08      	ldrsh	r0, [r1, r4]
    3e74:	3ef5      	subs	r6, #245	@ 0xf5
    3e76:	000c      	movs	r4, r1
    3e78:	7322      	strb	r2, [r4, #12]
    3e7a:	74e3      	strb	r3, [r4, #19]
    3e7c:	0286      	lsls	r6, r0, #10
    3e7e:	674e      	str	r6, [r1, #116]	@ 0x74
    3e80:	603a      	str	r2, [r7, #0]
    3e82:	f04b a6b7 	bne.w	0x4fbf4
    3e86:	b605      			@ <UNDEFINED> instruction: 0xb605
    3e88:	7f06      	ldrb	r6, [r0, #28]
    3e8a:	b7ed      			@ <UNDEFINED> instruction: 0xb7ed
    3e8c:	e07f      	b.n	0x3f8e
    3e8e:	7fd7      	ldrb	r7, [r2, #31]
    3e90:	9312      	str	r3, [sp, #72]	@ 0x48
    3e92:	92f9      	str	r2, [sp, #996]	@ 0x3e4
    3e94:	1049      	asrs	r1, r1, #1
    3e96:	497e      	ldr	r1, [pc, #504]	@ (0x4090)
    3e98:	2364      	movs	r3, #100	@ 0x64
    3e9a:	efe4 2995 			@ <UNDEFINED> instruction: 0xefe42995
    3e9e:	020f      	lsls	r7, r1, #8
    3ea0:	ce28      	ldmia	r6!, {r3, r5}
    3ea2:	8409      	strh	r1, [r1, #32]
    3ea4:	f88d ef55 	strb.w	lr, [sp, #3925]	@ 0xf55
    3ea8:	00c3      	lsls	r3, r0, #3
    3eaa:	3220      	adds	r2, #32
    3eac:	4e37      	ldr	r6, [pc, #220]	@ (0x3f8c)
    3eae:	2867      	cmp	r0, #103	@ 0x67
    3eb0:	74e0      	strb	r0, [r4, #19]
    3eb2:	03a6      	lsls	r6, r4, #14
    3eb4:	04b6      	lsls	r6, r6, #18
    3eb6:	6b7f      	ldr	r7, [r7, #52]	@ 0x34
    3eb8:	605a      	str	r2, [r3, #4]
    3eba:	f06b 7ed7 	orn	lr, fp, #28180480	@ 0x1ae0000
    3ebe:	07fb      	lsls	r3, r7, #31
    3ec0:	fd7e 2127 	ldc2l	1, cr2, [lr, #-156]!	@ 0xffffff64
    3ec4:	2f7e      	cmp	r7, #126	@ 0x7e
    3ec6:	9f99      	ldr	r7, [sp, #612]	@ 0x264
    3ec8:	97e0      	str	r7, [sp, #896]	@ 0x380
    3eca:	3644      	adds	r6, #68	@ 0x44
    3ecc:	fe42 995e 	mcr2	9, 2, r9, cr2, cr14, {2}	@ <UNPREDICTABLE>
    3ed0:	e08d      	b.n	0x3fee
    3ed2:	c196      	stmia	r1!, {r1, r2, r4, r7}
    3ed4:	d100      	bne.n	0x3ed8
    3ed6:	4206      	tst	r6, r0
    3ed8:	0cdc      	lsrs	r4, r3, #19
    3eda:	8000      	strh	r0, [r0, #0]
    3edc:	224a      	movs	r2, #74	@ 0x4a
    3ede:	0065      	lsls	r5, r4, #1
    3ee0:	a8fe      	add	r0, sp, #1016	@ 0x3f8
    3ee2:	5234      	strh	r4, [r6, r0]
    3ee4:	e006      	b.n	0x3ef4
    3ee6:	719f      	strb	r7, [r3, #6]
    3ee8:	0652      	lsls	r2, r2, #25
    3eea:	8fe0      	ldrh	r0, [r4, #62]	@ 0x3e
    3eec:	81fa      	strh	r2, [r7, #14]
    3eee:	2519      	movs	r5, #25
    3ef0:	42ed      	cmn	r5, r5
    3ef2:	4800      	ldr	r0, [pc, #0]	@ (0x3ef4)
    3ef4:	e44e      	b.n	0x3794
    3ef6:	6e2c      	ldr	r4, [r5, #96]	@ 0x60
    3ef8:	b019      	add	sp, #100	@ 0x64
    3efa:	982f      	ldr	r0, [sp, #188]	@ 0xbc
    3efc:	4636      	mov	r6, r6
    3efe:	08d6      	lsrs	r6, r2, #3
    3f00:	e130      	b.n	0x4164
    3f02:	ce44      	ldmia	r6, {r2, r6}
    3f04:	96e2      	str	r6, [sp, #904]	@ 0x388
    3f06:	4421      	add	r1, r4
    3f08:	980b      	ldr	r0, [sp, #44]	@ 0x2c
    3f0a:	4e1a      	ldr	r6, [pc, #104]	@ (0x3f74)
    3f0c:	4ce4      	ldr	r4, [pc, #912]	@ (0x42a0)
    3f0e:	820e      	strh	r6, [r1, #16]
    3f10:	96e1      	str	r6, [sp, #900]	@ 0x384
    3f12:	2c42      	cmp	r4, #66	@ 0x42
    3f14:	2128      	movs	r1, #40	@ 0x28
    3f16:	0d01      	lsrs	r1, r0, #20
    3f18:	ff7e 011c 	vbif	d16, d14, d12
    3f1c:	11f1      	asrs	r1, r6, #7
    3f1e:	d132      	bne.n	0x3f86
    3f20:	4018      	ands	r0, r3
    3f22:	cd26      	ldmia	r5, {r1, r2, r5}
    3f24:	003f      	movs	r7, r7
    3f26:	4140      	adcs	r0, r0
    3f28:	003f      	movs	r7, r7
    3f2a:	eb21 211f 			@ <UNDEFINED> instruction: 0xeb21211f
    3f2e:	3497      	adds	r4, #151	@ 0x97
    3f30:	3e40      	subs	r6, #64	@ 0x40
    3f32:	2200      	movs	r2, #0
    3f34:	2233      	movs	r2, #51	@ 0x33
    3f36:	3ecd      	subs	r6, #205	@ 0xcd
    3f38:	1aff      	subs	r7, r7, r3
    3f3a:	3e44      	subs	r6, #68	@ 0x44
    3f3c:	10a2      	asrs	r2, r4, #2
    3f3e:	20d0      	movs	r0, #208	@ 0xd0
    3f40:	3eed      	subs	r6, #237	@ 0xed
    3f42:	0600      	lsls	r0, r0, #24
    3f44:	a921      	add	r1, sp, #132	@ 0x84
    3f46:	d217      	bcs.n	0x3f78
    3f48:	035e      	lsls	r6, r3, #13
    3f4a:	1120      	asrs	r0, r4, #4
    3f4c:	7b83      	ldrb	r3, [r0, #14]
    3f4e:	f311 10d2 			@ <UNDEFINED> instruction: 0xf31110d2
    3f52:	d9d3      	bls.n	0x3efc
    3f54:	8400      	strh	r0, [r0, #32]
    3f56:	2003      	movs	r0, #3
    3f58:	0b32      	lsrs	r2, r6, #12
    3f5a:	3844      	subs	r0, #68	@ 0x44
    3f5c:	10a2      	asrs	r2, r4, #2
    3f5e:	00d0      	lsls	r0, r2, #3
    3f60:	dff1      	svc	241	@ 0xf1
    3f62:	047f      	lsls	r7, r7, #17
    3f64:	5046      	str	r6, [r0, r1]
    3f66:	f364 21fe 			@ <UNDEFINED> instruction: 0xf36421fe
    3f6a:	1fb6      	subs	r6, r6, #6
    3f6c:	01df      	lsls	r7, r3, #7
    3f6e:	41f1      	rors	r1, r6
    3f70:	0036      	movs	r6, r6
    3f72:	0c0a      	lsrs	r2, r1, #16
    3f74:	a6ef      	add	r6, pc, #956	@ (adr r6, 0x4334)
    3f76:	f0b0 0a6e 			@ <UNDEFINED> instruction: 0xf0b00a6e
    3f7a:	ef0f 00a6 	vhadd.s8	d0, d31, d22
    3f7e:	7310      	strb	r0, [r2, #12]
    3f80:	a343      	add	r3, pc, #268	@ (adr r3, 0x4090)
    3f82:	f040 219e 	orr.w	r1, r0, #2650840576	@ 0x9e009e00
    3f86:	1768      	asrs	r0, r5, #29
    3f88:	a521      	add	r5, pc, #132	@ (adr r5, 0x4010)
    3f8a:	d21f      	bcs.n	0x3fcc
    3f8c:	140e      	asrs	r6, r1, #16
    3f8e:	1060      	asrs	r0, r4, #1
    3f90:	a2a3      	add	r2, pc, #652	@ (adr r2, 0x4220)
    3f92:	fef1 4110 	mrc2	1, 7, r4, cr1, cr0, {0}
    3f96:	0135      	lsls	r5, r6, #4
    3f98:	090a      	lsrs	r2, r1, #4
    3f9a:	acef      	add	r4, sp, #956	@ 0x3bc
    3f9c:	f0a0 0ace 			@ <UNDEFINED> instruction: 0xf0a00ace
    3fa0:	ef0b c0ac 	vhadd.s8	d12, d27, d28
    3fa4:	cef0      	ldmia	r6, {r4, r5, r6, r7}
    3fa6:	3cd2      	subs	r4, #210	@ 0xd2
    3fa8:	4014      	ands	r4, r2
    3faa:	cd21      	ldmia	r5, {r0, r5}
    3fac:	0144      	lsls	r4, r0, #5
    3fae:	400b      	ands	r3, r1
    3fb0:	0038      	movs	r0, r7
    3fb2:	a322      	add	r3, pc, #136	@ (adr r3, 0x403c)
    3fb4:	a310      	add	r3, pc, #64	@ (adr r3, 0x3ff8)
    3fb6:	80c6      	strh	r6, [r0, #6]
    3fb8:	a199      	add	r1, pc, #612	@ (adr r1, 0x4220)
    3fba:	1010      	asrs	r0, r2, #32
    3fbc:	8b53      	ldrh	r3, [r2, #26]
    3fbe:	ed2c ff3e 	stc	15, cr15, [ip, #-248]!	@ 0xffffff08
    3fc2:	4106      	asrs	r6, r0
    3fc4:	0b3e      	lsrs	r6, r7, #12
    3fc6:	4110      	asrs	r0, r2
    3fc8:	0035      	movs	r5, r6
    3fca:	000a      	movs	r2, r1
    3fcc:	a521      	add	r5, pc, #132	@ (adr r5, 0x4054)
    3fce:	10c8      	asrs	r0, r1, #3
    3fd0:	fedf 0a04 			@ <UNDEFINED> instruction: 0xfedf0a04
    3fd4:	4e01      	ldr	r6, [pc, #4]	@ (0x3fdc)
    3fd6:	2850      	cmp	r0, #80	@ 0x50
    3fd8:	43cd      	mvns	r5, r1
    3fda:	1401      	asrs	r1, r0, #16
    3fdc:	4cd2      	ldr	r4, [pc, #840]	@ (0x4328)
    3fde:	b014      	add	sp, #80	@ 0x50
    3fe0:	8400      	strh	r0, [r0, #32]
    3fe2:	2003      	movs	r0, #3
    3fe4:	0d32      	lsrs	r2, r6, #20
    3fe6:	3841      	subs	r0, #65	@ 0x41
    3fe8:	0a00      	lsrs	r0, r0, #8
    3fea:	ee01 00a2 	cdp	0, 0, cr0, cr1, cr2, {5}
    3fee:	2df0      	cmp	r5, #240	@ 0xf0
    3ff0:	0a10      	lsrs	r0, r2, #8
    3ff2:	ef0c b0a6 	vhadd.s8	d11, d28, d22
    3ff6:	6ef0      	ldr	r0, [r6, #108]	@ 0x6c
    3ff8:	2110      	movs	r1, #16
    3ffa:	16f4      	asrs	r4, r6, #27
    3ffc:	4041      	eors	r1, r0
    3ffe:	0a00      	lsrs	r0, r0, #8
    4000:	210d      	movs	r1, #13
    4002:	1baf      	subs	r7, r5, r6
    4004:	df10      	svc	16
    4006:	047f      	lsls	r7, r7, #17
    4008:	d046      	beq.n	0x4098
    400a:	a018      	add	r0, pc, #96	@ (adr r0, 0x406c)
    400c:	cd25      	ldmia	r5, {r0, r2, r5}
    400e:	0140      	lsls	r0, r0, #5
    4010:	4170      	adcs	r0, r6
    4012:	0140      	lsls	r0, r0, #5
    4014:	0f0a      	lsrs	r2, r1, #28
    4016:	16ef      	asrs	r7, r5, #27
    4018:	9a23      	ldr	r2, [sp, #140]	@ 0x8c
    401a:	6311      	str	r1, [r2, #48]	@ 0x30
    401c:	d1ee      	bne.n	0x3ffc
    401e:	9018      	str	r0, [sp, #96]	@ 0x60
    4020:	1410      	asrs	r0, r2, #16
    4022:	e014      	b.n	0x404e
    4024:	413e      	asrs	r6, r7
    4026:	0041      	lsls	r1, r0, #1
    4028:	d3ef      	bcc.n	0x400a
    402a:	9008      	str	r0, [sp, #32]
    402c:	20a3      	movs	r0, #163	@ 0xa3
    402e:	6ef0      	ldr	r0, [r6, #108]	@ 0x6c
    4030:	fd21 8d2b 	stc2	13, cr8, [r1, #-172]!	@ 0xffffff54
    4034:	2602      	movs	r6, #2
    4036:	8fef      	ldrh	r7, [r5, #62]	@ 0x3e
    4038:	21f9      	movs	r1, #249	@ 0xf9
    403a:	40cd      	lsrs	r5, r1
    403c:	1602      	asrs	r2, r0, #24
    403e:	4041      	eors	r1, r0
    4040:	0a02      	lsrs	r2, r0, #8
    4042:	210e      	movs	r1, #14
    4044:	1b6d      	subs	r5, r5, r5
    4046:	a721      	add	r7, pc, #132	@ (adr r7, 0x40cc)
    4048:	df16      	svc	22
    404a:	f101 3544 	add.w	r5, r1, #1145324612	@ 0x44444444
    404e:	4410      	add	r0, r2
    4050:	1037      	asrs	r7, r6, #32
    4052:	2fdf      	cmp	r7, #223	@ 0xdf
    4054:	40ed      	lsrs	r5, r5
    4056:	0b01      	lsrs	r1, r0, #12
    4058:	010a      	lsls	r2, r1, #4
    405a:	8047      	strh	r7, [r0, #2]
    405c:	f1a9 8c3e 	bvs.w	0xad8dc
    4060:	0a00      	lsrs	r0, r0, #8
    4062:	010a      	lsls	r2, r1, #4
    4064:	e047      	b.n	0x40f6
    4066:	0a3f      	lsrs	r7, r7, #8
    4068:	4700      	bx	r0
    406a:	0460      	lsls	r0, r4, #17
    406c:	01df      	lsls	r7, r3, #7
    406e:	41f1      	rors	r1, r6
    4070:	013f      	lsls	r7, r7, #4
    4072:	df10      	svc	16
    4074:	047f      	lsls	r7, r7, #17
    4076:	5046      	str	r6, [r0, r1]
    4078:	5240      	strh	r0, [r0, r1]
    407a:	030a      	lsls	r2, r1, #12
    407c:	f6ef 101d 			@ <UNDEFINED> instruction: 0xf6ef101d
    4080:	7fdf      	ldrb	r7, [r3, #31]
    4082:	4604      	mov	r4, r0
    4084:	5050      	str	r0, [r2, r1]
    4086:	0a52      	lsrs	r2, r2, #9
    4088:	ef04 1df6 	vmla.f32	<illegal reg q0.5>, q10, q11
    408c:	0a10      	lsrs	r0, r2, #8
    408e:	ef07 f106 	vrhadd.s8	d15, d7, d6
    4092:	7fdf      	ldrb	r7, [r3, #31]
    4094:	4604      	mov	r4, r0
    4096:	1050      	asrs	r0, r2, #1
    4098:	0a55      	lsrs	r5, r2, #9
    409a:	ef05 1df6 	vmla.f32	<illegal reg q0.5>, <illegal reg q10.5>, q11
    409e:	df10      	svc	16
    40a0:	06fe      	lsls	r6, r7, #27
    40a2:	206e      	movs	r0, #110	@ 0x6e
    40a4:	526d      	strh	r5, [r5, r1]
    40a6:	0a05      	lsrs	r5, r0, #8
    40a8:	ef06 2df6 	vmla.f32	q1, q11, q11
    40ac:	df10      	svc	16
    40ae:	047f      	lsls	r7, r7, #17
    40b0:	5046      	str	r6, [r0, r1]
    40b2:	5590      	strb	r0, [r2, r6]
    40b4:	110a      	asrs	r2, r1, #4
    40b6:	f6ef 101d 			@ <UNDEFINED> instruction: 0xf6ef101d
    40ba:	fddf 4714 	ldc2l	7, cr4, [pc, #80]	@ 0x410c
    40be:	0460      	lsls	r0, r4, #17
    40c0:	6d05      	ldr	r5, [r0, #80]	@ 0x50
    40c2:	16e5      	asrs	r5, r4, #27
    40c4:	e6d2      	b.n	0x3e6c
    40c6:	a056      	add	r0, pc, #344	@ (adr r0, 0x4220)
    40c8:	f2d0 df0e 	bl	0xad4ee8
    40cc:	f103 7fdf 	add.w	pc, r3, #29229056	@ 0x1be0000
    40d0:	4604      	mov	r4, r0
    40d2:	c050      	stmia	r0!, {r4, r6}
    40d4:	0a55      	lsrs	r5, r2, #9
    40d6:	ef00 1df0 	vmla.f32	<illegal reg q0.5>, q8, q8
    40da:	df10      	svc	16
    40dc:	047f      	lsls	r7, r7, #17
    40de:	5046      	str	r6, [r0, r1]
    40e0:	55d0      	strb	r0, [r2, r7]
    40e2:	010a      	lsls	r2, r1, #4
    40e4:	f0ef 101d 			@ <UNDEFINED> instruction: 0xf0ef101d
    40e8:	7fdf      	ldrb	r7, [r3, #31]
    40ea:	4604      	mov	r4, r0
    40ec:	e050      	b.n	0x4190
    40ee:	0a55      	lsrs	r5, r2, #9
    40f0:	ef00 1df6 	vmla.f32	<illegal reg q0.5>, q8, q11
    40f4:	df10      	svc	16
    40f6:	047f      	lsls	r7, r7, #17
    40f8:	5046      	str	r6, [r0, r1]
    40fa:	5610      	ldrsb	r0, [r2, r0]
    40fc:	246e      	movs	r4, #110	@ 0x6e
    40fe:	626d      	str	r5, [r5, #36]	@ 0x24
    4100:	6e05      	ldr	r5, [r0, #96]	@ 0x60
    4102:	6d26      	ldr	r6, [r4, #80]	@ 0x50
    4104:	0564      	lsls	r4, r4, #21
    4106:	3f0a      	subs	r7, #10
    4108:	f0ef 101d 			@ <UNDEFINED> instruction: 0xf0ef101d
    410c:	7fdf      	ldrb	r7, [r3, #31]
    410e:	4604      	mov	r4, r0
    4110:	6050      	str	r0, [r2, #4]
    4112:	6e56      	ldr	r6, [r2, #100]	@ 0x64
    4114:	6d24      	ldr	r4, [r4, #80]	@ 0x50
    4116:	0567      	lsls	r7, r4, #21
    4118:	266e      	movs	r6, #110	@ 0x6e
    411a:	696d      	ldr	r5, [r5, #20]
    411c:	0a05      	lsrs	r5, r0, #8
    411e:	ef40 1df0 	vmla.f32	<illegal reg q8.5>, q8, q8
    4122:	df10      	svc	16
    4124:	047e      	lsls	r6, r7, #17
    4126:	6157      	str	r7, [r2, #20]
    4128:	8d14      	ldrh	r4, [r2, #40]	@ 0x28
    412a:	1201      	asrs	r1, r0, #8
    412c:	2046      	movs	r0, #70	@ 0x46
    412e:	5482      	strb	r2, [r0, r2]
    4130:	7359      	strb	r1, [r3, #13]
    4132:	e1d1      	b.n	0x44d8
    4134:	447e      	add	r6, pc
    4136:	5659      	ldrsb	r1, [r3, r1]
    4138:	4630      	mov	r0, r6
    413a:	5945      	ldr	r5, [r0, r5]
    413c:	02df      	lsls	r7, r3, #11
    413e:	dff1      	svc	241	@ 0xf1
    4140:	057e      	lsls	r6, r7, #21
    4142:	6147      	str	r7, [r0, #20]
    4144:	0514      	lsls	r4, r2, #20
    4146:	656b      	str	r3, [r5, #84]	@ 0x54
    4148:	0504      	lsls	r4, r0, #20
    414a:	f56c 0afe 	sbc.w	sl, ip, #8323072	@ 0x7f0000
    414e:	ef01 2df6 	vmla.f32	q1, <illegal reg q8.5>, q11
    4152:	0410      	lsls	r0, r2, #16
    4154:	0570      	lsls	r0, r6, #21
    4156:	dff1      	svc	241	@ 0xf1
    4158:	00af      	lsls	r7, r5, #2
    415a:	0470      	lsls	r0, r6, #17
    415c:	1598      	asrs	r0, r3, #22
    415e:	a046      	add	r0, pc, #280	@ (adr r0, 0x4278)
    4160:	1005      	asrs	r5, r0, #32
    4162:	8053      	strh	r3, [r2, #2]
    4164:	0461      	lsls	r1, r4, #17
    4166:	d108      	bne.n	0x417a
    4168:	0460      	lsls	r0, r4, #17
    416a:	060c      	lsls	r4, r1, #24
    416c:	e0d8      	b.n	0x4320
    416e:	1598      	asrs	r0, r3, #22
    4170:	a046      	add	r0, pc, #280	@ (adr r0, 0x428c)
    4172:	1025      	asrs	r5, r4, #32
    4174:	7f33      	ldrb	r3, [r6, #28]
    4176:	0461      	lsls	r1, r4, #17
    4178:	d108      	bne.n	0x418c
    417a:	0460      	lsls	r0, r4, #17
    417c:	070c      	lsls	r4, r1, #28
    417e:	e0d8      	b.n	0x4332
    4180:	1598      	asrs	r0, r3, #22
    4182:	a046      	add	r0, pc, #280	@ (adr r0, 0x429c)
    4184:	1035      	asrs	r5, r6, #32
    4186:	7e13      	ldrb	r3, [r2, #24]
    4188:	0461      	lsls	r1, r4, #17
    418a:	d108      	bne.n	0x419e
    418c:	0460      	lsls	r0, r4, #17
    418e:	080c      	lsrs	r4, r1, #32
    4190:	e0d8      	b.n	0x4344
    4192:	0821      	lsrs	r1, r4, #32
    4194:	1118      	asrs	r0, r3, #4
    4196:	1005      	asrs	r5, r0, #32
    4198:	15a4      	asrs	r4, r4, #22
    419a:	1df0      	adds	r0, r6, #7
    419c:	df10      	svc	16
    419e:	17fd      	asrs	r5, r7, #31
    41a0:	000a      	movs	r2, r1
    41a2:	1047      	asrs	r7, r0, #1
    41a4:	5705      	ldrsb	r5, [r0, r4]
    41a6:	5100      	str	r0, [r0, r4]
    41a8:	0571      	lsls	r1, r6, #21
    41aa:	1980      	adds	r0, r0, r6
    41ac:	0462      	lsls	r2, r4, #17
    41ae:	5258      	strh	r0, [r3, r1]
    41b0:	ffc0 d00f 	vaddl.u8	<illegal reg q14.5>, d0, d15
    41b4:	572e      	ldrsb	r6, [r5, r4]
    41b6:	8520      	strh	r0, [r4, #40]	@ 0x28
    41b8:	461f      	mov	r7, r3
    41ba:	1080      	asrs	r0, r0, #2
    41bc:	460d      	mov	r5, r1
    41be:	60c0      	str	r0, [r0, #12]
    41c0:	4d80      	ldr	r5, [pc, #512]	@ (0x43c4)
    41c2:	f98d 0461 	vst1.16			@ <UNDEFINED> instruction: 0xf98d0461
    41c6:	5258      	strh	r0, [r3, r1]
    41c8:	fd00 2edf 	stc2	14, cr2, [r0, #-892]	@ 0xfffffc84
    41cc:	2057      	movs	r0, #87	@ 0x57
    41ce:	1f85      	subs	r5, r0, #6
    41d0:	8046      	strh	r6, [r0, #2]
    41d2:	0d10      	lsrs	r0, r2, #20
    41d4:	c046      	stmia	r0!, {r1, r2, r6}
    41d6:	8070      	strh	r0, [r6, #2]
    41d8:	8d6d      	ldrh	r5, [r5, #42]	@ 0x2a
    41da:	6219      	str	r1, [r3, #32]
    41dc:	5804      	ldr	r4, [r0, r0]
    41de:	c052      	stmia	r0!, {r1, r4, r6}
    41e0:	000f      	movs	r7, r1
    41e2:	2ed8      	cmp	r6, #216	@ 0xd8
    41e4:	2057      	movs	r0, #87	@ 0x57
    41e6:	1f85      	subs	r5, r0, #6
    41e8:	8046      	strh	r6, [r0, #2]
    41ea:	0d10      	lsrs	r0, r2, #20
    41ec:	c046      	stmia	r0!, {r1, r2, r6}
    41ee:	8080      	strh	r0, [r0, #4]
    41f0:	ed4d df17 	stcl	15, cr13, [sp, #-92]	@ 0xffffffa4
    41f4:	f103 ebcf 	bfcsel	4, 0x3996, 8, eq
    41f8:	ff7f 6fa4 	vpmin.f16	d22, d31, d20
    41fc:	c4ec      	stmia	r4!, {r2, r3, r5, r6, r7}
    41fe:	9ece      	ldr	r6, [sp, #824]	@ 0x338
    4200:	9333      	str	r3, [sp, #204]	@ 0xcc
    4202:	a451      	add	r4, pc, #324	@ (adr r4, 0x4348)
    4204:	ece8 78a9 	stcl	8, cr7, [r8], #676	@ 0x2a4
    4208:	fce4 e3a9 	stc2l	3, cr14, [r4], #676	@ 0x2a4
    420c:	ace4      	add	r4, sp, #912	@ 0x390
    420e:	3339      	adds	r3, #57	@ 0x39
    4210:	1609      	asrs	r1, r1, #24
    4212:	ce86      	ldmia	r6!, {r1, r2, r7}
    4214:	339b      	adds	r3, #155	@ 0x9b
    4216:	5093      	str	r3, [r2, r2]
    4218:	e86e 39ac 	strd	r3, r9, [lr], #-688	@ 0x2b0
    421c:	0933      	lsrs	r3, r6, #4
    421e:	870e      	strh	r6, [r1, #56]	@ 0x38
    4220:	3ce2      	subs	r4, #226	@ 0xe2
    4222:	339f      	adds	r3, #159	@ 0x9f
    4224:	d093      	beq.n	0x414e
    4226:	287d      	cmp	r0, #125	@ 0x7d
    4228:	1e65      	subs	r5, r4, #1
    422a:	a9fc      	add	r1, sp, #1008	@ 0x3f0
    422c:	24dc      	movs	r4, #220	@ 0xdc
    422e:	e2ce      	b.n	0x47ce
    4230:	3339      	adds	r3, #57	@ 0x39
    4232:	f819 e287 	ldrb.w	lr, [r9, <undefined>]
    4236:	9eec      	ldr	r6, [sp, #944]	@ 0x3b0
    4238:	9333      	str	r3, [sp, #204]	@ 0xcc
    423a:	9321      	str	r3, [sp, #132]	@ 0x84
    423c:	6528      	str	r0, [r5, #80]	@ 0x50
    423e:	fc30 c0a9 	ldc2	0, cr12, [r0], #-676	@ 0xfffffd5c
    4242:	bce4      	pop	{r2, r5, r6, r7}
    4244:	1da9      	adds	r1, r5, #6
    4246:	fce7 bca9 	stc2l	12, cr11, [r7], #676	@ 0x2a4
    424a:	ce27      	ldmia	r6!, {r0, r1, r2, r5}
    424c:	39e8      	subs	r1, #232	@ 0xe8
    424e:	1933      	adds	r3, r6, r4
    4250:	87fe      	strh	r6, [r7, #62]	@ 0x3e
    4252:	9dce      	ldr	r5, [sp, #824]	@ 0x338
    4254:	9333      	str	r3, [sp, #204]	@ 0xcc
    4256:	8360      	strh	r0, [r4, #26]
    4258:	ce28      	ldmia	r6!, {r3, r5}
    425a:	39ea      	subs	r1, #234	@ 0xea
    425c:	1933      	adds	r3, r6, r4
    425e:	8938      	ldrh	r0, [r7, #8]
    4260:	4ce2      	ldr	r4, [pc, #904]	@ (0x45ec)
    4262:	339f      	adds	r3, #159	@ 0x9f
    4264:	8093      	strh	r3, [r2, #4]
    4266:	e895 39ec 	ldmia.w	r5, {r2, r3, r5, r6, r7, r8, fp, ip, sp}
    426a:	0933      	lsrs	r3, r6, #4
    426c:	899f      	ldrh	r7, [r3, #12]
    426e:	5652      	ldrsb	r2, [r2, r1]
    4270:	9fc4      	ldr	r7, [sp, #784]	@ 0x310
    4272:	498a      	ldr	r1, [pc, #552]	@ (0x449c)
    4274:	bce2      	pop	{r1, r5, r6, r7}
    4276:	339b      	adds	r3, #155	@ 0x9b
    4278:	9093      	str	r0, [sp, #588]	@ 0x24c
    427a:	28a3      	cmp	r0, #163	@ 0xa3
    427c:	4565      	cmp	r5, ip
    427e:	a9fc      	add	r1, sp, #1008	@ 0x3f0
    4280:	e48b      	b.n	0x3b9a
    4282:	a9bc      	add	r1, sp, #752	@ 0x2f0
    4284:	e6b9      	b.n	0x3ffa
    4286:	a9fc      	add	r1, sp, #1008	@ 0x3f0
    4288:	e766      	b.n	0x4158
    428a:	39bc      	subs	r1, #188	@ 0xbc
    428c:	1933      	adds	r3, r6, r4
    428e:	86f6      	strh	r6, [r6, #54]	@ 0x36
    4290:	ace2      	add	r4, sp, #904	@ 0x388
    4292:	339e      	adds	r3, #158	@ 0x9e
    4294:	8093      	strh	r3, [r2, #4]
    4296:	2885      	cmp	r0, #133	@ 0x85
    4298:	1665      	asrs	r5, r4, #25
    429a:	39fc      	subs	r1, #252	@ 0xfc
    429c:	0933      	lsrs	r3, r6, #4
    429e:	8708      	strh	r0, [r1, #56]	@ 0x38
    42a0:	e652      	b.n	0x3f48
    42a2:	9fc0      	ldr	r7, [sp, #768]	@ 0x300
    42a4:	2b0a      	cmp	r3, #10
    42a6:	9dce      	ldr	r5, [sp, #824]	@ 0x338
    42a8:	454a      	cmp	r2, r9
    42aa:	9bce      	ldr	r3, [sp, #824]	@ 0x338
    42ac:	682a      	ldr	r2, [r5, #0]
    42ae:	9fce      	ldr	r7, [sp, #824]	@ 0x338
    42b0:	738a      	strb	r2, [r1, #14]
    42b2:	6652      	str	r2, [r2, #100]	@ 0x64
    42b4:	9fc0      	ldr	r7, [sp, #768]	@ 0x300
    42b6:	473a      	bx	r7
    42b8:	1652      	asrs	r2, r2, #25
    42ba:	9fc0      	ldr	r7, [sp, #768]	@ 0x300
    42bc:	345a      	adds	r4, #90	@ 0x5a
    42be:	9fce      	ldr	r7, [sp, #824]	@ 0x338
    42c0:	46da      	mov	sl, fp
    42c2:	9bce      	ldr	r3, [sp, #824]	@ 0x338
    42c4:	66ca      	str	r2, [r1, #108]	@ 0x6c
    42c6:	9fce      	ldr	r7, [sp, #824]	@ 0x338
    42c8:	72ba      	strb	r2, [r7, #10]
    42ca:	5ce2      	ldrb	r2, [r4, r3]
    42cc:	339f      	adds	r3, #159	@ 0x9f
    42ce:	1093      	asrs	r3, r2, #2
    42d0:	2872      	cmp	r0, #114	@ 0x72
    42d2:	e4ce      	b.n	0x3c72
    42d4:	3339      	adds	r3, #57	@ 0x39
    42d6:	7709      	strb	r1, [r1, #28]
    42d8:	5288      	strh	r0, [r1, r2]
    42da:	c2d6      	stmia	r2!, {r1, r2, r4, r6, r7}
    42dc:	ea9f 5246 	eors.w	r2, pc, r6, lsl #21
    42e0:	c006      	stmia	r0!, {r1, r2}
    42e2:	0a9f      	lsrs	r7, r3, #10
    42e4:	ce47      	ldmia	r6, {r0, r1, r2, r6}
    42e6:	1a9a      	subs	r2, r3, r2
    42e8:	e272      	b.n	0x47d0
    42ea:	9f5c      	ldr	r7, [sp, #368]	@ 0x170
    42ec:	9333      	str	r3, [sp, #204]	@ 0xcc
    42ee:	74f1      	strb	r1, [r6, #19]
    42f0:	ce28      	ldmia	r6!, {r3, r5}
    42f2:	39e4      	subs	r1, #228	@ 0xe4
    42f4:	0933      	lsrs	r3, r6, #4
    42f6:	889d      	ldrh	r5, [r3, #4]
    42f8:	ace2      	add	r4, sp, #904	@ 0x388
    42fa:	339e      	adds	r3, #158	@ 0x9e
    42fc:	b193      	cbz	r3, 0x4324
    42fe:	2897      	cmp	r0, #151	@ 0x97
    4300:	4765      	bx	ip
    4302:	a9fc      	add	r1, sp, #1008	@ 0x3f0
    4304:	218c      	movs	r1, #140	@ 0x8c
    4306:	fc65 a9fb 	stc2l	9, cr10, [r5], #-502	@ 0xfffffe0a	@ <UNPREDICTABLE>
    430a:	2457      	movs	r4, #87	@ 0x57
    430c:	efce 3339 	vrsra.s8	d19, d25, #2
    4310:	7309      	strb	r1, [r1, #12]
    4312:	5287      	strh	r7, [r0, r2]
    4314:	8006      	strh	r6, [r0, #0]
    4316:	339f      	adds	r3, #159	@ 0x9f
    4318:	7093      	strb	r3, [r2, #2]
    431a:	2878      	cmp	r0, #120	@ 0x78
    431c:	f065 39f7 	orn	r9, r5, #4160223223	@ 0xf7f7f7f7
    4320:	1933      	adds	r3, r6, r4
    4322:	8865      	ldrh	r5, [r4, #2]
    4324:	5652      	ldrsb	r2, [r2, r1]
    4326:	9fc2      	ldr	r7, [sp, #776]	@ 0x308
    4328:	151a      	asrs	r2, r3, #20
    432a:	9652      	str	r6, [sp, #328]	@ 0x148
    432c:	9fbc      	ldr	r7, [sp, #752]	@ 0x2f0
    432e:	9333      	str	r3, [sp, #204]	@ 0xcc
    4330:	a451      	add	r4, pc, #324	@ (adr r4, 0x4478)
    4332:	6528      	str	r0, [r5, #80]	@ 0x50
    4334:	fc2e ada9 	vsdot.s8	d10, d30, d25
    4338:	fce5 9da9 	vusdot.s8	d25, d21, d25
    433c:	6526      	str	r6, [r4, #80]	@ 0x50
    433e:	fc06 4aa9 	stc2	10, cr4, [r6], {169}	@ 0xa9	@ <UNPREDICTABLE>
    4342:	ace4      	add	r4, sp, #912	@ 0x390
    4344:	95a9      	str	r5, [sp, #676]	@ 0x2a4
    4346:	ce26      	ldmia	r6!, {r1, r2, r5}
    4348:	39d9      	subs	r1, #217	@ 0xd9
    434a:	0933      	lsrs	r3, r6, #4
    434c:	88bb      	ldrh	r3, [r7, #4]
    434e:	1652      	asrs	r2, r2, #25
    4350:	9fc3      	ldr	r7, [sp, #780]	@ 0x30c
    4352:	111a      	asrs	r2, r3, #4
    4354:	9cce      	ldr	r4, [sp, #824]	@ 0x338
    4356:	45aa      	cmp	sl, r5
    4358:	0652      	lsls	r2, r2, #25
    435a:	9f80      	ldr	r7, [sp, #512]	@ 0x200
    435c:	45ca      	cmp	sl, r9
    435e:	fce2 339e 	stc2l	3, cr3, [r2], #632	@ 0x278
    4362:	b093      	sub	sp, #76	@ 0x4c
    4364:	2879      	cmp	r0, #121	@ 0x79
    4366:	1165      	asrs	r5, r4, #5
    4368:	a9fc      	add	r1, sp, #1008	@ 0x3f0
    436a:	244f      	movs	r4, #79	@ 0x4f
    436c:	efce 3339 	vrsra.s8	d19, d25, #2
    4370:	a109      	add	r1, pc, #36	@ (adr r1, 0x4398)
    4372:	5287      	strh	r7, [r0, r2]
    4374:	c116      	stmia	r1!, {r1, r2, r4}
    4376:	fa9f 5246 			@ <UNDEFINED> instruction: 0xfa9f5246
    437a:	c006      	stmia	r0!, {r1, r2}
    437c:	1a9f      	subs	r7, r3, r2
    437e:	5247      	strh	r7, [r0, r1]
    4380:	7ef6      	ldrb	r6, [r6, #27]
    4382:	339f      	adds	r3, #159	@ 0x9f
    4384:	4093      	lsls	r3, r2
    4386:	287b      	cmp	r0, #123	@ 0x7b
    4388:	e465      	b.n	0x3c56
    438a:	39f7      	subs	r1, #247	@ 0xf7
    438c:	1933      	adds	r3, r6, r4
    438e:	88e4      	ldrh	r4, [r4, #6]
    4390:	c652      	stmia	r6!, {r1, r4, r6}
    4392:	9f81      	ldr	r7, [sp, #516]	@ 0x204
    4394:	9333      	str	r3, [sp, #204]	@ 0xcc
    4396:	7c51      	ldrb	r1, [r2, #17]
    4398:	6528      	str	r0, [r5, #80]	@ 0x50
    439a:	fc15 8aa9 	ldc2	10, cr8, [r5], {169}	@ 0xa9	@ <UNPREDICTABLE>
    439e:	ce20      	ldmia	r6!, {r5}
    43a0:	a9f6      	add	r1, sp, #984	@ 0x3d8
    43a2:	25f3      	movs	r5, #243	@ 0xf3
    43a4:	f5ce 3339 	rsb	r3, lr, #189440	@ 0x2e400
    43a8:	d709      	bvc.n	0x43be
    43aa:	5287      	strh	r7, [r0, r2]
    43ac:	c0b6      	stmia	r0!, {r1, r2, r4, r5, r7}
    43ae:	4a9f      	ldr	r2, [pc, #636]	@ (0x462c)
    43b0:	525e      	strh	r6, [r3, r1]
    43b2:	8006      	strh	r6, [r0, #0]
    43b4:	ba9f      	hlt	0x001f
    43b6:	525f      	strh	r7, [r3, r1]
    43b8:	bd96      	pop	{r1, r2, r4, r7, pc}
    43ba:	339c      	adds	r3, #156	@ 0x9c
    43bc:	c193      	stmia	r1!, {r0, r1, r4, r7}
    43be:	288f      	cmp	r0, #143	@ 0x8f
    43c0:	0065      	lsls	r5, r4, #1
    43c2:	39f8      	subs	r1, #248	@ 0xf8
    43c4:	1933      	adds	r3, r6, r4
    43c6:	8917      	ldrh	r7, [r2, #8]
    43c8:	e093      	b.n	0x44f2
    43ca:	a8a3      	add	r0, sp, #652	@ 0x28c
    43cc:	f2c0 930e 	b.w	0xec49ec
    43d0:	a451      	add	r4, pc, #324	@ (adr r4, 0x4518)
    43d2:	a4e8      	add	r4, pc, #928	@ (adr r4, 0x4774)
    43d4:	0286      	lsls	r6, r0, #10
    43d6:	bc21      	pop	{r0, r5}
    43d8:	932a      	str	r3, [sp, #168]	@ 0xa8
    43da:	a451      	add	r4, pc, #324	@ (adr r4, 0x4520)
    43dc:	e0a8      	b.n	0x4530
    43de:	0ef2      	lsrs	r2, r6, #27
    43e0:	5193      	str	r3, [r2, r6]
    43e2:	e8a4 86a4 	stmia.w	r4!, {r2, r5, r7, r9, sl, pc}
    43e6:	4702      	bx	r0
    43e8:	e46e      	b.n	0x3cc8
    43ea:	018d      	lsls	r5, r1, #6
    43ec:	0a0e      	lsrs	r6, r1, #8
    43ee:	ef2f 1930 	vmul.i32	d1, d15, d16
    43f2:	8a45      	ldrh	r5, [r0, #18]
    43f4:	4c7e      	ldr	r4, [pc, #504]	@ (0x45f0)
    43f6:	2364      	movs	r3, #100	@ 0x64
    43f8:	efe4 1935 	vqshrn.s64	d17, <illegal reg q10.5>, #28
    43fc:	8a45      	ldrh	r5, [r0, #18]
    43fe:	6a4e      	ldr	r6, [r1, #36]	@ 0x24
    4400:	6038      	str	r0, [r7, #0]
    4402:	d049      	beq.n	0x4498
    4404:	6396      	str	r6, [r2, #56]	@ 0x38
    4406:	6058      	str	r0, [r3, #4]
    4408:	d069      	beq.n	0x44de
    440a:	a3b6      	add	r3, pc, #728	@ (adr r3, 0x46e4)
    440c:	f020 6c0e 	bic.w	ip, r0, #148897792	@ 0x8e00000
    4410:	6f39      	ldr	r1, [r7, #112]	@ 0x70
    4412:	b6c2      			@ <UNDEFINED> instruction: 0xb6c2
    4414:	46f3      	mov	fp, lr
    4416:	10c0      	asrs	r0, r0, #3
    4418:	066f      	lsls	r7, r5, #25
    441a:	f00c 0286 	and.w	r2, ip, #134	@ 0x86
    441e:	ce28      	ldmia	r6!, {r3, r5}
    4420:	c211      	stmia	r2!, {r0, r4}
    4422:	06fc      	lsls	r4, r7, #27
    4424:	d421      	bmi.n	0x446a
    4426:	e23a      	b.n	0x489e
    4428:	f116 e206 	blx	0x51a838
    442c:	f136 3126 			@ <UNDEFINED> instruction: 0xf1363126
    4430:	3af2      	subs	r2, #242	@ 0xf2
    4432:	3319      	adds	r3, #25
    4434:	4519      	cmp	r1, r3
    4436:	0a8a      	lsrs	r2, r1, #10
    4438:	2100      	movs	r1, #0
    443a:	2423      	movs	r4, #35	@ 0x23
    443c:	000a      	movs	r2, r1
    443e:	ec21 9323 	stc	3, cr9, [r1], #-140	@ 0xffffff74
    4442:	a451      	add	r4, pc, #324	@ (adr r4, 0x4588)
    4444:	a4e8      	add	r4, pc, #928	@ (adr r4, 0x47e8)
    4446:	0286      	lsls	r6, r0, #10
    4448:	2e47      	cmp	r6, #71	@ 0x47
    444a:	3ded      	subs	r5, #237	@ 0xed
    444c:	1b01      	subs	r1, r0, r4
    444e:	1e46      	subs	r6, r0, #1
    4450:	6f0c      	ldr	r4, [r1, #112]	@ 0x70
    4452:	d1e5      	bne.n	0x4420
    4454:	210f      	movs	r1, #15
    4456:	1424      	asrs	r4, r4, #16
    4458:	5193      	str	r3, [r2, r6]
    445a:	f8a4 93fe 	strh.w	r9, [r4, #1022]	@ 0x3fe
    445e:	a451      	add	r4, pc, #324	@ (adr r4, 0x45a4)
    4460:	a4e8      	add	r4, pc, #928	@ (adr r4, 0x4804)
    4462:	0286      	lsls	r6, r0, #10
    4464:	2605      	movs	r6, #5
    4466:	ed35 0526 	cfldr32	mvfx0, [r5, #-152]!	@ 0xffffff68
    446a:	1600      	asrs	r0, r0, #24
    446c:	ded2      	udf	#210	@ 0xd2
    446e:	a013      	add	r0, pc, #76	@ (adr r0, 0x44bc)
    4470:	00a0      	lsls	r0, r4, #2
    4472:	cef0      	ldmia	r6, {r4, r5, r6, r7}
    4474:	f1fe 0afe 			@ <UNDEFINED> instruction: 0xf1fe0afe
    4478:	ef03 1930 	vmul.i8	d1, d3, d16
    447c:	8a45      	ldrh	r5, [r0, #18]
    447e:	c3ef      	stmia	r3!, {r0, r1, r2, r3, r5, r6, r7}
    4480:	2000      	movs	r0, #0
    4482:	1b32      	subs	r2, r6, r4
    4484:	6a4e      	ldr	r6, [r1, #36]	@ 0x24
    4486:	1028      	asrs	r0, r5, #32
    4488:	6183      	str	r3, [r0, #24]
    448a:	40a2      	lsls	r2, r4
    448c:	0ef0      	lsrs	r0, r6, #27
    448e:	5193      	str	r3, [r2, r6]
    4490:	e8a4 44c7 	stmia.w	r4!, {r0, r1, r2, r6, r7, sl, lr}
    4494:	4236      	tst	r6, r6
    4496:	5efe      	ldrsh	r6, [r7, r3]
    4498:	5193      	str	r3, [r2, r6]
    449a:	a8a4      	add	r0, sp, #656	@ 0x290
    449c:	f300 930e 	b.w	0xf04abc
    44a0:	a451      	add	r4, pc, #324	@ (adr r4, 0x45e8)
    44a2:	3ef8      	subs	r6, #248	@ 0xf8
    44a4:	000c      	movs	r4, r1
    44a6:	b322      	cbz	r2, 0x44f2
    44a8:	a4e1      	add	r4, pc, #900	@ (adr r4, 0x4830)
    44aa:	0286      	lsls	r6, r0, #10
    44ac:	1e21      	subs	r1, r4, #0
    44ae:	0a26      	lsrs	r6, r4, #8
    44b0:	ef05 1930 	vmul.i8	d1, d5, d16
    44b4:	8a45      	ldrh	r5, [r0, #18]
    44b6:	4c7e      	ldr	r4, [pc, #504]	@ (0x46b0)
    44b8:	2364      	movs	r3, #100	@ 0x64
    44ba:	efe4 1935 	vqshrn.s64	d17, <illegal reg q10.5>, #28
    44be:	8a45      	ldrh	r5, [r0, #18]
    44c0:	310a      	adds	r1, #10
    44c2:	30ef      	adds	r0, #239	@ 0xef
    44c4:	4519      	cmp	r1, r3
    44c6:	4e8a      	ldr	r6, [pc, #552]	@ (0x46f0)
    44c8:	286a      	cmp	r0, #106	@ 0x6a
    44ca:	2050      	movs	r0, #80	@ 0x50
    44cc:	0a51      	lsrs	r1, r2, #9
    44ce:	ef0a 1930 	vmul.i8	d1, d10, d16
    44d2:	8a45      	ldrh	r5, [r0, #18]
    44d4:	c3ef      	stmia	r3!, {r0, r1, r2, r3, r5, r6, r7}
    44d6:	2000      	movs	r0, #0
    44d8:	1b32      	subs	r2, r6, r4
    44da:	6a4e      	ldr	r6, [r1, #36]	@ 0x24
    44dc:	1028      	asrs	r0, r5, #32
    44de:	60d3      	str	r3, [r2, #12]
    44e0:	60a2      	str	r2, [r4, #8]
    44e2:	0ef0      	lsrs	r0, r6, #27
    44e4:	5193      	str	r3, [r2, r6]
    44e6:	e8a4 44c7 	stmia.w	r4!, {r0, r1, r2, r6, r7, sl, lr}
    44ea:	4236      	tst	r6, r6
    44ec:	5efe      	ldrsh	r6, [r7, r3]
    44ee:	5193      	str	r3, [r2, r6]
    44f0:	a8a4      	add	r0, sp, #656	@ 0x290
    44f2:	f320 930e 	b.w	0xf24b12
    44f6:	a451      	add	r4, pc, #324	@ (adr r4, 0x463c)
    44f8:	3ef8      	subs	r6, #248	@ 0xf8
    44fa:	000c      	movs	r4, r1
    44fc:	b322      	cbz	r2, 0x4548
    44fe:	a4e1      	add	r4, pc, #900	@ (adr r4, 0x4884)
    4500:	0286      	lsls	r6, r0, #10
    4502:	1221      	asrs	r1, r4, #8
    4504:	0a26      	lsrs	r6, r4, #8
    4506:	ef07 1930 	vmul.i8	d1, d7, d16
    450a:	8a45      	ldrh	r5, [r0, #18]
    450c:	4c7e      	ldr	r4, [pc, #504]	@ (0x4708)
    450e:	2364      	movs	r3, #100	@ 0x64
    4510:	efe4 1935 	vqshrn.s64	d17, <illegal reg q10.5>, #28
    4514:	8a45      	ldrh	r5, [r0, #18]
    4516:	330a      	adds	r3, #10
    4518:	30ef      	adds	r0, #239	@ 0xef
    451a:	4519      	cmp	r1, r3
    451c:	ef8a 00c3 	vmla.i<illegal width 8>	d0, d26, d3[0]
    4520:	3220      	adds	r2, #32
    4522:	4e14      	ldr	r6, [pc, #80]	@ (0x4574)
    4524:	286a      	cmp	r0, #106	@ 0x6a
    4526:	f310 3080 			@ <UNDEFINED> instruction: 0xf3103080
    452a:	4519      	cmp	r1, r3
    452c:	7e8a      	ldrb	r2, [r1, #26]
    452e:	644c      	str	r4, [r1, #68]	@ 0x44
    4530:	e423      	b.n	0x3d7a
    4532:	35ef      	adds	r5, #239	@ 0xef
    4534:	4519      	cmp	r1, r3
    4536:	4e8a      	ldr	r6, [pc, #552]	@ (0x4760)
    4538:	286a      	cmp	r0, #106	@ 0x6a
    453a:	2050      	movs	r0, #80	@ 0x50
    453c:	4e54      	ldr	r6, [pc, #336]	@ (0x4690)
    453e:	386a      	subs	r0, #106	@ 0x6a
    4540:	3050      	adds	r0, #80	@ 0x50
    4542:	4e54      	ldr	r6, [pc, #336]	@ (0x4694)
    4544:	486a      	ldr	r0, [pc, #424]	@ (0x46f0)
    4546:	4050      	eors	r0, r2
    4548:	4e54      	ldr	r6, [pc, #336]	@ (0x469c)
    454a:	586a      	ldr	r2, [r5, r1]
    454c:	5050      	str	r0, [r2, r1]
    454e:	0454      	lsls	r4, r2, #17
    4550:	7544      	strb	r4, [r0, #21]
    4552:	0404      	lsls	r4, r0, #16
    4554:	7545      	strb	r5, [r0, #21]
    4556:	0414      	lsls	r4, r2, #16
    4558:	4542      	cmp	r2, r8
    455a:	5431      	strb	r1, [r6, r0]
    455c:	8f21      	ldrh	r1, [r4, #56]	@ 0x38
    455e:	ef24 80af 	vhadd.s32	d8, d20, d31
    4562:	0ef0      	lsrs	r0, r6, #27
    4564:	5193      	str	r3, [r2, r6]
    4566:	f8a4 0c3e 	strh.w	r0, [r4, #3134]	@ 0xc3e
    456a:	2200      	movs	r2, #0
    456c:	e1b3      	b.n	0x48d6
    456e:	86a4      	strh	r4, [r4, #52]	@ 0x34
    4570:	2102      	movs	r1, #2
    4572:	2633      	movs	r6, #51	@ 0x33
    4574:	090a      	lsrs	r2, r1, #4
    4576:	30ef      	adds	r0, #239	@ 0xef
    4578:	4519      	cmp	r1, r3
    457a:	7e8a      	ldrb	r2, [r1, #26]
    457c:	644c      	str	r4, [r1, #68]	@ 0x44
    457e:	e423      	b.n	0x3dc8
    4580:	35ef      	adds	r5, #239	@ 0xef
    4582:	4519      	cmp	r1, r3
    4584:	0a8a      	lsrs	r2, r1, #10
    4586:	ef34 1930 	vmul.i<illegal width 64>	d1, d4, d16
    458a:	8a45      	ldrh	r5, [r0, #18]
    458c:	430a      	orrs	r2, r1
    458e:	30ef      	adds	r0, #239	@ 0xef
    4590:	4519      	cmp	r1, r3
    4592:	ef8a 00c3 	vmla.i<illegal width 8>	d0, d26, d3[0]
    4596:	3220      	adds	r2, #32
    4598:	4e1b      	ldr	r6, [pc, #108]	@ (0x4608)
    459a:	286a      	cmp	r0, #106	@ 0x6a
    459c:	d310      	bcc.n	0x45c0
    459e:	a264      	add	r2, pc, #400	@ (adr r2, 0x4730)
    45a0:	f0b0 930e 	b.w	0xcb4bc0
    45a4:	a451      	add	r4, pc, #324	@ (adr r4, 0x46ec)
    45a6:	c7e8      	stmia	r7!, {r3, r5, r6, r7}
    45a8:	3644      	adds	r6, #68	@ 0x44
    45aa:	fe42 935e 	mcr2	3, 2, r9, cr2, cr14, {2}
    45ae:	a451      	add	r4, pc, #324	@ (adr r4, 0x46f4)
    45b0:	50a8      	str	r0, [r5, r2]
    45b2:	0ef3      	lsrs	r3, r6, #27
    45b4:	5193      	str	r3, [r2, r6]
    45b6:	f8a4 0c3e 	strh.w	r0, [r4, #3134]	@ 0xc3e
    45ba:	2200      	movs	r2, #0
    45bc:	e1b3      	b.n	0x4926
    45be:	86a4      	strh	r4, [r4, #52]	@ 0x34
    45c0:	2102      	movs	r1, #2
    45c2:	260f      	movs	r6, #15
    45c4:	420a      	tst	r2, r1
    45c6:	30ef      	adds	r0, #239	@ 0xef
    45c8:	4519      	cmp	r1, r3
    45ca:	7e8a      	ldrb	r2, [r1, #26]
    45cc:	644c      	str	r4, [r1, #68]	@ 0x44
    45ce:	e423      	b.n	0x3e18
    45d0:	35ef      	adds	r5, #239	@ 0xef
    45d2:	4519      	cmp	r1, r3
    45d4:	4e8a      	ldr	r6, [pc, #552]	@ (0x4800)
    45d6:	286a      	cmp	r0, #106	@ 0x6a
    45d8:	9050      	str	r0, [sp, #320]	@ 0x140
    45da:	0a51      	lsrs	r1, r2, #9
    45dc:	ef0c 1930 	vmul.i8	d1, d12, d16
    45e0:	8a45      	ldrh	r5, [r0, #18]
    45e2:	6a4e      	ldr	r6, [r1, #36]	@ 0x24
    45e4:	5028      	str	r0, [r5, r0]
    45e6:	51a0      	str	r0, [r4, r6]
    45e8:	0d0a      	lsrs	r2, r1, #20
    45ea:	30ef      	adds	r0, #239	@ 0xef
    45ec:	4519      	cmp	r1, r3
    45ee:	4e8a      	ldr	r6, [pc, #552]	@ (0x4818)
    45f0:	386a      	subs	r0, #106	@ 0x6a
    45f2:	b050      	add	sp, #320	@ 0x140
    45f4:	0a51      	lsrs	r1, r2, #9
    45f6:	ef0e 1930 	vmul.i8	d1, d14, d16
    45fa:	8a45      	ldrh	r5, [r0, #18]
    45fc:	6a4e      	ldr	r6, [r1, #36]	@ 0x24
    45fe:	5038      	str	r0, [r7, r0]
    4600:	51c0      	str	r0, [r0, r7]
    4602:	6a4e      	ldr	r6, [r1, #36]	@ 0x24
    4604:	5028      	str	r0, [r5, r0]
    4606:	51d0      	str	r0, [r2, r7]
    4608:	0f0a      	lsrs	r2, r1, #28
    460a:	30ef      	adds	r0, #239	@ 0xef
    460c:	4519      	cmp	r1, r3
    460e:	0a8a      	lsrs	r2, r1, #10
    4610:	ef36 1930 	vmul.i<illegal width 64>	d1, d6, d16
    4614:	8a45      	ldrh	r5, [r0, #18]
    4616:	6a4e      	ldr	r6, [r1, #36]	@ 0x24
    4618:	5028      	str	r0, [r5, r0]
    461a:	5130      	str	r0, [r6, r4]
    461c:	1304      	asrs	r4, r0, #12
    461e:	b315      	cbz	r5, 0x4666
    4620:	a21e      	add	r2, pc, #120	@ (adr r2, 0x469c)
    4622:	f100 930e 	b.w	0xd04c42
    4626:	a451      	add	r4, pc, #324	@ (adr r4, 0x476c)
    4628:	a4e8      	add	r4, pc, #928	@ (adr r4, 0x49cc)
    462a:	0286      	lsls	r6, r0, #10
    462c:	1e05      	subs	r5, r0, #0
    462e:	e045      	b.n	0x46bc
    4630:	2151      	movs	r1, #81	@ 0x51
    4632:	222b      	movs	r2, #43	@ 0x2b
    4634:	afef      	add	r7, sp, #956	@ 0x3bc
    4636:	f110 930e 	b.w	0xd14c56
    463a:	a451      	add	r4, pc, #324	@ (adr r4, 0x4780)
    463c:	a4e8      	add	r4, pc, #928	@ (adr r4, 0x49e0)
    463e:	0286      	lsls	r6, r0, #10
    4640:	1f05      	subs	r5, r0, #4
    4642:	f045 2151 	orr.w	r1, r5, #1358975232	@ 0x51005100
    4646:	22bc      	movs	r2, #188	@ 0xbc
    4648:	120a      	asrs	r2, r1, #8
    464a:	90ef      	str	r0, [sp, #956]	@ 0x3bc
    464c:	7ef9      	ldrb	r1, [r7, #27]
    464e:	6a4e      	ldr	r6, [r1, #36]	@ 0x24
    4650:	5038      	str	r0, [r7, r0]
    4652:	5200      	strh	r0, [r0, r0]
    4654:	2004      	movs	r0, #4
    4656:	3315      	adds	r3, #21
    4658:	a21d      	add	r2, pc, #116	@ (adr r2, 0x46d0)
    465a:	f130 990e 	b.w	0x93487a
    465e:	e7cc      	b.n	0x45fa
    4660:	86a4      	strh	r4, [r4, #52]	@ 0x34
    4662:	0503      	lsls	r3, r0, #20
    4664:	e521      	b.n	0x40aa
    4666:	86a4      	strh	r4, [r4, #52]	@ 0x34
    4668:	0502      	lsls	r2, r0, #20
    466a:	4522      	cmp	r2, r4
    466c:	5220      	strh	r0, [r4, r0]
    466e:	2114      	movs	r1, #20
    4670:	1315      	asrs	r5, r2, #12
    4672:	a22b      	add	r2, pc, #172	@ (adr r2, 0x4720)
    4674:	f140 990e 	b.w	0x944894
    4678:	e798      	b.n	0x45ac
    467a:	86a4      	strh	r4, [r4, #52]	@ 0x34
    467c:	0502      	lsls	r2, r0, #20
    467e:	4527      	cmp	r7, r4
    4680:	5270      	strh	r0, [r6, r1]
    4682:	4721      	bx	r4
    4684:	0a22      	lsrs	r2, r4, #8
    4686:	ef16 5990 	vmul.i16	d5, d22, d0
    468a:	0a77      	lsrs	r7, r6, #9
    468c:	ef37 9990 	vmul.i<illegal width 64>	d9, d23, d0
    4690:	4e76      	ldr	r6, [pc, #472]	@ (0x486c)
    4692:	286a      	cmp	r0, #106	@ 0x6a
    4694:	3050      	adds	r0, #80	@ 0x50
    4696:	0a52      	lsrs	r2, r2, #9
    4698:	ef15 1990 	vmul.i16	d1, d21, d0
    469c:	0a75      	lsrs	r5, r6, #9
    469e:	ef38 5990 	vmul.i<illegal width 64>	d5, d24, d0
    46a2:	4e74      	ldr	r6, [pc, #464]	@ (0x4874)
    46a4:	286a      	cmp	r0, #106	@ 0x6a
    46a6:	1050      	asrs	r0, r2, #1
    46a8:	0a55      	lsrs	r5, r2, #9
    46aa:	ef17 1040 	vhadd.s16	<illegal reg q0.5>, <illegal reg q3.5>, q0
    46ae:	2155      	movs	r1, #85	@ 0x55
    46b0:	20d4      	movs	r0, #212	@ 0xd4
    46b2:	2299      	movs	r2, #153	@ 0x99
    46b4:	a4e7      	add	r4, pc, #924	@ (adr r4, 0x4a54)
    46b6:	e2ce      	b.n	0x4c56
    46b8:	6d20      	ldr	r0, [r4, #80]	@ 0x50
    46ba:	0554      	lsls	r4, r2, #21
    46bc:	6a4e      	ldr	r6, [r1, #36]	@ 0x24
    46be:	5048      	str	r0, [r1, r1]
    46c0:	5560      	strb	r0, [r4, r5]
    46c2:	6a4e      	ldr	r6, [r1, #36]	@ 0x24
    46c4:	5058      	str	r0, [r3, r1]
    46c6:	5570      	strb	r0, [r6, r5]
    46c8:	6a4e      	ldr	r6, [r1, #36]	@ 0x24
    46ca:	5068      	str	r0, [r5, r1]
    46cc:	5580      	strb	r0, [r0, r6]
    46ce:	180a      	adds	r2, r1, r0
    46d0:	40ef      	lsrs	r7, r5
    46d2:	5580      	strb	r0, [r0, r6]
    46d4:	2047      	movs	r0, #71	@ 0x47
    46d6:	547c      	strb	r4, [r7, r1]
    46d8:	0405      	lsls	r5, r0, #16
    46da:	4556      	cmp	r6, sl
    46dc:	5571      	strb	r1, [r6, r5]
    46de:	1e42      	subs	r2, r0, #1
    46e0:	3573      	adds	r5, #115	@ 0x73
    46e2:	1992      	adds	r2, r2, r6
    46e4:	4e6c      	ldr	r6, [pc, #432]	@ (0x4898)
    46e6:	286a      	cmp	r0, #106	@ 0x6a
    46e8:	6050      	str	r0, [r2, #4]
    46ea:	0454      	lsls	r4, r2, #17
    46ec:	1546      	asrs	r6, r0, #21
    46ee:	0e83      	lsrs	r3, r0, #26
    46f0:	90a2      	str	r0, [sp, #648]	@ 0x288
    46f2:	0ef1      	lsrs	r1, r6, #27
    46f4:	9e99      	ldr	r6, [sp, #612]	@ 0x264
    46f6:	a4e6      	add	r4, pc, #920	@ (adr r4, 0x4a90)
    46f8:	0286      	lsls	r6, r0, #10
    46fa:	4805      	ldr	r0, [pc, #20]	@ (0x4710)
    46fc:	a0a5      	add	r0, pc, #660	@ (adr r0, 0x4994)
    46fe:	0ef1      	lsrs	r1, r6, #27
    4700:	4804      	ldr	r0, [pc, #16]	@ (0x4714)
    4702:	e315      	b.n	0x4d30
    4704:	9206      	str	r2, [sp, #24]
    4706:	67b9      	str	r1, [r7, #120]	@ 0x78
    4708:	390a      	subs	r1, #10
    470a:	90ef      	str	r0, [sp, #956]	@ 0x3bc
    470c:	66f9      	str	r1, [r7, #108]	@ 0x6c
    470e:	6a4e      	ldr	r6, [r1, #36]	@ 0x24
    4710:	5028      	str	r0, [r5, r0]
    4712:	5280      	strh	r0, [r0, r2]
    4714:	2804      	cmp	r0, #4
    4716:	d315      	bcc.n	0x4744
    4718:	f221 0afe 			@ <UNDEFINED> instruction: 0xf2210afe
    471c:	ef1b 9990 	vmul.i16	d9, d27, d0
    4720:	4e64      	ldr	r6, [pc, #400]	@ (0x48b4)
    4722:	2cea      	cmp	r4, #234	@ 0xea
    4724:	d20e      	bcs.n	0x4744
    4726:	5346      	strh	r6, [r0, r5]
    4728:	a4e0      	add	r4, pc, #896	@ (adr r4, 0x4aac)
    472a:	e4ce      	b.n	0x40ca
    472c:	6d20      	ldr	r0, [r4, #80]	@ 0x50
    472e:	0536      	lsls	r6, r6, #20
    4730:	ea4e 0e6c 	orr.w	lr, lr, ip, asr #1
    4734:	86d2      	strh	r2, [r2, #54]	@ 0x36
    4736:	2053      	movs	r0, #83	@ 0x53
    4738:	386c      	subs	r0, #108	@ 0x6c
    473a:	6f05      	ldr	r5, [r0, #112]	@ 0x70
    473c:	7c20      	ldrb	r0, [r4, #16]
    473e:	0534      	lsls	r4, r6, #20
    4740:	66c2      	str	r2, [r0, #108]	@ 0x6c
    4742:	2053      	movs	r0, #83	@ 0x53
    4744:	82c4      	strh	r4, [r0, #22]
    4746:	9312      	str	r3, [sp, #72]	@ 0x48
    4748:	a226      	add	r2, pc, #152	@ (adr r2, 0x47e4)
    474a:	f1c0 990e 	b.w	0x9c496a
    474e:	e5ec      	b.n	0x432a
    4750:	86a4      	strh	r4, [r4, #52]	@ 0x34
    4752:	9602      	str	r6, [sp, #8]
    4754:	d203      	bcs.n	0x475e
    4756:	53a6      	strh	r6, [r4, r6]
    4758:	4860      	ldr	r0, [pc, #384]	@ (0x48dc)
    475a:	5960      	ldr	r0, [r4, r5]
    475c:	6d20      	ldr	r0, [r4, #80]	@ 0x50
    475e:	053c      	lsls	r4, r7, #20
    4760:	a6c2      	add	r6, pc, #776	@ (adr r6, 0x4a6c)
    4762:	f053 c206 	blx	0xc57b70
    4766:	53c6      	strh	r6, [r0, r7]
    4768:	26f0      	movs	r6, #240	@ 0xf0
    476a:	5b21      	ldrh	r1, [r4, r4]
    476c:	0a22      	lsrs	r2, r4, #8
    476e:	ef1d 5990 	vmul.i16	d5, d29, d0
    4772:	4e5a      	ldr	r6, [pc, #360]	@ (0x48dc)
    4774:	2cea      	cmp	r4, #234	@ 0xea
    4776:	d20e      	bcs.n	0x4796
    4778:	53e6      	strh	r6, [r4, r7]
    477a:	6c20      	ldr	r0, [r4, #64]	@ 0x40
    477c:	053e      	lsls	r6, r7, #20
    477e:	5321      	strh	r1, [r4, r4]
    4780:	0a22      	lsrs	r2, r4, #8
    4782:	ef1e d990 	vmul.i16	d13, d30, d0
    4786:	4e57      	ldr	r6, [pc, #348]	@ (0x48e4)
    4788:	2cea      	cmp	r4, #234	@ 0xea
    478a:	d20e      	bcs.n	0x47aa
    478c:	5406      	strb	r6, [r0, r0]
    478e:	6c20      	ldr	r0, [r4, #64]	@ 0x40
    4790:	0540      	lsls	r0, r0, #21
    4792:	4c21      	ldr	r4, [pc, #132]	@ (0x4818)
    4794:	0a22      	lsrs	r2, r4, #8
    4796:	ef1f 5990 	vmul.i16	d5, d31, d0
    479a:	0a55      	lsrs	r5, r2, #9
    479c:	ef3a 9990 	vmul.i<illegal width 64>	d9, d26, d0
    47a0:	4e54      	ldr	r6, [pc, #336]	@ (0x48f4)
    47a2:	286a      	cmp	r0, #106	@ 0x6a
    47a4:	9050      	str	r0, [sp, #320]	@ 0x140
    47a6:	0452      	lsls	r2, r2, #17
    47a8:	1529      	asrs	r1, r5, #20
    47aa:	1a13      	subs	r3, r2, r0
    47ac:	fef2 200a 	cdp2	0, 15, cr2, cr2, cr10, {0}
    47b0:	90ef      	str	r0, [sp, #956]	@ 0x3bc
    47b2:	5239      	strh	r1, [r7, r0]
    47b4:	6a4e      	ldr	r6, [r1, #36]	@ 0x24
    47b6:	5028      	str	r0, [r5, r0]
    47b8:	5490      	strb	r0, [r2, r2]
    47ba:	210a      	movs	r1, #10
    47bc:	40ef      	lsrs	r7, r5
    47be:	5490      	strb	r0, [r2, r2]
    47c0:	e221      	b.n	0x4c06
    47c2:	991f      	ldr	r1, [sp, #124]	@ 0x7c
    47c4:	e500      	b.n	0x41c8
    47c6:	86a4      	strh	r4, [r4, #52]	@ 0x34
    47c8:	0502      	lsls	r2, r0, #20
    47ca:	a54a      	add	r5, pc, #296	@ (adr r5, 0x48f4)
    47cc:	f220 040e 			@ <UNDEFINED> instruction: 0xf220040e
    47d0:	154a      	asrs	r2, r1, #21
    47d2:	44e3      	add	fp, ip
    47d4:	d992      	bls.n	0x46fc
    47d6:	0a4d      	lsrs	r5, r1, #9
    47d8:	ef3b 1990 	vmul.i<illegal width 64>	d1, d27, d0
    47dc:	ef4d 00c3 	vhadd.s8	q8, <illegal reg q14.5>, <illegal reg q1.5>
    47e0:	3220      	adds	r2, #32
    47e2:	4e19      	ldr	r6, [pc, #100]	@ (0x4848)
    47e4:	286a      	cmp	r0, #106	@ 0x6a
    47e6:	6310      	str	r0, [r2, #48]	@ 0x30
    47e8:	a235      	add	r2, pc, #212	@ (adr r2, 0x48c0)
    47ea:	f230 990e 	b.w	0xa34a0a
    47ee:	e4ac      	b.n	0x414a
    47f0:	44c7      	add	pc, r8
    47f2:	4236      	tst	r6, r6
    47f4:	5efe      	ldrsh	r6, [r7, r3]
    47f6:	9a99      	ldr	r2, [sp, #612]	@ 0x264
    47f8:	c0a4      	stmia	r0!, {r2, r5, r7}
    47fa:	0ef3      	lsrs	r3, r6, #27
    47fc:	8e99      	ldrh	r1, [r3, #52]	@ 0x34
    47fe:	a4e4      	add	r4, pc, #912	@ (adr r4, 0x4b90)
    4800:	0286      	lsls	r6, r0, #10
    4802:	4705      	bx	r0
    4804:	cd35      	ldmia	r5, {r0, r2, r4, r5}
    4806:	0547      	lsls	r7, r0, #21
    4808:	2500      	movs	r5, #0
    480a:	7cd3      	ldrb	r3, [r2, #19]
    480c:	1054      	asrs	r4, r2, #1
    480e:	3250      	adds	r2, #80	@ 0x50
    4810:	47cd      			@ <UNDEFINED> instruction: 0x47cd
    4812:	0205      	lsls	r5, r0, #8
    4814:	d325      	bcc.n	0x4862
    4816:	547c      	strb	r4, [r7, r1]
    4818:	4030      	ands	r0, r6
    481a:	7982      	ldrb	r2, [r0, #6]
    481c:	00a2      	lsls	r2, r4, #2
    481e:	9ef0      	ldr	r6, [sp, #960]	@ 0x3c0
    4820:	1c98      	adds	r0, r3, #2
    4822:	030a      	lsls	r2, r1, #12
    4824:	89ef      	ldrh	r7, [r5, #14]
    4826:	a119      	add	r1, pc, #100	@ (adr r1, 0x488c)
    4828:	f040 fe9e 	bl	0x45568
    482c:	10a3      	asrs	r3, r4, #2
    482e:	9ef0      	ldr	r6, [sp, #960]	@ 0x3c0
    4830:	240a      	movs	r4, #10
    4832:	90ef      	str	r0, [sp, #956]	@ 0x3bc
    4834:	41f9      	rors	r1, r7
    4836:	6a4e      	ldr	r6, [r1, #36]	@ 0x24
    4838:	5028      	str	r0, [r5, r0]
    483a:	5140      	str	r0, [r0, r5]
    483c:	4ed3      	ldr	r6, [pc, #844]	@ (0x4b8c)
    483e:	0051      	lsls	r1, r2, #1
    4840:	1100      	asrs	r0, r0, #4
    4842:	eab3 2410 			@ <UNDEFINED> instruction: 0xeab32410
    4846:	8904      	ldrh	r4, [r0, #8]
    4848:	3119      	adds	r1, #25
    484a:	14ed      	asrs	r5, r5, #19
    484c:	0405      	lsls	r5, r0, #16
    484e:	2106      	movs	r1, #6
    4850:	16e8      	asrs	r0, r5, #27
    4852:	250a      	movs	r5, #10
    4854:	90ef      	str	r0, [sp, #956]	@ 0x3bc
    4856:	3db9      	subs	r5, #185	@ 0xb9
    4858:	6a4e      	ldr	r6, [r1, #36]	@ 0x24
    485a:	5028      	str	r0, [r5, r0]
    485c:	5150      	str	r0, [r2, r5]
    485e:	afef      	add	r7, sp, #956	@ 0x3bc
    4860:	f260 990e 	b.w	0xa64a80
    4864:	e3c0      	b.n	0x4fe8
    4866:	86a4      	strh	r4, [r4, #52]	@ 0x34
    4868:	0502      	lsls	r2, r0, #20
    486a:	4516      	cmp	r6, r2
    486c:	5160      	str	r0, [r4, r5]
    486e:	8521      	strh	r1, [r4, #40]	@ 0x28
    4870:	0a1f      	lsrs	r7, r3, #8
    4872:	ef27 d990 	vmul.i32	d13, d23, d0
    4876:	ef39 00c3 	vhadd.s<illegal width 64>	q0, <illegal reg q12.5>, <illegal reg q1.5>
    487a:	3220      	adds	r2, #32
    487c:	4e2e      	ldr	r6, [pc, #184]	@ (0x4938)
    487e:	286a      	cmp	r0, #106	@ 0x6a
    4880:	0050      	lsls	r0, r2, #1
    4882:	d356      	bcc.n	0x4932
    4884:	560e      	ldrsb	r6, [r1, r0]
    4886:	b010      	add	sp, #64	@ 0x40
    4888:	0040      	lsls	r0, r0, #1
    488a:	2156      	movs	r1, #86	@ 0x56
    488c:	25cd      	movs	r5, #205	@ 0xcd
    488e:	440a      	add	r2, r1
    4890:	90ef      	str	r0, [sp, #956]	@ 0x3bc
    4892:	3639      	adds	r6, #57	@ 0x39
    4894:	4c7e      	ldr	r4, [pc, #504]	@ (0x4a90)
    4896:	2364      	movs	r3, #100	@ 0x64
    4898:	efe4 1995 			@ <UNDEFINED> instruction: 0xefe41995
    489c:	ef35 00c3 	vhadd.s<illegal width 64>	q0, <illegal reg q10.5>, <illegal reg q1.5>
    48a0:	3220      	adds	r2, #32
    48a2:	4e1e      	ldr	r6, [pc, #120]	@ (0x491c)
    48a4:	286a      	cmp	r0, #106	@ 0x6a
    48a6:	7450      	strb	r0, [r2, #17]
    48a8:	90a3      	str	r0, [sp, #652]	@ 0x28c
    48aa:	0ef4      	lsrs	r4, r6, #27
    48ac:	2a0a      	cmp	r2, #10
    48ae:	91ef      	str	r1, [sp, #956]	@ 0x3bc
    48b0:	3279      	adds	r2, #121	@ 0x79
    48b2:	4c7e      	ldr	r4, [pc, #504]	@ (0x4aac)
    48b4:	2364      	movs	r3, #100	@ 0x64
    48b6:	efe4 5995 			@ <UNDEFINED> instruction: 0xefe45995
    48ba:	ef31 00c3 	vhadd.s<illegal width 64>	q0, <illegal reg q8.5>, <illegal reg q1.5>
    48be:	3220      	adds	r2, #32
    48c0:	4e35      	ldr	r6, [pc, #212]	@ (0x4998)
    48c2:	286a      	cmp	r0, #106	@ 0x6a
    48c4:	7050      	strb	r0, [r2, #1]
    48c6:	d351      	bcc.n	0x496c
    48c8:	517e      	str	r6, [r7, r5]
    48ca:	c000      	stmia	r0!, {}
    48cc:	50a0      	str	r0, [r4, r2]
    48ce:	0ef4      	lsrs	r4, r6, #27
    48d0:	e699      	b.n	0x4606
    48d2:	c7e2      	stmia	r7!, {r1, r5, r6, r7}
    48d4:	3644      	adds	r6, #68	@ 0x44
    48d6:	fe42 995e 	mcr2	9, 2, r9, cr2, cr14, {2}	@ <UNPREDICTABLE>
    48da:	e2d4      	b.n	0x4e86
    48dc:	44c7      	add	pc, r8
    48de:	4236      	tst	r6, r6
    48e0:	5efe      	ldrsh	r6, [r7, r3]
    48e2:	c299      	stmia	r2!, {r0, r3, r4, r7}
    48e4:	3ef2      	subs	r6, #242	@ 0xf2
    48e6:	000c      	movs	r4, r1
    48e8:	2322      	movs	r3, #34	@ 0x22
    48ea:	1311      	asrs	r1, r2, #12
    48ec:	a144      	add	r1, pc, #272	@ (adr r1, 0x4a00)
    48ee:	f460 990e 	b.w	0xff464b0e
    48f2:	e2a4      	b.n	0x4e3e
    48f4:	44c7      	add	pc, r8
    48f6:	4236      	tst	r6, r6
    48f8:	5efe      	ldrsh	r6, [r7, r3]
    48fa:	9299      	str	r2, [sp, #612]	@ 0x264
    48fc:	3ef2      	subs	r6, #242	@ 0xf2
    48fe:	000c      	movs	r4, r1
    4900:	8322      	strh	r2, [r4, #24]
    4902:	a4e1      	add	r4, pc, #900	@ (adr r4, 0x4c88)
    4904:	0286      	lsls	r6, r0, #10
    4906:	5a05      	ldrh	r5, [r0, r0]
    4908:	70a5      	strb	r5, [r4, #2]
    490a:	0ef4      	lsrs	r4, r6, #27
    490c:	6e99      	ldr	r1, [r3, #104]	@ 0x68
    490e:	c7e2      	stmia	r7!, {r1, r5, r6, r7}
    4910:	3644      	adds	r6, #68	@ 0x44
    4912:	fe42 995e 	mcr2	9, 2, r9, cr2, cr14, {2}	@ <UNPREDICTABLE>
    4916:	f25c 0c3e 			@ <UNDEFINED> instruction: 0xf25c0c3e
    491a:	2200      	movs	r2, #0
    491c:	e183      	b.n	0x4c26
    491e:	86a4      	strh	r4, [r4, #52]	@ 0x34
    4920:	0502      	lsls	r2, r0, #20
    4922:	a55b      	add	r5, pc, #364	@ (adr r5, 0x4a90)
    4924:	f480 990e 	b.w	0xff484b44
    4928:	e238      	b.n	0x4d9c
    492a:	44c7      	add	pc, r8
    492c:	4236      	tst	r6, r6
    492e:	5efe      	ldrsh	r6, [r7, r3]
    4930:	2699      	movs	r6, #153	@ 0x99
    4932:	d0a2      	beq.n	0x487a
    4934:	0ef3      	lsrs	r3, r6, #27
    4936:	1a99      	subs	r1, r3, r2
    4938:	a4e2      	add	r4, pc, #904	@ (adr r4, 0x4cc4)
    493a:	e2ce      	b.n	0x4eda
    493c:	6d20      	ldr	r0, [r4, #80]	@ 0x50
    493e:	052a      	lsls	r2, r5, #20
    4940:	6a4e      	ldr	r6, [r1, #36]	@ 0x24
    4942:	5048      	str	r0, [r1, r1]
    4944:	55f0      	strb	r0, [r6, r7]
    4946:	a7c2      	add	r7, pc, #776	@ (adr r7, 0x4c50)
    4948:	4052      	eors	r2, r2
    494a:	55f0      	strb	r0, [r6, r7]
    494c:	1e42      	subs	r2, r0, #1
    494e:	0143      	lsls	r3, r0, #5
    4950:	fef2 280a 	vcmla.f32	d18, d2, d10[0], #270
    4954:	90ef      	str	r0, [sp, #956]	@ 0x3bc
    4956:	1db9      	adds	r1, r7, #6
    4958:	6a4e      	ldr	r6, [r1, #36]	@ 0x24
    495a:	6028      	str	r0, [r5, #0]
    495c:	2039      	movs	r0, #57	@ 0x39
    495e:	2c6d      	cmp	r4, #109	@ 0x6d
    4960:	8605      	strh	r5, [r0, #48]	@ 0x30
    4962:	9604      	str	r6, [sp, #16]
    4964:	d205      	bcs.n	0x4972
    4966:	52e6      	strh	r6, [r4, r3]
    4968:	6c20      	ldr	r0, [r4, #64]	@ 0x40
    496a:	052c      	lsls	r4, r5, #20
    496c:	206f      	movs	r0, #111	@ 0x6f
    496e:	2e6c      	cmp	r6, #108	@ 0x6c
    4970:	6f05      	ldr	r5, [r0, #112]	@ 0x70
    4972:	5312      	strh	r2, [r2, r4]
    4974:	a202      	add	r2, pc, #8	@ (adr r2, 0x4980)
    4976:	f290 990e 	b.w	0xa94b96
    497a:	e194      	b.n	0x4ca6
    497c:	86a4      	strh	r4, [r4, #52]	@ 0x34
    497e:	9602      	str	r6, [sp, #8]
    4980:	d203      	bcs.n	0x498a
    4982:	5306      	strh	r6, [r0, r4]
    4984:	4860      	ldr	r0, [pc, #384]	@ (0x4b08)
    4986:	5960      	ldr	r0, [r4, r5]
    4988:	6d20      	ldr	r0, [r4, #80]	@ 0x50
    498a:	0532      	lsls	r2, r6, #20
    498c:	06c2      	lsls	r2, r0, #27
    498e:	f053 c206 	blx	0xc57d9c
    4992:	5326      	strh	r6, [r4, r4]
    4994:	26f0      	movs	r6, #240	@ 0xf0
    4996:	0e21      	lsrs	r1, r4, #24
    4998:	0a20      	lsrs	r0, r4, #8
    499a:	ef2a d990 	vmul.i32	d13, d26, d0
    499e:	ef14 00c3 	vhadd.s16	q0, q10, <illegal reg q1.5>
    49a2:	3320      	adds	r3, #32
    49a4:	e116      	b.n	0x4bd4
    49a6:	86a4      	strh	r4, [r4, #52]	@ 0x34
    49a8:	0502      	lsls	r2, r0, #20
    49aa:	e54b      	b.n	0x4444
    49ac:	86a4      	strh	r4, [r4, #52]	@ 0x34
    49ae:	0503      	lsls	r3, r0, #20
    49b0:	e54c      	b.n	0x444c
    49b2:	86a4      	strh	r4, [r4, #52]	@ 0x34
    49b4:	0504      	lsls	r4, r0, #20
    49b6:	e54d      	b.n	0x4454
    49b8:	86a4      	strh	r4, [r4, #52]	@ 0x34
    49ba:	0505      	lsls	r5, r0, #20
    49bc:	e54e      	b.n	0x445c
    49be:	86a4      	strh	r4, [r4, #52]	@ 0x34
    49c0:	0506      	lsls	r6, r0, #20
    49c2:	e54f      	b.n	0x4464
    49c4:	86a4      	strh	r4, [r4, #52]	@ 0x34
    49c6:	0507      	lsls	r7, r0, #20
    49c8:	4550      	cmp	r0, sl
    49ca:	54b0      	strb	r0, [r6, r2]
    49cc:	000c      	movs	r4, r1
    49ce:	afd9      	add	r7, sp, #868	@ 0x364
    49d0:	b040      	add	sp, #256	@ 0x100
    49d2:	0c54      	lsrs	r4, r2, #17
    49d4:	3263      	adds	r2, #99	@ 0x63
    49d6:	0a02      	lsrs	r2, r0, #8
    49d8:	4c04      	ldr	r4, [pc, #16]	@ (0x49ec)
    49da:	10c5      	asrs	r5, r0, #3
    49dc:	2d90      	cmp	r5, #144	@ 0x90
    49de:	0409      	lsls	r1, r1, #16
    49e0:	c54c      	stmia	r5!, {r2, r3, r6}
    49e2:	20c0      	movs	r0, #192	@ 0xc0
    49e4:	8323      	strh	r3, [r4, #24]
    49e6:	d040      	beq.n	0x4a6a
    49e8:	0c54      	lsrs	r4, r2, #17
    49ea:	d801      	bhi.n	0x49f0
    49ec:	0476      	lsls	r6, r6, #17
    49ee:	c54d      	stmia	r5!, {r0, r2, r3, r6}
    49f0:	21f0      	movs	r1, #240	@ 0xf0
    49f2:	6822      	ldr	r2, [r4, #0]
    49f4:	4e04      	ldr	r6, [pc, #16]	@ (0x4a08)
    49f6:	00c5      	lsls	r5, r0, #3
    49f8:	bd80      	pop	{r7, pc}
    49fa:	e045      	b.n	0x4a88
    49fc:	0c54      	lsrs	r4, r2, #17
    49fe:	2217      	movs	r2, #23
    4a00:	44d2      	add	sl, sl
    4a02:	54f0      	strb	r0, [r6, r3]
    4a04:	000c      	movs	r4, r1
    4a06:	40d8      	lsrs	r0, r3
    4a08:	4f04      	ldr	r7, [pc, #16]	@ (0x4a1c)
    4a0a:	b0c5      	sub	sp, #276	@ 0x114
    4a0c:	2223      	movs	r2, #35	@ 0x23
    4a0e:	0432      	lsls	r2, r6, #16
    4a10:	c550      	stmia	r5!, {r4, r6}
    4a12:	8000      	strh	r0, [r0, #0]
    4a14:	425d      	negs	r5, r3
    4a16:	5500      	strb	r0, [r0, r4]
    4a18:	3b0c      	subs	r3, #12
    4a1a:	7222      	strb	r2, [r4, #8]
    4a1c:	bed1      	bkpt	0x00d1
    4a1e:	1054      	asrs	r4, r2, #1
    4a20:	4543      	cmp	r3, r8
    4a22:	b0a2      	sub	sp, #136	@ 0x88
    4a24:	0ef2      	lsrs	r2, r6, #27
    4a26:	3b98      	subs	r3, #152	@ 0x98
    4a28:	4c7e      	ldr	r4, [pc, #504]	@ (0x4c24)
    4a2a:	2364      	movs	r3, #100	@ 0x64
    4a2c:	efe4 a985 	vqdmlal.s32	q13, d20, d5
    4a30:	c7e2      	stmia	r7!, {r1, r5, r6, r7}
    4a32:	3644      	adds	r6, #68	@ 0x44
    4a34:	fe42 985e 	vfmal.f16	<illegal reg q12.5>, d2, d6[1]
    4a38:	0a19      	lsrs	r1, r3, #8
    4a3a:	ef3e 7fe0 	vmin.f16	<illegal reg q3.5>, q15, q8
    4a3e:	4c7e      	ldr	r4, [pc, #504]	@ (0x4c38)
    4a40:	2364      	movs	r3, #100	@ 0x64
    4a42:	11e4      	asrs	r4, r4, #7
    4a44:	13ab      	asrs	r3, r5, #14
    4a46:	f3e4 f7ef 	bl	0x7e9a28
    4a4a:	15cf      	asrs	r7, r1, #23
    4a4c:	df10      	svc	16
    4a4e:	47fa      			@ <UNDEFINED> instruction: 0x47fa
    4a50:	f04f 4e26 	mov.w	lr, #2785017856	@ 0xa6000000
    4a54:	6522      	str	r2, [r4, #80]	@ 0x50
    4a56:	fdb8 5ca9 	ldc2	12, cr5, [r8, #676]!	@ 0x2a4
    4a5a:	6523      	str	r3, [r4, #80]	@ 0x50
    4a5c:	fc13 28a9 	ldc2	8, cr2, [r3], {169}	@ 0xa9
    4a60:	6523      	str	r3, [r4, #80]	@ 0x50
    4a62:	fc0f e0a9 	stc2	0, cr14, [pc], {169}	@ 0xa9
    4a66:	6522      	str	r2, [r4, #80]	@ 0x50
    4a68:	f416 fda9 	bl	0xffc1b5be
    4a6c:	6521      	str	r1, [r4, #80]	@ 0x50
    4a6e:	e40b      	b.n	0x4288
    4a70:	e6a9      	b.n	0x47c6
    4a72:	6522      	str	r2, [r4, #80]	@ 0x50
    4a74:	f800 a6a9 	strb.w	sl, [r0, <undefined>]
    4a78:	ace0      	add	r4, sp, #896	@ 0x380
    4a7a:	12a9      	asrs	r1, r5, #10
    4a7c:	6521      	str	r1, [r4, #80]	@ 0x50
    4a7e:	ec01 b2a9 	sfm	f3, 1, [r1], {169}	@ 0xa9
    4a82:	fce0 d4a9 	stc2l	4, cr13, [r0], #676	@ 0x2a4
    4a86:	6520      	str	r0, [r4, #80]	@ 0x50
    4a88:	fc0a 5fa8 	stc2	15, cr5, [sl], {168}	@ 0xa8
    4a8c:	b652      			@ <UNDEFINED> instruction: 0xb652
    4a8e:	9f3e      	ldr	r7, [sp, #248]	@ 0xf8
    4a90:	1f1a      	subs	r2, r3, #4
    4a92:	b652      			@ <UNDEFINED> instruction: 0xb652
    4a94:	9d80      	ldr	r5, [sp, #512]	@ 0x200
    4a96:	0fba      	lsrs	r2, r7, #30
    4a98:	5ce2      	ldrb	r2, [r4, r3]
    4a9a:	4a9f      	ldr	r2, [pc, #636]	@ (0x4d18)
    4a9c:	5220      	strh	r0, [r4, r0]
    4a9e:	c0b6      	stmia	r0!, {r1, r2, r4, r5, r7}
    4aa0:	da9f      	bge.n	0x49e2
    4aa2:	e212      	b.n	0x4eca
    4aa4:	9f5c      	ldr	r7, [sp, #368]	@ 0x170
    4aa6:	225a      	movs	r2, #90	@ 0x5a
    4aa8:	b652      			@ <UNDEFINED> instruction: 0xb652
    4aaa:	9fc0      	ldr	r7, [sp, #768]	@ 0x300
    4aac:	137a      	asrs	r2, r7, #13
    4aae:	5ce2      	ldrb	r2, [r4, r3]
    4ab0:	fa9f 5222 			@ <UNDEFINED> instruction: 0xfa9f5222
    4ab4:	c0b6      	stmia	r0!, {r1, r2, r4, r5, r7}
    4ab6:	4a9f      	ldr	r2, [pc, #636]	@ (0x4d34)
    4ab8:	9914      	ldr	r1, [sp, #80]	@ 0x50
    4aba:	42b3      	cmp	r3, r6
    4abc:	4961      	ldr	r1, [pc, #388]	@ (0x4c44)
    4abe:	f0c2 3429 			@ <UNDEFINED> instruction: 0xf0c23429
    4ac2:	a912      	add	r1, sp, #72	@ 0x48
    4ac4:	129f      	asrs	r7, r3, #10
    4ac6:	4945      	ldr	r1, [pc, #276]	@ (0x4bdc)
    4ac8:	9900      	ldr	r1, [sp, #0]
    4aca:	4293      	cmp	r3, r2
    4acc:	4991      	ldr	r1, [pc, #580]	@ (0x4d14)
    4ace:	20c2      	movs	r0, #194	@ 0xc2
    4ad0:	342a      	adds	r4, #42	@ 0x2a
    4ad2:	a912      	add	r1, sp, #72	@ 0x48
    4ad4:	127f      	asrs	r7, r7, #9
    4ad6:	4975      	ldr	r1, [pc, #468]	@ (0x4cac)
    4ad8:	9900      	ldr	r1, [sp, #0]
    4ada:	1273      	asrs	r3, r6, #9
    4adc:	4a65      	ldr	r2, [pc, #404]	@ (0x4c74)
    4ade:	4e00      	ldr	r6, [pc, #0]	@ (0x4ae0)
    4ae0:	3860      	subs	r0, #96	@ 0x60
    4ae2:	a580      	add	r5, pc, #512	@ (adr r5, 0x4ce4)
    4ae4:	a00f      	add	r0, pc, #60	@ (adr r0, 0x4b24)
    4ae6:	200a      	movs	r0, #10
    4ae8:	9ac4      	ldr	r2, [sp, #784]	@ 0x310
    4aea:	21ca      	movs	r1, #202	@ 0xca
    4aec:	0df2      	lsrs	r2, r6, #23
    4aee:	4999      	ldr	r1, [pc, #612]	@ (0x4d54)
    4af0:	9512      	str	r5, [sp, #72]	@ 0x48
    4af2:	004a      	lsls	r2, r1, #1
    4af4:	604e      	str	r6, [r1, #4]
    4af6:	8038      	strh	r0, [r7, #0]
    4af8:	3fa5      	subs	r7, #165	@ 0xa5
    4afa:	0aa0      	lsrs	r0, r4, #10
    4afc:	c420      	stmia	r4!, {r5}
    4afe:	ca9a      	ldmia	r2!, {r1, r3, r4, r7}
    4b00:	dd21      	ble.n	0x4b46
    4b02:	990d      	ldr	r1, [sp, #52]	@ 0x34
    4b04:	421f      	tst	r7, r3
    4b06:	49c1      	ldr	r1, [pc, #772]	@ (0x4e0c)
    4b08:	50c2      	str	r2, [r0, r3]
    4b0a:	342a      	adds	r4, #42	@ 0x2a
    4b0c:	a912      	add	r1, sp, #72	@ 0x48
    4b0e:	120b      	asrs	r3, r1, #8
    4b10:	49a5      	ldr	r1, [pc, #660]	@ (0x4da8)
    4b12:	9900      	ldr	r1, [sp, #0]
    4b14:	11ff      	asrs	r7, r7, #7
    4b16:	4ac5      	ldr	r2, [pc, #788]	@ (0x4e2c)
    4b18:	4e00      	ldr	r6, [pc, #0]	@ (0x4b1c)
    4b1a:	2860      	cmp	r0, #96	@ 0x60
    4b1c:	a580      	add	r5, pc, #512	@ (adr r5, 0x4d20)
    4b1e:	a01f      	add	r0, pc, #124	@ (adr r0, 0x4b9c)
    4b20:	200a      	movs	r0, #10
    4b22:	9ac4      	ldr	r2, [sp, #784]	@ 0x310
    4b24:	21ca      	movs	r1, #202	@ 0xca
    4b26:	0db8      	lsrs	r0, r7, #22
    4b28:	604e      	str	r6, [r1, #4]
    4b2a:	8038      	strh	r0, [r7, #0]
    4b2c:	2fa5      	cmp	r7, #165	@ 0xa5
    4b2e:	0aa0      	lsrs	r0, r4, #10
    4b30:	c420      	stmia	r4!, {r5}
    4b32:	ca9a      	ldmia	r2!, {r1, r3, r4, r7}
    4b34:	a921      	add	r1, sp, #132	@ 0x84
    4b36:	990d      	ldr	r1, [sp, #52]	@ 0x34
    4b38:	41b7      	sbcs	r7, r6
    4b3a:	49f1      	ldr	r1, [pc, #964]	@ (0x4f00)
    4b3c:	80c2      	strh	r2, [r0, #6]
    4b3e:	342a      	adds	r4, #42	@ 0x2a
    4b40:	a912      	add	r1, sp, #72	@ 0x48
    4b42:	11a3      	asrs	r3, r4, #6
    4b44:	49d5      	ldr	r1, [pc, #852]	@ (0x4e9c)
    4b46:	9900      	ldr	r1, [sp, #0]
    4b48:	1197      	asrs	r7, r2, #6
    4b4a:	4af5      	ldr	r2, [pc, #980]	@ (0x4f20)
    4b4c:	4e00      	ldr	r6, [pc, #0]	@ (0x4b50)
    4b4e:	2860      	cmp	r0, #96	@ 0x60
    4b50:	1050      	asrs	r0, r2, #1
    4b52:	0455      	lsls	r5, r2, #17
    4b54:	1551      	asrs	r1, r2, #21
    4b56:	c2d3      	stmia	r2!, {r0, r1, r4, r6, r7}
    4b58:	4991      	ldr	r1, [pc, #580]	@ (0x4da0)
    4b5a:	1417      	asrs	r7, r2, #16
    4b5c:	24a2      	movs	r4, #162	@ 0xa2
    4b5e:	ab0c      	add	r3, sp, #48	@ 0x30
    4b60:	2342      	movs	r3, #66	@ 0x42
    4b62:	0a91      	lsrs	r1, r2, #10
    4b64:	5116      	str	r6, [r2, r4]
    4b66:	04a0      	lsls	r0, r4, #18
    4b68:	4990      	ldr	r1, [pc, #576]	@ (0x4dac)
    4b6a:	5115      	str	r5, [r2, r4]
    4b6c:	04b2      	lsls	r2, r6, #18
    4b6e:	04e0      	lsls	r0, r4, #19
    4b70:	0286      	lsls	r6, r0, #10
    4b72:	4805      	ldr	r0, [pc, #20]	@ (0x4b88)
    4b74:	8045      	strh	r5, [r0, #2]
    4b76:	2154      	movs	r1, #84	@ 0x54
    4b78:	1bfa      	subs	r2, r7, r7
    4b7a:	04fa      	lsls	r2, r7, #19
    4b7c:	00aa      	lsls	r2, r5, #2
    4b7e:	4804      	ldr	r0, [pc, #16]	@ (0x4b90)
    4b80:	2585      	movs	r5, #133	@ 0x85
    4b82:	9ac4      	ldr	r2, [sp, #784]	@ 0x310
    4b84:	21ca      	movs	r1, #202	@ 0xca
    4b86:	0d58      	lsrs	r0, r3, #21
    4b88:	1599      	asrs	r1, r3, #22
    4b8a:	5511      	strb	r1, [r2, r4]
    4b8c:	004b      	lsls	r3, r1, #1
    4b8e:	e04e      	b.n	0x4c2e
    4b90:	0e2c      	lsrs	r4, r5, #24
    4b92:	07fa      	lsls	r2, r7, #31
    4b94:	03aa      	lsls	r2, r5, #14
    4b96:	ac42      	add	r4, sp, #264	@ 0x108
    4b98:	1ca9      	adds	r1, r5, #2
    4b9a:	d433      	bmi.n	0x4c04
    4b9c:	c990      	ldmia	r1!, {r4, r7}
    4b9e:	510e      	str	r6, [r1, r4]
    4ba0:	04b8      	lsls	r0, r7, #18
    4ba2:	04e0      	lsls	r0, r4, #19
    4ba4:	0286      	lsls	r6, r0, #10
    4ba6:	7a21      	ldrb	r1, [r4, #8]
    4ba8:	4e20      	ldr	r6, [pc, #128]	@ (0x4c2c)
    4baa:	2860      	cmp	r0, #96	@ 0x60
    4bac:	a580      	add	r5, pc, #512	@ (adr r5, 0x4db0)
    4bae:	a05f      	add	r0, pc, #380	@ (adr r0, 0x4d2c)
    4bb0:	200a      	movs	r0, #10
    4bb2:	9ac4      	ldr	r2, [sp, #784]	@ 0x310
    4bb4:	21ca      	movs	r1, #202	@ 0xca
    4bb6:	0d28      	lsrs	r0, r5, #20
    4bb8:	b599      	push	{r0, r3, r4, r7, lr}
    4bba:	3140      	adds	r1, #64	@ 0x40
    4bbc:	c24c      	stmia	r2!, {r2, r3, r6}
    4bbe:	2cc0      	cmp	r4, #192	@ 0xc0
    4bc0:	1234      	asrs	r4, r6, #8
    4bc2:	a1a9      	add	r1, pc, #676	@ (adr r1, 0x4e68)
    4bc4:	1510      	asrs	r0, r2, #20
    4bc6:	004c      	lsls	r4, r1, #1
    4bc8:	9599      	str	r5, [sp, #612]	@ 0x264
    4bca:	b510      	push	{r4, lr}
    4bcc:	004b      	lsls	r3, r1, #1
    4bce:	604e      	str	r6, [r1, #4]
    4bd0:	1028      	asrs	r0, r5, #32
    4bd2:	0413      	lsls	r3, r2, #16
    4bd4:	d982      	bls.n	0x4adc
    4bd6:	0147      	lsls	r7, r0, #5
    4bd8:	c249      	stmia	r2!, {r0, r3, r6}
    4bda:	2990      	cmp	r1, #144	@ 0x90
    4bdc:	1234      	asrs	r4, r6, #8
    4bde:	6aa8      	ldr	r0, [r5, #40]	@ 0x28
    4be0:	8e51      	ldrh	r1, [r2, #50]	@ 0x32
    4be2:	8004      	strh	r4, [r0, #0]
    4be4:	45f9      	cmp	r9, pc
    4be6:	4931      	ldr	r1, [pc, #196]	@ (0x4cac)
    4be8:	c0c2      	stmia	r0!, {r1, r6, r7}
    4bea:	3429      	adds	r4, #41	@ 0x29
    4bec:	a812      	add	r0, sp, #72	@ 0x48
    4bee:	514c      	str	r4, [r1, r5]
    4bf0:	0491      	lsls	r1, r2, #18
    4bf2:	1980      	adds	r0, r0, r6
    4bf4:	e514      	b.n	0x4620
    4bf6:	004b      	lsls	r3, r1, #1
    4bf8:	e04e      	b.n	0x4c98
    4bfa:	0e2c      	lsrs	r4, r5, #24
    4bfc:	06fa      	lsls	r2, r7, #27
    4bfe:	02aa      	lsls	r2, r5, #10
    4c00:	ac42      	add	r4, sp, #264	@ 0x108
    4c02:	1ca9      	adds	r1, r5, #2
    4c04:	cd93      	ldmia	r5!, {r0, r1, r4, r7}
    4c06:	9980      	ldr	r1, [sp, #512]	@ 0x200
    4c08:	5141      	str	r1, [r0, r5]
    4c0a:	c24a      	stmia	r2!, {r1, r3, r6}
    4c0c:	2ae0      	cmp	r2, #224	@ 0xe0
    4c0e:	1234      	asrs	r4, r6, #8
    4c10:	1319      	asrs	r1, r3, #12
    4c12:	4a35      	ldr	r2, [pc, #212]	@ (0x4ce8)
    4c14:	7e00      	ldrb	r0, [r0, #24]
    4c16:	6df4      	ldr	r4, [r6, #92]	@ 0x5c
    4c18:	df10      	svc	16
    4c1a:	04fc      	lsls	r4, r7, #19
    4c1c:	f06e df26 	bl	0x873a6c
    4c20:	f104 5ed2 	add.w	lr, r4, #440401920	@ 0x1a400000
    4c24:	9013      	str	r0, [sp, #76]	@ 0x4c
    4c26:	0310      	lsls	r0, r2, #12
    4c28:	ebd2 413e 	rsbs	r1, r2, lr, ror #16
    4c2c:	6438      	str	r0, [r7, #64]	@ 0x40
    4c2e:	df10      	svc	16
    4c30:	167e      	asrs	r6, r7, #25
    4c32:	6047      	str	r7, [r0, #4]
    4c34:	5a04      	ldrh	r4, [r0, r0]
    4c36:	f203 1aae 	addw	sl, r3, #430	@ 0x1ae
    4c3a:	eed0 2048 	cdp	0, 13, cr2, cr0, cr8, {2}
    4c3e:	a585      	add	r5, pc, #532	@ (adr r5, 0x4e54)
    4c40:	a046      	add	r0, pc, #280	@ (adr r0, 0x4d5c)
    4c42:	2035      	movs	r0, #53	@ 0x35
    4c44:	edef 048e 	cfstrd	mvd0, [pc, #568]!	@ 0x4e80
    4c48:	a852      	add	r0, sp, #328	@ 0x148
    4c4a:	7000      	strb	r0, [r0, #0]
    4c4c:	6018      	str	r0, [r3, #0]
    4c4e:	5a04      	ldrh	r4, [r0, r0]
    4c50:	f203 9ede 	b.w	0xa08a10
    4c54:	2429      	movs	r4, #41	@ 0x29
    4c56:	a485      	add	r4, pc, #532	@ (adr r4, 0x4e6c)
    4c58:	a046      	add	r0, pc, #280	@ (adr r0, 0x4d74)
    4c5a:	2035      	movs	r0, #53	@ 0x35
    4c5c:	edef 048e 	cfstrd	mvd0, [pc, #568]!	@ 0x4e98
    4c60:	7852      	ldrb	r2, [r2, #1]
    4c62:	102a      	asrs	r2, r5, #32
    4c64:	1434      	asrs	r4, r6, #16
    4c66:	9010      	str	r0, [sp, #64]	@ 0x40
    4c68:	66fb      	str	r3, [r7, #108]	@ 0x6c
    4c6a:	2df1      	cmp	r5, #241	@ 0xf1
    4c6c:	df10      	svc	16
    4c6e:	047f      	lsls	r7, r7, #17
    4c70:	010a      	lsls	r2, r1, #4
    4c72:	c4ed      	stmia	r4!, {r0, r2, r3, r5, r6, r7}
    4c74:	5604      	ldrsb	r4, [r0, r0]
    4c76:	9820      	ldr	r0, [sp, #128]	@ 0x80
    4c78:	4185      	sbcs	r5, r0
    4c7a:	0144      	lsls	r4, r0, #5
    4c7c:	a311      	add	r3, pc, #68	@ (adr r3, 0x4cc4)
    4c7e:	1dff      	adds	r7, r7, #7
    4c80:	cf10      	ldmia	r7!, {r4}
    4c82:	7ff7      	ldrb	r7, [r6, #31]
    4c84:	00a7      	lsls	r7, r4, #2
    4c86:	4470      	add	r0, lr
    4c88:	000a      	movs	r2, r1
    4c8a:	9547      	str	r5, [sp, #284]	@ 0x11c
    4c8c:	0ac9      	lsrs	r1, r1, #11
    4c8e:	a546      	add	r5, pc, #280	@ (adr r5, 0x4da8)
    4c90:	2035      	movs	r0, #53	@ 0x35
    4c92:	edef 048e 	cfstrd	mvd0, [pc, #568]!	@ 0x4ecc
    4c96:	4852      	ldr	r0, [pc, #328]	@ (0x4de0)
    4c98:	8d28      	ldrh	r0, [r5, #40]	@ 0x28
    4c9a:	8701      	strh	r1, [r0, #56]	@ 0x38
    4c9c:	5460      	strb	r0, [r4, r1]
    4c9e:	035a      	lsls	r2, r3, #13
    4ca0:	2ef2      	cmp	r6, #242	@ 0xf2
    4ca2:	4618      	mov	r0, r3
    4ca4:	35a5      	adds	r5, #165	@ 0xa5
    4ca6:	ef20 8eed 			@ <UNDEFINED> instruction: 0xef208eed
    4caa:	5204      	strh	r4, [r0, r0]
    4cac:	2ce8      	cmp	r4, #232	@ 0xe8
    4cae:	604f      	str	r7, [r1, #4]
    4cb0:	5a54      	ldrh	r4, [r2, r1]
    4cb2:	f203 9ede 	b.w	0xa08a72
    4cb6:	2429      	movs	r4, #41	@ 0x29
    4cb8:	ce85      	ldmia	r6!, {r0, r2, r7}
    4cba:	8e21      	ldrh	r1, [r4, #48]	@ 0x30
    4cbc:	424f      	negs	r7, r1
    4cbe:	d364      	bcc.n	0x4d8a
    4cc0:	48ee      	ldr	r0, [pc, #952]	@ (0x507c)
    4cc2:	a520      	add	r5, pc, #128	@ (adr r5, 0x4d44)
    4cc4:	11ce      	asrs	r6, r1, #7
    4cc6:	e5e3      	b.n	0x4890
    4cc8:	6470      	str	r0, [r6, #68]	@ 0x44
    4cca:	d646      	bvs.n	0x4d5a
    4ccc:	c028      	stmia	r0!, {r3, r5}
    4cce:	5461      	strb	r1, [r4, r1]
    4cd0:	035a      	lsls	r2, r3, #13
    4cd2:	aef2      	add	r6, sp, #968	@ 0x3c8
    4cd4:	d00a      	beq.n	0x4cec
    4cd6:	48ee      	ldr	r0, [pc, #952]	@ (0x5090)
    4cd8:	8520      	strh	r0, [r4, #40]	@ 0x28
    4cda:	fea5 10a3 	cdp2	0, 10, cr1, cr5, cr3, {5}
    4cde:	4470      	add	r0, lr
    4ce0:	8546      	strh	r6, [r0, #42]	@ 0x2a
    4ce2:	0d10      	lsrs	r0, r2, #20
    4ce4:	c546      	stmia	r5!, {r1, r2, r6}
    4ce6:	9120      	str	r1, [sp, #128]	@ 0x80
    4ce8:	f48d 5446 	eor.w	r4, sp, #12672	@ 0x3180
    4cec:	e434      	b.n	0x4558
    4cee:	cf77      	ldmia	r7!, {r0, r1, r2, r4, r5, r6}
    4cf0:	1009      	asrs	r1, r1, #32
    4cf2:	addf      	add	r5, sp, #892	@ 0x37c
    4cf4:	7000      	strb	r0, [r0, #0]
    4cf6:	0a04      	lsrs	r4, r0, #8
    4cf8:	4700      	bx	r0
    4cfa:	2981      	cmp	r1, #129	@ 0x81
    4cfc:	4ed6      	ldr	r6, [pc, #856]	@ (0x5058)
    4cfe:	604c      	str	r4, [r1, #4]
    4d00:	8214      	strh	r4, [r2, #16]
    4d02:	d848      	bhi.n	0x4d96
    4d04:	6018      	str	r0, [r3, #0]
    4d06:	1464      	asrs	r4, r4, #17
    4d08:	5258      	strh	r0, [r3, r1]
    4d0a:	fed0 242c 	cdp2	4, 13, cr2, cr0, cr12, {1}
    4d0e:	e285      	b.n	0x521c
    4d10:	6448      	str	r0, [r1, #68]	@ 0x44
    4d12:	5313      	strh	r3, [r2, r4]
    4d14:	70de      	strb	r6, [r3, #3]
    4d16:	4624      	mov	r4, r4
    4d18:	28d2      	cmp	r0, #210	@ 0xd2
    4d1a:	a150      	add	r1, pc, #320	@ (adr r1, 0x4e5c)
    4d1c:	d000      	beq.n	0x4d20
    4d1e:	4c4e      	ldr	r4, [pc, #312]	@ (0x4e58)
    4d20:	1560      	asrs	r0, r4, #21
    4d22:	5982      	ldr	r2, [r0, r6]
    4d24:	3fe8      	subs	r7, #232	@ 0xe8
    4d26:	010a      	lsls	r2, r1, #4
    4d28:	6047      	str	r7, [r0, #4]
    4d2a:	0814      	lsrs	r4, r2, #32
    4d2c:	60d1      	str	r1, [r2, #12]
    4d2e:	0c14      	lsrs	r4, r2, #16
    4d30:	d84a      	bhi.n	0x4dc8
    4d32:	4693      	mov	fp, r2
    4d34:	4450      	add	r0, sl
    4d36:	3df4      	subs	r5, #244	@ 0xf4
    4d38:	df10      	svc	16
    4d3a:	27fc      	movs	r7, #252	@ 0xfc
    4d3c:	a047      	add	r0, pc, #284	@ (adr r0, 0x4e5c)
    4d3e:	7010      	strb	r0, [r2, #0]
    4d40:	4614      	mov	r4, r2
    4d42:	8050      	strh	r0, [r2, #2]
    4d44:	4651      	mov	r1, sl
    4d46:	08c0      	lsrs	r0, r0, #3
    4d48:	6570      	str	r0, [r6, #84]	@ 0x54
    4d4a:	8c04      	ldrh	r4, [r0, #32]
    4d4c:	5c01      	ldrb	r1, [r0, r0]
    4d4e:	c046      	stmia	r0!, {r1, r2, r6}
    4d50:	1028      	asrs	r0, r5, #32
    4d52:	0466      	lsls	r6, r4, #17
    4d54:	038c      	lsls	r4, r1, #14
    4d56:	4666      	mov	r6, ip
    4d58:	48c0      	ldr	r0, [pc, #768]	@ (0x505c)
    4d5a:	66b0      	str	r0, [r6, #104]	@ 0x68
    4d5c:	8c04      	ldrh	r4, [r0, #32]
    4d5e:	7005      	strb	r5, [r0, #0]
    4d60:	c046      	stmia	r0!, {r1, r2, r6}
    4d62:	5068      	str	r0, [r5, r1]
    4d64:	0467      	lsls	r7, r4, #17
    4d66:	078c      	lsls	r4, r1, #30
    4d68:	467a      	mov	r2, pc
    4d6a:	8c20      	ldrh	r0, [r4, #32]
    4d6c:	9108      	str	r1, [sp, #32]
    4d6e:	0460      	lsls	r0, r4, #17
    4d70:	098c      	lsrs	r4, r1, #6
    4d72:	9874      	ldr	r0, [sp, #464]	@ 0x1d0
    4d74:	0a7d      	lsrs	r5, r7, #9
    4d76:	2100      	movs	r1, #0
    4d78:	116f      	asrs	r7, r5, #5
    4d7a:	7698      	strb	r0, [r3, #26]
    4d7c:	010a      	lsls	r2, r1, #4
    4d7e:	6821      	ldr	r1, [r4, #0]
    4d80:	9811      	ldr	r0, [sp, #68]	@ 0x44
    4d82:	0a68      	lsrs	r0, r5, #9
    4d84:	2102      	movs	r1, #2
    4d86:	1161      	asrs	r1, r4, #5
    4d88:	5a98      	ldrh	r0, [r3, r2]
    4d8a:	020a      	lsls	r2, r1, #8
    4d8c:	2a21      	cmp	r2, #33	@ 0x21
    4d8e:	9826      	ldr	r0, [sp, #152]	@ 0x98
    4d90:	0a4c      	lsrs	r4, r1, #9
    4d92:	2101      	movs	r1, #1
    4d94:	2623      	movs	r6, #35	@ 0x23
    4d96:	3e98      	subs	r6, #152	@ 0x98
    4d98:	030a      	lsls	r2, r1, #12
    4d9a:	4c21      	ldr	r4, [pc, #132]	@ (0x4e20)
    4d9c:	9811      	ldr	r0, [sp, #68]	@ 0x44
    4d9e:	0a30      	lsrs	r0, r6, #8
    4da0:	2104      	movs	r1, #4
    4da2:	1145      	asrs	r5, r0, #5
    4da4:	2298      	movs	r2, #152	@ 0x98
    4da6:	050a      	lsls	r2, r1, #20
    4da8:	3e21      	subs	r6, #33	@ 0x21
    4daa:	9811      	ldr	r0, [sp, #68]	@ 0x44
    4dac:	0a14      	lsrs	r4, r2, #8
    4dae:	2106      	movs	r1, #6
    4db0:	1137      	asrs	r7, r6, #4
    4db2:	a3fe      	add	r3, pc, #1016	@ (adr r3, 0x51ac)
    4db4:	7000      	strb	r0, [r0, #0]
    4db6:	4614      	mov	r4, r2
    4db8:	18d1      	adds	r1, r2, r3
    4dba:	3220      	adds	r2, #32
    4dbc:	18ed      	adds	r5, r5, r3
    4dbe:	0805      	lsrs	r5, r0, #32
    4dc0:	2109      	movs	r1, #9
    4dc2:	092c      	lsrs	r4, r5, #4
    4dc4:	f1fe 0afe 			@ <UNDEFINED> instruction: 0xf1fe0afe
    4dc8:	ef41 0980 	vmla.i8	d16, d17, d0
    4dcc:	5fc1      	ldrsh	r1, [r0, r7]
    4dce:	4280      	cmp	r0, r0
    4dd0:	2364      	movs	r3, #100	@ 0x64
    4dd2:	efe4 27e5 	vqdmlsl.s32	q9, d20, d5[1]
    4dd6:	04df      	lsls	r7, r3, #19
    4dd8:	dff1      	svc	241	@ 0xf1
    4dda:	047d      	lsls	r5, r7, #17
    4ddc:	e14f      	b.n	0x507e
    4dde:	8116      	strh	r6, [r2, #8]
    4de0:	9100      	str	r1, [sp, #0]
    4de2:	d202      	bcs.n	0x4dea
    4de4:	50e6      	str	r6, [r4, r3]
    4de6:	0460      	lsls	r0, r4, #17
    4de8:	09ed      	lsrs	r5, r5, #7
    4dea:	218e      	movs	r1, #142	@ 0x8e
    4dec:	0d0d      	lsrs	r5, r1, #20
    4dee:	03df      	lsls	r7, r3, #15
    4df0:	dff1      	svc	241	@ 0xf1
    4df2:	047d      	lsls	r5, r7, #17
    4df4:	e14f      	b.n	0x5096
    4df6:	8116      	strh	r6, [r2, #8]
    4df8:	9100      	str	r1, [sp, #0]
    4dfa:	d202      	bcs.n	0x4e02
    4dfc:	5106      	str	r6, [r0, r4]
    4dfe:	0460      	lsls	r0, r4, #17
    4e00:	1eed      	subs	r5, r5, #3
    4e02:	218e      	movs	r1, #142	@ 0x8e
    4e04:	0cf5      	lsrs	r5, r6, #19
    4e06:	03df      	lsls	r7, r3, #15
    4e08:	51f1      	str	r1, [r6, r7]
    4e0a:	6483      	str	r3, [r0, #72]	@ 0x48
    4e0c:	6c20      	ldr	r0, [r4, #64]	@ 0x40
    4e0e:	050e      	lsls	r6, r1, #20
    4e10:	56d2      	ldrsb	r2, [r2, r3]
    4e12:	3048      	adds	r0, #72	@ 0x48
    4e14:	860c      	strh	r4, [r1, #48]	@ 0x30
    4e16:	c004      	stmia	r0!, {r2}
    4e18:	d23a      	bcs.n	0x4e90
    4e1a:	4876      	ldr	r0, [pc, #472]	@ (0x4ff4)
    4e1c:	f100 8351 	bmi.w	0x54c2
    4e20:	2064      	movs	r0, #100	@ 0x64
    4e22:	106c      	asrs	r4, r5, #1
    4e24:	d205      	bcs.n	0x4e32
    4e26:	4856      	ldr	r0, [pc, #344]	@ (0x4f80)
    4e28:	0c30      	lsrs	r0, r6, #16
    4e2a:	0486      	lsls	r6, r0, #18
    4e2c:	3bc0      	subs	r3, #192	@ 0xc0
    4e2e:	76d2      	strb	r2, [r2, #27]
    4e30:	0048      	lsls	r0, r1, #1
    4e32:	51f1      	str	r1, [r6, r7]
    4e34:	3483      	adds	r4, #131	@ 0x83
    4e36:	2ec0      	cmp	r6, #192	@ 0xc0
    4e38:	22a3      	movs	r2, #163	@ 0xa3
    4e3a:	856d      	strh	r5, [r5, #42]	@ 0x2a
    4e3c:	4404      	add	r4, r0
    4e3e:	0537      	lsls	r7, r6, #20
    4e40:	0487      	lsls	r7, r0, #18
    4e42:	51f1      	str	r1, [r6, r7]
    4e44:	3483      	adds	r4, #131	@ 0x83
    4e46:	2ec0      	cmp	r6, #192	@ 0xc0
    4e48:	27a3      	movs	r7, #163	@ 0xa3
    4e4a:	856d      	strh	r5, [r5, #42]	@ 0x2a
    4e4c:	1004      	asrs	r4, r0, #32
    4e4e:	fbdf 0a37 			@ <UNDEFINED> instruction: 0xfbdf0a37
    4e52:	4701      	bx	r0
    4e54:	cd31      	ldmia	r5, {r0, r4, r5}
    4e56:	055a      	lsls	r2, r3, #21
    4e58:	7b00      	ldrb	r0, [r0, #12]
    4e5a:	acd3      	add	r4, sp, #844	@ 0x34c
    4e5c:	3055      	adds	r0, #85	@ 0x55
    4e5e:	37c0      	adds	r7, #192	@ 0xc0
    4e60:	5acd      	ldrh	r5, [r1, r3]
    4e62:	0505      	lsls	r5, r0, #20
    4e64:	d37d      	bcc.n	0x4f62
    4e66:	55ad      	strb	r5, [r5, r6]
    4e68:	4060      	eors	r0, r4
    4e6a:	d308      	bcc.n	0x4e7e
    4e6c:	55ad      	strb	r5, [r5, r6]
    4e6e:	a1a0      	add	r1, pc, #640	@ (adr r1, 0x50f0)
    4e70:	d308      	bcc.n	0x4e84
    4e72:	55ad      	strb	r5, [r5, r6]
    4e74:	01b0      	lsls	r0, r6, #6
    4e76:	d309      	bcc.n	0x4e8c
    4e78:	55ad      	strb	r5, [r5, r6]
    4e7a:	61d0      	str	r0, [r2, #28]
    4e7c:	d309      	bcc.n	0x4e92
    4e7e:	55ad      	strb	r5, [r5, r6]
    4e80:	c1e0      	stmia	r1!, {r5, r6, r7}
    4e82:	d309      	bcc.n	0x4e98
    4e84:	55ad      	strb	r5, [r5, r6]
    4e86:	21f0      	movs	r1, #240	@ 0xf0
    4e88:	d30a      	bcc.n	0x4ea0
    4e8a:	55ad      	strb	r5, [r5, r6]
    4e8c:	8200      	strh	r0, [r0, #16]
    4e8e:	d30a      	bcc.n	0x4ea6
    4e90:	55ad      	strb	r5, [r5, r6]
    4e92:	e2d0      	b.n	0x5436
    4e94:	990a      	ldr	r1, [sp, #40]	@ 0x28
    4e96:	a0b3      	add	r0, pc, #716	@ (adr r0, 0x5164)
    4e98:	7000      	strb	r0, [r0, #0]
    4e9a:	9924      	ldr	r1, [sp, #144]	@ 0x90
    4e9c:	a0ae      	add	r0, pc, #696	@ (adr r0, 0x5158)
    4e9e:	7070      	strb	r0, [r6, #1]
    4ea0:	9924      	ldr	r1, [sp, #144]	@ 0x90
    4ea2:	a0a2      	add	r0, pc, #648	@ (adr r0, 0x512c)
    4ea4:	70c0      	strb	r0, [r0, #3]
    4ea6:	0a24      	lsrs	r4, r4, #8
    4ea8:	4700      	bx	r0
    4eaa:	f991 0a08 	ldrsb.w	r0, [r1, #2568]	@ 0xa08
    4eae:	470b      	bx	r1
    4eb0:	00a2      	lsls	r2, r4, #2
    4eb2:	1470      	asrs	r0, r6, #17
    4eb4:	7d98      	ldrb	r0, [r3, #22]
    4eb6:	010a      	lsls	r2, r1, #4
    4eb8:	a247      	add	r2, pc, #284	@ (adr r2, 0x4fd8)
    4eba:	70a0      	strb	r0, [r4, #2]
    4ebc:	9814      	ldr	r0, [sp, #80]	@ 0x50
    4ebe:	0a6b      	lsrs	r3, r5, #9
    4ec0:	4702      	bx	r0
    4ec2:	a0a2      	add	r0, pc, #648	@ (adr r0, 0x514c)
    4ec4:	1470      	asrs	r0, r6, #17
    4ec6:	5998      	ldr	r0, [r3, r6]
    4ec8:	0d0a      	lsrs	r2, r1, #20
    4eca:	a247      	add	r2, pc, #284	@ (adr r2, 0x4fe8)
    4ecc:	70a0      	strb	r0, [r4, #2]
    4ece:	9814      	ldr	r0, [sp, #80]	@ 0x50
    4ed0:	0a47      	lsrs	r7, r0, #9
    4ed2:	470e      	bx	r1
    4ed4:	a0a2      	add	r0, pc, #648	@ (adr r0, 0x5160)
    4ed6:	1470      	asrs	r0, r6, #17
    4ed8:	3598      	adds	r5, #152	@ 0x98
    4eda:	1f0a      	subs	r2, r1, #4
    4edc:	a247      	add	r2, pc, #284	@ (adr r2, 0x4ffc)
    4ede:	7000      	strb	r0, [r0, #0]
    4ee0:	9814      	ldr	r0, [sp, #80]	@ 0x50
    4ee2:	0a23      	lsrs	r3, r4, #8
    4ee4:	470f      	bx	r1
    4ee6:	00a2      	lsls	r2, r4, #2
    4ee8:	1470      	asrs	r0, r6, #17
    4eea:	1198      	asrs	r0, r3, #6
    4eec:	080a      	lsrs	r2, r1, #32
    4eee:	e247      	b.n	0x5380
    4ef0:	0a3f      	lsrs	r7, r7, #8
    4ef2:	4726      	bx	r4
    4ef4:	1462      	asrs	r2, r4, #17
    4ef6:	c047      	stmia	r0!, {r0, r1, r2, r6}
    4ef8:	632f      	str	r7, [r5, #48]	@ 0x30
    4efa:	a04c      	add	r0, pc, #304	@ (adr r0, 0x502c)
    4efc:	5655      	ldrsb	r5, [r2, r1]
    4efe:	e422      	b.n	0x4746
    4f00:	da21      	bge.n	0x4f46
    4f02:	7e0a      	ldrb	r2, [r1, #24]
    4f04:	5df3      	ldrb	r3, [r6, r7]
    4f06:	df10      	svc	16
    4f08:	37fb      	adds	r7, #251	@ 0xfb
    4f0a:	010a      	lsls	r2, r1, #4
    4f0c:	3147      	adds	r1, #71	@ 0x47
    4f0e:	5bcd      	ldrh	r5, [r1, r7]
    4f10:	0005      	movs	r5, r0
    4f12:	d372      	bcc.n	0x4ffa
    4f14:	55bc      	strb	r4, [r7, r6]
    4f16:	7010      	strb	r0, [r2, #0]
    4f18:	cd36      	ldmia	r5, {r1, r2, r4, r5}
    4f1a:	055b      	lsls	r3, r3, #21
    4f1c:	6e02      	ldr	r2, [r0, #96]	@ 0x60
    4f1e:	bcd3      	pop	{r0, r1, r4, r6, r7}
    4f20:	a055      	add	r0, pc, #340	@ (adr r0, 0x5078)
    4f22:	36e1      	adds	r6, #225	@ 0xe1
    4f24:	5bcd      	ldrh	r5, [r1, r7]
    4f26:	2205      	movs	r2, #5
    4f28:	d36e      	bcc.n	0x5008
    4f2a:	55bc      	strb	r4, [r7, r6]
    4f2c:	e230      	b.n	0x5390
    4f2e:	cd36      	ldmia	r5, {r1, r2, r4, r5}
    4f30:	055b      	lsls	r3, r3, #21
    4f32:	6e28      	ldr	r0, [r5, #96]	@ 0x60
    4f34:	bcd3      	pop	{r0, r1, r4, r6, r7}
    4f36:	9055      	str	r0, [sp, #340]	@ 0x154
    4f38:	36e2      	adds	r6, #226	@ 0xe2
    4f3a:	5bcd      	ldrh	r5, [r1, r7]
    4f3c:	2a05      	cmp	r2, #5
    4f3e:	d36e      	bcc.n	0x501e
    4f40:	55bc      	strb	r4, [r7, r6]
    4f42:	e2d0      	b.n	0x54e6
    4f44:	cd36      	ldmia	r5, {r1, r2, r4, r5}
    4f46:	055b      	lsls	r3, r3, #21
    4f48:	6e2e      	ldr	r6, [r5, #96]	@ 0x60
    4f4a:	7498      	strb	r0, [r3, #18]
    4f4c:	250a      	movs	r5, #10
    4f4e:	a247      	add	r2, pc, #284	@ (adr r2, 0x506c)
    4f50:	7000      	strb	r0, [r0, #0]
    4f52:	9814      	ldr	r0, [sp, #80]	@ 0x50
    4f54:	0a69      	lsrs	r1, r5, #9
    4f56:	4709      	bx	r1
    4f58:	e982 a0a5 			@ <UNDEFINED> instruction: 0xe982a0a5
    4f5c:	2470      	movs	r4, #112	@ 0x70
    4f5e:	5398      	strh	r0, [r3, r6]
    4f60:	050a      	lsls	r2, r1, #20
    4f62:	8247      	strh	r7, [r0, #18]
    4f64:	a489      	add	r4, pc, #548	@ (adr r4, 0x518c)
    4f66:	7060      	strb	r0, [r4, #1]
    4f68:	9824      	ldr	r0, [sp, #144]	@ 0x90
    4f6a:	0a3d      	lsrs	r5, r7, #8
    4f6c:	4724      	bxns	r4
    4f6e:	2982      	cmp	r1, #130	@ 0x82
    4f70:	00a3      	lsls	r3, r4, #2
    4f72:	2472      	movs	r4, #114	@ 0x72
    4f74:	2798      	movs	r7, #152	@ 0x98
    4f76:	210a      	movs	r1, #10
    4f78:	8247      	strh	r7, [r0, #18]
    4f7a:	a1c9      	add	r1, pc, #804	@ (adr r1, 0x52a0)
    4f7c:	7030      	strb	r0, [r6, #0]
    4f7e:	9824      	ldr	r0, [sp, #144]	@ 0x90
    4f80:	0a11      	lsrs	r1, r2, #8
    4f82:	4704      	bxns	r0
    4f84:	3fe2      	subs	r7, #226	@ 0xe2
    4f86:	260a      	movs	r6, #10
    4f88:	6247      	str	r7, [r0, #36]	@ 0x24
    4f8a:	4714      	bxns	r2
    4f8c:	2fc0      	cmp	r7, #192	@ 0xc0
    4f8e:	4ce3      	ldr	r4, [pc, #908]	@ (0x531c)
    4f90:	55b0      	strb	r0, [r6, r6]
    4f92:	2256      	movs	r2, #86	@ 0x56
    4f94:	21e4      	movs	r1, #228	@ 0xe4
    4f96:	0a45      	lsrs	r5, r0, #9
    4f98:	f37e 105d 			@ <UNDEFINED> instruction: 0xf37e105d
    4f9c:	8351      	strh	r1, [r2, #26]
    4f9e:	c034      	stmia	r0!, {r2, r4, r5}
    4fa0:	826e      	strh	r6, [r5, #18]
    4fa2:	6d20      	ldr	r0, [r4, #80]	@ 0x50
    4fa4:	0485      	lsls	r5, r0, #18
    4fa6:	5e04      	ldrsh	r4, [r0, r0]
    4fa8:	7055      	strb	r5, [r2, #1]
    4faa:	1048      	asrs	r0, r1, #1
    4fac:	8351      	strh	r1, [r2, #26]
    4fae:	c064      	stmia	r0!, {r2, r5, r6}
    4fb0:	005e      	lsls	r6, r3, #1
    4fb2:	6d23      	ldr	r3, [r4, #80]	@ 0x50
    4fb4:	0485      	lsls	r5, r0, #18
    4fb6:	8751      	strh	r1, [r2, #58]	@ 0x3a
    4fb8:	1014      	asrs	r4, r2, #32
    4fba:	4885      	ldr	r0, [pc, #532]	@ (0x51d0)
    4fbc:	0445      	lsls	r5, r0, #17
    4fbe:	556b      	strb	r3, [r5, r5]
    4fc0:	4890      	ldr	r0, [pc, #576]	@ (0x5204)
    4fc2:	6c04      	ldr	r4, [r0, #64]	@ 0x40
    4fc4:	a055      	add	r0, pc, #340	@ (adr r0, 0x511c)
    4fc6:	1048      	asrs	r0, r1, #1
    4fc8:	8351      	strh	r1, [r2, #26]
    4fca:	c034      	stmia	r0!, {r2, r4, r5}
    4fcc:	001e      	movs	r6, r3
    4fce:	6d25      	ldr	r5, [r4, #80]	@ 0x50
    4fd0:	0485      	lsls	r5, r0, #18
    4fd2:	4144      	adcs	r4, r0
    4fd4:	8705      	strh	r5, [r0, #56]	@ 0x38
    4fd6:	f104 8351 	bmi.w	0x967c
    4fda:	c034      	stmia	r0!, {r2, r4, r5}
    4fdc:	805e      	strh	r6, [r3, #2]
    4fde:	6d23      	ldr	r3, [r4, #80]	@ 0x50
    4fe0:	0485      	lsls	r5, r0, #18
    4fe2:	2404      	movs	r4, #4
    4fe4:	7055      	strb	r5, [r2, #1]
    4fe6:	1048      	asrs	r0, r1, #1
    4fe8:	8351      	strh	r1, [r2, #26]
    4fea:	c034      	stmia	r0!, {r2, r4, r5}
    4fec:	80be      	strh	r6, [r7, #4]
    4fee:	6d23      	ldr	r3, [r4, #80]	@ 0x50
    4ff0:	0485      	lsls	r5, r0, #18
    4ff2:	2504      	movs	r5, #4
    4ff4:	7055      	strb	r5, [r2, #1]
    4ff6:	1048      	asrs	r0, r1, #1
    4ff8:	8351      	strh	r1, [r2, #26]
    4ffa:	c034      	stmia	r0!, {r2, r4, r5}
    4ffc:	80be      	strh	r6, [r7, #4]
    4ffe:	6d28      	ldr	r0, [r5, #80]	@ 0x50
    5000:	0485      	lsls	r5, r0, #18
    5002:	5104      	str	r4, [r0, r4]
    5004:	7055      	strb	r5, [r2, #1]
    5006:	1048      	asrs	r0, r1, #1
    5008:	8351      	strh	r1, [r2, #26]
    500a:	c094      	stmia	r0!, {r2, r4, r7}
    500c:	00be      	lsls	r6, r7, #2
    500e:	6d29      	ldr	r1, [r5, #80]	@ 0x50
    5010:	0485      	lsls	r5, r0, #18
    5012:	26c2      	movs	r6, #194	@ 0xc2
    5014:	2055      	movs	r0, #85	@ 0x55
    5016:	876d      	strh	r5, [r5, #58]	@ 0x3a
    5018:	0404      	lsls	r4, r0, #16
    501a:	5556      	strb	r6, [r2, r5]
    501c:	4890      	ldr	r0, [pc, #576]	@ (0x5260)
    501e:	5704      	ldrsb	r4, [r0, r4]
    5020:	a055      	add	r0, pc, #340	@ (adr r0, 0x5178)
    5022:	0448      	lsls	r0, r1, #17
    5024:	5558      	strb	r0, [r3, r5]
    5026:	48b0      	ldr	r0, [pc, #704]	@ (0x52e8)
    5028:	5110      	str	r0, [r2, r4]
    502a:	3483      	adds	r4, #131	@ 0x83
    502c:	6ec0      	ldr	r0, [r0, #108]	@ 0x6c
    502e:	2881      	cmp	r0, #129	@ 0x81
    5030:	856d      	strh	r5, [r5, #42]	@ 0x2a
    5032:	0404      	lsls	r4, r0, #16
    5034:	5559      	strb	r1, [r3, r5]
    5036:	4870      	ldr	r0, [pc, #448]	@ (0x51f8)
    5038:	5110      	str	r0, [r2, r4]
    503a:	3483      	adds	r4, #131	@ 0x83
    503c:	6ec0      	ldr	r0, [r0, #108]	@ 0x6c
    503e:	28c1      	cmp	r0, #193	@ 0xc1
    5040:	856d      	strh	r5, [r5, #42]	@ 0x2a
    5042:	1004      	asrs	r4, r0, #32
    5044:	8351      	strh	r1, [r2, #26]
    5046:	0034      	movs	r4, r6
    5048:	248c      	movs	r4, #140	@ 0x8c
    504a:	856d      	strh	r5, [r5, #42]	@ 0x2a
    504c:	5104      	str	r4, [r0, r4]
    504e:	0487      	lsls	r7, r0, #18
    5050:	f100 8351 	bmi.w	0x56f6
    5054:	0034      	movs	r4, r6
    5056:	204c      	movs	r0, #76	@ 0x4c
    5058:	856d      	strh	r5, [r5, #42]	@ 0x2a
    505a:	0404      	lsls	r4, r0, #16
    505c:	555c      	strb	r4, [r3, r5]
    505e:	4870      	ldr	r0, [pc, #448]	@ (0x5220)
    5060:	5110      	str	r0, [r2, r4]
    5062:	3483      	adds	r4, #131	@ 0x83
    5064:	4c00      	ldr	r4, [pc, #0]	@ (0x5068)
    5066:	6d20      	ldr	r0, [r4, #80]	@ 0x50
    5068:	0485      	lsls	r5, r0, #18
    506a:	5d04      	ldrb	r4, [r0, r4]
    506c:	7055      	strb	r5, [r2, #1]
    506e:	1048      	asrs	r0, r1, #1
    5070:	8351      	strh	r1, [r2, #26]
    5072:	c034      	stmia	r0!, {r2, r4, r5}
    5074:	a02e      	add	r0, pc, #184	@ (adr r0, 0x5130)
    5076:	6d21      	ldr	r1, [r4, #80]	@ 0x50
    5078:	0485      	lsls	r5, r0, #18
    507a:	5110      	str	r0, [r2, r4]
    507c:	3483      	adds	r4, #131	@ 0x83
    507e:	4ec0      	ldr	r6, [pc, #768]	@ (0x5380)
    5080:	2220      	movs	r2, #32
    5082:	856d      	strh	r5, [r5, #42]	@ 0x2a
    5084:	0404      	lsls	r4, r0, #16
    5086:	5526      	strb	r6, [r4, r4]
    5088:	4870      	ldr	r0, [pc, #448]	@ (0x524c)
    508a:	5110      	str	r0, [r2, r4]
    508c:	3483      	adds	r4, #131	@ 0x83
    508e:	5ec0      	ldrsh	r0, [r0, r3]
    5090:	2020      	movs	r0, #32
    5092:	856d      	strh	r5, [r5, #42]	@ 0x2a
    5094:	2104      	movs	r1, #4
    5096:	1ad1      	subs	r1, r2, r3
    5098:	8705      	strh	r5, [r0, #56]	@ 0x38
    509a:	f104 8351 	bmi.w	0x9740
    509e:	c034      	stmia	r0!, {r2, r4, r5}
    50a0:	a05e      	add	r0, pc, #376	@ (adr r0, 0x521c)
    50a2:	6d20      	ldr	r0, [r4, #80]	@ 0x50
    50a4:	0485      	lsls	r5, r0, #18
    50a6:	c721      	stmia	r7!, {r0, r5}
    50a8:	051a      	lsls	r2, r3, #20
    50aa:	0487      	lsls	r7, r0, #18
    50ac:	51f1      	str	r1, [r6, r7]
    50ae:	3483      	adds	r4, #131	@ 0x83
    50b0:	5ec0      	ldrsh	r0, [r0, r3]
    50b2:	21a0      	movs	r1, #160	@ 0xa0
    50b4:	856d      	strh	r5, [r5, #42]	@ 0x2a
    50b6:	2104      	movs	r1, #4
    50b8:	1aba      	subs	r2, r7, r2
    50ba:	8705      	strh	r5, [r0, #56]	@ 0x38
    50bc:	f104 8351 	bmi.w	0x9762
    50c0:	c034      	stmia	r0!, {r2, r4, r5}
    50c2:	205e      	movs	r0, #94	@ 0x5e
    50c4:	6d22      	ldr	r2, [r4, #80]	@ 0x50
    50c6:	0485      	lsls	r5, r0, #18
    50c8:	b021      	add	sp, #132	@ 0x84
    50ca:	051a      	lsls	r2, r3, #20
    50cc:	0487      	lsls	r7, r0, #18
    50ce:	51f1      	str	r1, [r6, r7]
    50d0:	6483      	str	r3, [r0, #72]	@ 0x48
    50d2:	5ec0      	ldrsh	r0, [r0, r3]
    50d4:	2320      	movs	r3, #32
    50d6:	856d      	strh	r5, [r5, #42]	@ 0x2a
    50d8:	0404      	lsls	r4, r0, #16
    50da:	5542      	strb	r2, [r0, r5]
    50dc:	4870      	ldr	r0, [pc, #448]	@ (0x52a0)
    50de:	4304      	orrs	r4, r0
    50e0:	8055      	strh	r5, [r2, #2]
    50e2:	0448      	lsls	r0, r1, #17
    50e4:	5544      	strb	r4, [r0, r5]
    50e6:	4890      	ldr	r0, [pc, #576]	@ (0x5328)
    50e8:	4504      	cmp	r4, r0
    50ea:	a055      	add	r0, pc, #340	@ (adr r0, 0x5240)
    50ec:	1048      	asrs	r0, r1, #1
    50ee:	8351      	strh	r1, [r2, #26]
    50f0:	c034      	stmia	r0!, {r2, r4, r5}
    50f2:	205e      	movs	r0, #94	@ 0x5e
    50f4:	6d25      	ldr	r5, [r4, #80]	@ 0x50
    50f6:	0485      	lsls	r5, r0, #18
    50f8:	8e21      	ldrh	r1, [r4, #48]	@ 0x30
    50fa:	051a      	lsls	r2, r3, #20
    50fc:	0487      	lsls	r7, r0, #18
    50fe:	51f1      	str	r1, [r6, r7]
    5100:	3483      	adds	r4, #131	@ 0x83
    5102:	5ec0      	ldrsh	r0, [r0, r3]
    5104:	2620      	movs	r6, #32
    5106:	856d      	strh	r5, [r5, #42]	@ 0x2a
    5108:	2104      	movs	r1, #4
    510a:	1a8b      	subs	r3, r1, r2
    510c:	8705      	strh	r5, [r0, #56]	@ 0x38
    510e:	f104 8351 	bmi.w	0x97b4
    5112:	c034      	stmia	r0!, {r2, r4, r5}
    5114:	205e      	movs	r0, #94	@ 0x5e
    5116:	6d21      	ldr	r1, [r4, #80]	@ 0x50
    5118:	0485      	lsls	r5, r0, #18
    511a:	1204      	asrs	r4, r0, #8
    511c:	7055      	strb	r5, [r2, #1]
    511e:	1048      	asrs	r0, r1, #1
    5120:	8351      	strh	r1, [r2, #26]
    5122:	c034      	stmia	r0!, {r2, r4, r5}
    5124:	a0ae      	add	r0, pc, #696	@ (adr r0, 0x53e0)
    5126:	6d20      	ldr	r0, [r4, #80]	@ 0x50
    5128:	0485      	lsls	r5, r0, #18
    512a:	1904      	adds	r4, r0, r4
    512c:	7055      	strb	r5, [r2, #1]
    512e:	1048      	asrs	r0, r1, #1
    5130:	8351      	strh	r1, [r2, #26]
    5132:	c034      	stmia	r0!, {r2, r4, r5}
    5134:	20ae      	movs	r0, #174	@ 0xae
    5136:	6d21      	ldr	r1, [r4, #80]	@ 0x50
    5138:	0485      	lsls	r5, r0, #18
    513a:	1a04      	subs	r4, r0, r0
    513c:	7055      	strb	r5, [r2, #1]
    513e:	1048      	asrs	r0, r1, #1
    5140:	8351      	strh	r1, [r2, #26]
    5142:	c064      	stmia	r0!, {r2, r5, r6}
    5144:	a0ae      	add	r0, pc, #696	@ (adr r0, 0x5400)
    5146:	6d21      	ldr	r1, [r4, #80]	@ 0x50
    5148:	0485      	lsls	r5, r0, #18
    514a:	8751      	strh	r1, [r2, #58]	@ 0x3a
    514c:	4014      	ands	r4, r2
    514e:	51b0      	str	r0, [r6, r6]
    5150:	8805      	ldrh	r5, [r0, #0]
    5152:	f104 8351 	bmi.w	0x97f8
    5156:	c064      	stmia	r0!, {r2, r5, r6}
    5158:	20ae      	movs	r0, #174	@ 0xae
    515a:	6d22      	ldr	r2, [r4, #80]	@ 0x50
    515c:	0485      	lsls	r5, r0, #18
    515e:	1d04      	adds	r4, r0, #4
    5160:	7055      	strb	r5, [r2, #1]
    5162:	0448      	lsls	r0, r1, #17
    5164:	551c      	strb	r4, [r3, r4]
    5166:	4880      	ldr	r0, [pc, #512]	@ (0x5368)
    5168:	5110      	str	r0, [r2, r4]
    516a:	3483      	adds	r4, #131	@ 0x83
    516c:	bec0      	bkpt	0x00c0
    516e:	2020      	movs	r0, #32
    5170:	856d      	strh	r5, [r5, #42]	@ 0x2a
    5172:	0404      	lsls	r4, r0, #16
    5174:	5513      	strb	r3, [r2, r4]
    5176:	4870      	ldr	r0, [pc, #448]	@ (0x5338)
    5178:	5110      	str	r0, [r2, r4]
    517a:	3483      	adds	r4, #131	@ 0x83
    517c:	bec0      	bkpt	0x00c0
    517e:	20a0      	movs	r0, #160	@ 0xa0
    5180:	856d      	strh	r5, [r5, #42]	@ 0x2a
    5182:	0404      	lsls	r4, r0, #16
    5184:	551e      	strb	r6, [r3, r4]
    5186:	4870      	ldr	r0, [pc, #448]	@ (0x5348)
    5188:	5110      	str	r0, [r2, r4]
    518a:	3483      	adds	r4, #131	@ 0x83
    518c:	bec0      	bkpt	0x00c0
    518e:	2120      	movs	r1, #32
    5190:	856d      	strh	r5, [r5, #42]	@ 0x2a
    5192:	0404      	lsls	r4, r0, #16
    5194:	551f      	strb	r7, [r3, r4]
    5196:	4870      	ldr	r0, [pc, #448]	@ (0x5358)
    5198:	5110      	str	r0, [r2, r4]
    519a:	6483      	str	r3, [r0, #72]	@ 0x48
    519c:	bec0      	bkpt	0x00c0
    519e:	21a0      	movs	r1, #160	@ 0xa0
    51a0:	856d      	strh	r5, [r5, #42]	@ 0x2a
    51a2:	5104      	str	r4, [r0, r4]
    51a4:	1487      	asrs	r7, r0, #18
    51a6:	0040      	lsls	r0, r0, #1
    51a8:	0552      	lsls	r2, r2, #21
    51aa:	0488      	lsls	r0, r1, #18
    51ac:	51f1      	str	r1, [r6, r7]
    51ae:	6483      	str	r3, [r0, #72]	@ 0x48
    51b0:	bec0      	bkpt	0x00c0
    51b2:	2220      	movs	r2, #32
    51b4:	856d      	strh	r5, [r5, #42]	@ 0x2a
    51b6:	0404      	lsls	r4, r0, #16
    51b8:	5522      	strb	r2, [r4, r4]
    51ba:	4870      	ldr	r0, [pc, #448]	@ (0x537c)
    51bc:	2104      	movs	r1, #4
    51be:	8055      	strh	r5, [r2, #2]
    51c0:	1048      	asrs	r0, r1, #1
    51c2:	8351      	strh	r1, [r2, #26]
    51c4:	c034      	stmia	r0!, {r2, r4, r5}
    51c6:	20be      	movs	r0, #190	@ 0xbe
    51c8:	6d25      	ldr	r5, [r4, #80]	@ 0x50
    51ca:	0485      	lsls	r5, r0, #18
    51cc:	2304      	movs	r3, #4
    51ce:	7055      	strb	r5, [r2, #1]
    51d0:	1048      	asrs	r0, r1, #1
    51d2:	8351      	strh	r1, [r2, #26]
    51d4:	c034      	stmia	r0!, {r2, r4, r5}
    51d6:	a0be      	add	r0, pc, #760	@ (adr r0, 0x54d0)
    51d8:	6d22      	ldr	r2, [r4, #80]	@ 0x50
    51da:	0485      	lsls	r5, r0, #18
    51dc:	2704      	movs	r7, #4
    51de:	7055      	strb	r5, [r2, #1]
    51e0:	1048      	asrs	r0, r1, #1
    51e2:	8351      	strh	r1, [r2, #26]
    51e4:	c034      	stmia	r0!, {r2, r4, r5}
    51e6:	a0be      	add	r0, pc, #760	@ (adr r0, 0x54e0)
    51e8:	6d28      	ldr	r0, [r5, #80]	@ 0x50
    51ea:	0485      	lsls	r5, r0, #18
    51ec:	5104      	str	r4, [r0, r4]
    51ee:	7055      	strb	r5, [r2, #1]
    51f0:	1048      	asrs	r0, r1, #1
    51f2:	8351      	strh	r1, [r2, #26]
    51f4:	c094      	stmia	r0!, {r2, r4, r7}
    51f6:	20be      	movs	r0, #190	@ 0xbe
    51f8:	6d29      	ldr	r1, [r5, #80]	@ 0x50
    51fa:	0485      	lsls	r5, r0, #18
    51fc:	46c2      	mov	sl, r8
    51fe:	2055      	movs	r0, #85	@ 0x55
    5200:	876d      	strh	r5, [r5, #58]	@ 0x3a
    5202:	0404      	lsls	r4, r0, #16
    5204:	5556      	strb	r6, [r2, r5]
    5206:	4890      	ldr	r0, [pc, #576]	@ (0x5448)
    5208:	5704      	ldrsb	r4, [r0, r4]
    520a:	a055      	add	r0, pc, #340	@ (adr r0, 0x5360)
    520c:	0448      	lsls	r0, r1, #17
    520e:	5558      	strb	r0, [r3, r5]
    5210:	48b0      	ldr	r0, [pc, #704]	@ (0x54d4)
    5212:	5110      	str	r0, [r2, r4]
    5214:	3483      	adds	r4, #131	@ 0x83
    5216:	0ec0      	lsrs	r0, r0, #27
    5218:	2021      	movs	r0, #33	@ 0x21
    521a:	856d      	strh	r5, [r5, #42]	@ 0x2a
    521c:	0404      	lsls	r4, r0, #16
    521e:	5546      	strb	r6, [r0, r5]
    5220:	4870      	ldr	r0, [pc, #448]	@ (0x53e4)
    5222:	5110      	str	r0, [r2, r4]
    5224:	3483      	adds	r4, #131	@ 0x83
    5226:	0ec0      	lsrs	r0, r0, #27
    5228:	2121      	movs	r1, #33	@ 0x21
    522a:	856d      	strh	r5, [r5, #42]	@ 0x2a
    522c:	0404      	lsls	r4, r0, #16
    522e:	5548      	strb	r0, [r1, r5]
    5230:	4870      	ldr	r0, [pc, #448]	@ (0x53f4)
    5232:	5110      	str	r0, [r2, r4]
    5234:	3483      	adds	r4, #131	@ 0x83
    5236:	6ec0      	ldr	r0, [r0, #108]	@ 0x6c
    5238:	2021      	movs	r0, #33	@ 0x21
    523a:	856d      	strh	r5, [r5, #42]	@ 0x2a
    523c:	0404      	lsls	r4, r0, #16
    523e:	5528      	strb	r0, [r5, r4]
    5240:	4870      	ldr	r0, [pc, #448]	@ (0x5404)
    5242:	5110      	str	r0, [r2, r4]
    5244:	9483      	str	r4, [sp, #524]	@ 0x20c
    5246:	6ec0      	ldr	r0, [r0, #108]	@ 0x6c
    5248:	2221      	movs	r2, #33	@ 0x21
    524a:	856d      	strh	r5, [r5, #42]	@ 0x2a
    524c:	c204      	stmia	r2!, {r2}
    524e:	5346      	strh	r6, [r0, r5]
    5250:	6d20      	ldr	r0, [r4, #80]	@ 0x50
    5252:	0487      	lsls	r7, r0, #18
    5254:	66c2      	str	r2, [r0, #108]	@ 0x6c
    5256:	2053      	movs	r0, #83	@ 0x53
    5258:	896d      	ldrh	r5, [r5, #10]
    525a:	c204      	stmia	r2!, {r2}
    525c:	5386      	strh	r6, [r0, r6]
    525e:	6d20      	ldr	r0, [r4, #80]	@ 0x50
    5260:	048b      	lsls	r3, r1, #18
    5262:	5110      	str	r0, [r2, r4]
    5264:	6483      	str	r3, [r0, #72]	@ 0x48
    5266:	6ec0      	ldr	r0, [r0, #108]	@ 0x6c
    5268:	22a1      	movs	r2, #161	@ 0xa1
    526a:	856d      	strh	r5, [r5, #42]	@ 0x2a
    526c:	c204      	stmia	r2!, {r2}
    526e:	53a6      	strh	r6, [r4, r6]
    5270:	6d20      	ldr	r0, [r4, #80]	@ 0x50
    5272:	0487      	lsls	r7, r0, #18
    5274:	c6c2      	stmia	r6!, {r1, r6, r7}
    5276:	2053      	movs	r0, #83	@ 0x53
    5278:	896d      	ldrh	r5, [r5, #10]
    527a:	1004      	asrs	r4, r0, #32
    527c:	8351      	strh	r1, [r2, #26]
    527e:	c064      	stmia	r0!, {r2, r5, r6}
    5280:	216e      	movs	r1, #110	@ 0x6e
    5282:	6d23      	ldr	r3, [r4, #80]	@ 0x50
    5284:	0485      	lsls	r5, r0, #18
    5286:	e6c2      	b.n	0x500e
    5288:	2053      	movs	r0, #83	@ 0x53
    528a:	876d      	strh	r5, [r5, #58]	@ 0x3a
    528c:	1004      	asrs	r4, r0, #32
    528e:	8351      	strh	r1, [r2, #26]
    5290:	c064      	stmia	r0!, {r2, r5, r6}
    5292:	a16e      	add	r1, pc, #440	@ (adr r1, 0x544c)
    5294:	6d23      	ldr	r3, [r4, #80]	@ 0x50
    5296:	0485      	lsls	r5, r0, #18
    5298:	06c2      	lsls	r2, r0, #27
    529a:	2054      	movs	r0, #84	@ 0x54
    529c:	876d      	strh	r5, [r5, #58]	@ 0x3a
    529e:	1004      	asrs	r4, r0, #32
    52a0:	8351      	strh	r1, [r2, #26]
    52a2:	c034      	stmia	r0!, {r2, r4, r5}
    52a4:	216e      	movs	r1, #110	@ 0x6e
    52a6:	6d26      	ldr	r6, [r4, #80]	@ 0x50
    52a8:	0485      	lsls	r5, r0, #18
    52aa:	2904      	cmp	r1, #4
    52ac:	7055      	strb	r5, [r2, #1]
    52ae:	1048      	asrs	r0, r1, #1
    52b0:	8351      	strh	r1, [r2, #26]
    52b2:	c034      	stmia	r0!, {r2, r4, r5}
    52b4:	216e      	movs	r1, #110	@ 0x6e
    52b6:	6d27      	ldr	r7, [r4, #80]	@ 0x50
    52b8:	0485      	lsls	r5, r0, #18
    52ba:	4904      	ldr	r1, [pc, #16]	@ (0x52cc)
    52bc:	7055      	strb	r5, [r2, #1]
    52be:	1048      	asrs	r0, r1, #1
    52c0:	8351      	strh	r1, [r2, #26]
    52c2:	c034      	stmia	r0!, {r2, r4, r5}
    52c4:	216e      	movs	r1, #110	@ 0x6e
    52c6:	6d28      	ldr	r0, [r5, #80]	@ 0x50
    52c8:	0485      	lsls	r5, r0, #18
    52ca:	4a04      	ldr	r2, [pc, #16]	@ (0x52dc)
    52cc:	7055      	strb	r5, [r2, #1]
    52ce:	1048      	asrs	r0, r1, #1
    52d0:	8351      	strh	r1, [r2, #26]
    52d2:	c034      	stmia	r0!, {r2, r4, r5}
    52d4:	223e      	movs	r2, #62	@ 0x3e
    52d6:	6d20      	ldr	r0, [r4, #80]	@ 0x50
    52d8:	0485      	lsls	r5, r0, #18
    52da:	a521      	add	r5, pc, #132	@ (adr r5, 0x5360)
    52dc:	0518      	lsls	r0, r3, #20
    52de:	0487      	lsls	r7, r0, #18
    52e0:	51f1      	str	r1, [r6, r7]
    52e2:	3483      	adds	r4, #131	@ 0x83
    52e4:	3ec0      	subs	r6, #192	@ 0xc0
    52e6:	20a2      	movs	r0, #162	@ 0xa2
    52e8:	856d      	strh	r5, [r5, #42]	@ 0x2a
    52ea:	0404      	lsls	r4, r0, #16
    52ec:	5547      	strb	r7, [r0, r5]
    52ee:	4870      	ldr	r0, [pc, #448]	@ (0x54b0)
    52f0:	5110      	str	r0, [r2, r4]
    52f2:	3483      	adds	r4, #131	@ 0x83
    52f4:	6ec0      	ldr	r0, [r0, #108]	@ 0x6c
    52f6:	20a2      	movs	r0, #162	@ 0xa2
    52f8:	856d      	strh	r5, [r5, #42]	@ 0x2a
    52fa:	0404      	lsls	r4, r0, #16
    52fc:	5514      	strb	r4, [r2, r4]
    52fe:	4870      	ldr	r0, [pc, #448]	@ (0x54c0)
    5300:	5110      	str	r0, [r2, r4]
    5302:	3483      	adds	r4, #131	@ 0x83
    5304:	6ec0      	ldr	r0, [r0, #108]	@ 0x6c
    5306:	2122      	movs	r1, #34	@ 0x22
    5308:	856d      	strh	r5, [r5, #42]	@ 0x2a
    530a:	0404      	lsls	r4, r0, #16
    530c:	5515      	strb	r5, [r2, r4]
    530e:	4870      	ldr	r0, [pc, #448]	@ (0x54d0)
    5310:	5110      	str	r0, [r2, r4]
    5312:	3483      	adds	r4, #131	@ 0x83
    5314:	6ec0      	ldr	r0, [r0, #108]	@ 0x6c
    5316:	2422      	movs	r4, #34	@ 0x22
    5318:	856d      	strh	r5, [r5, #42]	@ 0x2a
    531a:	0404      	lsls	r4, r0, #16
    531c:	5516      	strb	r6, [r2, r4]
    531e:	4870      	ldr	r0, [pc, #448]	@ (0x54e0)
    5320:	5110      	str	r0, [r2, r4]
    5322:	6483      	str	r3, [r0, #72]	@ 0x48
    5324:	cec0      	ldmia	r6, {r6, r7}
    5326:	20a3      	movs	r0, #163	@ 0xa3
    5328:	856d      	strh	r5, [r5, #42]	@ 0x2a
    532a:	c204      	stmia	r2!, {r2}
    532c:	52a6      	strh	r6, [r4, r2]
    532e:	6d20      	ldr	r0, [r4, #80]	@ 0x50
    5330:	0487      	lsls	r7, r0, #18
    5332:	5f04      	ldrsh	r4, [r0, r4]
    5334:	9055      	str	r0, [sp, #340]	@ 0x154
    5336:	1048      	asrs	r0, r1, #1
    5338:	8351      	strh	r1, [r2, #26]
    533a:	c064      	stmia	r0!, {r2, r5, r6}
    533c:	a48e      	add	r4, pc, #568	@ (adr r4, 0x5578)
    533e:	6d20      	ldr	r0, [r4, #80]	@ 0x50
    5340:	0485      	lsls	r5, r0, #18
    5342:	c6c2      	stmia	r6!, {r1, r6, r7}
    5344:	2052      	movs	r0, #82	@ 0x52
    5346:	876d      	strh	r5, [r5, #58]	@ 0x3a
    5348:	c204      	stmia	r2!, {r2}
    534a:	52e6      	strh	r6, [r4, r3]
    534c:	6d20      	ldr	r0, [r4, #80]	@ 0x50
    534e:	0489      	lsls	r1, r1, #18
    5350:	5110      	str	r0, [r2, r4]
    5352:	6483      	str	r3, [r0, #72]	@ 0x48
    5354:	8ec0      	ldrh	r0, [r0, #54]	@ 0x36
    5356:	22a4      	movs	r2, #164	@ 0xa4
    5358:	856d      	strh	r5, [r5, #42]	@ 0x2a
    535a:	c204      	stmia	r2!, {r2}
    535c:	5306      	strh	r6, [r0, r4]
    535e:	6d20      	ldr	r0, [r4, #80]	@ 0x50
    5360:	0487      	lsls	r7, r0, #18
    5362:	26c2      	movs	r6, #194	@ 0xc2
    5364:	2053      	movs	r0, #83	@ 0x53
    5366:	896d      	ldrh	r5, [r5, #10]
    5368:	1004      	asrs	r4, r0, #32
    536a:	8351      	strh	r1, [r2, #26]
    536c:	c094      	stmia	r0!, {r2, r4, r7}
    536e:	a4ae      	add	r4, pc, #696	@ (adr r4, 0x5628)
    5370:	6d20      	ldr	r0, [r4, #80]	@ 0x50
    5372:	0485      	lsls	r5, r0, #18
    5374:	4b04      	ldr	r3, [pc, #16]	@ (0x5388)
    5376:	7055      	strb	r5, [r2, #1]
    5378:	0448      	lsls	r0, r1, #17
    537a:	554c      	strb	r4, [r1, r5]
    537c:	4880      	ldr	r0, [pc, #512]	@ (0x5580)
    537e:	4d04      	ldr	r5, [pc, #16]	@ (0x5390)
    5380:	9055      	str	r0, [sp, #340]	@ 0x154
    5382:	0448      	lsls	r0, r1, #17
    5384:	554e      	strb	r6, [r1, r5]
    5386:	48a0      	ldr	r0, [pc, #640]	@ (0x5608)
    5388:	4f04      	ldr	r7, [pc, #16]	@ (0x539c)
    538a:	b055      	add	sp, #340	@ 0x154
    538c:	0448      	lsls	r0, r1, #17
    538e:	5550      	strb	r0, [r2, r5]
    5390:	48c0      	ldr	r0, [pc, #768]	@ (0x5694)
    5392:	5110      	str	r0, [r2, r4]
    5394:	3483      	adds	r4, #131	@ 0x83
    5396:	aec0      	add	r6, sp, #768	@ 0x300
    5398:	24c0      	movs	r4, #192	@ 0xc0
    539a:	856d      	strh	r5, [r5, #42]	@ 0x2a
    539c:	1004      	asrs	r4, r0, #32
    539e:	8351      	strh	r1, [r2, #26]
    53a0:	c034      	stmia	r0!, {r2, r4, r5}
    53a2:	c0be      	stmia	r0!, {r1, r2, r3, r4, r5, r7}
    53a4:	6d24      	ldr	r4, [r4, #80]	@ 0x50
    53a6:	0485      	lsls	r5, r0, #18
    53a8:	5110      	str	r0, [r2, r4]
    53aa:	3483      	adds	r4, #131	@ 0x83
    53ac:	bec0      	bkpt	0x00c0
    53ae:	2840      	cmp	r0, #64	@ 0x40
    53b0:	856d      	strh	r5, [r5, #42]	@ 0x2a
    53b2:	1004      	asrs	r4, r0, #32
    53b4:	8351      	strh	r1, [r2, #26]
    53b6:	c034      	stmia	r0!, {r2, r4, r5}
    53b8:	c0be      	stmia	r0!, {r1, r2, r3, r4, r5, r7}
    53ba:	6d28      	ldr	r0, [r5, #80]	@ 0x50
    53bc:	0485      	lsls	r5, r0, #18
    53be:	5110      	str	r0, [r2, r4]
    53c0:	3483      	adds	r4, #131	@ 0x83
    53c2:	0ec0      	lsrs	r0, r0, #27
    53c4:	2141      	movs	r1, #65	@ 0x41
    53c6:	856d      	strh	r5, [r5, #42]	@ 0x2a
    53c8:	1004      	asrs	r4, r0, #32
    53ca:	8351      	strh	r1, [r2, #26]
    53cc:	c034      	stmia	r0!, {r2, r4, r5}
    53ce:	c16e      	stmia	r1!, {r1, r2, r3, r5, r6}
    53d0:	6d25      	ldr	r5, [r4, #80]	@ 0x50
    53d2:	0485      	lsls	r5, r0, #18
    53d4:	5110      	str	r0, [r2, r4]
    53d6:	3483      	adds	r4, #131	@ 0x83
    53d8:	6ec0      	ldr	r0, [r0, #108]	@ 0x6c
    53da:	2841      	cmp	r0, #65	@ 0x41
    53dc:	856d      	strh	r5, [r5, #42]	@ 0x2a
    53de:	1004      	asrs	r4, r0, #32
    53e0:	8351      	strh	r1, [r2, #26]
    53e2:	c034      	stmia	r0!, {r2, r4, r5}
    53e4:	435e      	muls	r6, r3
    53e6:	6d20      	ldr	r0, [r4, #80]	@ 0x50
    53e8:	0485      	lsls	r5, r0, #18
    53ea:	df10      	svc	16
    53ec:	351b      	adds	r5, #27
    53ee:	0648      	lsls	r0, r1, #25
    53f0:	3d21      	subs	r5, #33	@ 0x21
    53f2:	8c18      	ldrh	r0, [r3, #32]
    53f4:	2401      	movs	r4, #1
    53f6:	01ec      	lsls	r4, r5, #7
    53f8:	d22e      	bcs.n	0x5458
    53fa:	4856      	ldr	r0, [pc, #344]	@ (0x5554)
    53fc:	0c30      	lsrs	r0, r6, #16
    53fe:	0486      	lsls	r6, r0, #18
    5400:	39c0      	subs	r1, #192	@ 0xc0
    5402:	76d2      	strb	r2, [r2, #27]
    5404:	9048      	str	r0, [sp, #288]	@ 0x120
    5406:	0ce9      	lsrs	r1, r5, #19
    5408:	2821      	cmp	r0, #33	@ 0x21
    540a:	6f18      	ldr	r0, [r3, #112]	@ 0x70
    540c:	8313      	strh	r3, [r2, #24]
    540e:	7182      	strb	r2, [r0, #6]
    5410:	0204      	lsls	r4, r0, #8
    5412:	3ce8      	subs	r4, #232	@ 0xe8
    5414:	4784      	blxns	r0
    5416:	8021      	strh	r1, [r4, #0]
    5418:	63ce      	str	r6, [r1, #60]	@ 0x3c
    541a:	7018      	strb	r0, [r3, #0]
    541c:	ec24 2e01 	stc	14, cr2, [r4], #-4
    5420:	56d2      	ldrsb	r2, [r2, r3]
    5422:	2048      	movs	r0, #72	@ 0x48
    5424:	c10c      	stmia	r1!, {r2, r3}
    5426:	5640      	ldrsb	r0, [r0, r1]
    5428:	4231      	tst	r1, r6
    542a:	56d8      	ldrsb	r0, [r3, r3]
    542c:	10c2      	asrs	r2, r0, #3
    542e:	640c      	str	r4, [r1, #64]	@ 0x40
    5430:	2315      	movs	r3, #21
    5432:	1b84      	subs	r4, r0, r6
    5434:	0c21      	lsrs	r1, r4, #16
    5436:	40c2      	lsrs	r2, r0
    5438:	3256      	adds	r2, #86	@ 0x56
    543a:	d842      	bhi.n	0x54c2
    543c:	c234      	stmia	r2!, {r2, r4, r5}
    543e:	0c10      	lsrs	r0, r2, #16
    5440:	1564      	asrs	r4, r4, #21
    5442:	8423      	strh	r3, [r4, #32]
    5444:	239b      	movs	r3, #155	@ 0x9b
    5446:	c20c      	stmia	r2!, {r2, r3}
    5448:	5640      	ldrsb	r0, [r0, r1]
    544a:	4232      	tst	r2, r6
    544c:	28b8      	cmp	r0, #184	@ 0xb8
    544e:	30c2      	adds	r0, #194	@ 0xc2
    5450:	640c      	str	r4, [r1, #64]	@ 0x40
    5452:	2305      	movs	r3, #5
    5454:	2224      	movs	r2, #36	@ 0x24
    5456:	6e16      	ldr	r6, [r2, #96]	@ 0x60
    5458:	6d23      	ldr	r3, [r4, #80]	@ 0x50
    545a:	0487      	lsls	r7, r0, #18
    545c:	5046      	str	r6, [r0, r1]
    545e:	4890      	ldr	r0, [pc, #576]	@ (0x56a0)
    5460:	1a98      	subs	r0, r3, r2
    5462:	16c2      	asrs	r2, r0, #27
    5464:	240c      	movs	r4, #12
    5466:	876d      	strh	r5, [r5, #58]	@ 0x3a
    5468:	c204      	stmia	r2!, {r2}
    546a:	0c30      	lsrs	r0, r6, #16
    546c:	9054      	str	r0, [sp, #336]	@ 0x150
    546e:	df48      	svc	72	@ 0x48
    5470:	f105 8351 	bmi.w	0xab16
    5474:	c064      	stmia	r0!, {r2, r5, r6}
    5476:	601e      	str	r6, [r3, #0]
    5478:	6d24      	ldr	r4, [r4, #80]	@ 0x50
    547a:	0485      	lsls	r5, r0, #18
    547c:	6d04      	ldr	r4, [r0, #80]	@ 0x50
    547e:	7055      	strb	r5, [r2, #1]
    5480:	c248      	stmia	r2!, {r3, r6}
    5482:	56e6      	ldrsb	r6, [r4, r3]
    5484:	6d20      	ldr	r0, [r4, #80]	@ 0x50
    5486:	0489      	lsls	r1, r1, #18
    5488:	5110      	str	r0, [r2, r4]
    548a:	3483      	adds	r4, #131	@ 0x83
    548c:	1ec0      	subs	r0, r0, #3
    548e:	2560      	movs	r5, #96	@ 0x60
    5490:	856d      	strh	r5, [r5, #42]	@ 0x2a
    5492:	4404      	add	r4, r0
    5494:	0541      	lsls	r1, r0, #21
    5496:	0487      	lsls	r7, r0, #18
    5498:	51f1      	str	r1, [r6, r7]
    549a:	6483      	str	r3, [r0, #72]	@ 0x48
    549c:	0310      	lsls	r0, r2, #12
    549e:	d179      	bne.n	0x5594
    54a0:	3008      	adds	r0, #8
    54a2:	1ec2      	subs	r2, r0, #3
    54a4:	2860      	cmp	r0, #96	@ 0x60
    54a6:	856d      	strh	r5, [r5, #42]	@ 0x2a
    54a8:	c304      	stmia	r3!, {r2}
    54aa:	4860      	ldr	r0, [pc, #384]	@ (0x562c)
    54ac:	9c00      	ldr	r4, [sp, #0]
    54ae:	6d23      	ldr	r3, [r4, #80]	@ 0x50
    54b0:	0487      	lsls	r7, r0, #18
    54b2:	2c98      	cmp	r4, #152	@ 0x98
    54b4:	01ec      	lsls	r4, r5, #7
    54b6:	d286      	bcs.n	0x53c6
    54b8:	4856      	ldr	r0, [pc, #344]	@ (0x5614)
    54ba:	5310      	strh	r0, [r2, r4]
    54bc:	2177      	movs	r1, #119	@ 0x77
    54be:	876d      	strh	r5, [r5, #58]	@ 0x3a
    54c0:	2104      	movs	r1, #4
    54c2:	1774      	asrs	r4, r6, #29
    54c4:	8905      	ldrh	r5, [r0, #8]
    54c6:	a514      	add	r5, pc, #80	@ (adr r5, 0x5518)
    54c8:	0148      	lsls	r0, r1, #5
    54ca:	5110      	str	r0, [r2, r4]
    54cc:	3483      	adds	r4, #131	@ 0x83
    54ce:	5ec0      	ldrsh	r0, [r0, r3]
    54d0:	2060      	movs	r0, #96	@ 0x60
    54d2:	856d      	strh	r5, [r5, #42]	@ 0x2a
    54d4:	2104      	movs	r1, #4
    54d6:	1691      	asrs	r1, r2, #26
    54d8:	8705      	strh	r5, [r0, #56]	@ 0x38
    54da:	f104 8351 	bmi.w	0x9b80
    54de:	c034      	stmia	r0!, {r2, r4, r5}
    54e0:	e05e      	b.n	0x55a0
    54e2:	6d20      	ldr	r0, [r4, #80]	@ 0x50
    54e4:	0485      	lsls	r5, r0, #18
    54e6:	8721      	strh	r1, [r4, #56]	@ 0x38
    54e8:	0516      	lsls	r6, r2, #20
    54ea:	0487      	lsls	r7, r0, #18
    54ec:	51f1      	str	r1, [r6, r7]
    54ee:	3483      	adds	r4, #131	@ 0x83
    54f0:	5ec0      	ldrsh	r0, [r0, r3]
    54f2:	21e0      	movs	r1, #224	@ 0xe0
    54f4:	856d      	strh	r5, [r5, #42]	@ 0x2a
    54f6:	2104      	movs	r1, #4
    54f8:	167a      	asrs	r2, r7, #25
    54fa:	8705      	strh	r5, [r0, #56]	@ 0x38
    54fc:	f104 8351 	bmi.w	0x9ba2
    5500:	c034      	stmia	r0!, {r2, r4, r5}
    5502:	605e      	str	r6, [r3, #4]
    5504:	6d22      	ldr	r2, [r4, #80]	@ 0x50
    5506:	0485      	lsls	r5, r0, #18
    5508:	7021      	strb	r1, [r4, #0]
    550a:	0516      	lsls	r6, r2, #20
    550c:	0487      	lsls	r7, r0, #18
    550e:	51f1      	str	r1, [r6, r7]
    5510:	3483      	adds	r4, #131	@ 0x83
    5512:	5ec0      	ldrsh	r0, [r0, r3]
    5514:	2560      	movs	r5, #96	@ 0x60
    5516:	856d      	strh	r5, [r5, #42]	@ 0x2a
    5518:	2104      	movs	r1, #4
    551a:	166d      	asrs	r5, r5, #25
    551c:	8705      	strh	r5, [r0, #56]	@ 0x38
    551e:	f104 8351 	bmi.w	0x9bc4
    5522:	c034      	stmia	r0!, {r2, r4, r5}
    5524:	605e      	str	r6, [r3, #4]
    5526:	6d26      	ldr	r6, [r4, #80]	@ 0x50
    5528:	0485      	lsls	r5, r0, #18
    552a:	6a21      	ldr	r1, [r4, #32]
    552c:	0516      	lsls	r6, r2, #20
    552e:	0487      	lsls	r7, r0, #18
    5530:	51f1      	str	r1, [r6, r7]
    5532:	6483      	str	r3, [r0, #72]	@ 0x48
    5534:	aec0      	add	r6, sp, #768	@ 0x300
    5536:	24e0      	movs	r4, #224	@ 0xe0
    5538:	856d      	strh	r5, [r5, #42]	@ 0x2a
    553a:	5104      	str	r4, [r0, r4]
    553c:	1487      	asrs	r7, r0, #18
    553e:	00a0      	lsls	r0, r4, #2
    5540:	05a0      	lsls	r0, r4, #22
    5542:	0010      	movs	r0, r2
    5544:	8440      	strh	r0, [r0, #34]	@ 0x22
    5546:	8805      	ldrh	r5, [r0, #0]
    5548:	f104 8351 	bmi.w	0x9bee
    554c:	c064      	stmia	r0!, {r2, r5, r6}
    554e:	e0be      	b.n	0x56ce
    5550:	6d24      	ldr	r4, [r4, #80]	@ 0x50
    5552:	0485      	lsls	r5, r0, #18
    5554:	020a      	lsls	r2, r1, #8
    5556:	005a      	lsls	r2, r3, #1
    5558:	ea11 5843 	ands.w	r8, r1, r3, lsl #21
    555c:	4870      	ldr	r0, [pc, #448]	@ (0x5720)
    555e:	030a      	lsls	r2, r1, #12
    5560:	005a      	lsls	r2, r3, #1
    5562:	e011      	b.n	0x5588
    5564:	5843      	ldr	r3, [r0, r1]
    5566:	4880      	ldr	r0, [pc, #512]	@ (0x5768)
    5568:	5110      	str	r0, [r2, r4]
    556a:	6483      	str	r3, [r0, #72]	@ 0x48
    556c:	bec0      	bkpt	0x00c0
    556e:	2860      	cmp	r0, #96	@ 0x60
    5570:	856d      	strh	r5, [r5, #42]	@ 0x2a
    5572:	0a04      	lsrs	r4, r0, #8
    5574:	5a01      	ldrh	r1, [r0, r0]
    5576:	1100      	asrs	r0, r0, #4
    5578:	43cb      	mvns	r3, r1
    557a:	7058      	strb	r0, [r3, #1]
    557c:	0a48      	lsrs	r0, r1, #9
    557e:	5a02      	ldrh	r2, [r0, r0]
    5580:	1100      	asrs	r0, r0, #4
    5582:	43c1      	mvns	r1, r0
    5584:	8058      	strh	r0, [r3, #2]
    5586:	1048      	asrs	r0, r1, #1
    5588:	8351      	strh	r1, [r2, #26]
    558a:	c034      	stmia	r0!, {r2, r4, r5}
    558c:	610e      	str	r6, [r1, #16]
    558e:	6d21      	ldr	r1, [r4, #80]	@ 0x50
    5590:	0485      	lsls	r5, r0, #18
    5592:	040a      	lsls	r2, r1, #16
    5594:	005a      	lsls	r2, r3, #1
    5596:	ac11      	add	r4, sp, #68	@ 0x44
    5598:	5843      	ldr	r3, [r0, r1]
    559a:	4870      	ldr	r0, [pc, #448]	@ (0x575c)
    559c:	5110      	str	r0, [r2, r4]
    559e:	6483      	str	r3, [r0, #72]	@ 0x48
    55a0:	6ec0      	ldr	r0, [r0, #108]	@ 0x6c
    55a2:	25e1      	movs	r5, #225	@ 0xe1
    55a4:	856d      	strh	r5, [r5, #42]	@ 0x2a
    55a6:	0a04      	lsrs	r4, r0, #8
    55a8:	5a07      	ldrh	r7, [r0, r0]
    55aa:	1103      	asrs	r3, r0, #4
    55ac:	e397      	b.n	0x5cde
    55ae:	6d20      	ldr	r0, [r4, #80]	@ 0x50
    55b0:	0487      	lsls	r7, r0, #18
    55b2:	5110      	str	r0, [r2, r4]
    55b4:	6483      	str	r3, [r0, #72]	@ 0x48
    55b6:	6ec0      	ldr	r0, [r0, #108]	@ 0x6c
    55b8:	2861      	cmp	r0, #97	@ 0x61
    55ba:	856d      	strh	r5, [r5, #42]	@ 0x2a
    55bc:	0a04      	lsrs	r4, r0, #8
    55be:	5a05      	ldrh	r5, [r0, r0]
    55c0:	1100      	asrs	r0, r0, #4
    55c2:	4381      	bics	r1, r0
    55c4:	7058      	strb	r0, [r3, #1]
    55c6:	5148      	str	r0, [r1, r5]
    55c8:	0488      	lsls	r0, r1, #18
    55ca:	9510      	str	r5, [sp, #64]	@ 0x40
    55cc:	0048      	lsls	r0, r1, #1
    55ce:	8a51      	ldrh	r1, [r2, #18]
    55d0:	0004      	movs	r4, r0
    55d2:	51f1      	str	r1, [r6, r7]
    55d4:	3483      	adds	r4, #131	@ 0x83
    55d6:	3ec0      	subs	r6, #192	@ 0xc0
    55d8:	2062      	movs	r0, #98	@ 0x62
    55da:	856d      	strh	r5, [r5, #42]	@ 0x2a
    55dc:	2104      	movs	r1, #4
    55de:	15a2      	asrs	r2, r4, #22
    55e0:	8705      	strh	r5, [r0, #56]	@ 0x38
    55e2:	f104 8351 	bmi.w	0x9c88
    55e6:	c064      	stmia	r0!, {r2, r5, r6}
    55e8:	635e      	str	r6, [r3, #52]	@ 0x34
    55ea:	6d20      	ldr	r0, [r4, #80]	@ 0x50
    55ec:	0485      	lsls	r5, r0, #18
    55ee:	060a      	lsls	r2, r1, #24
    55f0:	025a      	lsls	r2, r3, #9
    55f2:	5011      	str	r1, [r2, r0]
    55f4:	20e3      	movs	r0, #227	@ 0xe3
    55f6:	876d      	strh	r5, [r5, #58]	@ 0x3a
    55f8:	1004      	asrs	r4, r0, #32
    55fa:	2adf      	cmp	r2, #223	@ 0xdf
    55fc:	2180      	movs	r1, #128	@ 0x80
    55fe:	1ded      	adds	r5, r5, #7
    5600:	8351      	strh	r1, [r2, #26]
    5602:	c094      	stmia	r0!, {r2, r4, r7}
    5604:	e4ae      	b.n	0x4f64
    5606:	6d20      	ldr	r0, [r4, #80]	@ 0x50
    5608:	0485      	lsls	r5, r0, #18
    560a:	5046      	str	r6, [r0, r1]
    560c:	4870      	ldr	r0, [pc, #448]	@ (0x57d0)
    560e:	5146      	str	r6, [r0, r5]
    5610:	4880      	ldr	r0, [pc, #512]	@ (0x5814)
    5612:	5246      	strh	r6, [r0, r1]
    5614:	4890      	ldr	r0, [pc, #576]	@ (0x5858)
    5616:	5346      	strh	r6, [r0, r5]
    5618:	48a0      	ldr	r0, [pc, #640]	@ (0x589c)
    561a:	5446      	strb	r6, [r0, r1]
    561c:	48b0      	ldr	r0, [pc, #704]	@ (0x58e0)
    561e:	5546      	strb	r6, [r0, r5]
    5620:	48c0      	ldr	r0, [pc, #768]	@ (0x5924)
    5622:	06df      	lsls	r7, r3, #27
    5624:	dff1      	svc	241	@ 0xf1
    5626:	4ece      	ldr	r6, [pc, #824]	@ (0x5960)
    5628:	f048 5106 	orr.w	r1, r8, #562036736	@ 0x21800000
    562c:	6483      	str	r3, [r0, #72]	@ 0x48
    562e:	2ec0      	cmp	r6, #192	@ 0xc0
    5630:	200f      	movs	r0, #15
    5632:	856d      	strh	r5, [r5, #42]	@ 0x2a
    5634:	0404      	lsls	r4, r0, #16
    5636:	e561      	b.n	0x50fc
    5638:	8704      	strh	r4, [r0, #56]	@ 0x38
    563a:	4e02      	ldr	r6, [pc, #8]	@ (0x5644)
    563c:	6c20      	ldr	r0, [r4, #64]	@ 0x40
    563e:	0562      	lsls	r2, r4, #21
    5640:	0387      	lsls	r7, r0, #14
    5642:	0497      	lsls	r7, r2, #18
    5644:	46c2      	mov	sl, r8
    5646:	7056      	strb	r6, [r2, #1]
    5648:	7058      	strb	r0, [r3, #1]
    564a:	f069 102d 	orn	r0, r9, #2949165	@ 0x2d002d
    564e:	cedf      	ldmia	r6, {r0, r1, r2, r3, r4, r6, r7}
    5650:	484e      	ldr	r0, [pc, #312]	@ (0x578c)
    5652:	06f0      	lsls	r0, r6, #27
    5654:	8351      	strh	r1, [r2, #26]
    5656:	c064      	stmia	r0!, {r2, r5, r6}
    5658:	0fae      	lsrs	r6, r5, #30
    565a:	6d20      	ldr	r0, [r4, #80]	@ 0x50
    565c:	0485      	lsls	r5, r0, #18
    565e:	6604      	str	r4, [r0, #96]	@ 0x60
    5660:	04e5      	lsls	r5, r4, #19
    5662:	0287      	lsls	r7, r0, #10
    5664:	204e      	movs	r0, #78	@ 0x4e
    5666:	676c      	str	r4, [r5, #116]	@ 0x74
    5668:	8705      	strh	r5, [r0, #56]	@ 0x38
    566a:	9703      	str	r7, [sp, #12]
    566c:	c204      	stmia	r2!, {r2}
    566e:	5696      	ldrsb	r6, [r2, r2]
    5670:	5870      	ldr	r0, [r6, r1]
    5672:	6970      	ldr	r0, [r6, #20]
    5674:	2df0      	cmp	r5, #240	@ 0xf0
    5676:	5110      	str	r0, [r2, r4]
    5678:	3483      	adds	r4, #131	@ 0x83
    567a:	5ec0      	ldrsh	r0, [r0, r3]
    567c:	22a0      	movs	r2, #160	@ 0xa0
    567e:	856d      	strh	r5, [r5, #42]	@ 0x2a
    5680:	0404      	lsls	r4, r0, #16
    5682:	5518      	strb	r0, [r3, r4]
    5684:	4870      	ldr	r0, [pc, #448]	@ (0x5848)
    5686:	5110      	str	r0, [r2, r4]
    5688:	3483      	adds	r4, #131	@ 0x83
    568a:	5ec0      	ldrsh	r0, [r0, r3]
    568c:	26a0      	movs	r6, #160	@ 0xa0
    568e:	856d      	strh	r5, [r5, #42]	@ 0x2a
    5690:	2104      	movs	r1, #4
    5692:	14fc      	asrs	r4, r7, #19
    5694:	8705      	strh	r5, [r0, #56]	@ 0x38
    5696:	f104 8351 	bmi.w	0x9d3c
    569a:	c064      	stmia	r0!, {r2, r5, r6}
    569c:	e05e      	b.n	0x575c
    569e:	6d25      	ldr	r5, [r4, #80]	@ 0x50
    56a0:	0485      	lsls	r5, r0, #18
    56a2:	5944      	ldr	r4, [r0, r5]
    56a4:	d258      	bcs.n	0x5758
    56a6:	4876      	ldr	r0, [pc, #472]	@ (0x5880)
    56a8:	9150      	str	r1, [sp, #320]	@ 0x140
    56aa:	1548      	asrs	r0, r1, #21
    56ac:	048a      	lsls	r2, r1, #18
    56ae:	51f1      	str	r1, [r6, r7]
    56b0:	3483      	adds	r4, #131	@ 0x83
    56b2:	2ec0      	cmp	r6, #192	@ 0xc0
    56b4:	2223      	movs	r2, #35	@ 0x23
    56b6:	856d      	strh	r5, [r5, #42]	@ 0x2a
    56b8:	0404      	lsls	r4, r0, #16
    56ba:	5560      	strb	r0, [r4, r5]
    56bc:	4870      	ldr	r0, [pc, #448]	@ (0x5880)
    56be:	5110      	str	r0, [r2, r4]
    56c0:	3483      	adds	r4, #131	@ 0x83
    56c2:	2ec0      	cmp	r6, #192	@ 0xc0
    56c4:	2523      	movs	r5, #35	@ 0x23
    56c6:	856d      	strh	r5, [r5, #42]	@ 0x2a
    56c8:	0404      	lsls	r4, r0, #16
    56ca:	5517      	strb	r7, [r2, r4]
    56cc:	4870      	ldr	r0, [pc, #448]	@ (0x5890)
    56ce:	d210      	bcs.n	0x56f2
    56d0:	03de      	lsls	r6, r3, #15
    56d2:	1370      	asrs	r0, r6, #13
    56d4:	97b3      	str	r7, [sp, #716]	@ 0x2cc
    56d6:	18de      	adds	r6, r3, r3
    56d8:	12b0      	asrs	r0, r6, #10
    56da:	f3e4 f41f 	bl	0x7e9f1c
    56de:	a003      	add	r0, pc, #12	@ (adr r0, 0x56ec)
    56e0:	1030      	asrs	r0, r6, #32
    56e2:	4103      	asrs	r3, r0
    56e4:	40ad      	lsls	r5, r5
    56e6:	b310      	cbz	r0, 0x572e
    56e8:	1d40      	adds	r0, r0, #5
    56ea:	13d4      	asrs	r4, r2, #15
    56ec:	5010      	str	r0, [r2, r0]
    56ee:	1076      	asrs	r6, r6, #1
    56f0:	3d41      	subs	r5, #65	@ 0x41
    56f2:	0a00      	lsrs	r0, r0, #8
    56f4:	2104      	movs	r1, #4
    56f6:	d466      	bmi.n	0x57c6
    56f8:	030a      	lsls	r2, r1, #12
    56fa:	6121      	str	r1, [r4, #16]
    56fc:	41d4      	rors	r4, r2
    56fe:	003e      	movs	r6, r7
    5700:	3f41      	subs	r7, #65	@ 0x41
    5702:	1100      	asrs	r0, r0, #4
    5704:	074a      	lsls	r2, r1, #29
    5706:	dff1      	svc	241	@ 0xf1
    5708:	17fd      	asrs	r5, r7, #31
    570a:	000a      	movs	r2, r1
    570c:	9047      	str	r0, [sp, #284]	@ 0x11c
    570e:	1939      	adds	r1, r7, r4
    5710:	8046      	strh	r6, [r0, #2]
    5712:	0525      	lsls	r5, r4, #20
    5714:	45e0      	cmp	r8, ip
    5716:	e852 0cc0 			@ <UNDEFINED> instruction: 0xe8520cc0
    571a:	2000      	movs	r0, #0
    571c:	bb33      	cbnz	r3, 0x576c
    571e:	0460      	lsls	r0, r4, #17
    5720:	5258      	strh	r0, [r3, r1]
    5722:	5e00      	ldrsh	r0, [r0, r0]
    5724:	8524      	strh	r4, [r4, #40]	@ 0x28
    5726:	820e      	strh	r6, [r1, #16]
    5728:	5421      	strb	r1, [r4, r0]
    572a:	0001      	movs	r1, r0
    572c:	8046      	strh	r6, [r0, #2]
    572e:	0525      	lsls	r5, r4, #20
    5730:	45e0      	cmp	r8, ip
    5732:	f852 0461 	ldr.w	r0, [r2, <undefined>]
    5736:	5258      	strh	r0, [r3, r1]
    5738:	5e00      	ldrsh	r0, [r0, r0]
    573a:	8524      	strh	r4, [r4, #40]	@ 0x28
    573c:	cc0e      	ldmia	r4!, {r1, r2, r3}
    573e:	0000      	movs	r0, r0
    5740:	74b8      	strb	r0, [r7, #18]
    5742:	c046      	stmia	r0!, {r1, r2, r6}
    5744:	f008 0461 	and.w	r4, r8, #97	@ 0x61
    5748:	018c      	lsls	r4, r1, #6
    574a:	4621      	mov	r1, r4
    574c:	28c0      	cmp	r0, #192	@ 0xc0
    574e:	6230      	str	r0, [r6, #32]
    5750:	8c04      	ldrh	r4, [r0, #32]
    5752:	2403      	movs	r4, #3
    5754:	2798      	movs	r7, #152	@ 0x98
    5756:	090a      	lsrs	r2, r1, #4
    5758:	8cef      	ldrh	r7, [r5, #38]	@ 0x26
    575a:	a1c9      	add	r1, pc, #804	@ (adr r1, 0x5a80)
    575c:	f0a0 98ce 	b.w	0x8a58fc
    5760:	0a11      	lsrs	r1, r2, #8
    5762:	ef0b 3fec 	vmax.f32	<illegal reg q1.5>, <illegal reg q13.5>, q14
    5766:	0c0a      	lsrs	r2, r1, #16
    5768:	6cef      	ldr	r7, [r5, #76]	@ 0x4c
    576a:	5804      	ldr	r4, [r0, r0]
    576c:	0052      	lsls	r2, r2, #1
    576e:	000d      	movs	r5, r1
    5770:	24de      	movs	r4, #222	@ 0xde
    5772:	1f85      	subs	r5, r0, #6
    5774:	000a      	movs	r2, r1
    5776:	55e0      	strb	r0, [r4, r7]
    5778:	2056      	movs	r0, #86	@ 0x56
    577a:	8598      	strh	r0, [r3, #44]	@ 0x2c
    577c:	8046      	strh	r6, [r0, #2]
    577e:	0525      	lsls	r5, r4, #20
    5780:	4de0      	ldr	r5, [pc, #896]	@ (0x5b04)
    5782:	e852 0cc0 			@ <UNDEFINED> instruction: 0xe8520cc0
    5786:	2000      	movs	r0, #0
    5788:	9633      	str	r6, [sp, #204]	@ 0xcc
    578a:	0460      	lsls	r0, r4, #17
    578c:	5258      	strh	r0, [r3, r1]
    578e:	de00      	udf	#0
    5790:	8524      	strh	r4, [r4, #40]	@ 0x28
    5792:	820e      	strh	r6, [r1, #16]
    5794:	5421      	strb	r1, [r4, r0]
    5796:	0001      	movs	r1, r0
    5798:	8046      	strh	r6, [r0, #2]
    579a:	0525      	lsls	r5, r4, #20
    579c:	4de0      	ldr	r5, [pc, #896]	@ (0x5b20)
    579e:	f852 0461 	ldr.w	r0, [r2, <undefined>]
    57a2:	5258      	strh	r0, [r3, r1]
    57a4:	de00      	udf	#0
    57a6:	8524      	strh	r4, [r4, #40]	@ 0x28
    57a8:	cc0e      	ldmia	r4!, {r1, r2, r3}
    57aa:	0000      	movs	r0, r0
    57ac:	4fb8      	ldr	r7, [pc, #736]	@ (0x5a90)
    57ae:	c046      	stmia	r0!, {r1, r2, r6}
    57b0:	f008 0461 	and.w	r4, r8, #97	@ 0x61
    57b4:	018c      	lsls	r4, r1, #6
    57b6:	4621      	mov	r1, r4
    57b8:	28c0      	cmp	r0, #192	@ 0xc0
    57ba:	6230      	str	r0, [r6, #32]
    57bc:	8c04      	ldrh	r4, [r0, #32]
    57be:	2403      	movs	r4, #3
    57c0:	2798      	movs	r7, #152	@ 0x98
    57c2:	050a      	lsls	r2, r1, #20
    57c4:	8cef      	ldrh	r7, [r5, #38]	@ 0x26
    57c6:	a1c9      	add	r1, pc, #804	@ (adr r1, 0x5aec)
    57c8:	f060 98ce 	b.w	0x865968
    57cc:	0a11      	lsrs	r1, r2, #8
    57ce:	ef07 3fec 	vmax.f32	<illegal reg q1.5>, <illegal reg q11.5>, q14
    57d2:	080a      	lsrs	r2, r1, #32
    57d4:	6cef      	ldr	r7, [r5, #76]	@ 0x4c
    57d6:	0804      	lsrs	r4, r0, #32
    57d8:	60d1      	str	r1, [r2, #12]
    57da:	0c04      	lsrs	r4, r0, #16
    57dc:	d904      	bls.n	0x57e8
    57de:	ee61 df17 	mcr	15, 3, sp, cr1, cr7, {0}
    57e2:	f103 f7cf 	bl	0x509784
    57e6:	777f      	strb	r7, [r7, #29]
    57e8:	5704      	ldrsb	r4, [r0, r4]
    57ea:	5e01      	ldrsh	r1, [r0, r0]
    57ec:	1465      	asrs	r5, r4, #17
    57ee:	4882      	ldr	r0, [pc, #520]	@ (0x59f8)
    57f0:	8d28      	ldrh	r0, [r5, #40]	@ 0x28
    57f2:	0600      	lsls	r0, r0, #24
    57f4:	0461      	lsls	r1, r4, #17
    57f6:	5258      	strh	r0, [r3, r1]
    57f8:	5e00      	ldrsh	r0, [r0, r0]
    57fa:	8524      	strh	r4, [r4, #40]	@ 0x28
    57fc:	6f0e      	ldr	r6, [r1, #112]	@ 0x70
    57fe:	0463      	lsls	r3, r4, #17
    5800:	5258      	strh	r0, [r3, r1]
    5802:	de00      	udf	#0
    5804:	8524      	strh	r4, [r4, #40]	@ 0x28
    5806:	6f0e      	ldr	r6, [r1, #112]	@ 0x70
    5808:	5e05      	ldrsh	r5, [r0, r0]
    580a:	0465      	lsls	r5, r4, #17
    580c:	4882      	ldr	r0, [pc, #520]	@ (0x5a18)
    580e:	2478      	movs	r4, #120	@ 0x78
    5810:	cc46      	ldmia	r4!, {r1, r2, r6}
    5812:	6008      	str	r0, [r1, #0]
    5814:	c461      	stmia	r4!, {r0, r5, r6}
    5816:	108c      	asrs	r4, r1, #2
    5818:	463f      	mov	r7, r7
    581a:	08cc      	lsrs	r4, r1, #3
    581c:	8552      	strh	r2, [r2, #42]	@ 0x2a
    581e:	6799      	str	r1, [r3, #120]	@ 0x78
    5820:	8d24      	ldrh	r4, [r4, #40]	@ 0x28
    5822:	0601      	lsls	r1, r0, #24
    5824:	fe46 ecce 	cdp2	12, 4, cr14, cr6, cr14, {6}
    5828:	012c      	lsls	r4, r5, #4
    582a:	c36f      	stmia	r3!, {r0, r1, r2, r3, r5, r6}
    582c:	7d0e      	ldrb	r6, [r1, #20]
    582e:	56f0      	ldrsb	r0, [r6, r3]
    5830:	010a      	lsls	r2, r1, #4
    5832:	6247      	str	r7, [r0, #36]	@ 0x24
    5834:	efd4 798c 	vqdmlal.s16	<illegal reg q11.5>, d20, d12
    5838:	0c04      	lsrs	r4, r0, #16
    583a:	36f0      	adds	r6, #240	@ 0xf0
    583c:	00c0      	lsls	r0, r0, #3
    583e:	a56f      	add	r5, pc, #444	@ (adr r5, 0x59fc)
    5840:	7000      	strb	r0, [r0, #0]
    5842:	4624      	mov	r4, r4
    5844:	cefe      	ldmia	r6, {r1, r2, r3, r4, r5, r6, r7}
    5846:	2898      	cmp	r0, #152	@ 0x98
    5848:	2cec      	cmp	r4, #236	@ 0xec
    584a:	6f01      	ldr	r1, [r0, #112]	@ 0x70
    584c:	2463      	movs	r4, #99	@ 0x63
    584e:	008d      	lsls	r5, r1, #2
    5850:	ec16 07d0 	ldc	7, cr0, [r6], {208}	@ 0xd0
    5854:	a56f      	add	r5, pc, #444	@ (adr r5, 0x5a14)
    5856:	7010      	strb	r0, [r2, #0]
    5858:	4624      	mov	r4, r4
    585a:	cefd      	ldmia	r6, {r0, r2, r3, r4, r5, r6, r7}
    585c:	8046      	strh	r6, [r0, #2]
    585e:	0525      	lsls	r5, r4, #20
    5860:	037e      	lsls	r6, r7, #13
    5862:	245e      	movs	r4, #94	@ 0x5e
    5864:	1f85      	subs	r5, r0, #6
    5866:	8046      	strh	r6, [r0, #2]
    5868:	0525      	lsls	r5, r4, #20
    586a:	057e      	lsls	r6, r7, #21
    586c:	24de      	movs	r4, #222	@ 0xde
    586e:	1f85      	subs	r5, r0, #6
    5870:	0246      	lsls	r6, r0, #9
    5872:	655e      	str	r6, [r3, #84]	@ 0x54
    5874:	8205      	strh	r5, [r0, #16]
    5876:	e859 cf77 	ldrex	ip, [r9, #476]	@ 0x1dc
    587a:	1009      	asrs	r1, r1, #32
    587c:	7bdf      	ldrb	r7, [r3, #15]
    587e:	5734      	ldrsb	r4, [r6, r4]
    5880:	4464      	add	r4, ip
    5882:	068c      	lsls	r4, r1, #26
    5884:	4620      	mov	r0, r4
    5886:	78c4      	ldrb	r4, [r0, #3]
    5888:	63c0      	str	r0, [r0, #60]	@ 0x3c
    588a:	8c44      	ldrh	r4, [r0, #34]	@ 0x22
    588c:	5808      	ldr	r0, [r1, r0]
    588e:	c446      	stmia	r4!, {r1, r2, r6}
    5890:	40a8      	lsls	r0, r5
    5892:	0997      	lsrs	r7, r2, #6
    5894:	4609      	mov	r1, r1
    5896:	0473      	lsls	r3, r6, #17
    5898:	010a      	lsls	r2, r1, #4
    589a:	a147      	add	r1, pc, #284	@ (adr r1, 0x59b8)
    589c:	7090      	strb	r0, [r2, #2]
    589e:	0a24      	lsrs	r4, r4, #8
    58a0:	5a00      	ldrh	r0, [r0, r0]
    58a2:	1101      	asrs	r1, r0, #4
    58a4:	8f3e      	ldrh	r6, [r7, #56]	@ 0x38
    58a6:	66b9      	str	r1, [r7, #104]	@ 0x68
    58a8:	4734      	bxns	r6
    58aa:	20a0      	movs	r0, #160	@ 0xa0
    58ac:	1470      	asrs	r0, r6, #17
    58ae:	0a0a      	lsrs	r2, r1, #8
    58b0:	a247      	add	r2, pc, #284	@ (adr r2, 0x59d0)
    58b2:	a010      	add	r0, pc, #64	@ (adr r0, 0x58f4)
    58b4:	1005      	asrs	r5, r0, #32
    58b6:	f2c0 4698 	movt	r6, #1176	@ 0x498
    58ba:	7346      	strb	r6, [r0, #13]
    58bc:	0a04      	lsrs	r4, r0, #8
    58be:	4703      	bx	r0
    58c0:	b0a1      	sub	sp, #132	@ 0x84
    58c2:	2470      	movs	r4, #112	@ 0x70
    58c4:	020a      	lsls	r2, r1, #8
    58c6:	035a      	lsls	r2, r3, #13
    58c8:	1911      	adds	r1, r2, r4
    58ca:	198f      	adds	r7, r1, r6
    58cc:	3462      	adds	r4, #98	@ 0x62
    58ce:	a047      	add	r0, pc, #284	@ (adr r0, 0x59ec)
    58d0:	7040      	strb	r0, [r0, #1]
    58d2:	0a14      	lsrs	r4, r2, #8
    58d4:	470c      	bxns	r1
    58d6:	30a2      	adds	r0, #162	@ 0xa2
    58d8:	25a0      	movs	r5, #160	@ 0xa0
    58da:	7010      	strb	r0, [r2, #0]
    58dc:	dff0      	svc	240	@ 0xf0
    58de:	f105 f3cf 	bl	0x50b080
    58e2:	fb7f 5774 			@ <UNDEFINED> instruction: 0xfb7f5774
    58e6:	1470      	asrs	r0, r6, #17
    58e8:	afd2      	add	r7, sp, #840	@ 0x348
    58ea:	7005      	strb	r5, [r0, #0]
    58ec:	ed0a 4289 	sfm	f4, 4, [sl, #-548]	@ 0xfffffddc
    58f0:	2146      	movs	r1, #70	@ 0x46
    58f2:	8488      	strh	r0, [r1, #36]	@ 0x24
    58f4:	6247      	str	r7, [r0, #36]	@ 0x24
    58f6:	2124      	movs	r1, #36	@ 0x24
    58f8:	d68a      	bvs.n	0x5810
    58fa:	634f      	str	r7, [r1, #52]	@ 0x34
    58fc:	5814      	ldr	r4, [r2, r0]
    58fe:	2052      	movs	r0, #82	@ 0x52
    5900:	7245      	strb	r5, [r0, #9]
    5902:	6f05      	ldr	r5, [r0, #112]	@ 0x70
    5904:	0465      	lsls	r5, r4, #17
    5906:	5258      	strh	r0, [r3, r1]
    5908:	1ed0      	subs	r0, r2, #3
    590a:	2429      	movs	r4, #41	@ 0x29
    590c:	0e85      	lsrs	r5, r0, #26
    590e:	f54e 36e0 	adc.w	r6, lr, #114688	@ 0x1c000
    5912:	00cc      	lsls	r4, r1, #3
    5914:	b800      			@ <UNDEFINED> instruction: 0xb800
    5916:	4618      	mov	r0, r3
    5918:	8022      	strh	r2, [r4, #0]
    591a:	f7ce ef8e 	blx	0xfffd4838
    591e:	c01e      	stmia	r0!, {r1, r2, r3, r4}
    5920:	9807      	ldr	r0, [sp, #28]
    5922:	463b      	mov	r3, r7
    5924:	20c0      	movs	r0, #192	@ 0xc0
    5926:	dc80      	bgt.n	0x582a
    5928:	34e0      	adds	r4, #224	@ 0xe0
    592a:	5884      	ldr	r4, [r0, r2]
    592c:	e96f 4e4e 	strd	r4, lr, [pc, #-312]!	@ 0x57f8	@ 0x138
    5930:	f0e3 6e96 			@ <UNDEFINED> instruction: 0xf0e36e96
    5934:	97e7      	str	r7, [sp, #924]	@ 0x39c
    5936:	9682      	str	r6, [sp, #520]	@ 0x208
    5938:	6e71      	ldr	r1, [r6, #100]	@ 0x64
    593a:	54e7      	strb	r7, [r4, r3]
    593c:	510f      	str	r7, [r1, r4]
    593e:	1570      	asrs	r0, r6, #21
    5940:	b7e0      			@ <UNDEFINED> instruction: 0xb7e0
    5942:	0dcf      	lsrs	r7, r1, #23
    5944:	df10      	svc	16
    5946:	057c      	lsls	r4, r7, #21
    5948:	d147      	bne.n	0x59da
    594a:	289e      	cmp	r0, #158	@ 0x9e
    594c:	1464      	asrs	r4, r4, #17
    594e:	4882      	ldr	r0, [pc, #520]	@ (0x5b58)
    5950:	0318      	lsls	r0, r3, #12
    5952:	fd63 6e24 	stc2l	14, cr6, [r3, #-144]!	@ 0xffffff70
    5956:	0cc2      	lsrs	r2, r0, #19
    5958:	8000      	strh	r0, [r0, #0]
    595a:	614b      	str	r3, [r1, #20]
    595c:	5804      	ldr	r4, [r0, r0]
    595e:	d052      	beq.n	0x5a06
    5960:	291e      	cmp	r1, #30
    5962:	8524      	strh	r4, [r4, #40]	@ 0x28
    5964:	e1fe      	b.n	0x5d64
    5966:	df24      	svc	36	@ 0x24
    5968:	f104 fadf 	bl	0x109f2a
    596c:	5747      	ldrsb	r7, [r0, r5]
    596e:	1470      	asrs	r0, r6, #17
    5970:	8146      	strh	r6, [r0, #10]
    5972:	0525      	lsls	r5, r4, #20
    5974:	72ed      	strb	r5, [r5, #11]
    5976:	5205      	strh	r5, [r0, r0]
    5978:	f0e8 4626 			@ <UNDEFINED> instruction: 0xf0e84626
    597c:	2580      	movs	r5, #128	@ 0x80
    597e:	ed05 4291 	sfm	f4, 4, [r5, #-580]	@ 0xfffffdbc
    5982:	e852 27e0 			@ <UNDEFINED> instruction: 0xe85227e0
    5986:	8682      	strh	r2, [r0, #52]	@ 0x34
    5988:	d1fa      	bne.n	0x5980
    598a:	289e      	cmp	r0, #158	@ 0x9e
    598c:	1464      	asrs	r4, r4, #17
    598e:	4882      	ldr	r0, [pc, #520]	@ (0x5b98)
    5990:	8028      	strh	r0, [r5, #0]
    5992:	f2ce ef8e 	blx	0x2d48b0
    5996:	401e      	ands	r6, r3
    5998:	7e00      	ldrb	r0, [r0, #24]
    599a:	6df4      	ldr	r4, [r6, #92]	@ 0x5c
    599c:	df10      	svc	16
    599e:	ed38 0571 	cfldr32	mvfx0, [r8, #-452]!	@ 0xfffffe3c
    59a2:	2b00      	cmp	r3, #0
    59a4:	1802      	adds	r2, r0, r0
    59a6:	a443      	add	r4, pc, #268	@ (adr r4, 0x5ab4)
    59a8:	f0a1 647f 			@ <UNDEFINED> instruction: 0xf0a1647f
    59ac:	ff0a a747 	vabd.u8	q5, q5, <illegal reg q3.5>
    59b0:	21f0      	movs	r1, #240	@ 0xf0
    59b2:	ef80 eef8 			@ <UNDEFINED> instruction: 0xef80eef8
    59b6:	7151      	strb	r1, [r2, #5]
    59b8:	f015 008c 	ands.w	r0, r5, #140	@ 0x8c
    59bc:	21f1      	movs	r1, #241	@ 0xf1
    59be:	e7dd      	b.n	0x597c
    59c0:	5a41      	ldrh	r1, [r0, r1]
    59c2:	0a00      	lsrs	r0, r0, #8
    59c4:	ef08 90a6 	vhadd.s8	d9, d24, d22
    59c8:	6ef0      	ldr	r0, [r6, #108]	@ 0x6c
    59ca:	0a0a      	lsrs	r2, r1, #8
    59cc:	a6ef      	add	r6, pc, #956	@ (adr r6, 0x5d8c)
    59ce:	f0d0 0a6e 			@ <UNDEFINED> instruction: 0xf0d00a6e
    59d2:	ef0e c0a6 	vhadd.s8	d12, d30, d22
    59d6:	6ef0      	ldr	r0, [r6, #108]	@ 0x6c
    59d8:	100a      	asrs	r2, r1, #32
    59da:	06ef      	lsls	r7, r5, #27
    59dc:	cff1      	ldmia	r7, {r0, r4, r5, r6, r7}
    59de:	47f3      			@ <UNDEFINED> instruction: 0x47f3
    59e0:	24f0      	movs	r4, #240	@ 0xf0
    59e2:	6157      	str	r7, [r2, #20]
    59e4:	c214      	stmia	r2!, {r2, r4}
    59e6:	a268      	add	r2, pc, #416	@ (adr r2, 0x5b88)
    59e8:	461f      	mov	r7, r3
    59ea:	2581      	movs	r5, #129	@ 0x81
    59ec:	52a1      	strh	r1, [r4, r2]
    59ee:	fed0 244a 	cdp2	4, 13, cr2, cr0, cr10, {2}
    59f2:	8685      	strh	r5, [r0, #52]	@ 0x34
    59f4:	a204      	add	r2, pc, #16	@ (adr r2, 0x5a08)
    59f6:	7010      	strb	r0, [r2, #0]
    59f8:	4644      	mov	r4, r8
    59fa:	6311      	str	r1, [r2, #48]	@ 0x30
    59fc:	fd58 6e54 	ldc2l	14, cr6, [r8, #-336]	@ 0xfffffeb0
    5a00:	0cc5      	lsrs	r5, r0, #19
    5a02:	9000      	str	r0, [sp, #0]
    5a04:	199a      	adds	r2, r3, r6
    5a06:	8351      	strh	r1, [r2, #26]
    5a08:	e094      	b.n	0x5b34
    5a0a:	d226      	bcs.n	0x5a5a
    5a0c:	4856      	ldr	r0, [pc, #344]	@ (0x5b68)
    5a0e:	0460      	lsls	r0, r4, #17
    5a10:	8705      	strh	r5, [r0, #56]	@ 0x38
    5a12:	1464      	asrs	r4, r4, #17
    5a14:	258d      	movs	r5, #141	@ 0x8d
    5a16:	467a      	mov	r2, pc
    5a18:	08d0      	lsrs	r0, r2, #3
    5a1a:	e510      	b.n	0x543e
    5a1c:	8454      	strh	r4, [r2, #34]	@ 0x22
    5a1e:	0fc1      	lsrs	r1, r0, #31
    5a20:	8805      	ldrh	r5, [r0, #0]
    5a22:	54e4      	strb	r4, [r4, r3]
    5a24:	c184      	stmia	r1!, {r2, r7}
    5a26:	050f      	lsls	r7, r1, #20
    5a28:	e489      	b.n	0x533e
    5a2a:	8654      	strh	r4, [r2, #50]	@ 0x32
    5a2c:	c101      	stmia	r1!, {r0}
    5a2e:	05ff      	lsls	r7, r7, #23
    5a30:	e48a      	b.n	0x5348
    5a32:	8654      	strh	r4, [r2, #50]	@ 0x32
    5a34:	c102      	stmia	r1!, {r1}
    5a36:	05ff      	lsls	r7, r7, #23
    5a38:	e48b      	b.n	0x5352
    5a3a:	8654      	strh	r4, [r2, #50]	@ 0x32
    5a3c:	c103      	stmia	r1!, {r0, r1}
    5a3e:	05ff      	lsls	r7, r7, #23
    5a40:	948c      	str	r4, [sp, #560]	@ 0x230
    5a42:	1679      	asrs	r1, r7, #25
    5a44:	e54e      	b.n	0x54e4
    5a46:	0e4c      	lsrs	r4, r1, #25
    5a48:	86d2      	strh	r2, [r2, #54]	@ 0x36
    5a4a:	e048      	b.n	0x5ade
    5a4c:	8654      	strh	r4, [r2, #50]	@ 0x32
    5a4e:	0506      	lsls	r6, r0, #20
    5a50:	948a      	str	r4, [sp, #552]	@ 0x228
    5a52:	1479      	asrs	r1, r7, #17
    5a54:	d146      	bne.n	0x5ae4
    5a56:	51f8      	str	r0, [r7, r7]
    5a58:	54e3      	strb	r3, [r4, r3]
    5a5a:	6f0e      	ldr	r6, [r1, #112]	@ 0x70
    5a5c:	2ce9      	cmp	r4, #233	@ 0xe9
    5a5e:	6f0e      	ldr	r6, [r1, #112]	@ 0x70
    5a60:	96eb      	str	r6, [sp, #940]	@ 0x3ac
    5a62:	86d2      	strh	r2, [r2, #54]	@ 0x36
    5a64:	e048      	b.n	0x5af8
    5a66:	d2b6      	bcs.n	0x59d6
    5a68:	48a6      	ldr	r0, [pc, #664]	@ (0x5d04)
    5a6a:	54e0      	strb	r0, [r4, r3]
    5a6c:	0486      	lsls	r6, r0, #18
    5a6e:	8c05      	ldrh	r5, [r0, #32]
    5a70:	9994      	ldr	r1, [sp, #592]	@ 0x250
    5a72:	6210      	str	r0, [r2, #32]
    5a74:	d104      	bne.n	0x5a80
    5a76:	7008      	strb	r0, [r1, #0]
    5a78:	4467      	add	r7, ip
    5a7a:	cc58      	ldmia	r4, {r3, r4, r6}
    5a7c:	0002      	movs	r2, r0
    5a7e:	9322      	str	r3, [sp, #136]	@ 0x88
    5a80:	54e2      	strb	r2, [r4, r3]
    5a82:	6f0e      	ldr	r6, [r1, #112]	@ 0x70
    5a84:	2ce9      	cmp	r4, #233	@ 0xe9
    5a86:	6f0e      	ldr	r6, [r1, #112]	@ 0x70
    5a88:	96eb      	str	r6, [sp, #940]	@ 0x3ac
    5a8a:	86d2      	strh	r2, [r2, #54]	@ 0x36
    5a8c:	e048      	b.n	0x5b20
    5a8e:	d2b6      	bcs.n	0x59fe
    5a90:	48a6      	ldr	r0, [pc, #664]	@ (0x5d2c)
    5a92:	5990      	ldr	r0, [r2, r6]
    5a94:	460c      	mov	r4, r1
    5a96:	c584      	stmia	r5!, {r2, r7}
    5a98:	001c      	movs	r4, r3
    5a9a:	3220      	adds	r2, #32
    5a9c:	5118      	str	r0, [r3, r4]
    5a9e:	6483      	str	r3, [r0, #72]	@ 0x48
    5aa0:	54e0      	strb	r0, [r4, r3]
    5aa2:	d20e      	bcs.n	0x5ac2
    5aa4:	4886      	ldr	r0, [pc, #536]	@ (0x5cc0)
    5aa6:	d990      	bls.n	0x59ca
    5aa8:	5109      	str	r1, [r1, r4]
    5aaa:	6483      	str	r3, [r0, #72]	@ 0x48
    5aac:	54e0      	strb	r0, [r4, r3]
    5aae:	0584      	lsls	r4, r0, #22
    5ab0:	9488      	str	r4, [sp, #544]	@ 0x220
    5ab2:	0879      	lsrs	r1, r7, #1
    5ab4:	8446      	strh	r6, [r0, #34]	@ 0x22
    5ab6:	1cc5      	adds	r5, r0, #3
    5ab8:	2000      	movs	r0, #0
    5aba:	0b32      	lsrs	r2, r6, #12
    5abc:	e54e      	b.n	0x555c
    5abe:	76f0      	strb	r0, [r6, #27]
    5ac0:	e5ee      	b.n	0x56a0
    5ac2:	8454      	strh	r4, [r2, #34]	@ 0x22
    5ac4:	6f58      	ldr	r0, [r3, #116]	@ 0x74
    5ac6:	4627      	mov	r7, r4
    5ac8:	0510      	lsls	r0, r2, #20
    5aca:	e488      	b.n	0x53de
    5acc:	d276      	bcs.n	0x5bbc
    5ace:	4896      	ldr	r0, [pc, #600]	@ (0x5d28)
    5ad0:	a980      	add	r1, sp, #512	@ 0x200
    5ad2:	3514      	adds	r5, #20
    5ad4:	0648      	lsls	r0, r1, #25
    5ad6:	226e      	movs	r2, #110	@ 0x6e
    5ad8:	856d      	strh	r5, [r5, #42]	@ 0x2a
    5ada:	c304      	stmia	r3!, {r2}
    5adc:	4860      	ldr	r0, [pc, #384]	@ (0x5c60)
    5ade:	2c00      	cmp	r4, #0
    5ae0:	6d24      	ldr	r4, [r4, #80]	@ 0x50
    5ae2:	0487      	lsls	r7, r0, #18
    5ae4:	2398      	movs	r3, #152	@ 0x98
    5ae6:	8351      	strh	r1, [r2, #26]
    5ae8:	e064      	b.n	0x5bb4
    5aea:	d226      	bcs.n	0x5b3a
    5aec:	4856      	ldr	r0, [pc, #344]	@ (0x5c48)
    5aee:	0c30      	lsrs	r0, r6, #16
    5af0:	0486      	lsls	r6, r0, #18
    5af2:	3ac0      	subs	r2, #192	@ 0xc0
    5af4:	76d2      	strb	r2, [r2, #27]
    5af6:	f048 00dc 	orr.w	r0, r8, #220	@ 0xdc
    5afa:	dff1      	svc	241	@ 0xf1
    5afc:	14fb      	asrs	r3, r7, #19
    5afe:	6047      	str	r7, [r0, #4]
    5b00:	8d04      	ldrh	r4, [r0, #40]	@ 0x28
    5b02:	0bff      	lsrs	r7, r7, #15
    5b04:	000a      	movs	r2, r1
    5b06:	8347      	strh	r7, [r0, #26]
    5b08:	e329      	b.n	0x615e
    5b0a:	1214      	asrs	r4, r2, #8
    5b0c:	0461      	lsls	r1, r4, #17
    5b0e:	83ed      	strh	r5, [r5, #30]
    5b10:	2104      	movs	r1, #4
    5b12:	b048      	add	sp, #288	@ 0x120
    5b14:	6447      	str	r7, [r0, #68]	@ 0x44
    5b16:	8c44      	ldrh	r4, [r0, #34]	@ 0x22
    5b18:	0a00      	lsrs	r0, r0, #8
    5b1a:	020a      	lsls	r2, r1, #8
    5b1c:	e347      	b.n	0x61ae
    5b1e:	0a3f      	lsrs	r7, r7, #8
    5b20:	4700      	bx	r0
    5b22:	3463      	adds	r4, #99	@ 0x63
    5b24:	05df      	lsls	r7, r3, #23
    5b26:	dff1      	svc	241	@ 0xf1
    5b28:	14fb      	asrs	r3, r7, #19
    5b2a:	6047      	str	r7, [r0, #4]
    5b2c:	8d04      	ldrh	r4, [r0, #40]	@ 0x28
    5b2e:	0cff      	lsrs	r7, r7, #19
    5b30:	000a      	movs	r2, r1
    5b32:	9347      	str	r3, [sp, #284]	@ 0x11c
    5b34:	0b99      	lsrs	r1, r3, #14
    5b36:	414e      	adcs	r6, r1
    5b38:	8d28      	ldrh	r0, [r5, #40]	@ 0x28
    5b3a:	8800      	ldrh	r0, [r0, #0]
    5b3c:	84e0      	strh	r0, [r4, #38]	@ 0x26
    5b3e:	0c84      	lsrs	r4, r0, #18
    5b40:	2200      	movs	r2, #0
    5b42:	e703      	b.n	0x594c
    5b44:	12a4      	asrs	r4, r4, #10
    5b46:	0461      	lsls	r1, r4, #17
    5b48:	83ed      	strh	r5, [r5, #30]
    5b4a:	2104      	movs	r1, #4
    5b4c:	b00e      	add	sp, #56	@ 0x38
    5b4e:	6447      	str	r7, [r0, #68]	@ 0x44
    5b50:	8c44      	ldrh	r4, [r0, #34]	@ 0x22
    5b52:	4400      	add	r0, r0
    5b54:	484e      	ldr	r0, [pc, #312]	@ (0x5c90)
    5b56:	f8c8 e0ff 	str.w	lr, [r8, #255]	@ 0xff
    5b5a:	8484      	strh	r4, [r0, #36]	@ 0x24
    5b5c:	10a2      	asrs	r2, r4, #2
    5b5e:	84e0      	strh	r0, [r4, #38]	@ 0x26
    5b60:	0a85      	lsrs	r5, r0, #10
    5b62:	4e64      	ldr	r6, [pc, #400]	@ (0x5cf4)
    5b64:	e851 8484 			@ <UNDEFINED> instruction: 0xe8518484
    5b68:	008d      	lsls	r5, r1, #2
    5b6a:	0a0b      	lsrs	r3, r1, #8
    5b6c:	4702      	bx	r0
    5b6e:	7983      	ldrb	r3, [r0, #6]
    5b70:	10a2      	asrs	r2, r4, #2
    5b72:	3470      	adds	r4, #112	@ 0x70
    5b74:	1c98      	adds	r0, r3, #2
    5b76:	000a      	movs	r2, r1
    5b78:	8347      	strh	r7, [r0, #26]
    5b7a:	a119      	add	r1, pc, #100	@ (adr r1, 0x5be0)
    5b7c:	7030      	strb	r0, [r6, #0]
    5b7e:	fe34 00a3 	cdp2	0, 3, cr0, cr4, cr3, {5}
    5b82:	3470      	adds	r4, #112	@ 0x70
    5b84:	414e      	adcs	r6, r1
    5b86:	00c8      	lsls	r0, r1, #3
    5b88:	3220      	adds	r2, #32
    5b8a:	4e0f      	ldr	r6, [pc, #60]	@ (0x5bc8)
    5b8c:	2841      	cmp	r0, #65	@ 0x41
    5b8e:	010a      	lsls	r2, r1, #4
    5b90:	514e      	str	r6, [r1, r5]
    5b92:	3468      	adds	r4, #104	@ 0x68
    5b94:	05df      	lsls	r7, r3, #23
    5b96:	dff1      	svc	241	@ 0xf1
    5b98:	50ae      	str	r6, [r5, r2]
    5b9a:	6312      	str	r2, [r2, #48]	@ 0x30
    5b9c:	fd3e 6e04 	ldc2	14, cr6, [lr, #-16]!
    5ba0:	0cc0      	lsrs	r0, r0, #19
    5ba2:	9000      	str	r0, [sp, #0]
    5ba4:	4e71      	ldr	r6, [pc, #452]	@ (0x5d6c)
    5ba6:	6860      	ldr	r0, [r4, #4]
    5ba8:	a050      	add	r0, pc, #320	@ (adr r0, 0x5cec)
    5baa:	fe59 a513 	mrc2	5, 2, sl, cr9, cr3, {0}
    5bae:	0059      	lsls	r1, r3, #1
    5bb0:	02df      	lsls	r7, r3, #11
    5bb2:	dff1      	svc	241	@ 0xf1
    5bb4:	167e      	asrs	r6, r7, #25
    5bb6:	6047      	str	r7, [r0, #4]
    5bb8:	0c04      	lsrs	r4, r0, #16
    5bba:	c912      	ldmia	r1, {r1, r4}
    5bbc:	d09b      	beq.n	0x5af6
    5bbe:	582e      	ldr	r6, [r5, r0]
    5bc0:	0460      	lsls	r0, r4, #17
    5bc2:	4882      	ldr	r0, [pc, #520]	@ (0x5dcc)
    5bc4:	1088      	asrs	r0, r1, #2
    5bc6:	82ed      	strh	r5, [r5, #22]
    5bc8:	5605      	ldrsb	r5, [r0, r0]
    5bca:	9820      	ldr	r0, [sp, #128]	@ 0x80
    5bcc:	ed85 0582 	cfstr32	mvfx0, [r5, #520]	@ 0x208
    5bd0:	2046      	movs	r0, #70	@ 0x46
    5bd2:	a488      	add	r4, pc, #544	@ (adr r4, 0x5df4)
    5bd4:	a046      	add	r0, pc, #280	@ (adr r0, 0x5cf0)
    5bd6:	2035      	movs	r0, #53	@ 0x35
    5bd8:	edef 45df 	cfstr64	mvdx4, [pc, #892]!	@ 0x5f58
    5bdc:	6852      	ldr	r2, [r2, #4]
    5bde:	3018      	adds	r0, #24
    5be0:	d822      	bhi.n	0x5c28
    5be2:	0a50      	lsrs	r0, r2, #9
    5be4:	ed00 0582 	cfstr32	mvfx0, [r0, #-520]	@ 0xfffffdf8
    5be8:	2056      	movs	r0, #86	@ 0x56
    5bea:	8598      	strh	r0, [r3, #44]	@ 0x2c
    5bec:	a046      	add	r0, pc, #280	@ (adr r0, 0x5d08)
    5bee:	2035      	movs	r0, #53	@ 0x35
    5bf0:	edef 45df 	cfstr64	mvdx4, [pc, #892]!	@ 0x5f70
    5bf4:	6852      	ldr	r2, [r2, #4]
    5bf6:	d028      	beq.n	0x5c4a
    5bf8:	0008      	movs	r0, r1
    5bfa:	0461      	lsls	r1, r4, #17
    5bfc:	015a      	lsls	r2, r3, #5
    5bfe:	ca11      	ldmia	r2!, {r0, r4}
    5c00:	1981      	adds	r1, r0, r6
    5c02:	0661      	lsls	r1, r4, #25
    5c04:	01c0      	lsls	r0, r0, #7
    5c06:	ac42      	add	r4, sp, #264	@ 0x108
    5c08:	e018      	b.n	0x5c3c
    5c0a:	661f      	str	r7, [r3, #96]	@ 0x60
    5c0c:	2df1      	cmp	r5, #241	@ 0xf1
    5c0e:	df10      	svc	16
    5c10:	367c      	adds	r6, #124	@ 0x7c
    5c12:	714f      	strb	r7, [r1, #5]
    5c14:	4604      	mov	r4, r0
    5c16:	20c0      	movs	r0, #192	@ 0xc0
    5c18:	cc81      	ldmia	r4!, {r0, r7}
    5c1a:	0463      	lsls	r3, r4, #17
    5c1c:	035a      	lsls	r2, r3, #13
    5c1e:	def2      	udf	#242	@ 0xf2
    5c20:	5dfe      	ldrb	r6, [r7, r7]
    5c22:	8524      	strh	r4, [r4, #40]	@ 0x28
    5c24:	0286      	lsls	r6, r0, #10
    5c26:	008d      	lsls	r5, r1, #2
    5c28:	460f      	mov	r7, r1
    5c2a:	1560      	asrs	r0, r4, #21
    5c2c:	9c11      	ldr	r4, [sp, #68]	@ 0x44
    5c2e:	0981      	lsrs	r1, r0, #6
    5c30:	0661      	lsls	r1, r4, #25
    5c32:	216e      	movs	r1, #110	@ 0x6e
    5c34:	8ac4      	ldrh	r4, [r0, #22]
    5c36:	d011      	beq.n	0x5c5c
    5c38:	3661      	adds	r6, #97	@ 0x61
    5c3a:	04df      	lsls	r7, r3, #19
    5c3c:	dff1      	svc	241	@ 0xf1
    5c3e:	0478      	lsls	r0, r7, #17
    5c40:	a046      	add	r0, pc, #280	@ (adr r0, 0x5d5c)
    5c42:	2035      	movs	r0, #53	@ 0x35
    5c44:	edef 45df 	cfstr64	mvdx4, [pc, #892]!	@ 0x5fc4
    5c48:	4852      	ldr	r0, [pc, #328]	@ (0x5d94)
    5c4a:	1478      	asrs	r0, r7, #17
    5c4c:	c046      	stmia	r0!, {r1, r2, r6}
    5c4e:	8120      	strh	r0, [r4, #8]
    5c50:	67cc      	str	r4, [r1, #124]	@ 0x7c
    5c52:	5a04      	ldrh	r4, [r0, r0]
    5c54:	f203 fede 	bl	0x209a14
    5c58:	245d      	movs	r4, #93	@ 0x5d
    5c5a:	8685      	strh	r5, [r0, #52]	@ 0x34
    5c5c:	8d02      	ldrh	r2, [r0, #40]	@ 0x28
    5c5e:	3100      	adds	r1, #0
    5c60:	1146      	asrs	r6, r0, #5
    5c62:	31f3      	adds	r1, #243	@ 0xf3
    5c64:	24fd      	movs	r4, #253	@ 0xfd
    5c66:	c26e      	stmia	r2!, {r1, r2, r3, r5, r6}
    5c68:	000c      	movs	r4, r1
    5c6a:	7090      	strb	r0, [r2, #2]
    5c6c:	424e      	negs	r6, r1
    5c6e:	f588 9846 	b.w	0xff58dcfe
    5c72:	c040      	stmia	r0!, {r6}
    5c74:	6f00      	ldr	r0, [r0, #112]	@ 0x70
    5c76:	5984      	ldr	r4, [r0, r6]
    5c78:	1463      	asrs	r3, r4, #17
    5c7a:	0721      	lsls	r1, r4, #28
    5c7c:	4fd3      	ldr	r7, [pc, #844]	@ (0x5fcc)
    5c7e:	66e6      	str	r6, [r4, #108]	@ 0x6c
    5c80:	00cc      	lsls	r4, r1, #3
    5c82:	0900      	lsrs	r0, r0, #4
    5c84:	64e6      	str	r6, [r4, #76]	@ 0x4c
    5c86:	6f0e      	ldr	r6, [r1, #112]	@ 0x70
    5c88:	1984      	adds	r4, r0, r6
    5c8a:	0c01      	lsrs	r1, r0, #16
    5c8c:	46f0      	mov	r8, lr
    5c8e:	03fe      	lsls	r6, r7, #15
    5c90:	f00c 6e46 	and.w	lr, ip, #207618048	@ 0xc600000
    5c94:	8cf4      	ldrh	r4, [r6, #38]	@ 0x26
    5c96:	f100 7fdf 	add.w	pc, r0, #29229056	@ 0x1be0000
    5c9a:	4604      	mov	r4, r0
    5c9c:	80c0      	strh	r0, [r0, #6]
    5c9e:	ac80      	add	r4, sp, #512	@ 0x200
    5ca0:	7ed5      	ldrb	r5, [r2, #27]
    5ca2:	6448      	str	r0, [r1, #68]	@ 0x44
    5ca4:	8204      	strh	r4, [r0, #16]
    5ca6:	4948      	ldr	r1, [pc, #288]	@ (0x5dc8)
    5ca8:	59a0      	ldr	r0, [r4, r6]
    5caa:	8173      	strh	r3, [r6, #10]
    5cac:	d40b      	bmi.n	0x5cc6
    5cae:	487e      	ldr	r0, [pc, #504]	@ (0x5ea8)
    5cb0:	0464      	lsls	r4, r4, #17
    5cb2:	4882      	ldr	r0, [pc, #520]	@ (0x5ebc)
    5cb4:	a049      	add	r0, pc, #292	@ (adr r0, 0x5ddc)
    5cb6:	6359      	str	r1, [r3, #52]	@ 0x34
    5cb8:	d1d1      	bne.n	0x5c5e
    5cba:	594e      	ldr	r6, [r1, r5]
    5cbc:	b010      	add	sp, #64	@ 0x40
    5cbe:	0a0b      	lsrs	r3, r1, #8
    5cc0:	1100      	asrs	r0, r0, #4
    5cc2:	2f79      	cmp	r7, #121	@ 0x79
    5cc4:	986d      	ldr	r0, [sp, #436]	@ 0x1b4
    5cc6:	0a05      	lsrs	r5, r0, #8
    5cc8:	ed25 0594 	cfstr32	mvfx0, [r5, #-592]!	@ 0xfffffdb0
    5ccc:	f8ef 101d 	str??.w	r1, [pc, #29]	@ 0x5ced
    5cd0:	7fdf      	ldrb	r7, [r3, #31]
    5cd2:	4604      	mov	r4, r0
    5cd4:	80c0      	strh	r0, [r0, #6]
    5cd6:	dc80      	bgt.n	0x5bda
    5cd8:	7ed5      	ldrb	r5, [r2, #27]
    5cda:	6448      	str	r0, [r1, #68]	@ 0x44
    5cdc:	8204      	strh	r4, [r0, #16]
    5cde:	4948      	ldr	r1, [pc, #288]	@ (0x5e00)
    5ce0:	59a0      	ldr	r0, [r4, r6]
    5ce2:	8173      	strh	r3, [r6, #10]
    5ce4:	d43a      	bmi.n	0x5d5c
    5ce6:	487e      	ldr	r0, [pc, #504]	@ (0x5ee0)
    5ce8:	0464      	lsls	r4, r4, #17
    5cea:	4882      	ldr	r0, [pc, #520]	@ (0x5ef4)
    5cec:	a148      	add	r1, pc, #288	@ (adr r1, 0x5e10)
    5cee:	2259      	movs	r2, #89	@ 0x59
    5cf0:	4738      	bx	r7
    5cf2:	ed0d 0594 	cfstr32	mvfx0, [sp, #-592]	@ 0xfffffdb0
    5cf6:	8111      	strh	r1, [r2, #8]
    5cf8:	00a0      	lsls	r0, r4, #2
    5cfa:	0010      	movs	r0, r2
    5cfc:	d2f4      	bcs.n	0x5ce8
    5cfe:	5986      	ldr	r6, [r0, r6]
    5d00:	50a0      	str	r0, [r4, r2]
    5d02:	4ed2      	ldr	r6, [pc, #840]	@ (0x604c)
    5d04:	f059 df8e 	bl	0x85fc24
    5d08:	f101 7fdf 	add.w	pc, r1, #29229056	@ 0x1be0000
    5d0c:	0404      	lsls	r4, r0, #16
    5d0e:	659a      	str	r2, [r3, #88]	@ 0x58
    5d10:	2305      	movs	r3, #5
    5d12:	0a81      	lsrs	r1, r0, #10
    5d14:	0463      	lsls	r3, r4, #17
    5d16:	9a05      	ldr	r2, [sp, #20]
    5d18:	4ed5      	ldr	r6, [pc, #852]	@ (0x6070)
    5d1a:	1059      	asrs	r1, r3, #1
    5d1c:	05c0      	lsls	r0, r0, #23
    5d1e:	000a      	movs	r2, r1
    5d20:	1a11      	subs	r1, r2, r0
    5d22:	6d2f      	ldr	r7, [r5, #80]	@ 0x50
    5d24:	0598      	lsls	r0, r3, #22
    5d26:	250a      	movs	r5, #10
    5d28:	94ed      	str	r4, [sp, #948]	@ 0x3b4
    5d2a:	ef05 1df8 	vmla.f32	<illegal reg q0.5>, <illegal reg q10.5>, q12
    5d2e:	df10      	svc	16
    5d30:	00ab      	lsls	r3, r5, #2
    5d32:	0470      	lsls	r0, r6, #17
    5d34:	00c0      	lsls	r0, r0, #3
    5d36:	a36f      	add	r3, pc, #444	@ (adr r3, 0x5ef4)
    5d38:	7000      	strb	r0, [r0, #0]
    5d3a:	9814      	ldr	r0, [sp, #80]	@ 0x50
    5d3c:	0a67      	lsrs	r7, r4, #9
    5d3e:	ed00 0582 	cfstr32	mvfx0, [r0, #-520]	@ 0xfffffdf8
    5d42:	2156      	movs	r1, #86	@ 0x56
    5d44:	8598      	strh	r0, [r3, #44]	@ 0x2c
    5d46:	a146      	add	r1, pc, #280	@ (adr r1, 0x5e60)
    5d48:	2035      	movs	r0, #53	@ 0x35
    5d4a:	edef 45df 	cfstr64	mvdx4, [pc, #892]!	@ 0x60c8
    5d4e:	4852      	ldr	r0, [pc, #328]	@ (0x5e98)
    5d50:	2478      	movs	r4, #120	@ 0x78
    5d52:	a146      	add	r1, pc, #280	@ (adr r1, 0x5e6c)
    5d54:	2035      	movs	r0, #53	@ 0x35
    5d56:	edef 45df 	cfstr64	mvdx4, [pc, #892]!	@ 0x60d4
    5d5a:	6852      	ldr	r2, [r2, #4]
    5d5c:	d028      	beq.n	0x5db0
    5d5e:	c008      	stmia	r0!, {r3}
    5d60:	2460      	movs	r4, #96	@ 0x60
    5d62:	f802 ee8e 	strbt	lr, [r2, #142]
    5d66:	2466      	movs	r4, #102	@ 0x66
    5d68:	e802 ef3c 			@ <UNDEFINED> instruction: 0xe802ef3c
    5d6c:	1468      	asrs	r0, r5, #17
    5d6e:	d108      	bne.n	0x5d82
    5d70:	1460      	asrs	r0, r4, #17
    5d72:	120c      	asrs	r4, r1, #8
    5d74:	8ed8      	ldrh	r0, [r3, #54]	@ 0x36
    5d76:	feef 105d 	mcr2	0, 7, r1, cr15, cr13, {2}
    5d7a:	f8df 0204 	ldr.w	r0, [pc, #516]	@ 0x5f80
    5d7e:	2ce8      	cmp	r4, #232	@ 0xe8
    5d80:	6a21      	ldr	r1, [r4, #32]
    5d82:	4e16      	ldr	r6, [pc, #88]	@ (0x5ddc)
    5d84:	6940      	ldr	r0, [r0, #20]
    5d86:	d124      	bne.n	0x5dd2
    5d88:	c10f      	stmia	r1!, {r0, r1, r2, r3}
    5d8a:	120f      	asrs	r7, r1, #8
    5d8c:	033b      	lsls	r3, r7, #12
    5d8e:	e163      	b.n	0x6058
    5d90:	9504      	str	r5, [sp, #16]
    5d92:	404e      	eors	r6, r1
    5d94:	3469      	adds	r4, #105	@ 0x69
    5d96:	f0d1 0fc1 			@ <UNDEFINED> instruction: 0xf0d10fc1
    5d9a:	e163      	b.n	0x6064
    5d9c:	9504      	str	r5, [sp, #16]
    5d9e:	604e      	str	r6, [r1, #4]
    5da0:	6019      	str	r1, [r3, #0]
    5da2:	d144      	bne.n	0x5e2e
    5da4:	c100      	stmia	r1!, {}
    5da6:	63ff      	str	r7, [r7, #60]	@ 0x3c
    5da8:	04e1      	lsls	r1, r4, #19
    5daa:	0197      	lsls	r7, r2, #6
    5dac:	604e      	str	r6, [r1, #4]
    5dae:	6029      	str	r1, [r5, #0]
    5db0:	d154      	bne.n	0x5e5c
    5db2:	c100      	stmia	r1!, {}
    5db4:	63ff      	str	r7, [r7, #60]	@ 0x3c
    5db6:	04e1      	lsls	r1, r4, #19
    5db8:	0297      	lsls	r7, r2, #10
    5dba:	604e      	str	r6, [r1, #4]
    5dbc:	6039      	str	r1, [r7, #0]
    5dbe:	d164      	bne.n	0x5e8a
    5dc0:	c100      	stmia	r1!, {}
    5dc2:	63ff      	str	r7, [r7, #60]	@ 0x3c
    5dc4:	04e1      	lsls	r1, r4, #19
    5dc6:	0397      	lsls	r7, r2, #14
    5dc8:	08cf      	lsrs	r7, r1, #3
    5dca:	df10      	svc	16
    5dcc:	057a      	lsls	r2, r7, #21
    5dce:	6147      	str	r7, [r0, #20]
    5dd0:	5a14      	ldrh	r4, [r2, r0]
    5dd2:	f203 fede 	bl	0x209b92
    5dd6:	245d      	movs	r4, #93	@ 0x5d
    5dd8:	8485      	strh	r5, [r0, #36]	@ 0x24
    5dda:	6247      	str	r7, [r0, #36]	@ 0x24
    5ddc:	2124      	movs	r1, #36	@ 0x24
    5dde:	d1a4      	bne.n	0x5d2a
    5de0:	e44f      	b.n	0x5682
    5de2:	cc46      	ldmia	r4!, {r1, r2, r6}
    5de4:	0000      	movs	r0, r0
    5de6:	2ba8      	cmp	r3, #168	@ 0xa8
    5de8:	444e      	add	r6, r9
    5dea:	f0c8 0c8f 			@ <UNDEFINED> instruction: 0xf0c80c8f
    5dee:	44e3      	add	fp, ip
    5df0:	5684      	ldrsb	r4, [r0, r2]
    5df2:	4330      	orrs	r0, r6
    5df4:	6347      	str	r7, [r0, #52]	@ 0x34
    5df6:	0224      	lsls	r4, r4, #8
    5df8:	3ce8      	subs	r4, #232	@ 0xe8
    5dfa:	88ef      	ldrh	r7, [r5, #6]
    5dfc:	6129      	str	r1, [r5, #16]
    5dfe:	4704      	bxns	r0
    5e00:	2463      	movs	r4, #99	@ 0x63
    5e02:	e802 ef3c 			@ <UNDEFINED> instruction: 0xe802ef3c
    5e06:	6df8      	ldr	r0, [r7, #92]	@ 0x5c
    5e08:	cf10      	ldmia	r7!, {r4}
    5e0a:	7ff6      	ldrb	r6, [r6, #31]
    5e0c:	14f8      	asrs	r0, r7, #19
    5e0e:	6047      	str	r7, [r0, #4]
    5e10:	5a04      	ldrh	r4, [r0, r0]
    5e12:	f203 fede 	bl	0x209bd2
    5e16:	245d      	movs	r4, #93	@ 0x5d
    5e18:	8485      	strh	r5, [r0, #36]	@ 0x24
    5e1a:	6347      	str	r7, [r0, #52]	@ 0x34
    5e1c:	2134      	movs	r1, #52	@ 0x34
    5e1e:	d164      	bne.n	0x5eea
    5e20:	e44f      	b.n	0x56c2
    5e22:	cc46      	ldmia	r4!, {r1, r2, r6}
    5e24:	0000      	movs	r0, r0
    5e26:	2da8      	cmp	r5, #168	@ 0xa8
    5e28:	e44e      	b.n	0x56c8
    5e2a:	fcc0 8fff 	stc2l	15, cr8, [r0], {255}	@ 0xff
    5e2e:	e30c      	b.n	0x644a
    5e30:	0e44      	lsrs	r4, r0, #25
    5e32:	217e      	movs	r1, #126	@ 0x7e
    5e34:	6f25      	ldr	r5, [r4, #112]	@ 0x70
    5e36:	3466      	adds	r4, #102	@ 0x66
    5e38:	e802 ef6c 			@ <UNDEFINED> instruction: 0xe802ef6c
    5e3c:	2988      	cmp	r1, #136	@ 0x88
    5e3e:	16e1      	asrs	r1, r4, #27
    5e40:	666f      	str	r7, [r5, #100]	@ 0x64
    5e42:	0234      	lsls	r4, r6, #8
    5e44:	6ce8      	ldr	r0, [r5, #76]	@ 0x4c
    5e46:	e8ef cf87 	strd	ip, pc, [pc], #540	@ 0x6064	@ 0x21c
    5e4a:	100a      	asrs	r2, r1, #32
    5e4c:	f111 f100 	bl	0x517050
    5e50:	5c41      	ldrb	r1, [r0, r1]
    5e52:	1000      	asrs	r0, r0, #32
    5e54:	d3ef      	bcc.n	0x5e36
    5e56:	1008      	asrs	r0, r1, #32
    5e58:	00a1      	lsls	r1, r4, #2
    5e5a:	def0      	udf	#240	@ 0xf0
    5e5c:	b8ec      			@ <UNDEFINED> instruction: 0xb8ec
    5e5e:	6d0b      	ldr	r3, [r1, #80]	@ 0x50
    5e60:	415d      	adcs	r5, r3
    5e62:	015c      	lsls	r4, r3, #5
    5e64:	04ef      	lsls	r7, r5, #19
    5e66:	6cf1      	ldr	r1, [r6, #76]	@ 0x4c
    5e68:	cc5d      	ldmia	r4, {r0, r2, r3, r4, r6}
    5e6a:	0000      	movs	r0, r0
    5e6c:	e322      	b.n	0x64b4
    5e6e:	d6c2      	bvs.n	0x5df6
    5e70:	4425      	add	r5, r4
    5e72:	0001      	movs	r1, r0
    5e74:	6c49      	ldr	r1, [r1, #68]	@ 0x44
    5e76:	cc5d      	ldmia	r4, {r0, r2, r3, r4, r6}
    5e78:	0000      	movs	r0, r0
    5e7a:	13b8      	asrs	r0, r7, #14
    5e7c:	d3ef      	bcc.n	0x5e5e
    5e7e:	a008      	add	r0, pc, #32	@ (adr r0, 0x5ea0)
    5e80:	80a0      	strh	r0, [r4, #4]
    5e82:	def0      	udf	#240	@ 0xf0
    5e84:	14ef      	asrs	r7, r5, #19
    5e86:	1470      	asrs	r0, r6, #17
    5e88:	bcd2      	pop	{r1, r4, r6, r7}
    5e8a:	0005      	movs	r5, r0
    5e8c:	cd22      	ldmia	r5, {r1, r5}
    5e8e:	015b      	lsls	r3, r3, #5
    5e90:	d222      	bcs.n	0x5ed8
    5e92:	35bc      	adds	r5, #188	@ 0xbc
    5e94:	2480      	movs	r4, #128	@ 0x80
    5e96:	5bcd      	ldrh	r5, [r1, r7]
    5e98:	5e04      	ldrsh	r4, [r0, r0]
    5e9a:	9799      	str	r7, [sp, #612]	@ 0x264
    5e9c:	b410      	push	{r4}
    5e9e:	9035      	str	r0, [sp, #212]	@ 0xd4
    5ea0:	08c9      	lsrs	r1, r1, #3
    5ea2:	3d11      	subs	r5, #17
    5ea4:	ed22 005c 	stc	0, cr0, [r2, #-368]!	@ 0xfffffe90
    5ea8:	417e      	adcs	r6, r7
    5eaa:	035b      	lsls	r3, r3, #13
    5eac:	000a      	movs	r2, r1
    5eae:	ed21 0a0c 	vstmdb	r1!, {s0-s11}
    5eb2:	2101      	movs	r1, #1
    5eb4:	1503      	asrs	r3, r0, #20
    5eb6:	84ef      	strh	r7, [r5, #38]	@ 0x26
    5eb8:	25d9      	movs	r5, #217	@ 0xd9
    5eba:	5ccd      	ldrb	r5, [r1, r3]
    5ebc:	5400      	strb	r0, [r0, r0]
    5ebe:	3f21      	subs	r7, #33	@ 0x21
    5ec0:	8d0f      	ldrh	r7, [r1, #40]	@ 0x28
    5ec2:	4801      	ldr	r0, [pc, #4]	@ (0x5ec8)
    5ec4:	5b41      	ldrh	r1, [r0, r5]
    5ec6:	9804      	ldr	r0, [sp, #16]
    5ec8:	ef3e 08d3 	vtst.<illegal width 64>	q0, q15, <illegal reg q1.5>
    5ecc:	a110      	add	r1, pc, #64	@ (adr r1, 0x5f10)
    5ece:	f000 ecde 	blx	0x688c
    5ed2:	0bb8      	lsrs	r0, r7, #14
    5ed4:	5d6d      	ldrb	r5, [r5, r5]
    5ed6:	5b41      	ldrh	r1, [r0, r5]
    5ed8:	0a01      	lsrs	r1, r0, #8
    5eda:	2101      	movs	r1, #1
    5edc:	0cc0      	lsrs	r0, r0, #19
    5ede:	000a      	movs	r2, r1
    5ee0:	d621      	bvs.n	0x5f26
    5ee2:	0a14      	lsrs	r4, r2, #8
    5ee4:	ef00 4ef9 			@ <UNDEFINED> instruction: 0xef004ef9
    5ee8:	df10      	svc	16
    5eea:	047f      	lsls	r7, r7, #17
    5eec:	c046      	stmia	r0!, {r1, r2, r6}
    5eee:	8070      	strh	r0, [r6, #2]
    5ef0:	120c      	asrs	r4, r1, #8
    5ef2:	15a3      	asrs	r3, r4, #22
    5ef4:	08ce      	lsrs	r6, r1, #3
    5ef6:	a0c0      	add	r0, pc, #768	@ (adr r0, 0x61f8)
    5ef8:	1000      	asrs	r0, r0, #32
    5efa:	2720      	movs	r7, #32
    5efc:	64ee      	str	r6, [r5, #76]	@ 0x4c
    5efe:	1104      	asrs	r4, r0, #4
    5f00:	f26c 101d 			@ <UNDEFINED> instruction: 0xf26c101d
    5f04:	bed2      	bkpt	0x00d2
    5f06:	2035      	movs	r0, #53	@ 0x35
    5f08:	ed21 035b 	stc	3, cr0, [r1, #-364]!	@ 0xfffffe94
    5f0c:	d210      	bcs.n	0x5f30
    5f0e:	15ce      	asrs	r6, r1, #23
    5f10:	a070      	add	r0, pc, #448	@ (adr r0, 0x60d4)
    5f12:	e010      	b.n	0x5f36
    5f14:	0a2e      	lsrs	r6, r5, #8
    5f16:	1000      	asrs	r0, r0, #32
    5f18:	ced2      	ldmia	r6, {r1, r4, r6, r7}
    5f1a:	9015      	str	r0, [sp, #84]	@ 0x54
    5f1c:	b0a0      	sub	sp, #128	@ 0x80
    5f1e:	2010      	movs	r0, #16
    5f20:	10c9      	asrs	r1, r1, #3
    5f22:	050a      	lsls	r2, r1, #20
    5f24:	adef      	add	r5, sp, #956	@ 0x3bc
    5f26:	1020      	asrs	r0, r4, #32
    5f28:	fbf0 280a 			@ <UNDEFINED> instruction: 0xfbf0280a
    5f2c:	f1ef 104e 			@ <UNDEFINED> instruction: 0xf1ef104e
    5f30:	020a      	lsls	r2, r1, #8
    5f32:	adef      	add	r5, sp, #956	@ 0x3bc
    5f34:	f280 ef1e 	blx	0x286d74
    5f38:	f104 010a 	add.w	r1, r4, #10
    5f3c:	fdef 104e 	stc2l	0, cr1, [pc, #312]!	@ 0x6078
    5f40:	afdf      	add	r7, sp, #892	@ 0x37c
    5f42:	a0f0      	add	r0, pc, #960	@ (adr r0, 0x6304)
    5f44:	1005      	asrs	r5, r0, #32
    5f46:	7a03      	ldrb	r3, [r0, #8]
    5f48:	8051      	strh	r1, [r2, #2]
    5f4a:	055c      	lsls	r4, r3, #21
    5f4c:	a59c      	add	r5, pc, #624	@ (adr r5, 0x61c0)
    5f4e:	a100      	add	r1, pc, #0	@ (adr r1, 0x5f50)
    5f50:	1015      	asrs	r5, r2, #32
    5f52:	7943      	ldrb	r3, [r0, #5]
    5f54:	0471      	lsls	r1, r6, #17
    5f56:	1046      	asrs	r6, r0, #1
    5f58:	5003      	str	r3, [r0, r0]
    5f5a:	d051      	beq.n	0x6000
    5f5c:	0a59      	lsrs	r1, r3, #9
    5f5e:	5a11      	ldrh	r1, [r2, r0]
    5f60:	210f      	movs	r1, #15
    5f62:	1785      	asrs	r5, r0, #30
    5f64:	9e05      	ldr	r6, [sp, #20]
    5f66:	20a5      	movs	r0, #165	@ 0xa5
    5f68:	05a1      	lsls	r1, r4, #22
    5f6a:	b310      	cbz	r0, 0x5fb2
    5f6c:	1177      	asrs	r7, r6, #5
    5f6e:	50c3      	str	r3, [r0, r3]
    5f70:	f051 0a59 	orrs.w	sl, r1, #89	@ 0x59
    5f74:	5a13      	ldrh	r3, [r2, r0]
    5f76:	2100      	movs	r1, #0
    5f78:	176f      	asrs	r7, r5, #29
    5f7a:	1021      	asrs	r1, r4, #32
    5f7c:	0515      	lsls	r5, r2, #20
    5f7e:	a5a0      	add	r5, pc, #640	@ (adr r5, 0x6200)
    5f80:	a140      	add	r1, pc, #256	@ (adr r1, 0x6084)
    5f82:	1015      	asrs	r5, r2, #32
    5f84:	7623      	strb	r3, [r4, #24]
    5f86:	0471      	lsls	r1, r6, #17
    5f88:	1046      	asrs	r6, r0, #1
    5f8a:	5103      	str	r3, [r0, r4]
    5f8c:	1051      	asrs	r1, r2, #1
    5f8e:	215a      	movs	r1, #90	@ 0x5a
    5f90:	1475      	asrs	r5, r6, #17
    5f92:	150a      	asrs	r2, r1, #20
    5f94:	3c5a      	subs	r4, #90	@ 0x5a
    5f96:	5021      	str	r1, [r4, r0]
    5f98:	2117      	movs	r1, #23
    5f9a:	151a      	asrs	r2, r3, #20
    5f9c:	a205      	add	r2, pc, #20	@ (adr r2, 0x5fb4)
    5f9e:	e515      	b.n	0x59cc
    5fa0:	ff5a 160a 	vmax.u16	d17, d10, d10
    5fa4:	005a      	lsls	r2, r3, #1
    5fa6:	4021      	ands	r1, r4
    5fa8:	2117      	movs	r1, #23
    5faa:	1543      	asrs	r3, r0, #21
    5fac:	a305      	add	r3, pc, #20	@ (adr r3, 0x5fc4)
    5fae:	00a5      	lsls	r5, r4, #2
    5fb0:	1ef0      	subs	r0, r6, #3
    5fb2:	010a      	lsls	r2, r1, #4
    5fb4:	a1ef      	add	r1, pc, #956	@ (adr r1, 0x6374)
    5fb6:	f070 0a1e 	orns	sl, r0, #30
    5fba:	ef08 90a1 	vhadd.s8	d9, d24, d17
    5fbe:	1ef0      	subs	r0, r6, #3
    5fc0:	1f0a      	subs	r2, r1, #4
    5fc2:	a1ef      	add	r1, pc, #956	@ (adr r1, 0x6380)
    5fc4:	f0c0 0a1e 			@ <UNDEFINED> instruction: 0xf0c00a1e
    5fc8:	ef0d 4ef1 			@ <UNDEFINED> instruction: 0xef0d4ef1
    5fcc:	01df      	lsls	r7, r3, #7
    5fce:	d2f1      	bcs.n	0x5fb4
    5fd0:	088c      	lsrs	r4, r1, #2
    5fd2:	c7f0      	stmia	r7!, {r4, r5, r6, r7}
    5fd4:	c676      	stmia	r6!, {r1, r2, r4, r5, r6}
    5fd6:	000c      	movs	r4, r1
    5fd8:	3220      	adds	r2, #32
    5fda:	6c3e      	ldr	r6, [r7, #64]	@ 0x40
    5fdc:	4267      	negs	r7, r4
    5fde:	0014      	movs	r4, r2
    5fe0:	c490      	stmia	r4!, {r4, r7}
    5fe2:	c676      	stmia	r6!, {r1, r2, r4, r5, r6}
    5fe4:	000c      	movs	r4, r1
    5fe6:	3b80      	subs	r3, #128	@ 0x80
    5fe8:	8ec2      	ldrh	r2, [r0, #54]	@ 0x36
    5fea:	903e      	str	r0, [sp, #248]	@ 0xf8
    5fec:	ed24 0288 	sfm	f0, 4, [r4, #-544]!	@ 0xfffffde0
    5ff0:	4109      	asrs	r1, r1
    5ff2:	0188      	lsls	r0, r1, #6
    5ff4:	13ee      	asrs	r6, r5, #15
    5ff6:	2884      	cmp	r0, #132	@ 0x84
    5ff8:	4ef0      	ldr	r6, [pc, #960]	@ (0x63bc)
    5ffa:	696c      	ldr	r4, [r5, #20]
    5ffc:	00cc      	lsls	r4, r1, #3
    5ffe:	2200      	movs	r2, #0
    6000:	c233      	stmia	r2!, {r0, r1, r4, r5}
    6002:	2696      	movs	r6, #150	@ 0x96
    6004:	0144      	lsls	r4, r0, #5
    6006:	4900      	ldr	r1, [pc, #0]	@ (0x6008)
    6008:	696c      	ldr	r4, [r5, #20]
    600a:	00cc      	lsls	r4, r1, #3
    600c:	3900      	subs	r1, #0
    600e:	8414      	strh	r4, [r2, #32]
    6010:	f008 d24e 	bl	0xc0e4b0
    6014:	06fc      	lsls	r4, r7, #27
    6016:	c7c0      	stmia	r7!, {r6, r7}
    6018:	c6d6      	stmia	r6!, {r1, r2, r4, r6, r7}
    601a:	000c      	movs	r4, r1
    601c:	3220      	adds	r2, #32
    601e:	6c6d      	ldr	r5, [r5, #68]	@ 0x44
    6020:	426d      	negs	r5, r5
    6022:	0014      	movs	r4, r2
    6024:	c490      	stmia	r4!, {r4, r7}
    6026:	c6d6      	stmia	r6!, {r1, r2, r4, r6, r7}
    6028:	000c      	movs	r4, r1
    602a:	2b80      	cmp	r3, #128	@ 0x80
    602c:	cec5      	ldmia	r6, {r0, r2, r6, r7}
    602e:	9012      	str	r0, [sp, #72]	@ 0x48
    6030:	ed24 0285 	sfm	f0, 4, [r4, #-532]!	@ 0xfffffdec
    6034:	d21d      	bcs.n	0x6072
    6036:	16fe      	asrs	r6, r7, #27
    6038:	10a0      	asrs	r0, r4, #2
    603a:	60c3      	str	r3, [r0, #12]
    603c:	b981      	cbnz	r1, 0x6060
    603e:	f312 8162 	bgt.w	0x18306
    6042:	2219      	movs	r2, #25
    6044:	85ed      	strh	r5, [r5, #46]	@ 0x2e
    6046:	180b      	adds	r3, r1, r0
    6048:	fed2 9016 	mrc2	0, 6, r9, cr2, cr6, {0}
    604c:	c310      	stmia	r3!, {r4}
    604e:	e164      	b.n	0x631a
    6050:	213e      	movs	r1, #62	@ 0x3e
    6052:	166f      	asrs	r7, r5, #25
    6054:	c4ef      	stmia	r4!, {r0, r1, r2, r3, r5, r6, r7}
    6056:	c706      	stmia	r7!, {r1, r2}
    6058:	000c      	movs	r4, r1
    605a:	3220      	adds	r2, #32
    605c:	6c27      	ldr	r7, [r4, #64]	@ 0x40
    605e:	4270      	negs	r0, r6
    6060:	0014      	movs	r4, r2
    6062:	c490      	stmia	r4!, {r4, r7}
    6064:	c706      	stmia	r7!, {r1, r2}
    6066:	000c      	movs	r4, r1
    6068:	6390      	str	r0, [r2, #56]	@ 0x38
    606a:	9c04      	ldr	r4, [sp, #16]
    606c:	8055      	strh	r5, [r2, #2]
    606e:	ef5c f104 	vrhadd.s16	d31, d12, d4
    6072:	7fdf      	ldrb	r7, [r3, #31]
    6074:	4604      	mov	r4, r0
    6076:	8d20      	ldrh	r0, [r4, #40]	@ 0x28
    6078:	9508      	str	r5, [sp, #32]
    607a:	cd20      	ldmia	r5, {r5}
    607c:	0084      	lsls	r4, r0, #2
    607e:	d20a      	bcs.n	0x6096
    6080:	784f      	ldrb	r7, [r1, #1]
    6082:	0b60      	lsrs	r0, r4, #13
    6084:	fcd2 1007 	ldc2l	0, cr1, [r2], {7}
    6088:	4412      	add	r2, r2
    608a:	1078      	asrs	r0, r7, #1
    608c:	f604 7411 	addw	r4, r4, #3857	@ 0xf11
    6090:	a208      	add	r2, pc, #32	@ (adr r2, 0x60b4)
    6092:	1010      	asrs	r0, r2, #32
    6094:	fdc3 c99d 	stc2l	9, cr12, [r3, #314]	@ 0x13a	@ <UNPREDICTABLE>
    6098:	2108      	movs	r1, #8
    609a:	e0b7      	b.n	0x620c
    609c:	018d      	lsls	r5, r1, #6
    609e:	6c38      	ldr	r0, [r7, #64]	@ 0x40
    60a0:	cc92      	ldmia	r4, {r1, r4, r7}
    60a2:	0000      	movs	r0, r0
    60a4:	9222      	str	r2, [sp, #136]	@ 0x88
    60a6:	ed22 0163 	stfs	f0, [r2, #-396]!	@ 0xfffffe74
    60aa:	4120      	asrs	r0, r4
    60ac:	0684      	lsls	r4, r0, #26
    60ae:	6041      	str	r1, [r0, #4]
    60b0:	411a      	asrs	r2, r3
    60b2:	1a87      	subs	r7, r0, r2
    60b4:	010a      	lsls	r2, r1, #4
    60b6:	ba21      	rev	r1, r4
    60b8:	98df      	ldr	r0, [sp, #892]	@ 0x37c
    60ba:	4148      	adcs	r0, r1
    60bc:	0284      	lsls	r4, r0, #10
    60be:	000a      	movs	r2, r1
    60c0:	b021      	add	sp, #132	@ 0x84
    60c2:	98df      	ldr	r0, [sp, #892]	@ 0x37c
    60c4:	4634      	mov	r4, r6
    60c6:	4450      	add	r0, sl
    60c8:	ed28 0584 	cfstr32	mvfx0, [r8, #-528]!	@ 0xfffffdf0
    60cc:	2106      	movs	r1, #6
    60ce:	1632      	asrs	r2, r6, #24
    60d0:	4cd2      	ldr	r4, [pc, #840]	@ (0x641c)
    60d2:	6028      	str	r0, [r5, #0]
    60d4:	8410      	strh	r0, [r2, #32]
    60d6:	2008      	movs	r0, #8
    60d8:	84cd      	strh	r5, [r1, #38]	@ 0x26
    60da:	0603      	lsls	r3, r0, #24
    60dc:	6f41      	ldr	r1, [r0, #116]	@ 0x74
    60de:	df00      	svc	0
    60e0:	f101 afdf 	bmi.w	0xc80a2
    60e4:	7000      	strb	r0, [r0, #0]
    60e6:	d204      	bcs.n	0x60f2
    60e8:	584d      	ldr	r5, [r1, r1]
    60ea:	0fe0      	lsrs	r0, r4, #31
    60ec:	4dd2      	ldr	r5, [pc, #840]	@ (0x6438)
    60ee:	2008      	movs	r0, #8
    60f0:	d20e      	bcs.n	0x6110
    60f2:	184d      	adds	r5, r1, r1
    60f4:	0d80      	lsrs	r0, r0, #22
    60f6:	ba44      	rev16	r4, r0
    60f8:	b554      	push	{r2, r4, r6, lr}
    60fa:	9423      	str	r4, [sp, #140]	@ 0x8c
    60fc:	09ca      	lsrs	r2, r1, #7
    60fe:	5ed2      	ldrsh	r2, [r2, r3]
    6100:	700b      	strb	r3, [r1, #0]
    6102:	ed22 01ba 	stfs	f0, [r2, #-744]!	@ 0xfffffd18
    6106:	d27f      	bcs.n	0x6208
    6108:	584c      	ldr	r4, [r1, r1]
    610a:	a760      	add	r7, pc, #384	@ (adr r7, 0x628c)
    610c:	f020 0ade 	bic.w	sl, r0, #222	@ 0xde
    6110:	2100      	movs	r1, #0
    6112:	df5f      	svc	95	@ 0x5f
    6114:	6198      	str	r0, [r3, #24]
    6116:	5ed2      	ldrsh	r2, [r2, r3]
    6118:	501b      	str	r3, [r3, r0]
    611a:	cd22      	ldmia	r5, {r1, r5}
    611c:	0584      	lsls	r4, r0, #22
    611e:	0a4f      	lsrs	r7, r1, #9
    6120:	ef04 00ad 	vhadd.s8	d0, d20, d29
    6124:	b310      	cbz	r0, 0x616c
    6126:	adf4      	add	r5, sp, #976	@ 0x3d0
    6128:	f020 989e 	b.w	0x826268
    612c:	d233      	bcs.n	0x6196
    612e:	2b5e      	cmp	r3, #94	@ 0x5e
    6130:	22a0      	movs	r2, #160	@ 0xa0
    6132:	baed      	revsh	r5, r5
    6134:	1a01      	subs	r1, r0, r0
    6136:	4cd2      	ldr	r4, [pc, #840]	@ (0x6480)
    6138:	1058      	asrs	r0, r3, #1
    613a:	20a1      	movs	r0, #161	@ 0xa1
    613c:	def0      	udf	#240	@ 0xf0
    613e:	000a      	movs	r2, r1
    6140:	3021      	adds	r0, #33	@ 0x21
    6142:	0adf      	lsrs	r7, r3, #11
    6144:	ef02 10a9 	vhadd.s8	d1, d18, d25
    6148:	0470      	lsls	r0, r6, #17
    614a:	2c98      	cmp	r4, #152	@ 0x98
    614c:	5cd2      	ldrb	r2, [r2, r3]
    614e:	901b      	str	r0, [sp, #108]	@ 0x6c
    6150:	ed20 02b5 	sfm	f0, 4, [r0, #-724]!	@ 0xfffffd2c
    6154:	211a      	movs	r1, #26
    6156:	15d4      	asrs	r4, r2, #23
    6158:	018d      	lsls	r5, r1, #6
    615a:	0a0e      	lsrs	r6, r1, #8
    615c:	ef02 10a9 	vhadd.s8	d1, d18, d25
    6160:	0470      	lsls	r0, r6, #17
    6162:	d046      	beq.n	0x61f2
    6164:	9018      	str	r0, [sp, #96]	@ 0x60
    6166:	1310      	asrs	r0, r2, #12
    6168:	f15b df4e 	bl	0x962008
    616c:	f101 7fdf 	add.w	pc, r1, #29229056	@ 0x1be0000
    6170:	d204      	bcs.n	0x617c
    6172:	584e      	ldr	r6, [r1, r1]
    6174:	60f0      	str	r0, [r6, #12]
    6176:	0504      	lsls	r4, r0, #20
    6178:	a5a5      	add	r5, pc, #660	@ (adr r5, 0x6410)
    617a:	f0a0 df1e 	bl	0x8a6fba
    617e:	f101 79df 	add.w	r9, r1, #29229056	@ 0x1be0000
    6182:	5f46      	ldrsh	r6, [r0, r5]
    6184:	0475      	lsls	r5, r6, #17
    6186:	000a      	movs	r2, r1
    6188:	6147      	str	r7, [r0, #20]
    618a:	c204      	stmia	r2!, {r2}
    618c:	3008      	adds	r0, #8
    618e:	460b      	mov	r3, r1
    6190:	8c20      	ldrh	r0, [r4, #32]
    6192:	0f01      	lsrs	r1, r0, #28
    6194:	0461      	lsls	r1, r4, #17
    6196:	28c2      	cmp	r0, #194	@ 0xc2
    6198:	2bc0      	cmp	r3, #192	@ 0xc0
    619a:	2046      	movs	r0, #70	@ 0x46
    619c:	038c      	lsls	r4, r1, #14
    619e:	645d      	str	r5, [r3, #68]	@ 0x44
    61a0:	c204      	stmia	r2!, {r2}
    61a2:	2048      	movs	r0, #72	@ 0x48
    61a4:	4645      	mov	r5, r8
    61a6:	58d0      	ldr	r0, [r2, r3]
    61a8:	3070      	adds	r0, #112	@ 0x70
    61aa:	8d19      	ldrh	r1, [r3, #40]	@ 0x28
    61ac:	46a6      	mov	lr, r4
    61ae:	68d0      	ldr	r0, [r2, #12]
    61b0:	3070      	adds	r0, #112	@ 0x70
    61b2:	b709      			@ <UNDEFINED> instruction: 0xb709
    61b4:	46a6      	mov	lr, r4
    61b6:	78d0      	ldrb	r0, [r2, #3]
    61b8:	3070      	adds	r0, #112	@ 0x70
    61ba:	e019      	b.n	0x61f0
    61bc:	46a6      	mov	lr, r4
    61be:	88d0      	ldrh	r0, [r2, #6]
    61c0:	3070      	adds	r0, #112	@ 0x70
    61c2:	e019      	b.n	0x61f8
    61c4:	46a6      	mov	lr, r4
    61c6:	98d0      	ldr	r0, [sp, #832]	@ 0x340
    61c8:	3070      	adds	r0, #112	@ 0x70
    61ca:	0a19      	lsrs	r1, r3, #8
    61cc:	46a7      	mov	pc, r4
    61ce:	a8d0      	add	r0, sp, #832	@ 0x340
    61d0:	3070      	adds	r0, #112	@ 0x70
    61d2:	1009      	asrs	r1, r1, #32
    61d4:	46a7      	mov	pc, r4
    61d6:	b8d0      			@ <UNDEFINED> instruction: 0xb8d0
    61d8:	3070      	adds	r0, #112	@ 0x70
    61da:	1519      	asrs	r1, r3, #20
    61dc:	46a7      	mov	pc, r4
    61de:	c8d0      	ldmia	r0!, {r4, r6, r7}
    61e0:	3070      	adds	r0, #112	@ 0x70
    61e2:	1519      	asrs	r1, r3, #20
    61e4:	93a7      	str	r3, [sp, #668]	@ 0x29c
    61e6:	7661      	strb	r1, [r4, #25]
    61e8:	cd2a      	ldmia	r5, {r1, r3, r5}
    61ea:	0284      	lsls	r4, r0, #10
    61ec:	9307      	str	r3, [sp, #28]
    61ee:	7661      	strb	r1, [r4, #25]
    61f0:	26ca      	movs	r6, #202	@ 0xca
    61f2:	0cc9      	lsrs	r1, r1, #19
    61f4:	2000      	movs	r0, #0
    61f6:	0732      	lsls	r2, r6, #28
    61f8:	6193      	str	r3, [r2, #24]
    61fa:	2a76      	cmp	r2, #118	@ 0x76
    61fc:	63cd      	str	r5, [r1, #60]	@ 0x3c
    61fe:	0701      	lsls	r1, r0, #28
    6200:	6193      	str	r3, [r2, #24]
    6202:	aa76      	add	r2, sp, #472	@ 0x1d8
    6204:	f030 41de 	bics.w	r1, r0, #1862270976	@ 0x6f000000
    6208:	0085      	lsls	r5, r0, #2
    620a:	5f41      	ldrsh	r1, [r0, r5]
    620c:	4101      	asrs	r1, r0
    620e:	0186      	lsls	r6, r0, #6
    6210:	010a      	lsls	r2, r1, #4
    6212:	5e21      	ldrsh	r1, [r4, r0]
    6214:	0ade      	lsrs	r6, r3, #11
    6216:	ef00 1939 	vmul.i8	d1, d0, d25
    621a:	a766      	add	r7, pc, #408	@ (adr r7, 0x63b4)
    621c:	4fd2      	ldr	r7, [pc, #840]	@ (0x6568)
    621e:	d038      	beq.n	0x6292
    6220:	d215      	bcs.n	0x624e
    6222:	085c      	lsrs	r4, r3, #1
    6224:	2720      	movs	r7, #32
    6226:	85cd      	strh	r5, [r1, #46]	@ 0x2e
    6228:	7c01      	ldrb	r1, [r0, #16]
    622a:	5dd2      	ldrb	r2, [r2, r7]
    622c:	5028      	str	r0, [r5, r0]
    622e:	d208      	bcs.n	0x6242
    6230:	385d      	subs	r0, #93	@ 0x5d
    6232:	0860      	lsrs	r0, r4, #1
    6234:	5dd2      	ldrb	r2, [r2, r7]
    6236:	f048 d208 	bl	0xc4e64a
    623a:	585d      	ldr	r5, [r3, r1]
    623c:	0970      	lsrs	r0, r6, #5
    623e:	5dd2      	ldrb	r2, [r2, r7]
    6240:	f068 d209 	bl	0xc6e656
    6244:	785d      	ldrb	r5, [r3, #1]
    6246:	0a70      	lsrs	r0, r6, #9
    6248:	5dd2      	ldrb	r2, [r2, r7]
    624a:	f088 d20a 	bl	0xc8e662
    624e:	985d      	ldr	r0, [sp, #372]	@ 0x174
    6250:	0b70      	lsrs	r0, r6, #13
    6252:	5dd2      	ldrb	r2, [r2, r7]
    6254:	f0a8 d20b 	bl	0xcae66e
    6258:	b85d      			@ <UNDEFINED> instruction: 0xb85d
    625a:	0c70      	lsrs	r0, r6, #17
    625c:	d599      	bpl.n	0x6192
    625e:	10a0      	asrs	r0, r4, #2
    6260:	c5a0      	stmia	r5!, {r5, r7}
    6262:	f310 9133 	b.w	0xf164cc
    6266:	0c29      	lsrs	r1, r5, #16
    6268:	0c0a      	lsrs	r2, r1, #16
    626a:	0e5a      	lsrs	r2, r3, #25
    626c:	8821      	ldrh	r1, [r4, #0]
    626e:	9913      	ldr	r1, [sp, #76]	@ 0x4c
    6270:	10af      	asrs	r7, r5, #2
    6272:	3d43      	subs	r5, #67	@ 0x43
    6274:	4991      	ldr	r1, [pc, #580]	@ (0x64bc)
    6276:	0a0a      	lsrs	r2, r1, #8
    6278:	5a21      	ldrh	r1, [r4, r0]
    627a:	2125      	movs	r1, #37	@ 0x25
    627c:	1379      	asrs	r1, r7, #13
    627e:	9199      	str	r1, [sp, #612]	@ 0x264
    6280:	f0a0 15a0 			@ <UNDEFINED> instruction: 0xf0a015a0
    6284:	f311 8136 	bgt.w	0x174f4
    6288:	a7f9      	add	r7, pc, #996	@ (adr r7, 0x6670)
    628a:	a260      	add	r2, pc, #384	@ (adr r2, 0x640c)
    628c:	12a5      	asrs	r5, r4, #10
    628e:	3663      	adds	r6, #99	@ 0x63
    6290:	d981      	bls.n	0x6196
    6292:	f0a6 05a0 			@ <UNDEFINED> instruction: 0xf0a605a0
    6296:	d311      	bcc.n	0x62bc
    6298:	8135      	strh	r5, [r6, #8]
    629a:	a5b9      	add	r5, pc, #740	@ (adr r5, 0x6580)
    629c:	a120      	add	r1, pc, #128	@ (adr r1, 0x6320)
    629e:	1135      	asrs	r5, r6, #4
    62a0:	3543      	adds	r5, #67	@ 0x43
    62a2:	9981      	ldr	r1, [sp, #516]	@ 0x204
    62a4:	40a4      	lsls	r4, r4
    62a6:	95a1      	str	r5, [sp, #644]	@ 0x284
    62a8:	b311      	cbz	r1, 0x62f0
    62aa:	8134      	strh	r4, [r6, #8]
    62ac:	a379      	add	r3, pc, #484	@ (adr r3, 0x6494)
    62ae:	a1d0      	add	r1, pc, #832	@ (adr r1, 0x65f0)
    62b0:	11e5      	asrs	r5, r4, #7
    62b2:	3423      	adds	r4, #35	@ 0x23
    62b4:	5981      	ldr	r1, [r0, r6]
    62b6:	a0a2      	add	r0, pc, #648	@ (adr r0, 0x6540)
    62b8:	b5a1      	push	{r0, r5, r7, lr}
    62ba:	9311      	str	r3, [sp, #68]	@ 0x44
    62bc:	8133      	strh	r3, [r6, #8]
    62be:	1139      	asrs	r1, r7, #4
    62c0:	3d93      	subs	r5, #147	@ 0x93
    62c2:	08d1      	lsrs	r1, r2, #3
    62c4:	a070      	add	r0, pc, #448	@ (adr r0, 0x6488)
    62c6:	7010      	strb	r0, [r2, #0]
    62c8:	4614      	mov	r4, r2
    62ca:	9ef1      	ldr	r6, [sp, #964]	@ 0x3c4
    62cc:	6193      	str	r3, [r2, #24]
    62ce:	2a76      	cmp	r2, #118	@ 0x76
    62d0:	84ed      	strh	r5, [r5, #38]	@ 0x26
    62d2:	1c06      	adds	r6, r0, #0
    62d4:	1a0a      	subs	r2, r1, r0
    62d6:	1b5a      	subs	r2, r3, r5
    62d8:	1c21      	adds	r1, r4, #0
    62da:	0a13      	lsrs	r3, r2, #8
    62dc:	ef00 1939 	vmul.i8	d1, d0, d25
    62e0:	a766      	add	r7, pc, #408	@ (adr r7, 0x647c)
    62e2:	4cd2      	ldr	r4, [pc, #840]	@ (0x662c)
    62e4:	7078      	strb	r0, [r7, #1]
    62e6:	1930      	adds	r0, r6, r4
    62e8:	a766      	add	r7, pc, #408	@ (adr r7, 0x6484)
    62ea:	1f0a      	subs	r2, r1, #4
    62ec:	205a      	movs	r0, #90	@ 0x5a
    62ee:	0621      	lsls	r1, r4, #24
    62f0:	0a13      	lsrs	r3, r2, #8
    62f2:	ef00 1939 	vmul.i8	d1, d0, d25
    62f6:	a766      	add	r7, pc, #408	@ (adr r7, 0x6490)
    62f8:	4fd2      	ldr	r7, [pc, #840]	@ (0x6644)
    62fa:	b038      	add	sp, #224	@ 0xe0
    62fc:	d215      	bcs.n	0x632a
    62fe:	085c      	lsrs	r4, r3, #1
    6300:	2720      	movs	r7, #32
    6302:	85cd      	strh	r5, [r1, #46]	@ 0x2e
    6304:	7c01      	ldrb	r1, [r0, #16]
    6306:	5dd2      	ldrb	r2, [r2, r7]
    6308:	5028      	str	r0, [r5, r0]
    630a:	d208      	bcs.n	0x631e
    630c:	385d      	subs	r0, #93	@ 0x5d
    630e:	0860      	lsrs	r0, r4, #1
    6310:	5dd2      	ldrb	r2, [r2, r7]
    6312:	f048 d208 	bl	0xc4e726
    6316:	585d      	ldr	r5, [r3, r1]
    6318:	0970      	lsrs	r0, r6, #5
    631a:	5dd2      	ldrb	r2, [r2, r7]
    631c:	f068 d209 	bl	0xc6e732
    6320:	785d      	ldrb	r5, [r3, #1]
    6322:	0a70      	lsrs	r0, r6, #9
    6324:	5dd2      	ldrb	r2, [r2, r7]
    6326:	f088 d20a 	bl	0xc8e73e
    632a:	985d      	ldr	r0, [sp, #372]	@ 0x174
    632c:	0b70      	lsrs	r0, r6, #13
    632e:	5dd2      	ldrb	r2, [r2, r7]
    6330:	f0a8 d20b 	bl	0xcae74a
    6334:	b85d      			@ <UNDEFINED> instruction: 0xb85d
    6336:	0c70      	lsrs	r0, r6, #17
    6338:	d599      	bpl.n	0x626e
    633a:	10a0      	asrs	r0, r4, #2
    633c:	c5a0      	stmia	r5!, {r5, r7}
    633e:	c310      	stmia	r3!, {r4}
    6340:	9127      	str	r1, [sp, #156]	@ 0x9c
    6342:	0c29      	lsrs	r1, r5, #16
    6344:	0c0a      	lsrs	r2, r1, #16
    6346:	0e5a      	lsrs	r2, r3, #25
    6348:	c521      	stmia	r5!, {r0, r5}
    634a:	9912      	ldr	r1, [sp, #72]	@ 0x48
    634c:	10af      	asrs	r7, r5, #2
    634e:	3203      	adds	r2, #3
    6350:	4991      	ldr	r1, [pc, #580]	@ (0x6598)
    6352:	0a0a      	lsrs	r2, r1, #8
    6354:	5a21      	ldrh	r1, [r4, r0]
    6356:	2125      	movs	r1, #37	@ 0x25
    6358:	12b6      	asrs	r6, r6, #10
    635a:	9199      	str	r1, [sp, #612]	@ 0x264
    635c:	f0a0 15a0 			@ <UNDEFINED> instruction: 0xf0a015a0
    6360:	c311      	stmia	r3!, {r0, r4}
    6362:	812a      	strh	r2, [r5, #8]
    6364:	a7f9      	add	r7, pc, #996	@ (adr r7, 0x674c)
    6366:	a260      	add	r2, pc, #384	@ (adr r2, 0x64e8)
    6368:	12a5      	asrs	r5, r4, #10
    636a:	2a33      	cmp	r2, #51	@ 0x33
    636c:	d981      	bls.n	0x6272
    636e:	f0a6 05a0 			@ <UNDEFINED> instruction: 0xf0a605a0
    6372:	a311      	add	r3, pc, #68	@ (adr r3, 0x63b8)
    6374:	8129      	strh	r1, [r5, #8]
    6376:	a5b9      	add	r5, pc, #740	@ (adr r5, 0x665c)
    6378:	a120      	add	r1, pc, #128	@ (adr r1, 0x63fc)
    637a:	1135      	asrs	r5, r6, #4
    637c:	2913      	cmp	r1, #19
    637e:	9981      	ldr	r1, [sp, #516]	@ 0x204
    6380:	40a4      	lsls	r4, r4
    6382:	95a1      	str	r5, [sp, #644]	@ 0x284
    6384:	8311      	strh	r1, [r2, #24]
    6386:	8128      	strh	r0, [r5, #8]
    6388:	a379      	add	r3, pc, #484	@ (adr r3, 0x6570)
    638a:	a1d0      	add	r1, pc, #832	@ (adr r1, 0x66cc)
    638c:	11e5      	asrs	r5, r4, #7
    638e:	27f3      	movs	r7, #243	@ 0xf3
    6390:	5981      	ldr	r1, [r0, r6]
    6392:	a0a2      	add	r0, pc, #648	@ (adr r0, 0x661c)
    6394:	b5a1      	push	{r0, r5, r7, lr}
    6396:	6311      	str	r1, [r2, #48]	@ 0x30
    6398:	8127      	strh	r7, [r4, #8]
    639a:	1139      	asrs	r1, r7, #4
    639c:	3243      	adds	r2, #67	@ 0x43
    639e:	08d1      	lsrs	r1, r2, #3
    63a0:	a070      	add	r0, pc, #448	@ (adr r0, 0x6564)
    63a2:	7010      	strb	r0, [r2, #0]
    63a4:	4614      	mov	r4, r2
    63a6:	9ef1      	ldr	r6, [sp, #964]	@ 0x3c4
    63a8:	7899      	ldrb	r1, [r3, #2]
    63aa:	ed27 0684 	stc	6, cr0, [r7, #-528]!	@ 0xfffffdf0
    63ae:	0a1a      	lsrs	r2, r3, #8
    63b0:	5a1a      	ldrh	r2, [r3, r0]
    63b2:	211b      	movs	r1, #27
    63b4:	125a      	asrs	r2, r3, #9
    63b6:	000a      	movs	r2, r1
    63b8:	99ef      	ldr	r1, [sp, #956]	@ 0x3bc
    63ba:	7559      	strb	r1, [r3, #21]
    63bc:	4fd2      	ldr	r7, [pc, #840]	@ (0x6708)
    63be:	b078      	add	sp, #480	@ 0x1e0
    63c0:	0a74      	lsrs	r4, r6, #9
    63c2:	5a1f      	ldrh	r7, [r3, r0]
    63c4:	2120      	movs	r1, #32
    63c6:	1248      	asrs	r0, r1, #9
    63c8:	000a      	movs	r2, r1
    63ca:	99ef      	ldr	r1, [sp, #956]	@ 0x3bc
    63cc:	7319      	strb	r1, [r3, #12]
    63ce:	4ed2      	ldr	r6, [pc, #840]	@ (0x6718)
    63d0:	f028 0461 	bic.w	r4, r8, #97	@ 0x61
    63d4:	038d      	lsls	r5, r1, #14
    63d6:	410b      	asrs	r3, r1
    63d8:	016b      	lsls	r3, r5, #5
    63da:	1499      	asrs	r1, r3, #18
    63dc:	c417      	stmia	r4!, {r0, r1, r2, r4}
    63de:	9016      	str	r0, [sp, #88]	@ 0x58
    63e0:	7099      	strb	r1, [r3, #2]
    63e2:	4fd2      	ldr	r7, [pc, #840]	@ (0x672c)
    63e4:	6038      	str	r0, [r7, #0]
    63e6:	d24c      	bcs.n	0x6482
    63e8:	085c      	lsrs	r4, r3, #1
    63ea:	2730      	movs	r7, #48	@ 0x30
    63ec:	85dd      	strh	r5, [r3, #46]	@ 0x2e
    63ee:	6f01      	ldr	r1, [r0, #112]	@ 0x70
    63f0:	dd22      	ble.n	0x6438
    63f2:	0285      	lsls	r5, r0, #10
    63f4:	22c8      	movs	r2, #200	@ 0xc8
    63f6:	85dd      	strh	r5, [r3, #46]	@ 0x2e
    63f8:	3d03      	subs	r5, #3
    63fa:	dd23      	ble.n	0x6444
    63fc:	0485      	lsls	r5, r0, #18
    63fe:	2362      	movs	r3, #98	@ 0x62
    6400:	85dd      	strh	r5, [r3, #46]	@ 0x2e
    6402:	7d05      	ldrb	r5, [r0, #20]
    6404:	dd23      	ble.n	0x644e
    6406:	0685      	lsls	r5, r0, #26
    6408:	2398      	movs	r3, #152	@ 0x98
    640a:	85dd      	strh	r5, [r3, #46]	@ 0x2e
    640c:	b307      	cbz	r7, 0x6450
    640e:	dd23      	ble.n	0x6458
    6410:	0885      	lsrs	r5, r0, #2
    6412:	23ce      	movs	r3, #206	@ 0xce
    6414:	85dd      	strh	r5, [r3, #46]	@ 0x2e
    6416:	e809 dd23 			@ <UNDEFINED> instruction: 0xe809dd23
    641a:	0a85      	lsrs	r5, r0, #10
    641c:	2402      	movs	r4, #2
    641e:	85dd      	strh	r5, [r3, #46]	@ 0x2e
    6420:	2c0b      	cmp	r4, #11
    6422:	f994 4443 	ldrsb.w	r4, [r4, #1091]	@ 0x443
    6426:	4586      	cmp	lr, r0
    6428:	d285      	bcs.n	0x6336
    642a:	185c      	adds	r4, r3, r1
    642c:	2680      	movs	r6, #128	@ 0x80
    642e:	85cd      	strh	r5, [r1, #46]	@ 0x2e
    6430:	7002      	strb	r2, [r0, #0]
    6432:	5dd2      	ldrb	r2, [r2, r7]
    6434:	a038      	add	r0, pc, #224	@ (adr r0, 0x6518)
    6436:	d208      	bcs.n	0x644a
    6438:	485d      	ldr	r0, [pc, #372]	@ (0x65b0)
    643a:	0b50      	lsrs	r0, r2, #13
    643c:	5dd2      	ldrb	r2, [r2, r7]
    643e:	3058      	adds	r0, #88	@ 0x58
    6440:	d20c      	bcs.n	0x645c
    6442:	685d      	ldr	r5, [r3, #4]
    6444:	0d10      	lsrs	r0, r2, #20
    6446:	5dd2      	ldrb	r2, [r2, r7]
    6448:	f078 d20d 	bl	0xc7e866
    644c:	885d      	ldrh	r5, [r3, #2]
    644e:	0ed0      	lsrs	r0, r2, #27
    6450:	5dd2      	ldrb	r2, [r2, r7]
    6452:	b098      	sub	sp, #96	@ 0x60
    6454:	d20f      	bcs.n	0x6476
    6456:	a85d      	add	r0, sp, #372	@ 0x174
    6458:	1090      	asrs	r0, r2, #2
    645a:	5dd2      	ldrb	r2, [r2, r7]
    645c:	80b8      	strh	r0, [r7, #4]
    645e:	9913      	ldr	r1, [sp, #76]	@ 0x4c
    6460:	a177      	add	r1, pc, #476	@ (adr r1, 0x6640)
    6462:	50c0      	str	r0, [r0, r3]
    6464:	5604      	ldrsb	r4, [r0, r0]
    6466:	9874      	ldr	r0, [sp, #464]	@ 0x1d0
    6468:	3b59      	subs	r3, #89	@ 0x59
    646a:	c504      	stmia	r5!, {r2}
    646c:	a455      	add	r4, pc, #340	@ (adr r4, 0x65c4)
    646e:	604a      	str	r2, [r1, #4]
    6470:	455c      	cmp	r4, fp
    6472:	0aab      	lsrs	r3, r5, #10
    6474:	ef25 c411 	vqshl.s32	d12, d1, d5
    6478:	900a      	str	r0, [sp, #40]	@ 0x28
    647a:	3919      	subs	r1, #25
    647c:	2121      	movs	r1, #33	@ 0x21
    647e:	8d13      	ldrh	r3, [r2, #40]	@ 0x28
    6480:	1701      	asrs	r1, r0, #28
    6482:	6041      	str	r1, [r0, #4]
    6484:	4421      	add	r1, r4
    6486:	80ad      	strh	r5, [r5, #4]
    6488:	4521      	cmp	r1, r4
    648a:	9987      	ldr	r1, [sp, #540]	@ 0x21c
    648c:	136e      	asrs	r6, r5, #13
    648e:	0854      	lsrs	r4, r2, #1
    6490:	10a0      	asrs	r0, r4, #2
    6492:	1470      	asrs	r0, r6, #17
    6494:	5c99      	ldrb	r1, [r3, r2]
    6496:	0413      	lsls	r3, r2, #16
    6498:	40f6      	lsrs	r6, r6
    649a:	59d0      	ldr	r0, [r2, r7]
    649c:	0f80      	lsrs	r0, r0, #30
    649e:	8745      	strh	r5, [r0, #58]	@ 0x3a
    64a0:	4499      	add	r9, r3
    64a2:	0413      	lsls	r3, r2, #16
    64a4:	4266      	negs	r6, r4
    64a6:	5a20      	ldrh	r0, [r4, r0]
    64a8:	2680      	movs	r6, #128	@ 0x80
    64aa:	8745      	strh	r5, [r0, #58]	@ 0x3a
    64ac:	2c99      	cmp	r4, #153	@ 0x99
    64ae:	0413      	lsls	r3, r2, #16
    64b0:	40f6      	lsrs	r6, r6
    64b2:	5a10      	ldrh	r0, [r2, r0]
    64b4:	0f80      	lsrs	r0, r0, #30
    64b6:	8745      	strh	r5, [r0, #58]	@ 0x3a
    64b8:	1499      	asrs	r1, r3, #18
    64ba:	0413      	lsls	r3, r2, #16
    64bc:	4126      	asrs	r6, r4
    64be:	59f0      	ldr	r0, [r6, r7]
    64c0:	1280      	asrs	r0, r0, #10
    64c2:	8745      	strh	r5, [r0, #58]	@ 0x3a
    64c4:	fc99 0412 	ldc2	4, cr0, [r9], {18}
    64c8:	4146      	adcs	r6, r0
    64ca:	5a00      	ldrh	r0, [r0, r0]
    64cc:	1480      	asrs	r0, r0, #18
    64ce:	8745      	strh	r5, [r0, #58]	@ 0x3a
    64d0:	e499      	b.n	0x5e06
    64d2:	0412      	lsls	r2, r2, #16
    64d4:	41d6      	rors	r6, r2
    64d6:	5a30      	ldrh	r0, [r6, r0]
    64d8:	1d80      	adds	r0, r0, #6
    64da:	8745      	strh	r5, [r0, #58]	@ 0x3a
    64dc:	cc99      	ldmia	r4, {r0, r3, r4, r7}
    64de:	e312      	b.n	0x6b06
    64e0:	d12b      	bne.n	0x653a
    64e2:	b018      	add	sp, #96	@ 0x60
    64e4:	0411      	lsls	r1, r2, #16
    64e6:	11a6      	asrs	r6, r4, #6
    64e8:	a874      	add	r0, sp, #464	@ 0x1d0
    64ea:	20a1      	movs	r0, #161	@ 0xa1
    64ec:	3310      	adds	r3, #16
    64ee:	9db8      	ldr	r5, [sp, #736]	@ 0x2e0
    64f0:	2a59      	cmp	r2, #89	@ 0x59
    64f2:	8541      	strh	r1, [r0, #42]	@ 0x2a
    64f4:	0a00      	lsrs	r0, r0, #8
    64f6:	4701      	bx	r0
    64f8:	3991      	subs	r1, #145	@ 0x91
    64fa:	2129      	movs	r1, #41	@ 0x29
    64fc:	12a2      	asrs	r2, r4, #10
    64fe:	018d      	lsls	r5, r1, #6
    6500:	d226      	bcs.n	0x6550
    6502:	18ce      	adds	r6, r1, r3
    6504:	21d0      	movs	r1, #208	@ 0xd0
    6506:	b4cd      	push	{r0, r2, r3, r6, r7}
    6508:	1400      	asrs	r0, r0, #16
    650a:	b06c      	add	sp, #432	@ 0x1b0
    650c:	ae6d      	add	r6, sp, #436	@ 0x1b4
    650e:	150a      	asrs	r2, r1, #20
    6510:	91ef      	str	r1, [sp, #956]	@ 0x3bc
    6512:	2619      	movs	r6, #25
    6514:	8541      	strh	r1, [r0, #42]	@ 0x2a
    6516:	0a00      	lsrs	r0, r0, #8
    6518:	4701      	bx	r0
    651a:	f991 0a24 	ldrsb.w	r0, [r1, #2596]	@ 0xa24
    651e:	ef02 00ad 	vhadd.s8	d0, d18, d29
    6522:	d310      	bcc.n	0x6546
    6524:	9db4      	ldr	r5, [sp, #720]	@ 0x2d0
    6526:	2399      	movs	r3, #153	@ 0x99
    6528:	8541      	strh	r1, [r0, #42]	@ 0x2a
    652a:	d200      	bcs.n	0x652e
    652c:	d87c      	bhi.n	0x6628
    652e:	20e0      	movs	r0, #224	@ 0xe0
    6530:	87cd      	strh	r5, [r1, #62]	@ 0x3e
    6532:	100e      	asrs	r6, r1, #32
    6534:	1c99      	adds	r1, r3, #2
    6536:	3312      	adds	r3, #18
    6538:	9db5      	ldr	r5, [sp, #724]	@ 0x2d4
    653a:	2119      	movs	r1, #25
    653c:	010a      	lsls	r2, r1, #4
    653e:	6211      	str	r1, [r2, #32]
    6540:	10a5      	asrs	r5, r4, #2
    6542:	b010      	add	sp, #64	@ 0x40
    6544:	0a5f      	lsrs	r7, r3, #9
    6546:	1100      	asrs	r0, r0, #4
    6548:	a5a4      	add	r5, pc, #656	@ (adr r5, 0x67dc)
    654a:	1000      	asrs	r0, r0, #32
    654c:	5c90      	ldrb	r0, [r2, r2]
    654e:	3c0a      	subs	r4, #10
    6550:	5411      	strb	r1, [r2, r0]
    6552:	00a6      	lsls	r6, r4, #2
    6554:	6010      	str	r0, [r2, #0]
    6556:	9969      	ldr	r1, [sp, #420]	@ 0x1a4
    6558:	21d6      	movs	r1, #214	@ 0xd6
    655a:	aced      	add	r4, sp, #948	@ 0x3b4
    655c:	0b00      	lsrs	r0, r0, #12
    655e:	ac41      	add	r4, sp, #260	@ 0x104
    6560:	9901      	ldr	r1, [sp, #4]
    6562:	d1c2      	bne.n	0x64ea
    6564:	5c2f      	ldrb	r7, [r5, r0]
    6566:	8ed0      	ldrh	r0, [r2, #54]	@ 0x36
    6568:	a05a      	add	r0, pc, #360	@ (adr r0, 0x66d4)
    656a:	efda e0f2 	vshr.s64	q15, q9, #38
    656e:	ce2d      	ldmia	r6!, {r0, r2, r3, r5}
    6570:	1282      	asrs	r2, r0, #10
    6572:	4829      	ldr	r0, [pc, #164]	@ (0x6618)
    6574:	5aa4      	ldrh	r4, [r4, r2]
    6576:	5ab0      	ldrh	r0, [r6, r2]
    6578:	ab44      	add	r3, sp, #272	@ 0x110
    657a:	ac05      	add	r4, sp, #20
    657c:	d515      	bpl.n	0x65aa
    657e:	005a      	lsls	r2, r3, #1
    6580:	a8fd      	add	r0, sp, #1012	@ 0x3f4
    6582:	ed05 05c2 	cfstr32	mvfx0, [r5, #-776]	@ 0xfffffcf8
    6586:	fdaa 0f2e 	stc2	15, cr0, [sl, #184]!	@ 0xb8
    658a:	e2de      	b.n	0x6b4a
    658c:	282c      	cmp	r0, #44	@ 0x2c
    658e:	8291      	strh	r1, [r2, #20]
    6590:	260a      	movs	r6, #10
    6592:	11ef      	asrs	r7, r5, #7
    6594:	0854      	lsrs	r4, r2, #1
    6596:	7990      	ldrb	r0, [r2, #6]
    6598:	4415      	add	r5, r2
    659a:	a287      	add	r2, pc, #540	@ (adr r2, 0x67b8)
    659c:	5210      	strh	r0, [r2, r0]
    659e:	4ad4      	ldr	r2, [pc, #848]	@ (0x68f0)
    65a0:	1ad4      	subs	r4, r2, r3
    65a2:	f9e3 a310 	vld4.8	{d26[0],d27[0],d28[0],d29[0]}, [r3 :32], r0
    65a6:	adae      	add	r5, sp, #696	@ 0x2b8
    65a8:	f140 411e 	adc.w	r1, r0, #2650800128	@ 0x9e000000
    65ac:	0085      	lsls	r5, r0, #2
    65ae:	2899      	cmp	r0, #153	@ 0x99
    65b0:	7441      	strb	r1, [r0, #17]
    65b2:	0a28      	lsrs	r0, r5, #8
    65b4:	210f      	movs	r1, #15
    65b6:	0f50      	lsrs	r0, r2, #29
    65b8:	6247      	str	r7, [r0, #36]	@ 0x24
    65ba:	1124      	asrs	r4, r4, #4
    65bc:	14e5      	asrs	r5, r4, #19
    65be:	0854      	lsrs	r4, r2, #1
    65c0:	3990      	subs	r1, #144	@ 0x90
    65c2:	4410      	add	r0, r2
    65c4:	a287      	add	r2, pc, #540	@ (adr r2, 0x67e4)
    65c6:	1260      	asrs	r0, r4, #9
    65c8:	f8e3 2470 	str??.w	r2, [r3, #1136]	@ 0x470
    65cc:	1246      	asrs	r6, r0, #9
    65ce:	5d70      	ldrb	r0, [r6, r5]
    65d0:	8541      	strh	r1, [r0, #42]	@ 0x2a
    65d2:	9900      	ldr	r1, [sp, #0]
    65d4:	40de      	lsrs	r6, r3
    65d6:	2874      	cmp	r0, #116	@ 0x74
    65d8:	0f0a      	lsrs	r2, r1, #28
    65da:	4d21      	ldr	r5, [pc, #132]	@ (0x6660)
    65dc:	470f      	bx	r1
    65de:	2462      	movs	r4, #98	@ 0x62
    65e0:	5d11      	ldrb	r1, [r2, r4]
    65e2:	5415      	strb	r5, [r2, r0]
    65e4:	9008      	str	r0, [sp, #32]
    65e6:	0b99      	lsrs	r1, r3, #14
    65e8:	8744      	strh	r4, [r0, #58]	@ 0x3a
    65ea:	20a2      	movs	r0, #162	@ 0xa2
    65ec:	d311      	bcc.n	0x6612
    65ee:	70e8      	strb	r0, [r5, #3]
    65f0:	4624      	mov	r4, r4
    65f2:	9012      	str	r0, [sp, #72]	@ 0x48
    65f4:	414f      	adcs	r7, r1
    65f6:	0085      	lsls	r5, r0, #2
    65f8:	9499      	str	r4, [sp, #612]	@ 0x264
    65fa:	7440      	strb	r0, [r0, #17]
    65fc:	0a28      	lsrs	r0, r5, #8
    65fe:	2114      	movs	r1, #20
    6600:	0e8b      	lsrs	r3, r1, #26
    6602:	6247      	str	r7, [r0, #36]	@ 0x24
    6604:	1124      	asrs	r4, r4, #4
    6606:	150f      	asrs	r7, r1, #20
    6608:	0854      	lsrs	r4, r2, #1
    660a:	0980      	lsrs	r0, r0, #6
    660c:	7447      	strb	r7, [r0, #17]
    660e:	0a28      	lsrs	r0, r5, #8
    6610:	211d      	movs	r1, #29
    6612:	0f78      	lsrs	r0, r7, #29
    6614:	6247      	str	r7, [r0, #36]	@ 0x24
    6616:	1124      	asrs	r4, r4, #4
    6618:	15d3      	asrs	r3, r2, #23
    661a:	0854      	lsrs	r4, r2, #1
    661c:	c980      	ldmia	r1!, {r7}
    661e:	ed24 1a87 	vstmdb	r4!, {s2-s136}
    6622:	0a0d      	lsrs	r5, r1, #8
    6624:	2101      	movs	r1, #1
    6626:	da58      	bge.n	0x66da
    6628:	a5ee      	add	r5, pc, #952	@ (adr r5, 0x69e4)
    662a:	1000      	asrs	r0, r0, #32
    662c:	a513      	add	r5, pc, #76	@ (adr r5, 0x667c)
    662e:	541d      	strb	r5, [r3, r0]
    6630:	a008      	add	r0, pc, #32	@ (adr r0, 0x6654)
    6632:	1010      	asrs	r0, r2, #32
    6634:	a3c3      	add	r3, pc, #780	@ (adr r3, 0x6944)
    6636:	898d      	ldrh	r5, [r1, #12]
    6638:	e6c1      	b.n	0x63be
    663a:	06da      	lsls	r2, r3, #27
    663c:	e6cb      	b.n	0x63d6
    663e:	d31a      	bcc.n	0x6676
    6640:	1da5      	adds	r5, r4, #6
    6642:	0854      	lsrs	r4, r2, #1
    6644:	1460      	asrs	r0, r4, #17
    6646:	99ef      	ldr	r1, [sp, #956]	@ 0x3bc
    6648:	2399      	movs	r3, #153	@ 0x99
    664a:	4ed2      	ldr	r6, [pc, #840]	@ (0x6994)
    664c:	5068      	str	r0, [r5, r1]
    664e:	ed23 1a87 	vstmdb	r3!, {s2-s136}
    6652:	2109      	movs	r1, #9
    6654:	db01      	blt.n	0x665a
    6656:	13ee      	asrs	r6, r5, #15
    6658:	b423      	push	{r0, r1, r5}
    665a:	00ad      	lsls	r5, r5, #2
    665c:	9ef0      	ldr	r6, [sp, #960]	@ 0x3c0
    665e:	020a      	lsls	r2, r1, #8
    6660:	adef      	add	r5, sp, #956	@ 0x3bc
    6662:	1000      	asrs	r0, r0, #32
    6664:	a0c3      	add	r0, pc, #780	@ (adr r0, 0x6974)
    6666:	b99d      	cbnz	r5, 0x6690
    6668:	d21f      	bcs.n	0x66aa
    666a:	784f      	ldrb	r7, [r1, #1]
    666c:	1f10      	subs	r0, r2, #4
    666e:	7ed2      	ldrb	r2, [r2, #27]
    6670:	31f8      	adds	r1, #248	@ 0xf8
    6672:	f412 a007 	beq.w	0xfff58684
    6676:	1000      	asrs	r0, r0, #32
    6678:	a323      	add	r3, pc, #140	@ (adr r3, 0x6708)
    667a:	80ad      	strh	r5, [r5, #4]
    667c:	def0      	udf	#240	@ 0xf0
    667e:	000a      	movs	r2, r1
    6680:	99ef      	ldr	r1, [sp, #956]	@ 0x3bc
    6682:	1c59      	adds	r1, r3, #1
    6684:	030a      	lsls	r2, r1, #12
    6686:	015a      	lsls	r2, r3, #5
    6688:	b421      	push	{r0, r5}
    668a:	99da      	ldr	r1, [sp, #872]	@ 0x368
    668c:	21b2      	movs	r1, #178	@ 0xb2
    668e:	84fd      	strh	r5, [r7, #38]	@ 0x26
    6690:	a803      	add	r0, sp, #12
    6692:	ed21 0285 	sfm	f0, 4, [r1, #-532]!	@ 0xfffffdec
    6696:	ec1b 012c 	ldfs	f0, [fp], {44}	@ 0x2c
    669a:	6d6d      	ldr	r5, [r5, #84]	@ 0x54
    669c:	6f41      	ldr	r1, [r0, #116]	@ 0x74
    669e:	2101      	movs	r1, #1
    66a0:	0fa7      	lsrs	r7, r4, #30
    66a2:	8499      	strh	r1, [r3, #36]	@ 0x24
    66a4:	fd21 0b85 	stc2	11, cr0, [r1, #-532]!	@ 0xfffffdec	@ <UNPREDICTABLE>
    66a8:	c17a      	stmia	r1!, {r1, r3, r4, r5, r6}
    66aa:	12ce      	asrs	r6, r1, #11
    66ac:	d6d0      	bvs.n	0x6650
    66ae:	f416 1016 	ands.w	r0, r6, #2457600	@ 0x258000
    66b2:	fe73 f990 	mrc2	9, 3, pc, cr3, cr0, {4}	@ <UNPREDICTABLE>
    66b6:	d215      	bcs.n	0x66e4
    66b8:	384f      	subs	r0, #79	@ 0x4f
    66ba:	1550      	asrs	r0, r2, #21
    66bc:	5ed2      	ldrsh	r2, [r2, r3]
    66be:	b028      	add	sp, #160	@ 0xa0
    66c0:	cec1      	ldmia	r6, {r0, r6, r7}
    66c2:	d012      	beq.n	0x66ea
    66c4:	16d6      	asrs	r6, r2, #27
    66c6:	26f4      	movs	r6, #244	@ 0xf4
    66c8:	5310      	strh	r0, [r2, r4]
    66ca:	90fa      	str	r0, [sp, #1000]	@ 0x3e8
    66cc:	1319      	asrs	r1, r3, #12
    66ce:	5fd2      	ldrsh	r2, [r2, r7]
    66d0:	70b8      	strb	r0, [r7, #2]
    66d2:	ec12 012c 	ldfs	f0, [r2], {44}	@ 0x2c
    66d6:	6d6d      	ldr	r5, [r5, #84]	@ 0x54
    66d8:	6f41      	ldr	r1, [r0, #116]	@ 0x74
    66da:	2102      	movs	r1, #2
    66dc:	0fe5      	lsrs	r5, r4, #31
    66de:	0c99      	lsrs	r1, r3, #18
    66e0:	0461      	lsls	r1, r4, #17
    66e2:	078d      	lsls	r5, r1, #30
    66e4:	4109      	asrs	r1, r1
    66e6:	006b      	lsls	r3, r5, #1
    66e8:	13ee      	asrs	r6, r5, #15
    66ea:	06c4      	lsls	r4, r0, #27
    66ec:	fd20 0284 	stc2	2, cr0, [r0, #-528]!	@ 0xfffffdf0
    66f0:	30ea      	adds	r0, #234	@ 0xea
    66f2:	c8fd      	ldmia	r0, {r0, r2, r3, r4, r5, r6, r7}
    66f4:	0005      	movs	r5, r0
    66f6:	10de      	asrs	r6, r3, #3
    66f8:	2884      	cmp	r0, #132	@ 0x84
    66fa:	8ec0      	ldrh	r0, [r0, #54]	@ 0x36
    66fc:	d03e      	beq.n	0x677c
    66fe:	c676      	stmia	r6!, {r1, r2, r4, r5, r6}
    6700:	388e      	subs	r0, #142	@ 0x8e
    6702:	96d1      	str	r6, [sp, #836]	@ 0x344
    6704:	00a6      	lsls	r6, r4, #2
    6706:	9ef0      	ldr	r6, [sp, #960]	@ 0x3c0
    6708:	b899      			@ <UNDEFINED> instruction: 0xb899
    670a:	f410 9006 	b.w	0xff01671a
    670e:	0ad9      	lsrs	r1, r3, #11
    6710:	6f41      	ldr	r1, [r0, #116]	@ 0x74
    6712:	9900      	ldr	r1, [sp, #0]
    6714:	a0a2      	add	r0, pc, #648	@ (adr r0, 0x69a0)
    6716:	7000      	strb	r0, [r0, #0]
    6718:	4634      	mov	r4, r6
    671a:	b8d0      			@ <UNDEFINED> instruction: 0xb8d0
    671c:	21a0      	movs	r1, #160	@ 0xa0
    671e:	6bed      	ldr	r5, [r5, #60]	@ 0x3c
    6720:	2701      	movs	r7, #1
    6722:	010a      	lsls	r2, r1, #4
    6724:	1347      	asrs	r7, r0, #13
    6726:	06b4      	lsls	r4, r6, #26
    6728:	6980      	ldr	r0, [r0, #24]
    672a:	ed21 016c 	stfs	f0, [r1, #-432]!	@ 0xfffffe50
    672e:	0a0d      	lsrs	r5, r1, #8
    6730:	4701      	bx	r0
    6732:	c413      	stmia	r4!, {r0, r1, r4}
    6734:	6006      	str	r6, [r0, #0]
    6736:	8d34      	ldrh	r4, [r6, #40]	@ 0x28
    6738:	5901      	ldr	r1, [r0, r4]
    673a:	8cd2      	ldrh	r2, [r2, #38]	@ 0x26
    673c:	0008      	movs	r0, r1
    673e:	b311      	cbz	r1, 0x6786
    6740:	1d94      	adds	r4, r2, #6
    6742:	0884      	lsrs	r4, r0, #2
    6744:	9980      	ldr	r1, [sp, #512]	@ 0x200
    6746:	8043      	strh	r3, [r0, #2]
    6748:	145c      	asrs	r4, r3, #17
    674a:	359c      	adds	r5, #156	@ 0x9c
    674c:	0942      	lsrs	r2, r0, #5
    674e:	c047      	stmia	r0!, {r0, r1, r2, r6}
    6750:	0559      	lsls	r1, r3, #21
    6752:	85c8      	strh	r0, [r1, #46]	@ 0x2e
    6754:	1139      	asrs	r1, r7, #4
    6756:	01e3      	lsls	r3, r4, #7
    6758:	f0a1 8ed0 	bcs.w	0xa84fc
    675c:	f05c c08e 	blx	0xc6287c
    6760:	6d00      	ldr	r0, [r0, #80]	@ 0x50
    6762:	0a70      	lsrs	r0, r6, #9
    6764:	ef00 c319 	vcge.s8	d12, d0, d9
    6768:	10e6      	asrs	r6, r4, #3
    676a:	ebb3 4ef0 	subs.w	lr, r3, r0, ror #19
    676e:	e466      	b.n	0x603e
    6770:	df55      	svc	85	@ 0x55
    6772:	f107 7fdf 	add.w	pc, r7, #29229056	@ 0x1be0000
    6776:	4604      	mov	r4, r0
    6778:	18d0      	adds	r0, r2, r3
    677a:	1090      	asrs	r0, r2, #2
    677c:	1654      	asrs	r4, r2, #25
    677e:	3ee0      	subs	r6, #224	@ 0xe0
    6780:	6541      	str	r1, [r0, #84]	@ 0x54
    6782:	df00      	svc	0
    6784:	f101 7fdf 	add.w	pc, r1, #29229056	@ 0x1be0000
    6788:	4604      	mov	r4, r0
    678a:	20c0      	movs	r0, #192	@ 0xc0
    678c:	bd80      	pop	{r7, pc}
    678e:	0461      	lsls	r1, r4, #17
    6790:	050c      	lsls	r4, r1, #20
    6792:	f222 0460 			@ <UNDEFINED> instruction: 0xf2220460
    6796:	10a2      	asrs	r2, r4, #2
    6798:	d450      	bmi.n	0x683c
    679a:	3eea      	subs	r6, #234	@ 0xea
    679c:	ad41      	add	r5, sp, #260	@ 0x104
    679e:	0a00      	lsrs	r0, r0, #8
    67a0:	ef14 1df1 	vmla.f16	<illegal reg q0.5>, q10, <illegal reg q8.5>
    67a4:	df10      	svc	16
    67a6:	047f      	lsls	r7, r7, #17
    67a8:	6344      	str	r4, [r0, #52]	@ 0x34
    67aa:	3056      	adds	r0, #86	@ 0x56
    67ac:	a842      	add	r0, sp, #264	@ 0x108
    67ae:	464e      	mov	r6, r9
    67b0:	3450      	adds	r4, #80	@ 0x50
    67b2:	ed26 0384 	stc	3, cr0, [r6, #-528]!	@ 0xfffffdf0
    67b6:	d209      	bcs.n	0x67cc
    67b8:	a85e      	add	r0, sp, #376	@ 0x178
    67ba:	2090      	movs	r0, #144	@ 0x90
    67bc:	84ed      	strh	r5, [r5, #38]	@ 0x26
    67be:	2906      	cmp	r1, #6
    67c0:	926c      	str	r2, [sp, #432]	@ 0x1b0
    67c2:	00cc      	lsls	r4, r1, #3
    67c4:	2200      	movs	r2, #0
    67c6:	2092      	movs	r0, #146	@ 0x92
    67c8:	63cd      	str	r5, [r1, #60]	@ 0x3c
    67ca:	1101      	asrs	r1, r0, #4
    67cc:	020a      	lsls	r2, r1, #8
    67ce:	adef      	add	r5, sp, #956	@ 0x3bc
    67d0:	1000      	asrs	r0, r0, #32
    67d2:	89e3      	ldrh	r3, [r4, #14]
    67d4:	4efd      	ldr	r6, [pc, #1012]	@ (0x6bcc)
    67d6:	01df      	lsls	r7, r3, #7
    67d8:	dff1      	svc	241	@ 0xf1
    67da:	047f      	lsls	r7, r7, #17
    67dc:	d046      	beq.n	0x686c
    67de:	f018 9410 	b.w	0xc1f002
    67e2:	1018      	asrs	r0, r3, #32
    67e4:	07b4      	lsls	r4, r6, #30
    67e6:	6ee0      	ldr	r0, [r4, #108]	@ 0x6c
    67e8:	8941      	ldrh	r1, [r0, #10]
    67ea:	4100      	asrs	r0, r0
    67ec:	017b      	lsls	r3, r7, #5
    67ee:	160a      	asrs	r2, r1, #24
    67f0:	f1ef df4e 	bl	0x9f6690
    67f4:	f101 7fdf 	add.w	pc, r1, #29229056	@ 0x1be0000
    67f8:	4604      	mov	r4, r0
    67fa:	40c0      	lsrs	r0, r0
    67fc:	2226      	movs	r2, #38	@ 0x26
    67fe:	460a      	mov	r2, r1
    6800:	a450      	add	r4, pc, #320	@ (adr r4, 0x6944)
    6802:	3ee8      	subs	r6, #232	@ 0xe8
    6804:	8a41      	ldrh	r1, [r0, #18]
    6806:	0aff      	lsrs	r7, r7, #11
    6808:	ef21 1df1 	vmls.f32	<illegal reg q0.5>, <illegal reg q8.5>, <illegal reg q8.5>
    680c:	df10      	svc	16
    680e:	047f      	lsls	r7, r7, #17
    6810:	c046      	stmia	r0!, {r1, r2, r6}
    6812:	d028      	beq.n	0x6866
    6814:	0460      	lsls	r0, r4, #17
    6816:	048c      	lsls	r4, r1, #18
    6818:	980d      	ldr	r0, [sp, #52]	@ 0x34
    681a:	4112      	asrs	r2, r2
    681c:	018b      	lsls	r3, r1, #6
    681e:	17fe      	asrs	r6, r7, #31
    6820:	28b4      	cmp	r0, #180	@ 0xb4
    6822:	3ee0      	subs	r6, #224	@ 0xe0
    6824:	8b41      	ldrh	r1, [r0, #26]
    6826:	0a00      	lsrs	r0, r0, #8
    6828:	ef0e 1df1 	vmla.f32	<illegal reg q0.5>, q15, <illegal reg q8.5>
    682c:	df10      	svc	16
    682e:	047f      	lsls	r7, r7, #17
    6830:	d046      	beq.n	0x68c0
    6832:	a008      	add	r0, pc, #32	@ (adr r0, 0x6854)
    6834:	b310      	cbz	r0, 0x687c
    6836:	80f5      	strh	r5, [r6, #6]
    6838:	6279      	str	r1, [r7, #36]	@ 0x24
    683a:	0c04      	lsrs	r4, r0, #16
    683c:	2208      	movs	r2, #8
    683e:	10f2      	asrs	r2, r6, #3
    6840:	8644      	strh	r4, [r0, #50]	@ 0x32
    6842:	c410      	stmia	r4!, {r4}
    6844:	e018      	b.n	0x6878
    6846:	416e      	adcs	r6, r5
    6848:	0b64      	lsrs	r4, r4, #13
    684a:	8c41      	ldrh	r1, [r0, #34]	@ 0x22
    684c:	4402      	add	r2, r0
    684e:	5464      	strb	r4, [r4, r1]
    6850:	238d      	movs	r3, #141	@ 0x8d
    6852:	8c84      	ldrh	r4, [r0, #36]	@ 0x24
    6854:	4440      	add	r0, r8
    6856:	d456      	bmi.n	0x6906
    6858:	10a8      	asrs	r0, r5, #2
    685a:	1ef1      	subs	r1, r6, #3
    685c:	01df      	lsls	r7, r3, #7
    685e:	dff1      	svc	241	@ 0xf1
    6860:	047f      	lsls	r7, r7, #17
    6862:	d046      	beq.n	0x68f2
    6864:	a008      	add	r0, pc, #32	@ (adr r0, 0x6888)
    6866:	9310      	str	r3, [sp, #64]	@ 0x40
    6868:	80f2      	strh	r2, [r6, #6]
    686a:	24a9      	movs	r4, #169	@ 0xa9
    686c:	64ed      	str	r5, [r5, #76]	@ 0x4c
    686e:	2100      	movs	r1, #0
    6870:	c046      	stmia	r0!, {r1, r2, r6}
    6872:	20b0      	movs	r0, #176	@ 0xb0
    6874:	0b22      	lsrs	r2, r4, #12
    6876:	5046      	str	r6, [r0, r1]
    6878:	88d4      	ldrh	r4, [r2, #6]
    687a:	12a9      	asrs	r1, r5, #10
    687c:	b8d4      			@ <UNDEFINED> instruction: 0xb8d4
    687e:	0980      	lsrs	r0, r0, #6
    6880:	4442      	add	r2, r8
    6882:	0566      	lsls	r6, r4, #21
    6884:	8423      	strh	r3, [r4, #32]
    6886:	60ad      	str	r5, [r5, #8]
    6888:	4504      	cmp	r4, r0
    688a:	ee8d 4444 	cdp	4, 8, cr4, cr13, cr4, {2}
    688e:	d456      	bmi.n	0x693e
    6890:	9448      	str	r4, [sp, #288]	@ 0x120
    6892:	d54b      	bpl.n	0x692c
    6894:	4238      	tst	r0, r7
    6896:	54a8      	strb	r0, [r5, r2]
    6898:	9cd2      	ldr	r4, [sp, #840]	@ 0x348
    689a:	b00b      	add	sp, #44	@ 0x2c
    689c:	0314      	lsls	r4, r2, #12
    689e:	d0f0      	beq.n	0x6882
    68a0:	f018 ed33 	bfcsel	0, 0x730a, 2, vs
    68a4:	05c8      	lsls	r0, r1, #23
    68a6:	1103      	asrs	r3, r0, #4
    68a8:	c804      	ldmia	r0!, {r2}
    68aa:	c055      	stmia	r0!, {r0, r2, r4, r6}
    68ac:	5159      	str	r1, [r3, r5]
    68ae:	25c8      	movs	r5, #200	@ 0xc8
    68b0:	ed30 059c 	cfldr32	mvfx0, [r0, #-624]!	@ 0xfffffd90
    68b4:	1803      	adds	r3, r0, r0
    68b6:	8ed3      	ldrh	r3, [r2, #54]	@ 0x36
    68b8:	205c      	movs	r0, #92	@ 0x5c
    68ba:	c0d0      	stmia	r0!, {r4, r6, r7}
    68bc:	bb8e      	cbnz	r6, 0x6922
    68be:	06d0      	lsls	r0, r2, #27
    68c0:	4ef7      	ldr	r6, [pc, #988]	@ (0x6ca0)
    68c2:	8d44      	ldrh	r4, [r0, #42]	@ 0x2a
    68c4:	b945      	cbnz	r5, 0x68d8
    68c6:	0f0a      	lsrs	r2, r1, #28
    68c8:	f1ef 101d 			@ <UNDEFINED> instruction: 0xf1ef101d
    68cc:	7fdf      	ldrb	r7, [r3, #31]
    68ce:	4604      	mov	r4, r0
    68d0:	08d0      	lsrs	r0, r2, #3
    68d2:	10a0      	asrs	r0, r4, #2
    68d4:	ebc3 a980 			@ <UNDEFINED> instruction: 0xebc3a980
    68d8:	ed24 0064 	stc	0, cr0, [r4, #-400]!	@ 0xfffffe70
    68dc:	4621      	mov	r1, r4
    68de:	b0c0      	sub	sp, #256	@ 0x100
    68e0:	2220      	movs	r2, #32
    68e2:	460b      	mov	r3, r1
    68e4:	e450      	b.n	0x6188
    68e6:	a988      	add	r1, sp, #544	@ 0x220
    68e8:	e412      	b.n	0x6110
    68ea:	80b8      	strh	r0, [r7, #4]
    68ec:	4209      	tst	r1, r1
    68ee:	6644      	str	r4, [r0, #100]	@ 0x64
    68f0:	2305      	movs	r3, #5
    68f2:	ad84      	add	r5, sp, #528	@ 0x210
    68f4:	0460      	lsls	r0, r4, #17
    68f6:	8e45      	ldrh	r5, [r0, #50]	@ 0x32
    68f8:	44ee      	add	lr, sp
    68fa:	5644      	ldrsb	r4, [r0, r1]
    68fc:	a8e4      	add	r0, sp, #912	@ 0x390
    68fe:	f130 df1e 	bl	0x93773e
    6902:	f101 7fdf 	add.w	pc, r1, #29229056	@ 0x1be0000
    6906:	4604      	mov	r4, r0
    6908:	d0c0      	beq.n	0x688c
    690a:	a889      	add	r0, sp, #548	@ 0x224
    690c:	f410 89d8 	beq.w	0xfff96cc0
    6910:	61b9      	str	r1, [r7, #24]
    6912:	0c04      	lsrs	r4, r0, #16
    6914:	f863 4109 	str??.w	r4, [r3, <undefined>]
    6918:	638f      	str	r7, [r1, #56]	@ 0x38
    691a:	63fe      	str	r6, [r7, #60]	@ 0x3c
    691c:	4504      	cmp	r4, r0
    691e:	0a8f      	lsrs	r7, r1, #10
    6920:	ef10 1df1 	vmla.f16	<illegal reg q0.5>, q8, <illegal reg q8.5>
    6924:	df10      	svc	16
    6926:	057e      	lsls	r6, r7, #21
    6928:	6147      	str	r7, [r0, #20]
    692a:	4514      	cmp	r4, r2
    692c:	467d      	mov	r5, pc
    692e:	e450      	b.n	0x61d2
    6930:	20a7      	movs	r0, #167	@ 0xa7
    6932:	1ef1      	subs	r1, r6, #3
    6934:	02df      	lsls	r7, r3, #11
    6936:	dff1      	svc	241	@ 0xf1
    6938:	047f      	lsls	r7, r7, #17
    693a:	c046      	stmia	r0!, {r1, r2, r6}
    693c:	8040      	strh	r0, [r0, #2]
    693e:	60ac      	str	r4, [r5, #8]
    6940:	4504      	cmp	r4, r0
    6942:	ee90 0413 	mrc	4, 4, r0, cr0, cr3, {0}
    6946:	aff9      	add	r7, sp, #996	@ 0x3e4
    6948:	f170 df1e 	bl	0x977788
    694c:	f101 7fdf 	add.w	pc, r1, #29229056	@ 0x1be0000
    6950:	4604      	mov	r4, r0
    6952:	30c0      	adds	r0, #192	@ 0xc0
    6954:	ac80      	add	r4, sp, #512	@ 0x200
    6956:	0460      	lsls	r0, r4, #17
    6958:	9145      	str	r1, [sp, #276]	@ 0x114
    695a:	13ee      	asrs	r6, r5, #15
    695c:	0914      	lsrs	r4, r2, #4
    695e:	c0a0      	stmia	r0!, {r5, r7}
    6960:	1ef1      	subs	r1, r6, #3
    6962:	01df      	lsls	r7, r3, #7
    6964:	dff1      	svc	241	@ 0xf1
    6966:	047d      	lsls	r5, r7, #17
    6968:	e14f      	b.n	0x6c0a
    696a:	6d16      	ldr	r6, [r2, #80]	@ 0x50
    696c:	4692      	mov	sl, r2
    696e:	4050      	eors	r0, r2
    6970:	d25a      	bcs.n	0x6a28
    6972:	384e      	subs	r0, #78	@ 0x4e
    6974:	2090      	movs	r0, #144	@ 0x90
    6976:	85ed      	strh	r5, [r5, #46]	@ 0x2e
    6978:	090a      	lsrs	r2, r1, #4
    697a:	4ed2      	ldr	r6, [pc, #840]	@ (0x6cc4)
    697c:	c068      	stmia	r0!, {r3, r5, r6}
    697e:	26c2      	movs	r6, #194	@ 0xc2
    6980:	0cc9      	lsrs	r1, r1, #19
    6982:	2000      	movs	r0, #0
    6984:	0922      	lsrs	r2, r4, #4
    6986:	3cd2      	subs	r4, #210	@ 0xd2
    6988:	4016      	ands	r6, r2
    698a:	20a1      	movs	r0, #161	@ 0xa1
    698c:	def0      	udf	#240	@ 0xf0
    698e:	000a      	movs	r2, r1
    6990:	e021      	b.n	0x69d6
    6992:	efd6 20a4 	vaddl.s16	q9, d22, d20
    6996:	1ef2      	subs	r2, r6, #3
    6998:	03df      	lsls	r7, r3, #15
    699a:	6ef1      	ldr	r1, [r6, #108]	@ 0x6c
    699c:	46d3      	mov	fp, sl
    699e:	56e9      	ldrsb	r1, [r5, r3]
    69a0:	966d      	str	r6, [sp, #436]	@ 0x1b4
    69a2:	230a      	movs	r3, #10
    69a4:	01ef      	lsls	r7, r5, #7
    69a6:	6ef1      	ldr	r1, [r6, #108]	@ 0x6c
    69a8:	86d3      	strh	r3, [r2, #54]	@ 0x36
    69aa:	56e9      	ldrsb	r1, [r5, r3]
    69ac:	9a6d      	ldr	r2, [sp, #436]	@ 0x1b4
    69ae:	240a      	movs	r4, #10
    69b0:	01ef      	lsls	r7, r5, #7
    69b2:	dff1      	svc	241	@ 0xf1
    69b4:	04fc      	lsls	r4, r7, #19
    69b6:	e26f      	b.n	0x6e98
    69b8:	6d26      	ldr	r6, [r4, #80]	@ 0x50
    69ba:	6e9c      	ldr	r4, [r3, #104]	@ 0x68
    69bc:	e6d0      	b.n	0x6760
    69be:	76e9      	strb	r1, [r5, #27]
    69c0:	a06d      	add	r0, pc, #436	@ (adr r0, 0x6b78)
    69c2:	180a      	adds	r2, r1, r0
    69c4:	f1ef 104d 			@ <UNDEFINED> instruction: 0xf1ef104d
    69c8:	d36e      	bcc.n	0x6aa8
    69ca:	ea26 6d56 	bic.w	sp, r6, r6, lsr #25
    69ce:	0aa4      	lsrs	r4, r4, #10
    69d0:	ef19 f101 	vrhadd.s16	d15, d9, d1
    69d4:	fedf 6e06 	cdp2	14, 13, cr6, cr15, cr6, {0}
    69d8:	66d0      	str	r0, [r2, #108]	@ 0x6c
    69da:	a0aa      	add	r0, pc, #680	@ (adr r0, 0x6c84)
    69dc:	1ef1      	subs	r1, r6, #3
    69de:	02df      	lsls	r7, r3, #11
    69e0:	dff1      	svc	241	@ 0xf1
    69e2:	06fe      	lsls	r6, r7, #27
    69e4:	d06e      	beq.n	0x6ac4
    69e6:	aa86      	add	r2, sp, #536	@ 0x218
    69e8:	f1b0 df1e 	bl	0x9b7828
    69ec:	f102 7edf 	add.w	lr, r2, #29229056	@ 0x1be0000
    69f0:	4705      	bx	r0
    69f2:	1461      	asrs	r1, r4, #17
    69f4:	008d      	lsls	r5, r1, #2
    69f6:	410a      	asrs	r2, r1
    69f8:	00b5      	lsls	r5, r6, #2
    69fa:	3798      	adds	r7, #152	@ 0x98
    69fc:	d046      	beq.n	0x6a8c
    69fe:	0458      	lsls	r0, r3, #17
    6a00:	5411      	strb	r1, [r2, r0]
    6a02:	101b      	asrs	r3, r3, #32
    6a04:	5b64      	ldrh	r4, [r4, r5]
    6a06:	e984 0461 			@ <UNDEFINED> instruction: 0xe9840461
    6a0a:	578d      	ldrsb	r5, [r1, r6]
    6a0c:	410f      	asrs	r7, r1
    6a0e:	02b5      	lsls	r5, r6, #10
    6a10:	b641      			@ <UNDEFINED> instruction: 0xb641
    6a12:	ee57 5413 	mrc	4, 2, r5, cr7, cr3, {0}
    6a16:	600b      	str	r3, [r1, #0]
    6a18:	0c54      	lsrs	r4, r2, #17
    6a1a:	2263      	movs	r2, #99	@ 0x63
    6a1c:	60a2      	str	r2, [r4, #8]
    6a1e:	4554      	cmp	r4, sl
    6a20:	eeb7 7413 	mrc	4, 5, r7, cr7, cr3, {0}
    6a24:	600b      	str	r3, [r1, #0]
    6a26:	0c64      	lsrs	r4, r4, #17
    6a28:	2209      	movs	r2, #9
    6a2a:	60a2      	str	r2, [r4, #8]
    6a2c:	4564      	cmp	r4, ip
    6a2e:	eeb8 8413 	mrc	4, 5, r8, cr8, cr3, {0}
    6a32:	a00b      	add	r0, pc, #44	@ (adr r0, 0x6a60)
    6a34:	f0b0 df1e 	bl	0x8b7874
    6a38:	f102 f6cf 	bl	0x5097da
    6a3c:	f87f 5724 	ldr??.w	r5, [pc, #-1828]	@ 0x631c
    6a40:	1470      	asrs	r0, r6, #17
    6a42:	c146      	stmia	r1!, {r1, r2, r6}
    6a44:	8630      	strh	r0, [r6, #48]	@ 0x30
    6a46:	109d      	asrs	r5, r3, #2
    6a48:	3b24      	subs	r3, #36	@ 0x24
    6a4a:	3fe6      	subs	r7, #230	@ 0xe6
    6a4c:	5146      	str	r6, [r0, r5]
    6a4e:	6b24      	ldr	r4, [r4, #48]	@ 0x30
    6a50:	0c04      	lsrs	r4, r0, #16
    6a52:	2200      	movs	r2, #0
    6a54:	1092      	asrs	r2, r2, #2
    6a56:	0b34      	lsrs	r4, r6, #12
    6a58:	3fe0      	subs	r7, #224	@ 0xe0
    6a5a:	5046      	str	r6, [r0, r1]
    6a5c:	4b34      	ldr	r3, [pc, #208]	@ (0x6b30)
    6a5e:	ab24      	add	r3, sp, #144	@ 0x90
    6a60:	20a5      	movs	r0, #165	@ 0xa5
    6a62:	6fef      	ldr	r7, [r5, #124]	@ 0x7c
    6a64:	3444      	adds	r4, #68	@ 0x44
    6a66:	a5ab      	add	r5, pc, #684	@ (adr r5, 0x6d14)
    6a68:	ef20 e66f 	vmax.s32	q7, q0, <illegal reg q15.5>
    6a6c:	7e66      	ldrb	r6, [r4, #25]
    6a6e:	6822      	ldr	r2, [r4, #0]
    6a70:	b322      	cbz	r2, 0x6abc
    6a72:	66e0      	str	r0, [r4, #108]	@ 0x6c
    6a74:	ae6d      	add	r6, sp, #436	@ 0x1b4
    6a76:	3698      	adds	r6, #152	@ 0x98
    6a78:	e46e      	b.n	0x6358
    6a7a:	8227      	strh	r7, [r4, #16]
    6a7c:	bc86      	pop	{r1, r2, r7}
    6a7e:	46e0      	mov	r8, ip
    6a80:	ae6d      	add	r6, sp, #436	@ 0x1b4
    6a82:	1e98      	subs	r0, r3, #2
    6a84:	226e      	movs	r2, #110	@ 0x6e
    6a86:	e034      	b.n	0x6af2
    6a88:	200a      	movs	r0, #10
    6a8a:	0407      	lsls	r7, r0, #16
    6a8c:	0ad0      	lsrs	r0, r2, #11
    6a8e:	0720      	lsls	r0, r4, #28
    6a90:	6d01      	ldr	r1, [r0, #80]	@ 0x50
    6a92:	6cae      	ldr	r6, [r5, #72]	@ 0x48
    6a94:	6dae      	ldr	r6, [r5, #88]	@ 0x58
    6a96:	46b0      	mov	r8, r6
    6a98:	445d      	add	r5, fp
    6a9a:	50ab      	str	r3, [r5, r2]
    6a9c:	1ef1      	subs	r1, r6, #3
    6a9e:	f87e 00ac 	ldr??.w	r0, [lr, ip, lsl #2]
    6aa2:	dff1      	svc	241	@ 0xf1
    6aa4:	047d      	lsls	r5, r7, #17
    6aa6:	1046      	asrs	r6, r0, #1
    6aa8:	9b03      	ldr	r3, [sp, #12]
    6aaa:	1470      	asrs	r0, r6, #17
    6aac:	1146      	asrs	r6, r0, #5
    6aae:	a573      	add	r5, pc, #460	@ (adr r5, 0x6c7c)
    6ab0:	2470      	movs	r4, #112	@ 0x70
    6ab2:	4146      	adcs	r6, r0
    6ab4:	59d1      	ldr	r1, [r2, r7]
    6ab6:	8423      	strh	r3, [r4, #32]
    6ab8:	622a      	str	r2, [r5, #32]
    6aba:	0514      	lsls	r4, r2, #20
    6abc:	a59d      	add	r5, pc, #628	@ (adr r5, 0x6d34)
    6abe:	2100      	movs	r1, #0
    6ac0:	ce80      	ldmia	r6!, {r7}
    6ac2:	8ef2      	ldrh	r2, [r6, #54]	@ 0x36
    6ac4:	aeef      	add	r6, sp, #956	@ 0x3bc
    6ac6:	f070 ef1e 	blx	0x77904
    6aca:	3df4      	subs	r5, #244	@ 0xf4
    6acc:	df10      	svc	16
    6ace:	047e      	lsls	r6, r7, #17
    6ad0:	1046      	asrs	r6, r0, #1
    6ad2:	70fc      	strb	r4, [r7, #3]
    6ad4:	4614      	mov	r4, r2
    6ad6:	e141      	b.n	0x6d5c
    6ad8:	2359      	movs	r3, #89	@ 0x59
    6ada:	ea84 1461 	eor.w	r4, r4, r1, asr #5
    6ade:	9e05      	ldr	r6, [sp, #20]
    6ae0:	10a5      	asrs	r5, r4, #2
    6ae2:	8021      	strh	r1, [r4, #0]
    6ae4:	f1ce ef8e 	blx	0x1d5a04
    6ae8:	b31e      	cbz	r6, 0x6b32
    6aea:	f091 102d 	eors.w	r0, r1, #2949165	@ 0x2d002d
    6aee:	7ddf      	ldrb	r7, [r3, #23]
    6af0:	4604      	mov	r4, r0
    6af2:	7310      	strb	r0, [r2, #12]
    6af4:	7098      	strb	r0, [r3, #2]
    6af6:	4614      	mov	r4, r2
    6af8:	1311      	asrs	r1, r2, #12
    6afa:	7098      	strb	r0, [r3, #2]
    6afc:	4624      	mov	r4, r4
    6afe:	f141 2359 	adc.w	r3, r1, #1493195008	@ 0x59005900
    6b02:	fa84 1461 			@ <UNDEFINED> instruction: 0xfa841461
    6b06:	9f05      	ldr	r7, [sp, #20]
    6b08:	20a5      	movs	r0, #165	@ 0xa5
    6b0a:	8021      	strh	r1, [r4, #0]
    6b0c:	f2ce ef8e 	blx	0x2d5a2c
    6b10:	80ae      	strh	r6, [r5, #4]
    6b12:	1ef0      	subs	r0, r6, #3
    6b14:	03df      	lsls	r7, r3, #15
    6b16:	dff1      	svc	241	@ 0xf1
    6b18:	047d      	lsls	r5, r7, #17
    6b1a:	1046      	asrs	r6, r0, #1
    6b1c:	96e3      	str	r6, [sp, #908]	@ 0x38c
    6b1e:	1470      	asrs	r0, r6, #17
    6b20:	1146      	asrs	r6, r0, #5
    6b22:	9683      	str	r6, [sp, #524]	@ 0x20c
    6b24:	2470      	movs	r4, #112	@ 0x70
    6b26:	4146      	adcs	r6, r0
    6b28:	5a01      	ldrh	r1, [r0, r0]
    6b2a:	8423      	strh	r3, [r4, #32]
    6b2c:	61fa      	str	r2, [r7, #28]
    6b2e:	0514      	lsls	r4, r2, #20
    6b30:	a5a0      	add	r5, pc, #640	@ (adr r5, 0x6db4)
    6b32:	2130      	movs	r1, #48	@ 0x30
    6b34:	ce80      	ldmia	r6!, {r7}
    6b36:	8ef2      	ldrh	r2, [r6, #54]	@ 0x36
    6b38:	aeef      	add	r6, sp, #956	@ 0x3bc
    6b3a:	f090 df1e 	bl	0x89797a
    6b3e:	f103 7ddf 	add.w	sp, r3, #29229056	@ 0x1be0000
    6b42:	4604      	mov	r4, r0
    6b44:	5310      	strh	r0, [r2, r4]
    6b46:	7095      	strb	r5, [r2, #2]
    6b48:	4614      	mov	r4, r2
    6b4a:	c311      	stmia	r3!, {r0, r4}
    6b4c:	709d      	strb	r5, [r3, #2]
    6b4e:	4624      	mov	r4, r4
    6b50:	1141      	asrs	r1, r0, #5
    6b52:	235a      	movs	r3, #90	@ 0x5a
    6b54:	fa84 1461 			@ <UNDEFINED> instruction: 0xfa841461
    6b58:	a105      	add	r1, pc, #20	@ (adr r1, 0x6b70)
    6b5a:	40a5      	lsls	r5, r4
    6b5c:	8021      	strh	r1, [r4, #0]
    6b5e:	f2ce ef8e 	blx	0x2d5a7c
    6b62:	f0ae 1ef1 			@ <UNDEFINED> instruction: 0xf0ae1ef1
    6b66:	03df      	lsls	r7, r3, #15
    6b68:	04f1      	lsls	r1, r6, #19
    6b6a:	159d      	asrs	r5, r3, #22
    6b6c:	9993      	ldr	r1, [sp, #588]	@ 0x24c
    6b6e:	f100 9e04 	b.w	0x90777a
    6b72:	f105 9f04 	b.w	0x90c97e
    6b76:	3315      	adds	r3, #21
    6b78:	0090      	lsls	r0, r2, #2
    6b7a:	04f1      	lsls	r1, r6, #19
    6b7c:	15a0      	asrs	r0, r4, #22
    6b7e:	90c3      	str	r0, [sp, #780]	@ 0x30c
    6b80:	f100 a104 	bmi.w	0x46d8c
    6b84:	2315      	movs	r3, #21
    6b86:	009a      	lsls	r2, r3, #2
    6b88:	04f1      	lsls	r1, r6, #19
    6b8a:	15a2      	asrs	r2, r4, #22
    6b8c:	9ca3      	ldr	r4, [sp, #652]	@ 0x28c
    6b8e:	f100 ae04 	bmi.w	0xc779a
    6b92:	3315      	adds	r3, #21
    6b94:	009c      	lsls	r4, r3, #2
    6b96:	04f1      	lsls	r1, r6, #19
    6b98:	15a3      	asrs	r3, r4, #22
    6b9a:	9ef3      	ldr	r6, [sp, #972]	@ 0x3cc
    6b9c:	f100 7fdf 	add.w	pc, r0, #29229056	@ 0x1be0000
    6ba0:	4604      	mov	r4, r0
    6ba2:	3450      	adds	r4, #80	@ 0x50
    6ba4:	1df7      	adds	r7, r6, #7
    6ba6:	df10      	svc	16
    6ba8:	047d      	lsls	r5, r7, #17
    6baa:	1046      	asrs	r6, r0, #1
    6bac:	9073      	str	r0, [sp, #460]	@ 0x1cc
    6bae:	1470      	asrs	r0, r6, #17
    6bb0:	1146      	asrs	r6, r0, #5
    6bb2:	9a43      	ldr	r2, [sp, #268]	@ 0x10c
    6bb4:	2470      	movs	r4, #112	@ 0x70
    6bb6:	4146      	adcs	r6, r0
    6bb8:	5a21      	ldrh	r1, [r4, r0]
    6bba:	8423      	strh	r3, [r4, #32]
    6bbc:	626a      	str	r2, [r5, #36]	@ 0x24
    6bbe:	0514      	lsls	r4, r2, #20
    6bc0:	15a2      	asrs	r2, r4, #22
    6bc2:	5ae5      	ldrh	r5, [r4, r3]
    6bc4:	0aff      	lsrs	r7, r7, #11
    6bc6:	0215      	lsls	r5, r2, #8
    6bc8:	2ce8      	cmp	r4, #232	@ 0xe8
    6bca:	f8ef 0aee 	str??.w	r0, [pc, #2798]	@ 0x76ba
    6bce:	ef0c 3df1 	vmla.f32	<illegal reg q1.5>, q14, <illegal reg q8.5>
    6bd2:	df10      	svc	16
    6bd4:	047e      	lsls	r6, r7, #17
    6bd6:	1046      	asrs	r6, r0, #1
    6bd8:	8db3      	ldrh	r3, [r6, #44]	@ 0x2c
    6bda:	1470      	asrs	r0, r6, #17
    6bdc:	4146      	adcs	r6, r0
    6bde:	5ae1      	ldrh	r1, [r4, r3]
    6be0:	9423      	str	r4, [sp, #140]	@ 0x8c
    6be2:	4671      	mov	r1, lr
    6be4:	e051      	b.n	0x6c8a
    6be6:	0a5a      	lsrs	r2, r3, #9
    6be8:	ef0c 2df1 	vmla.f32	q1, q14, <illegal reg q8.5>
    6bec:	df10      	svc	16
    6bee:	047d      	lsls	r5, r7, #17
    6bf0:	1046      	asrs	r6, r0, #1
    6bf2:	8fa3      	ldrh	r3, [r4, #60]	@ 0x3c
    6bf4:	1470      	asrs	r0, r6, #17
    6bf6:	1146      	asrs	r6, r0, #5
    6bf8:	9913      	ldr	r1, [sp, #76]	@ 0x4c
    6bfa:	2470      	movs	r4, #112	@ 0x70
    6bfc:	4146      	adcs	r6, r0
    6bfe:	5a31      	ldrh	r1, [r6, r0]
    6c00:	8423      	strh	r3, [r4, #32]
    6c02:	61fa      	str	r2, [r7, #28]
    6c04:	0514      	lsls	r4, r2, #20
    6c06:	a5a3      	add	r5, pc, #652	@ (adr r5, 0x6e94)
    6c08:	2160      	movs	r1, #96	@ 0x60
    6c0a:	ce80      	ldmia	r6!, {r7}
    6c0c:	8ef2      	ldrh	r2, [r6, #54]	@ 0x36
    6c0e:	aeef      	add	r6, sp, #956	@ 0x3bc
    6c10:	f0d0 df1e 	bl	0x8d7a50
    6c14:	f103 7fdf 	add.w	pc, r3, #29229056	@ 0x1be0000
    6c18:	4604      	mov	r4, r0
    6c1a:	f450 e0a7 	bf	10, 0xffff6d6a
    6c1e:	1ef1      	subs	r1, r6, #3
    6c20:	01df      	lsls	r7, r3, #7
    6c22:	dff1      	svc	241	@ 0xf1
    6c24:	047f      	lsls	r7, r7, #17
    6c26:	5046      	str	r6, [r0, r1]
    6c28:	a814      	add	r0, sp, #80	@ 0x50
    6c2a:	f1d0 df1e 	bl	0x9d7a6a
    6c2e:	f101 7244 	add.w	r2, r1, #51380224	@ 0x3100000
    6c32:	c210      	stmia	r2!, {r4}
    6c34:	5bd6      	ldrh	r6, [r2, r7]
    6c36:	f100 bf04 	b.w	0x107a42
    6c3a:	f105 fadf 	bl	0x10c1fc
    6c3e:	5744      	ldrsb	r4, [r0, r5]
    6c40:	1470      	asrs	r0, r6, #17
    6c42:	e802 844c 			@ <UNDEFINED> instruction: 0xe802844c
    6c46:	2247      	movs	r2, #71	@ 0x47
    6c48:	ce80      	ldmia	r6!, {r7}
    6c4a:	1864      	adds	r4, r4, r1
    6c4c:	3470      	adds	r4, #112	@ 0x70
    6c4e:	246e      	movs	r4, #110	@ 0x6e
    6c50:	bd6d      	pop	{r0, r2, r3, r5, r6, pc}
    6c52:	4605      	mov	r5, r0
    6c54:	f051 465b 	orrs.w	r6, r1, #3674210304	@ 0xdb000000
    6c58:	18d0      	adds	r0, r2, r3
    6c5a:	2710      	movs	r7, #16
    6c5c:	d30c      	bcc.n	0x6c78
    6c5e:	5640      	ldrsb	r0, [r0, r1]
    6c60:	4232      	tst	r2, r6
    6c62:	56d8      	ldrsb	r0, [r3, r3]
    6c64:	30c2      	adds	r0, #194	@ 0xc2
    6c66:	640d      	str	r5, [r1, #64]	@ 0x40
    6c68:	2325      	movs	r3, #37	@ 0x25
    6c6a:	1b84      	subs	r4, r0, r6
    6c6c:	0c21      	lsrs	r1, r4, #16
    6c6e:	40d4      	lsrs	r4, r2
    6c70:	3356      	adds	r3, #86	@ 0x56
    6c72:	d842      	bhi.n	0x6cfa
    6c74:	c234      	stmia	r2!, {r2, r4, r5}
    6c76:	0d30      	lsrs	r0, r6, #20
    6c78:	2564      	movs	r5, #100	@ 0x64
    6c7a:	8423      	strh	r3, [r4, #32]
    6c7c:	22db      	movs	r2, #219	@ 0xdb
    6c7e:	d40c      	bmi.n	0x6c9a
    6c80:	5640      	ldrsb	r0, [r0, r1]
    6c82:	4233      	tst	r3, r6
    6c84:	1cb8      	adds	r0, r7, #2
    6c86:	50c2      	str	r2, [r0, r3]
    6c88:	640d      	str	r5, [r1, #64]	@ 0x40
    6c8a:	2315      	movs	r3, #21
    6c8c:	2224      	movs	r2, #36	@ 0x24
    6c8e:	410a      	asrs	r2, r1
    6c90:	0172      	lsls	r2, r6, #5
    6c92:	1498      	asrs	r0, r3, #18
    6c94:	7241      	strb	r1, [r0, #9]
    6c96:	0a02      	lsrs	r2, r0, #8
    6c98:	5a04      	ldrh	r4, [r0, r0]
    6c9a:	2103      	movs	r1, #3
    6c9c:	d4a1      	bmi.n	0x6be2
    6c9e:	f4ef 106d 			@ <UNDEFINED> instruction: 0xf4ef106d
    6ca2:	f9df 4f57 	ldr??.w	r4, [pc, #3927]	@ 0x7bfb
    6ca6:	0471      	lsls	r1, r6, #17
    6ca8:	4046      	eors	r6, r0
    6caa:	3825      	subs	r0, #37	@ 0x25
    6cac:	a942      	add	r1, sp, #264	@ 0x108
    6cae:	61ae      	str	r6, [r5, #24]
    6cb0:	4504      	cmp	r4, r0
    6cb2:	6e82      	ldr	r2, [r0, #104]	@ 0x68
    6cb4:	6d21      	ldr	r1, [r4, #80]	@ 0x50
    6cb6:	05af      	lsls	r7, r5, #22
    6cb8:	2a6e      	cmp	r2, #110	@ 0x6e
    6cba:	b16d      	cbz	r5, 0x6cd8
    6cbc:	c205      	stmia	r2!, {r0, r2}
    6cbe:	5af4      	ldrh	r4, [r6, r3]
    6cc0:	0cd0      	lsrs	r0, r2, #19
    6cc2:	8000      	strh	r0, [r0, #0]
    6cc4:	e62a      	b.n	0x691c
    6cc6:	a8fc      	add	r0, sp, #1008	@ 0x3f0
    6cc8:	ce5b      	ldmia	r6, {r0, r1, r3, r4, r6}
    6cca:	4a8f      	ldr	r2, [pc, #572]	@ (0x6f08)
    6ccc:	fce5 4da8 	vusdot.s8	d20, d21, d24
    6cd0:	8fce      	ldrh	r6, [r1, #62]	@ 0x3e
    6cd2:	e46a      	b.n	0x65aa
    6cd4:	a8fc      	add	r0, sp, #1008	@ 0x3f0
    6cd6:	ce3f      	ldmia	r6!, {r0, r1, r2, r3, r4, r5}
    6cd8:	8a8f      	ldrh	r7, [r1, #20]
    6cda:	fce3 31a8 	stc2l	1, cr3, [r3], #672	@ 0x2a0
    6cde:	8fce      	ldrh	r6, [r1, #62]	@ 0x3e
    6ce0:	e2aa      	b.n	0x7238
    6ce2:	a8fc      	add	r0, sp, #1008	@ 0x3f0
    6ce4:	ce23      	ldmia	r6!, {r0, r1, r5}
    6ce6:	1a8f      	subs	r7, r1, r2
    6ce8:	fce4 7ba8 	stc2l	11, cr7, [r4], #672	@ 0x2a0	@ <UNPREDICTABLE>
    6cec:	9fce      	ldr	r7, [sp, #824]	@ 0x338
    6cee:	0b3a      	lsrs	r2, r7, #12
    6cf0:	9fce      	ldr	r7, [sp, #824]	@ 0x338
    6cf2:	0f1a      	lsrs	r2, r3, #28
    6cf4:	2099      	movs	r0, #153	@ 0x99
    6cf6:	4c21      	ldr	r4, [pc, #132]	@ (0x6d7c)
    6cf8:	05af      	lsls	r7, r5, #22
    6cfa:	3a62      	subs	r2, #98	@ 0x62
    6cfc:	2436      	movs	r4, #54	@ 0x36
    6cfe:	b16c      	cbz	r4, 0x6d1c
    6d00:	4205      	tst	r5, r0
    6d02:	18ac      	adds	r4, r5, r2
    6d04:	f083 b99e 	b.w	0x8a044
    6d08:	0a0f      	lsrs	r7, r1, #8
    6d0a:	210b      	movs	r1, #11
    6d0c:	c276      	stmia	r2!, {r1, r2, r4, r5, r6}
    6d0e:	e34f      	b.n	0x73b0
    6d10:	cc36      	ldmia	r4, {r1, r2, r4, r5}
    6d12:	0000      	movs	r0, r0
    6d14:	15a8      	asrs	r0, r5, #22
    6d16:	b124      	cbz	r4, 0x6d22
    6d18:	1925      	adds	r5, r4, r4
    6d1a:	e34e      	b.n	0x73ba
    6d1c:	5820      	ldr	r0, [r4, r0]
    6d1e:	cc89      	ldmia	r4!, {r0, r3, r7}
    6d20:	b0a0      	sub	sp, #128	@ 0x80
    6d22:	1ed0      	subs	r0, r2, #3
    6d24:	f05b 998e 	b.w	0x862044
    6d28:	a0ba      	add	r0, pc, #744	@ (adr r0, 0x7014)
    6d2a:	10c0      	asrs	r0, r0, #3
    6d2c:	2553      	movs	r5, #83	@ 0x53
    6d2e:	34fc      	adds	r4, #252	@ 0xfc
    6d30:	c36e      	stmia	r3!, {r1, r2, r3, r5, r6}
    6d32:	000c      	movs	r4, r1
    6d34:	5a80      	ldrh	r0, [r0, r2]
    6d36:	1241      	asrs	r1, r0, #9
    6d38:	925b      	str	r2, [sp, #364]	@ 0x16c
    6d3a:	34e1      	adds	r4, #225	@ 0xe1
    6d3c:	820e      	strh	r6, [r1, #16]
    6d3e:	bf95      	itete	ls
    6d40:	0a08      	lsrls	r0, r1, #8
    6d42:	ed0c 05b1 	cfstr32hi	mvfx0, [ip, #-708]	@ 0xfffffd3c
    6d46:	88ef      	ldrhls	r7, [r5, #6]
    6d48:	47a9      			@ <UNDEFINED> instruction: 0x47a9
    6d4a:	5b10      	ldrh	r0, [r2, r4]
    6d4c:	bb21      	cbnz	r1, 0x6d98
    6d4e:	c2ef      	stmia	r2!, {r0, r1, r2, r3, r5, r6, r7}
    6d50:	5b16      	ldrh	r6, [r2, r4]
    6d52:	8c10      	ldrh	r0, [r2, #32]
    6d54:	c580      	stmia	r5!, {r7}
    6d56:	000c      	movs	r4, r1
    6d58:	2a80      	cmp	r2, #128	@ 0x80
    6d5a:	20a1      	movs	r0, #161	@ 0xa1
    6d5c:	05a0      	lsls	r0, r4, #22
    6d5e:	1310      	asrs	r0, r2, #12
    6d60:	8d3c      	ldrh	r4, [r7, #40]	@ 0x28
    6d62:	a469      	add	r4, pc, #420	@ (adr r4, 0x6f08)
    6d64:	a020      	add	r0, pc, #128	@ (adr r0, 0x6de8)
    6d66:	1015      	asrs	r5, r2, #32
    6d68:	3b83      	subs	r3, #131	@ 0x83
    6d6a:	498d      	ldr	r1, [pc, #564]	@ (0x6fa0)
    6d6c:	6c23      	ldr	r3, [r4, #64]	@ 0x40
    6d6e:	05b1      	lsls	r1, r6, #22
    6d70:	2822      	cmp	r0, #34	@ 0x22
    6d72:	c192      	stmia	r1!, {r1, r4, r7}
    6d74:	583c      	ldr	r4, [r7, r0]
    6d76:	015a      	lsls	r2, r3, #5
    6d78:	a821      	add	r0, sp, #132	@ 0x84
    6d7a:	c2d3      	stmia	r2!, {r0, r1, r4, r6, r7}
    6d7c:	5b16      	ldrh	r6, [r2, r4]
    6d7e:	cc10      	ldmia	r4, {r4}
    6d80:	a583      	add	r5, pc, #524	@ (adr r5, 0x6f90)
    6d82:	1005      	asrs	r5, r0, #32
    6d84:	39c3      	subs	r1, #195	@ 0xc3
    6d86:	57ed      	ldrsb	r5, [r5, r7]
    6d88:	07df      	lsls	r7, r3, #31
    6d8a:	dff1      	svc	241	@ 0xf1
    6d8c:	047d      	lsls	r5, r7, #17
    6d8e:	6157      	str	r7, [r2, #20]
    6d90:	5414      	strb	r4, [r2, r0]
    6d92:	2383      	movs	r3, #131	@ 0x83
    6d94:	ca94      	ldmia	r2, {r2, r4, r7}
    6d96:	460c      	mov	r4, r1
    6d98:	0050      	lsls	r0, r2, #1
    6d9a:	465c      	mov	r4, fp
    6d9c:	3451      	adds	r4, #81	@ 0x51
    6d9e:	cd28      	ldmia	r5, {r3, r5}
    6da0:	0072      	lsls	r2, r6, #1
    6da2:	d209      	bcs.n	0x6db8
    6da4:	073e      	lsls	r6, r7, #28
    6da6:	10b0      	asrs	r0, r6, #2
    6da8:	0664      	lsls	r4, r4, #25
    6daa:	0991      	lsrs	r1, r2, #6
    6dac:	460a      	mov	r2, r1
    6dae:	fc10 5190 	ldc2	1, cr5, [r0], {144}	@ 0x90
    6db2:	018c      	lsls	r4, r1, #6
    6db4:	9912      	ldr	r1, [sp, #72]	@ 0x48
    6db6:	608b      	str	r3, [r1, #8]
    6db8:	2104      	movs	r1, #4
    6dba:	d312      	bcc.n	0x6de2
    6dbc:	7e98      	ldrb	r0, [r3, #26]
    6dbe:	d3ef      	bcc.n	0x6da0
    6dc0:	6008      	str	r0, [r1, #0]
    6dc2:	ed26 0065 	stc	0, cr0, [r6, #-404]!	@ 0xfffffe6c
    6dc6:	465d      	mov	r5, fp
    6dc8:	0c10      	lsrs	r0, r2, #16
    6dca:	247f      	movs	r4, #127	@ 0x7f
    6dcc:	c246      	stmia	r2!, {r1, r2, r6}
    6dce:	2008      	movs	r0, #8
    6dd0:	ed21 1066 	stc	0, cr1, [r1, #-408]!	@ 0xfffffe68
    6dd4:	462f      	mov	r7, r5
    6dd6:	08d2      	lsrs	r2, r2, #3
    6dd8:	6262      	str	r2, [r4, #36]	@ 0x24
    6dda:	4524      	cmp	r4, r4
    6ddc:	d266      	bcs.n	0x6eac
    6dde:	17be      	asrs	r6, r7, #30
    6de0:	1090      	asrs	r0, r2, #2
    6de2:	07b4      	lsls	r4, r6, #30
    6de4:	3ee0      	subs	r6, #224	@ 0xe0
    6de6:	7b41      	ldrb	r1, [r0, #13]
    6de8:	ef01 1984 	vmla.i8	d1, d17, d4
    6dec:	2462      	movs	r4, #98	@ 0x62
    6dee:	108d      	asrs	r5, r1, #2
    6df0:	4118      	asrs	r0, r3
    6df2:	1066      	asrs	r6, r4, #1
    6df4:	67fe      	str	r6, [r7, #124]	@ 0x7c
    6df6:	2104      	movs	r1, #4
    6df8:	d2e1      	bcs.n	0x6dbe
    6dfa:	6641      	str	r1, [r0, #100]	@ 0x64
    6dfc:	df10      	svc	16
    6dfe:	f103 c104 	blx	0xd0a008
    6e02:	f105 7fdf 	add.w	pc, r5, #29229056	@ 0x1be0000
    6e06:	4604      	mov	r4, r0
    6e08:	1050      	asrs	r0, r2, #1
    6e0a:	045c      	lsls	r4, r3, #17
    6e0c:	15c1      	asrs	r1, r0, #23
    6e0e:	2d73      	cmp	r5, #115	@ 0x73
    6e10:	1dfd      	adds	r5, r7, #7
    6e12:	df10      	svc	16
    6e14:	267b      	movs	r6, #123	@ 0x7b
    6e16:	f35f 5e04 			@ <UNDEFINED> instruction: 0xf35f5e04
    6e1a:	2ed0      	cmp	r6, #208	@ 0xd0
    6e1c:	a05c      	add	r0, pc, #368	@ (adr r0, 0x6f90)
    6e1e:	efda e0f2 	vshr.s64	q15, q9, #38
    6e22:	ce2d      	ldmia	r6!, {r0, r2, r3, r5}
    6e24:	1282      	asrs	r2, r0, #10
    6e26:	6829      	ldr	r1, [r5, #0]
    6e28:	5e26      	ldrsh	r6, [r4, r0]
    6e2a:	5df3      	ldrb	r3, [r6, r7]
    6e2c:	df10      	svc	16
    6e2e:	047f      	lsls	r7, r7, #17
    6e30:	5046      	str	r6, [r0, r1]
    6e32:	5b30      	ldrh	r0, [r6, r4]
    6e34:	246e      	movs	r4, #110	@ 0x6e
    6e36:	b46d      	push	{r0, r2, r3, r5, r6}
    6e38:	6e05      	ldr	r5, [r0, #96]	@ 0x60
    6e3a:	6d26      	ldr	r6, [r4, #80]	@ 0x50
    6e3c:	05b6      	lsls	r6, r6, #22
    6e3e:	2b0a      	cmp	r3, #10
    6e40:	f1ef 101d 			@ <UNDEFINED> instruction: 0xf1ef101d
    6e44:	7fdf      	ldrb	r7, [r3, #31]
    6e46:	4604      	mov	r4, r0
    6e48:	8050      	strh	r0, [r2, #2]
    6e4a:	6e5b      	ldr	r3, [r3, #100]	@ 0x64
    6e4c:	6d24      	ldr	r4, [r4, #80]	@ 0x50
    6e4e:	05b9      	lsls	r1, r7, #22
    6e50:	266e      	movs	r6, #110	@ 0x6e
    6e52:	bb6d      	cbnz	r5, 0x6eb0
    6e54:	0a05      	lsrs	r5, r0, #8
    6e56:	ef2c 1df1 	vmls.f32	<illegal reg q0.5>, q14, <illegal reg q8.5>
    6e5a:	df10      	svc	16
    6e5c:	047f      	lsls	r7, r7, #17
    6e5e:	5046      	str	r6, [r0, r1]
    6e60:	5a70      	ldrh	r0, [r6, r1]
    6e62:	7ed3      	ldrb	r3, [r2, #27]
    6e64:	105a      	asrs	r2, r3, #1
    6e66:	1120      	asrs	r0, r4, #4
    6e68:	0724      	lsls	r4, r4, #28
    6e6a:	2410      	movs	r4, #16
    6e6c:	1ff8      	subs	r0, r7, #7
    6e6e:	f834 90af 	ldrh.w	r9, [r4, pc, lsl #2]
    6e72:	1ef2      	subs	r2, r6, #3
    6e74:	01df      	lsls	r7, r3, #7
    6e76:	dff1      	svc	241	@ 0xf1
    6e78:	267b      	movs	r6, #123	@ 0x7b
    6e7a:	f35f 5e04 			@ <UNDEFINED> instruction: 0xf35f5e04
    6e7e:	8ed0      	ldrh	r0, [r2, #54]	@ 0x36
    6e80:	a05a      	add	r0, pc, #360	@ (adr r0, 0x6fec)
    6e82:	efda e0f2 	vshr.s64	q15, q9, #38
    6e86:	ce2d      	ldmia	r6!, {r0, r2, r3, r5}
    6e88:	1282      	asrs	r2, r0, #10
    6e8a:	a829      	add	r0, sp, #164	@ 0xa4
    6e8c:	f260 661e 			@ <UNDEFINED> instruction: 0xf260661e
    6e90:	35e2      	adds	r5, #226	@ 0xe2
    6e92:	05df      	lsls	r7, r3, #23
    6e94:	dff1      	svc	241	@ 0xf1
    6e96:	047f      	lsls	r7, r7, #17
    6e98:	5046      	str	r6, [r0, r1]
    6e9a:	a804      	add	r0, sp, #16
    6e9c:	f270 df1e 	bl	0xa77cdc
    6ea0:	f101 fcdf 	bl	0x108862
    6ea4:	6f04      	ldr	r4, [r0, #112]	@ 0x70
    6ea6:	24e2      	movs	r4, #226	@ 0xe2
    6ea8:	00cd      	lsls	r5, r1, #3
    6eaa:	a900      	add	r1, sp, #0
    6eac:	e1c9      	b.n	0x7242
    6eae:	a9bc      	add	r1, sp, #752	@ 0x2f0
    6eb0:	e2df      	b.n	0x7472
    6eb2:	a9ac      	add	r1, sp, #688	@ 0x2b0
    6eb4:	e3a9      	b.n	0x760a
    6eb6:	a9bc      	add	r1, sp, #752	@ 0x2f0
    6eb8:	e459      	b.n	0x676e
    6eba:	a9ac      	add	r1, sp, #688	@ 0x2b0
    6ebc:	2461      	movs	r4, #97	@ 0x61
    6ebe:	f3ce 02a9 			@ <UNDEFINED> instruction: 0xf3ce02a9
    6ec2:	ce25      	ldmia	r6!, {r0, r2, r5}
    6ec4:	a9d9      	add	r1, sp, #868	@ 0x364
    6ec6:	25ca      	movs	r5, #202	@ 0xca
    6ec8:	4b65      	ldr	r3, [pc, #404]	@ (0x7060)
    6eca:	a9ff      	add	r1, sp, #1020	@ 0x3fc
    6ecc:	21f5      	movs	r1, #245	@ 0xf5
    6ece:	fb65 a9fe 			@ <UNDEFINED> instruction: 0xfb65a9fe
    6ed2:	227f      	movs	r2, #127	@ 0x7f
    6ed4:	f965 a9f9 	vld2.<illegal width 64>	{d26,d28}, [r5 :256], r9
    6ed8:	2371      	movs	r3, #113	@ 0x71
    6eda:	e8ce dba9 			@ <UNDEFINED> instruction: 0xe8cedba9
    6ede:	ce24      	ldmia	r6!, {r2, r5}
    6ee0:	a9e7      	add	r1, sp, #924	@ 0x39c
    6ee2:	2535      	movs	r5, #53	@ 0x35
    6ee4:	f4ce 48a9 			@ <UNDEFINED> instruction: 0xf4ce48a9
    6ee8:	ece5 cba9 	fstmiax	r5!, {d28-d111}	@ Deprecated
    6eec:	6525      	str	r5, [r4, #80]	@ 0x50
    6eee:	ff4b dda9 	vpadd.f32	d29, d27, d25
    6ef2:	6521      	str	r1, [r4, #80]	@ 0x50
    6ef4:	feff 71a9 	cdp2	1, 15, cr7, cr15, cr9, {5}
    6ef8:	ce21      	ldmia	r6!, {r0, r5}
    6efa:	a9da      	add	r1, sp, #872	@ 0x368
    6efc:	24ae      	movs	r4, #174	@ 0xae
    6efe:	dcce      	bgt.n	0x6e9e
    6f00:	eba9 6525 	sub.w	r5, r9, r5, asr #24
    6f04:	fa3f 23a9 			@ <UNDEFINED> instruction: 0xfa3f23a9
    6f08:	ce23      	ldmia	r6!, {r0, r1, r5}
    6f0a:	a9d9      	add	r1, sp, #868	@ 0x364
    6f0c:	24af      	movs	r4, #175	@ 0xaf
    6f0e:	2d65      	cmp	r5, #101	@ 0x65
    6f10:	a9f8      	add	r1, sp, #992	@ 0x3e0
    6f12:	e22c      	b.n	0x736e
    6f14:	a9ac      	add	r1, sp, #688	@ 0x2b0
    6f16:	2315      	movs	r3, #21
    6f18:	0665      	lsls	r5, r4, #25
    6f1a:	a9f8      	add	r1, sp, #992	@ 0x3e0
    6f1c:	e229      	b.n	0x7372
    6f1e:	a9ac      	add	r1, sp, #688	@ 0x2b0
    6f20:	231c      	movs	r3, #28
    6f22:	f5ce 9fa9 	b.w	0xff5d5e78
    6f26:	ce23      	ldmia	r6!, {r0, r1, r5}
    6f28:	a9e4      	add	r1, sp, #912	@ 0x390
    6f2a:	2482      	movs	r4, #130	@ 0x82
    6f2c:	2d65      	cmp	r5, #101	@ 0x65
    6f2e:	a9f8      	add	r1, sp, #992	@ 0x3e0
    6f30:	e212      	b.n	0x7358
    6f32:	a9ac      	add	r1, sp, #688	@ 0x2b0
    6f34:	230f      	movs	r3, #15
    6f36:	f5ce a0a9 	bvc.w	0xfff5508c
    6f3a:	ce23      	ldmia	r6!, {r0, r1, r5}
    6f3c:	a9e4      	add	r1, sp, #912	@ 0x390
    6f3e:	246b      	movs	r4, #107	@ 0x6b
    6f40:	eace b0a9 			@ <UNDEFINED> instruction: 0xeaceb0a9
    6f44:	6524      	str	r4, [r4, #80]	@ 0x50
    6f46:	fc47 5fa9 	mcrr2	15, 10, r5, r7, cr9
    6f4a:	6521      	str	r1, [r4, #80]	@ 0x50
    6f4c:	fbfc e5a9 			@ <UNDEFINED> instruction: 0xfbfce5a9
    6f50:	ce21      	ldmia	r6!, {r0, r5}
    6f52:	a9ef      	add	r1, sp, #956	@ 0x3bc
    6f54:	238a      	movs	r3, #138	@ 0x8a
    6f56:	0065      	lsls	r5, r4, #1
    6f58:	a9f8      	add	r1, sp, #992	@ 0x3e0
    6f5a:	238f      	movs	r3, #143	@ 0x8f
    6f5c:	f065 a9f7 	bne.w	0xec34e
    6f60:	23f7      	movs	r3, #247	@ 0xf7
    6f62:	2565      	movs	r5, #101	@ 0x65
    6f64:	a9fc      	add	r1, sp, #1008	@ 0x3f0
    6f66:	2147      	movs	r1, #71	@ 0x47
    6f68:	fc65 a9f3 	stc2l	9, cr10, [r5], #-486	@ 0xfffffe1a	@ <UNPREDICTABLE>
    6f6c:	21dc      	movs	r1, #220	@ 0xdc
    6f6e:	0065      	lsls	r5, r4, #1
    6f70:	a9f0      	add	r1, sp, #960	@ 0x3c0
    6f72:	221c      	movs	r2, #28
    6f74:	efce 66a9 	vsubhn.i16	d22, q15, <illegal reg q12.5>
    6f78:	6523      	str	r3, [r4, #80]	@ 0x50
    6f7a:	e000      	b.n	0x6f7e
    6f7c:	6aa9      	ldr	r1, [r5, #40]	@ 0x28
    6f7e:	6523      	str	r3, [r4, #80]	@ 0x50
    6f80:	f80b 81a9 	strb.w	r8, [fp, <undefined>]
    6f84:	ce22      	ldmia	r6!, {r1, r5}
    6f86:	a9f5      	add	r1, sp, #980	@ 0x3d4
    6f88:	2364      	movs	r3, #100	@ 0x64
    6f8a:	0b65      	lsrs	r5, r4, #13
    6f8c:	a9f8      	add	r1, sp, #992	@ 0x3e0
    6f8e:	927b      	str	r2, [sp, #492]	@ 0x1ec
    6f90:	5149      	str	r1, [r1, r5]
    6f92:	746c      	strb	r4, [r5, #17]
    6f94:	e04e      	b.n	0x7034
    6f96:	0f2c      	lsrs	r4, r5, #28
    6f98:	7644      	strb	r4, [r0, #25]
    6f9a:	704e      	strb	r6, [r1, #1]
    6f9c:	4048      	eors	r0, r1
    6f9e:	e774      	b.n	0x6e8a
    6fa0:	8704      	strh	r4, [r0, #56]	@ 0x38
    6fa2:	4405      	add	r5, r0
    6fa4:	4e78      	ldr	r6, [pc, #480]	@ (0x7188)
    6fa6:	6870      	ldr	r0, [r6, #4]
    6fa8:	96c0      	str	r6, [sp, #768]	@ 0x300
    6faa:	04e7      	lsls	r7, r4, #19
    6fac:	f7ce 6990 			@ <UNDEFINED> instruction: 0xf7ce6990
    6fb0:	444d      	add	r5, r9
    6fb2:	4e82      	ldr	r6, [pc, #520]	@ (0x71bc)
    6fb4:	2870      	cmp	r0, #112	@ 0x70
    6fb6:	6c20      	ldr	r0, [r4, #64]	@ 0x40
    6fb8:	05af      	lsls	r7, r5, #22
    6fba:	e04e      	b.n	0x705a
    6fbc:	0f3c      	lsrs	r4, r7, #28
    6fbe:	16c2      	asrs	r2, r0, #27
    6fc0:	e05b      	b.n	0x707a
    6fc2:	ce04      	ldmia	r6!, {r2}
    6fc4:	90f5      	str	r0, [sp, #980]	@ 0x3d4
    6fc6:	4a89      	ldr	r2, [pc, #548]	@ (0x71ec)
    6fc8:	b304      	cbz	r4, 0x700c
    6fca:	04e5      	lsls	r5, r4, #19
    6fcc:	0287      	lsls	r7, r0, #10
    6fce:	204e      	movs	r0, #78	@ 0x4e
    6fd0:	b46c      	push	{r2, r3, r5, r6}
    6fd2:	8705      	strh	r5, [r0, #56]	@ 0x38
    6fd4:	9703      	str	r7, [sp, #12]
    6fd6:	c204      	stmia	r2!, {r2}
    6fd8:	5b66      	ldrh	r6, [r4, r5]
    6fda:	5870      	ldr	r0, [r6, r1]
    6fdc:	6970      	ldr	r0, [r6, #20]
    6fde:	6990      	ldr	r0, [r2, #24]
    6fe0:	0447      	lsls	r7, r0, #17
    6fe2:	e5b8      	b.n	0x6b56
    6fe4:	8704      	strh	r4, [r0, #56]	@ 0x38
    6fe6:	4e02      	ldr	r6, [pc, #8]	@ (0x6ff0)
    6fe8:	6c20      	ldr	r0, [r4, #64]	@ 0x40
    6fea:	05b9      	lsls	r1, r7, #22
    6fec:	0387      	lsls	r7, r0, #14
    6fee:	0497      	lsls	r7, r2, #18
    6ff0:	b6c2      			@ <UNDEFINED> instruction: 0xb6c2
    6ff2:	705b      	strb	r3, [r3, #1]
    6ff4:	7058      	strb	r0, [r3, #1]
    6ff6:	9069      	str	r0, [sp, #420]	@ 0x1a4
    6ff8:	4449      	add	r1, r9
    6ffa:	16c2      	asrs	r2, r0, #27
    6ffc:	e40c      	b.n	0x6818
    6ffe:	ce04      	ldmia	r6!, {r2}
    7000:	20f2      	movs	r0, #242	@ 0xf2
    7002:	c30c      	stmia	r3!, {r2, r3}
    7004:	4e40      	ldr	r6, [pc, #256]	@ (0x7108)
    7006:	4870      	ldr	r0, [pc, #448]	@ (0x71c8)
    7008:	2990      	cmp	r1, #144	@ 0x90
    700a:	4442      	add	r2, r8
    700c:	4e80      	ldr	r6, [pc, #512]	@ (0x7210)
    700e:	2870      	cmp	r0, #112	@ 0x70
    7010:	2990      	cmp	r1, #144	@ 0x90
    7012:	0441      	lsls	r1, r0, #17
    7014:	e5c0      	b.n	0x6b98
    7016:	8704      	strh	r4, [r0, #56]	@ 0x38
    7018:	4402      	add	r2, r0
    701a:	4e83      	ldr	r6, [pc, #524]	@ (0x7228)
    701c:	3870      	subs	r0, #112	@ 0x70
    701e:	6990      	ldr	r0, [r2, #24]
    7020:	043f      	lsls	r7, r7, #16
    7022:	e59d      	b.n	0x6b60
    7024:	8704      	strh	r4, [r0, #56]	@ 0x38
    7026:	9902      	ldr	r1, [sp, #8]
    7028:	43e5      	mvns	r5, r4
    702a:	59f0      	ldr	r0, [r6, r7]
    702c:	704e      	strb	r6, [r1, #1]
    702e:	9028      	str	r0, [sp, #160]	@ 0xa0
    7030:	3d49      	subs	r5, #73	@ 0x49
    7032:	a004      	add	r0, pc, #16	@ (adr r0, 0x7044)
    7034:	04e5      	lsls	r5, r4, #19
    7036:	0287      	lsls	r7, r0, #10
    7038:	c399      	stmia	r3!, {r0, r3, r4, r7}
    703a:	5043      	str	r3, [r0, r1]
    703c:	4e5a      	ldr	r6, [pc, #360]	@ (0x71a8)
    703e:	2870      	cmp	r0, #112	@ 0x70
    7040:	2990      	cmp	r1, #144	@ 0x90
    7042:	443b      	add	r3, r7
    7044:	4eb5      	ldr	r6, [pc, #724]	@ (0x731c)
    7046:	2870      	cmp	r0, #112	@ 0x70
    7048:	6440      	str	r0, [r0, #68]	@ 0x44
    704a:	04eb      	lsls	r3, r5, #19
    704c:	0387      	lsls	r7, r0, #14
    704e:	b744      			@ <UNDEFINED> instruction: 0xb744
    7050:	704e      	strb	r6, [r1, #1]
    7052:	4048      	eors	r0, r1
    7054:	eb84 8704 			@ <UNDEFINED> instruction: 0xeb848704
    7058:	9905      	ldr	r1, [sp, #20]
    705a:	4381      	bics	r1, r0
    705c:	5ae0      	ldrh	r0, [r4, r3]
    705e:	cc58      	ldmia	r4, {r3, r4, r6}
    7060:	00ff      	lsls	r7, r7, #3
    7062:	11a8      	asrs	r0, r5, #6
    7064:	ae04      	add	r6, sp, #16
    7066:	04e5      	lsls	r5, r4, #19
    7068:	0287      	lsls	r7, r0, #10
    706a:	5f99      	ldrsh	r1, [r3, r6]
    706c:	ed23 027c 	sfm	f0, 4, [r3, #-496]!	@ 0xfffffe10
    7070:	0a10      	lsrs	r0, r2, #8
    7072:	4e04      	ldr	r6, [pc, #16]	@ (0x7084)
    7074:	2870      	cmp	r0, #112	@ 0x70
    7076:	6990      	ldr	r0, [r2, #24]
    7078:	0434      	lsls	r4, r6, #16
    707a:	e5a2      	b.n	0x6bc2
    707c:	8704      	strh	r4, [r0, #56]	@ 0x38
    707e:	9902      	ldr	r1, [sp, #8]
    7080:	4335      	orrs	r5, r6
    7082:	5a30      	ldrh	r0, [r6, r0]
    7084:	704e      	strb	r6, [r1, #1]
    7086:	9028      	str	r0, [sp, #160]	@ 0xa0
    7088:	3249      	adds	r2, #73	@ 0x49
    708a:	8b44      	ldrh	r4, [r0, #26]
    708c:	704e      	strb	r6, [r1, #1]
    708e:	9028      	str	r0, [sp, #160]	@ 0xa0
    7090:	3149      	adds	r1, #73	@ 0x49
    7092:	8d44      	ldrh	r4, [r0, #42]	@ 0x2a
    7094:	704e      	strb	r6, [r1, #1]
    7096:	9028      	str	r0, [sp, #160]	@ 0xa0
    7098:	3049      	adds	r0, #73	@ 0x49
    709a:	8f44      	ldrh	r4, [r0, #58]	@ 0x3a
    709c:	704e      	strb	r6, [r1, #1]
    709e:	9028      	str	r0, [sp, #160]	@ 0xa0
    70a0:	2f49      	cmp	r7, #73	@ 0x49
    70a2:	ff0a 704e 	vhadd.u8	<illegal reg q3.5>, q5, q7
    70a6:	4028      	ands	r0, r5
    70a8:	e644      	b.n	0x6d34
    70aa:	8704      	strh	r4, [r0, #56]	@ 0x38
    70ac:	9903      	ldr	r1, [sp, #12]
    70ae:	42d9      	cmn	r1, r3
    70b0:	e7d4      	b.n	0x705c
    70b2:	8704      	strh	r4, [r0, #56]	@ 0x38
    70b4:	4402      	add	r2, r0
    70b6:	4e7e      	ldr	r6, [pc, #504]	@ (0x72b0)
    70b8:	3870      	subs	r0, #112	@ 0x70
    70ba:	e990 442b 			@ <UNDEFINED> instruction: 0xe990442b
    70be:	4e8e      	ldr	r6, [pc, #568]	@ (0x72f8)
    70c0:	2870      	cmp	r0, #112	@ 0x70
    70c2:	e990 442a 			@ <UNDEFINED> instruction: 0xe990442a
    70c6:	4ead      	ldr	r6, [pc, #692]	@ (0x737c)
    70c8:	2870      	cmp	r0, #112	@ 0x70
    70ca:	e990 6c29 			@ <UNDEFINED> instruction: 0xe9906c29
    70ce:	4eae      	ldr	r6, [pc, #696]	@ (0x7388)
    70d0:	2ce0      	cmp	r4, #224	@ 0xe0
    70d2:	440f      	add	r7, r1
    70d4:	4eb2      	ldr	r6, [pc, #712]	@ (0x73a0)
    70d6:	4870      	ldr	r0, [pc, #448]	@ (0x7298)
    70d8:	3440      	adds	r4, #64	@ 0x40
    70da:	04eb      	lsls	r3, r5, #19
    70dc:	0587      	lsls	r7, r0, #22
    70de:	b444      	push	{r2, r6}
    70e0:	704e      	strb	r6, [r1, #1]
    70e2:	9068      	str	r0, [sp, #416]	@ 0x1a0
    70e4:	26c9      	movs	r6, #201	@ 0xc9
    70e6:	8944      	ldrh	r4, [r0, #10]
    70e8:	704e      	strb	r6, [r1, #1]
    70ea:	9028      	str	r0, [sp, #160]	@ 0xa0
    70ec:	25c9      	movs	r5, #201	@ 0xc9
    70ee:	9044      	str	r0, [sp, #272]	@ 0x110
    70f0:	704e      	strb	r6, [r1, #1]
    70f2:	9028      	str	r0, [sp, #160]	@ 0xa0
    70f4:	24c9      	movs	r4, #201	@ 0xc9
    70f6:	9c6c      	ldr	r4, [sp, #432]	@ 0x1b0
    70f8:	e04e      	b.n	0x7198
    70fa:	0f2c      	lsrs	r4, r5, #28
    70fc:	9e6c      	ldr	r6, [sp, #432]	@ 0x1b0
    70fe:	e04e      	b.n	0x719e
    7100:	0f4c      	lsrs	r4, r1, #29
    7102:	a06c      	add	r0, pc, #432	@ (adr r0, 0x72b4)
    7104:	e04e      	b.n	0x71a4
    7106:	0f6c      	lsrs	r4, r5, #29
    7108:	2399      	movs	r3, #153	@ 0x99
    710a:	04e2      	lsls	r2, r4, #19
    710c:	a26c      	add	r2, pc, #432	@ (adr r2, 0x72c0)
    710e:	0287      	lsls	r7, r0, #10
    7110:	0397      	lsls	r7, r2, #14
    7112:	a46c      	add	r4, pc, #432	@ (adr r4, 0x72c4)
    7114:	0487      	lsls	r7, r0, #18
    7116:	0597      	lsls	r7, r2, #22
    7118:	0399      	lsls	r1, r3, #14
    711a:	66c2      	str	r2, [r0, #108]	@ 0x6c
    711c:	04ea      	lsls	r2, r5, #19
    711e:	f2ce 2990 	movt	r9, #58000	@ 0xe290
    7122:	6c1f      	ldr	r7, [r3, #64]	@ 0x40
    7124:	4ea8      	ldr	r6, [pc, #672]	@ (0x73c8)
    7126:	2ce0      	cmp	r4, #224	@ 0xe0
    7128:	990f      	ldr	r1, [sp, #60]	@ 0x3c
    712a:	41e1      	rors	r1, r4
    712c:	e914 8704 	ldmdb	r4, {r2, r8, r9, sl, pc}
    7130:	9902      	ldr	r1, [sp, #8]
    7132:	41d1      	rors	r1, r2
    7134:	e814 8704 			@ <UNDEFINED> instruction: 0xe8148704
    7138:	9902      	ldr	r1, [sp, #8]
    713a:	41c1      	rors	r1, r0
    713c:	e7f4      	b.n	0x7128
    713e:	8704      	strh	r4, [r0, #56]	@ 0x38
    7140:	9902      	ldr	r1, [sp, #8]
    7142:	41b1      	sbcs	r1, r6
    7144:	5a10      	ldrh	r0, [r2, r0]
    7146:	704e      	strb	r6, [r1, #1]
    7148:	9028      	str	r0, [sp, #160]	@ 0xa0
    714a:	1a09      	subs	r1, r1, r0
    714c:	a604      	add	r6, pc, #16	@ (adr r6, 0x7160)
    714e:	04e5      	lsls	r5, r4, #19
    7150:	0287      	lsls	r7, r0, #10
    7152:	8f99      	ldrh	r1, [r3, #60]	@ 0x3c
    7154:	1041      	asrs	r1, r0, #1
    7156:	4e5c      	ldr	r6, [pc, #368]	@ (0x72c8)
    7158:	2870      	cmp	r0, #112	@ 0x70
    715a:	e990 4417 			@ <UNDEFINED> instruction: 0xe9904417
    715e:	4e8a      	ldr	r6, [pc, #552]	@ (0x7388)
    7160:	2870      	cmp	r0, #112	@ 0x70
    7162:	e990 ef16 			@ <UNDEFINED> instruction: 0xe990ef16
    7166:	04e3      	lsls	r3, r4, #19
    7168:	0287      	lsls	r7, r0, #10
    716a:	5f99      	ldrsh	r1, [r3, r6]
    716c:	7041      	strb	r1, [r0, #1]
    716e:	4e5a      	ldr	r6, [pc, #360]	@ (0x72d8)
    7170:	2870      	cmp	r0, #112	@ 0x70
    7172:	e990 2114 			@ <UNDEFINED> instruction: 0xe9902114
    7176:	ced7      	ldmia	r6, {r0, r1, r2, r4, r6, r7}
    7178:	704e      	strb	r6, [r1, #1]
    717a:	9028      	str	r0, [sp, #160]	@ 0xa0
    717c:	13c9      	asrs	r1, r1, #15
    717e:	926c      	str	r2, [sp, #432]	@ 0x1b0
    7180:	e04e      	b.n	0x7220
    7182:	0f2c      	lsrs	r4, r5, #28
    7184:	a404      	add	r4, pc, #16	@ (adr r4, 0x7198)
    7186:	04e5      	lsls	r5, r4, #19
    7188:	0487      	lsls	r7, r0, #18
    718a:	1f99      	subs	r1, r3, #6
    718c:	04e1      	lsls	r1, r4, #19
    718e:	946c      	str	r4, [sp, #432]	@ 0x1b0
    7190:	0287      	lsls	r7, r0, #10
    7192:	0397      	lsls	r7, r2, #14
    7194:	966c      	str	r6, [sp, #432]	@ 0x1b0
    7196:	0487      	lsls	r7, r0, #18
    7198:	0597      	lsls	r7, r2, #22
    719a:	ff99 04e0 	vmls.i16	q0, <illegal reg q12.5>, d0[2]
    719e:	986c      	ldr	r0, [sp, #432]	@ 0x1b0
    71a0:	0287      	lsls	r7, r0, #10
    71a2:	0397      	lsls	r7, r2, #14
    71a4:	9a6c      	ldr	r2, [sp, #432]	@ 0x1b0
    71a6:	0487      	lsls	r7, r0, #18
    71a8:	0597      	lsls	r7, r2, #22
    71aa:	df99      	svc	153	@ 0x99
    71ac:	2040      	movs	r0, #64	@ 0x40
    71ae:	4e5c      	ldr	r6, [pc, #368]	@ (0x7320)
    71b0:	2870      	cmp	r0, #112	@ 0x70
    71b2:	3040      	adds	r0, #64	@ 0x40
    71b4:	4e5c      	ldr	r6, [pc, #368]	@ (0x7328)
    71b6:	3870      	subs	r0, #112	@ 0x70
    71b8:	4040      	eors	r0, r0
    71ba:	4e5c      	ldr	r6, [pc, #368]	@ (0x732c)
    71bc:	4870      	ldr	r0, [pc, #448]	@ (0x7380)
    71be:	a440      	add	r4, pc, #256	@ (adr r4, 0x72c0)
    71c0:	04ea      	lsls	r2, r5, #19
    71c2:	0587      	lsls	r7, r0, #22
    71c4:	ab44      	add	r3, sp, #272	@ 0x110
    71c6:	704e      	strb	r6, [r1, #1]
    71c8:	4068      	eors	r0, r5
    71ca:	5c70      	ldrb	r0, [r6, r1]
    71cc:	704e      	strb	r6, [r1, #1]
    71ce:	9078      	str	r0, [sp, #480]	@ 0x1e0
    71d0:	0949      	lsrs	r1, r1, #5
    71d2:	a804      	add	r0, sp, #16
    71d4:	04e5      	lsls	r5, r4, #19
    71d6:	0287      	lsls	r7, r0, #10
    71d8:	a904      	add	r1, sp, #16
    71da:	04e5      	lsls	r5, r4, #19
    71dc:	0387      	lsls	r7, r0, #14
    71de:	aa04      	add	r2, sp, #16
    71e0:	04e5      	lsls	r5, r4, #19
    71e2:	0487      	lsls	r7, r0, #18
    71e4:	ab04      	add	r3, sp, #16
    71e6:	04e5      	lsls	r5, r4, #19
    71e8:	0587      	lsls	r7, r0, #22
    71ea:	ac04      	add	r4, sp, #16
    71ec:	04e5      	lsls	r5, r4, #19
    71ee:	0687      	lsls	r7, r0, #26
    71f0:	ad04      	add	r5, sp, #16
    71f2:	04e5      	lsls	r5, r4, #19
    71f4:	0787      	lsls	r7, r0, #30
    71f6:	4898      	ldr	r0, [pc, #608]	@ (0x7458)
    71f8:	c204      	stmia	r2!, {r2}
    71fa:	04e5      	lsls	r5, r4, #19
    71fc:	0287      	lsls	r7, r0, #10
    71fe:	c304      	stmia	r3!, {r2}
    7200:	04e5      	lsls	r5, r4, #19
    7202:	0387      	lsls	r7, r0, #14
    7204:	c404      	stmia	r4!, {r2}
    7206:	04e5      	lsls	r5, r4, #19
    7208:	0487      	lsls	r7, r0, #18
    720a:	c504      	stmia	r5!, {r2}
    720c:	04e5      	lsls	r5, r4, #19
    720e:	0587      	lsls	r7, r0, #22
    7210:	c604      	stmia	r6!, {r2}
    7212:	04e5      	lsls	r5, r4, #19
    7214:	0687      	lsls	r7, r0, #26
    7216:	c704      	stmia	r7!, {r2}
    7218:	04e5      	lsls	r5, r4, #19
    721a:	0787      	lsls	r7, r0, #30
    721c:	04df      	lsls	r7, r3, #19
    721e:	c0f1      	stmia	r0!, {r0, r4, r5, r6, r7}
    7220:	6d1a      	ldr	r2, [r3, #80]	@ 0x50
    7222:	4174      	adcs	r4, r6
    7224:	0076      	lsls	r6, r6, #1
    7226:	7741      	strb	r1, [r0, #29]
    7228:	4100      	asrs	r0, r0
    722a:	0078      	lsls	r0, r7, #1
    722c:	2cd2      	cmp	r4, #210	@ 0xd2
    722e:	9007      	str	r0, [sp, #28]
    7230:	ed20 0073 	stc	0, cr0, [r0, #-460]!	@ 0xfffffe34
    7234:	c00d      	stmia	r0!, {r0, r2, r3}
    7236:	6d00      	ldr	r0, [r0, #80]	@ 0x50
    7238:	9974      	ldr	r1, [sp, #464]	@ 0x1d0
    723a:	22f1      	movs	r2, #241	@ 0xf1
    723c:	84cd      	strh	r5, [r1, #38]	@ 0x26
    723e:	4900      	ldr	r1, [pc, #0]	@ (0x7240)
    7240:	4cd2      	ldr	r4, [pc, #840]	@ (0x758c)
    7242:	d018      	beq.n	0x7276
    7244:	cd24      	ldmia	r5, {r2, r5}
    7246:	0284      	lsls	r4, r0, #10
    7248:	d251      	bcs.n	0x72ee
    724a:	384d      	subs	r0, #77	@ 0x4d
    724c:	1020      	asrs	r0, r4, #32
    724e:	4dd2      	ldr	r5, [pc, #840]	@ (0x7598)
    7250:	9048      	str	r0, [sp, #288]	@ 0x120
    7252:	d223      	bcs.n	0x729c
    7254:	584d      	ldr	r5, [r1, r1]
    7256:	23b0      	movs	r3, #176	@ 0xb0
    7258:	4dd2      	ldr	r5, [pc, #840]	@ (0x75a4)
    725a:	d068      	beq.n	0x732e
    725c:	d223      	bcs.n	0x72a6
    725e:	784d      	ldrb	r5, [r1, #1]
    7260:	24f0      	movs	r4, #240	@ 0xf0
    7262:	6299      	str	r1, [r3, #40]	@ 0x28
    7264:	1c02      	adds	r2, r0, #0
    7266:	46d0      	mov	r8, sl
    7268:	5997      	ldr	r7, [r2, r6]
    726a:	c025      	stmia	r0!, {r0, r2, r5}
    726c:	6d02      	ldr	r2, [r0, #80]	@ 0x50
    726e:	9974      	ldr	r1, [sp, #464]	@ 0x1d0
    7270:	3248      	adds	r2, #72	@ 0x48
    7272:	c8cd      	ldmia	r0, {r0, r2, r3, r6, r7}
    7274:	0005      	movs	r5, r0
    7276:	d347      	bcc.n	0x7308
    7278:	5c8c      	ldrb	r4, [r1, r2]
    727a:	7010      	strb	r0, [r2, #0]
    727c:	cd35      	ldmia	r5, {r0, r2, r4, r5}
    727e:	05c8      	lsls	r0, r1, #23
    7280:	5902      	ldr	r2, [r0, r4]
    7282:	8cd3      	ldrh	r3, [r2, #38]	@ 0x26
    7284:	305c      	adds	r0, #92	@ 0x5c
    7286:	35b0      	adds	r5, #176	@ 0xb0
    7288:	c8cd      	ldmia	r0, {r0, r2, r3, r6, r7}
    728a:	0405      	lsls	r5, r0, #16
    728c:	d35d      	bcc.n	0x734a
    728e:	5c8c      	ldrb	r4, [r1, r2]
    7290:	f050 cd35 	bfl	0, 0xfffd7cfe
    7294:	05c8      	lsls	r0, r1, #23
    7296:	6106      	str	r6, [r0, #16]
    7298:	f699 3c01 			@ <UNDEFINED> instruction: 0xf6993c01
    729c:	46d0      	mov	r8, sl
    729e:	fd27 0288 	stc2	2, cr0, [r7, #-544]!	@ 0xfffffde0
    72a2:	b1e4      	cbz	r4, 0x72de
    72a4:	9781      	str	r7, [sp, #516]	@ 0x204
    72a6:	1db9      	adds	r1, r7, #6
    72a8:	04c0      	lsls	r0, r0, #19
    72aa:	746d      	strb	r5, [r5, #17]
    72ac:	ce99      	ldmia	r6!, {r0, r3, r4, r7}
    72ae:	5c01      	ldrb	r1, [r0, r0]
    72b0:	46d0      	mov	r8, sl
    72b2:	1997      	adds	r7, r2, r6
    72b4:	c01c      	stmia	r0!, {r2, r3, r4}
    72b6:	6d06      	ldr	r6, [r0, #80]	@ 0x50
    72b8:	9974      	ldr	r1, [sp, #464]	@ 0x1d0
    72ba:	01b4      	lsls	r4, r6, #6
    72bc:	d07c      	beq.n	0x73b8
    72be:	9746      	str	r7, [sp, #280]	@ 0x118
    72c0:	1a79      	subs	r1, r7, r1
    72c2:	08c0      	lsrs	r0, r0, #3
    72c4:	746d      	strb	r5, [r5, #17]
    72c6:	9a99      	ldr	r2, [sp, #612]	@ 0x264
    72c8:	9c01      	ldr	r4, [sp, #4]
    72ca:	46d0      	mov	r8, sl
    72cc:	d997      	bls.n	0x71fe
    72ce:	4418      	add	r0, r3
    72d0:	4587      	cmp	pc, r0
    72d2:	4476      	add	r6, lr
    72d4:	4560      	cmp	r0, ip
    72d6:	d277      	bcs.n	0x73c8
    72d8:	085c      	lsrs	r4, r3, #1
    72da:	2730      	movs	r7, #48	@ 0x30
    72dc:	85dd      	strh	r5, [r3, #46]	@ 0x2e
    72de:	8601      	strh	r1, [r0, #48]	@ 0x30
    72e0:	dd20      	ble.n	0x7324
    72e2:	0285      	lsls	r5, r0, #10
    72e4:	2089      	movs	r0, #137	@ 0x89
    72e6:	85dd      	strh	r5, [r3, #46]	@ 0x2e
    72e8:	9a03      	ldr	r2, [sp, #12]
    72ea:	dd20      	ble.n	0x732e
    72ec:	0485      	lsls	r5, r0, #18
    72ee:	209d      	movs	r0, #157	@ 0x9d
    72f0:	85dd      	strh	r5, [r3, #46]	@ 0x2e
    72f2:	a005      	add	r0, pc, #20	@ (adr r0, 0x7308)
    72f4:	dd20      	ble.n	0x7338
    72f6:	0685      	lsls	r5, r0, #26
    72f8:	20a3      	movs	r0, #163	@ 0xa3
    72fa:	85dd      	strh	r5, [r3, #46]	@ 0x2e
    72fc:	a607      	add	r6, pc, #28	@ (adr r6, 0x731c)
    72fe:	dd20      	ble.n	0x7342
    7300:	0885      	lsrs	r5, r0, #2
    7302:	20a8      	movs	r0, #168	@ 0xa8
    7304:	85dd      	strh	r5, [r3, #46]	@ 0x2e
    7306:	aa09      	add	r2, sp, #36	@ 0x24
    7308:	dd20      	ble.n	0x734c
    730a:	0a85      	lsrs	r5, r0, #10
    730c:	20ac      	movs	r0, #172	@ 0xac
    730e:	85dd      	strh	r5, [r3, #46]	@ 0x2e
    7310:	ae0b      	add	r6, sp, #44	@ 0x2c
    7312:	1990      	adds	r0, r2, r6
    7314:	c010      	stmia	r0!, {r4}
    7316:	6d0a      	ldr	r2, [r1, #80]	@ 0x50
    7318:	4474      	add	r4, lr
    731a:	4586      	cmp	lr, r0
    731c:	4476      	add	r6, lr
    731e:	455f      	cmp	r7, fp
    7320:	9977      	ldr	r1, [sp, #476]	@ 0x1dc
    7322:	00e4      	lsls	r4, r4, #3
    7324:	d0bc      	beq.n	0x72a0
    7326:	9746      	str	r7, [sp, #280]	@ 0x118
    7328:	0d79      	lsrs	r1, r7, #21
    732a:	0cc0      	lsrs	r0, r0, #19
    732c:	746d      	strb	r5, [r5, #17]
    732e:	ac44      	add	r4, sp, #272	@ 0x110
    7330:	7645      	strb	r5, [r0, #25]
    7332:	7741      	strb	r1, [r0, #29]
    7334:	9900      	ldr	r1, [sp, #0]
    7336:	00bc      	lsls	r4, r7, #2
    7338:	d0dc      	beq.n	0x72f4
    733a:	9746      	str	r7, [sp, #280]	@ 0x118
    733c:	0af9      	lsrs	r1, r7, #11
    733e:	0ec0      	lsrs	r0, r0, #27
    7340:	746d      	strb	r5, [r5, #17]
    7342:	a299      	add	r2, pc, #612	@ (adr r2, 0x75a8)
    7344:	fc00 46d0 	stc2	6, cr4, [r0], {208}	@ 0xd0
    7348:	5997      	ldr	r7, [r2, r6]
    734a:	c009      	stmia	r0!, {r0, r3}
    734c:	6d10      	ldr	r0, [r2, #80]	@ 0x50
    734e:	9974      	ldr	r1, [sp, #464]	@ 0x1d0
    7350:	0088      	lsls	r0, r1, #2
    7352:	d11c      	bne.n	0x738e
    7354:	8746      	strh	r6, [r0, #58]	@ 0x3a
    7356:	07c9      	lsls	r1, r1, #31
    7358:	d12c      	bne.n	0x73b4
    735a:	8746      	strh	r6, [r0, #58]	@ 0x3a
    735c:	0709      	lsls	r1, r1, #28
    735e:	d13c      	bne.n	0x73da
    7360:	8746      	strh	r6, [r0, #58]	@ 0x3a
    7362:	0649      	lsls	r1, r1, #25
    7364:	d14c      	bne.n	0x7400
    7366:	8746      	strh	r6, [r0, #58]	@ 0x3a
    7368:	0589      	lsls	r1, r1, #22
    736a:	d15c      	bne.n	0x7426
    736c:	8746      	strh	r6, [r0, #58]	@ 0x3a
    736e:	04c9      	lsls	r1, r1, #19
    7370:	d16c      	bne.n	0x744c
    7372:	8746      	strh	r6, [r0, #58]	@ 0x3a
    7374:	0409      	lsls	r1, r1, #16
    7376:	d17c      	bne.n	0x7472
    7378:	8746      	strh	r6, [r0, #58]	@ 0x3a
    737a:	4349      	muls	r1, r1
    737c:	5874      	ldr	r4, [r6, r1]
    737e:	4764      	bxns	ip
    7380:	5604      	ldrsb	r4, [r0, r0]
    7382:	0774      	lsls	r4, r6, #29
    7384:	d18c      	bne.n	0x72a0
    7386:	8746      	strh	r6, [r0, #58]	@ 0x3a
    7388:	4189      	sbcs	r1, r1
    738a:	5874      	ldr	r4, [r6, r1]
    738c:	4764      	bxns	ip
    738e:	5604      	ldrsb	r4, [r0, r0]
    7390:	0774      	lsls	r4, r6, #29
    7392:	d19c      	bne.n	0x72ce
    7394:	2746      	movs	r7, #70	@ 0x46
    7396:	7ccd      	ldrb	r5, [r1, #19]
    7398:	3401      	adds	r4, #1
    739a:	ced2      	ldmia	r6, {r1, r4, r6, r7}
    739c:	8027      	strh	r7, [r4, #0]
    739e:	80b0      	strh	r0, [r6, #4]
    73a0:	3987      	subs	r1, #135	@ 0x87
    73a2:	cd32      	ldmia	r5, {r1, r4, r5}
    73a4:	059d      	lsls	r5, r3, #22
    73a6:	1400      	asrs	r0, r0, #16
    73a8:	ded3      	udf	#211	@ 0xd3
    73aa:	2059      	movs	r0, #89	@ 0x59
    73ac:	20d0      	movs	r0, #208	@ 0xd0
    73ae:	7bed      	ldrb	r5, [r5, #15]
    73b0:	0400      	lsls	r0, r0, #16
    73b2:	780b      	ldrb	r3, [r1, #0]
    73b4:	060a      	lsls	r2, r1, #24
    73b6:	01ef      	lsls	r7, r5, #7
    73b8:	dff1      	svc	241	@ 0xf1
    73ba:	047f      	lsls	r7, r7, #17
    73bc:	5046      	str	r6, [r0, r1]
    73be:	a7c4      	add	r7, pc, #784	@ (adr r7, 0x76d0)
    73c0:	f0c0 ef1e 	blx	0xc8200
    73c4:	1df4      	adds	r4, r6, #7
    73c6:	0310      	lsls	r0, r2, #12
    73c8:	a780      	add	r7, pc, #512	@ (adr r7, 0x75cc)
    73ca:	c0a0      	stmia	r0!, {r5, r7}
    73cc:	3310      	adds	r3, #16
    73ce:	0e7e      	lsrs	r6, r7, #25
    73d0:	dff1      	svc	241	@ 0xf1
    73d2:	047f      	lsls	r7, r7, #17
    73d4:	2cd2      	cmp	r4, #210	@ 0xd2
    73d6:	3007      	adds	r0, #7
    73d8:	0462      	lsls	r2, r4, #17
    73da:	008d      	lsls	r5, r1, #2
    73dc:	d30b      	bcc.n	0x73f6
    73de:	5a1e      	ldrh	r6, [r3, r0]
    73e0:	f000 0460 	and.w	r4, r0, #96	@ 0x60
    73e4:	a605      	add	r6, pc, #20	@ (adr r6, 0x73fc)
    73e6:	00a5      	lsls	r5, r4, #2
    73e8:	1ef2      	subs	r2, r6, #3
    73ea:	01df      	lsls	r7, r3, #7
    73ec:	dff1      	svc	241	@ 0xf1
    73ee:	267b      	movs	r6, #123	@ 0x7b
    73f0:	f35f fd04 	bl	0x366dfc
    73f4:	05c2      	lsls	r2, r0, #23
    73f6:	a04e      	add	r0, pc, #312	@ (adr r0, 0x7530)
    73f8:	efda e0f2 	vshr.s64	q15, q9, #38
    73fc:	ce2d      	ldmia	r6!, {r0, r2, r3, r5}
    73fe:	1282      	asrs	r2, r0, #10
    7400:	6829      	ldr	r1, [r5, #0]
    7402:	5e26      	ldrsh	r6, [r4, r0]
    7404:	5df3      	ldrb	r3, [r6, r7]
    7406:	df10      	svc	16
    7408:	30ae      	adds	r0, #174	@ 0xae
    740a:	1470      	asrs	r0, r6, #17
    740c:	6241      	str	r1, [r0, #36]	@ 0x24
    740e:	5000      	str	r0, [r0, r0]
    7410:	35c8      	adds	r5, #200	@ 0xc8
    7412:	9c80      	ldr	r4, [sp, #512]	@ 0x200
    7414:	8040      	strh	r0, [r0, #2]
    7416:	455c      	cmp	r4, fp
    7418:	4662      	mov	r2, ip
    741a:	0471      	lsls	r1, r6, #17
    741c:	080a      	lsrs	r2, r1, #32
    741e:	035a      	lsls	r2, r3, #13
    7420:	2d11      	cmp	r5, #17
    7422:	1473      	asrs	r3, r6, #17
    7424:	7146      	strb	r6, [r0, #5]
    7426:	0a04      	lsrs	r4, r0, #8
    7428:	5a01      	ldrh	r1, [r0, r0]
    742a:	1104      	asrs	r4, r0, #4
    742c:	7322      	strb	r2, [r4, #12]
    742e:	4614      	mov	r4, r2
    7430:	0471      	lsls	r1, r6, #17
    7432:	020a      	lsls	r2, r1, #8
    7434:	055a      	lsls	r2, r3, #21
    7436:	1711      	asrs	r1, r2, #28
    7438:	1473      	asrs	r3, r6, #17
    743a:	7146      	strb	r6, [r0, #5]
    743c:	0a04      	lsrs	r4, r0, #8
    743e:	5a04      	ldrh	r4, [r0, r0]
    7440:	1106      	asrs	r6, r0, #4
    7442:	730c      	strb	r4, [r1, #12]
    7444:	d214      	bcs.n	0x7470
    7446:	062e      	lsls	r6, r5, #24
    7448:	a160      	add	r1, pc, #384	@ (adr r1, 0x75cc)
    744a:	5000      	str	r0, [r0, r0]
    744c:	5c80      	ldrb	r0, [r0, r2]
    744e:	9c05      	ldr	r4, [sp, #20]
    7450:	0c05      	lsrs	r5, r0, #16
    7452:	06d0      	lsls	r0, r2, #27
    7454:	1467      	asrs	r7, r4, #17
    7456:	6145      	str	r5, [r0, #20]
    7458:	02df      	lsls	r7, r3, #11
    745a:	dff1      	svc	241	@ 0xf1
    745c:	047f      	lsls	r7, r7, #17
    745e:	c046      	stmia	r0!, {r1, r2, r6}
    7460:	6008      	str	r0, [r1, #0]
    7462:	0461      	lsls	r1, r4, #17
    7464:	018c      	lsls	r4, r1, #6
    7466:	4615      	mov	r5, r2
    7468:	28c0      	cmp	r0, #192	@ 0xc0
    746a:	8130      	strh	r0, [r6, #8]
    746c:	a169      	add	r1, pc, #420	@ (adr r1, 0x7614)
    746e:	8010      	strh	r0, [r2, #0]
    7470:	a129      	add	r1, pc, #164	@ (adr r1, 0x7518)
    7472:	e000      	b.n	0x7476
    7474:	0a5f      	lsrs	r7, r3, #9
    7476:	ee02 00a2 	cdp	0, 0, cr0, cr2, cr2, {5}
    747a:	1df0      	adds	r0, r6, #7
    747c:	df10      	svc	16
    747e:	047f      	lsls	r7, r7, #17
    7480:	c046      	stmia	r0!, {r1, r2, r6}
    7482:	8020      	strh	r0, [r4, #0]
    7484:	606c      	str	r4, [r5, #4]
    7486:	ee04 00a2 	cdp	0, 0, cr0, cr4, cr2, {5}
    748a:	1df0      	adds	r0, r6, #7
    748c:	df10      	svc	16
    748e:	047f      	lsls	r7, r7, #17
    7490:	c046      	stmia	r0!, {r1, r2, r6}
    7492:	8060      	strh	r0, [r4, #2]
    7494:	606c      	str	r4, [r5, #4]
    7496:	ee04 00a2 	cdp	0, 0, cr0, cr4, cr2, {5}
    749a:	1df0      	adds	r0, r6, #7
    749c:	df10      	svc	16
    749e:	047f      	lsls	r7, r7, #17
    74a0:	c046      	stmia	r0!, {r1, r2, r6}
    74a2:	c018      	stmia	r0!, {r3, r4}
    74a4:	0460      	lsls	r0, r4, #17
    74a6:	008c      	lsls	r4, r1, #2
    74a8:	ee0a 00a7 	cdp	0, 0, cr0, cr10, cr7, {5}
    74ac:	5fe0      	ldrsh	r0, [r4, r7]
    74ae:	010a      	lsls	r2, r1, #4
    74b0:	a2ee      	add	r2, pc, #952	@ (adr r2, 0x786c)
    74b2:	f000 101d 	and.w	r0, r0, #1900573	@ 0x1d001d
    74b6:	7fdf      	ldrb	r7, [r3, #31]
    74b8:	4604      	mov	r4, r0
    74ba:	40c0      	lsrs	r0, r0
    74bc:	2221      	movs	r2, #33	@ 0x21
    74be:	0a08      	lsrs	r0, r1, #8
    74c0:	9800      	ldr	r0, [sp, #0]
    74c2:	4653      	mov	r3, sl
    74c4:	80c0      	strh	r0, [r0, #6]
    74c6:	2222      	movs	r2, #34	@ 0x22
    74c8:	0a08      	lsrs	r0, r1, #8
    74ca:	9801      	ldr	r0, [sp, #4]
    74cc:	463f      	mov	r7, r7
    74ce:	c0c0      	stmia	r0!, {r6, r7}
    74d0:	2223      	movs	r2, #35	@ 0x23
    74d2:	0a08      	lsrs	r0, r1, #8
    74d4:	9802      	ldr	r0, [sp, #8]
    74d6:	462b      	mov	r3, r5
    74d8:	00c0      	lsls	r0, r0, #3
    74da:	2225      	movs	r2, #37	@ 0x25
    74dc:	0a08      	lsrs	r0, r1, #8
    74de:	9803      	ldr	r0, [sp, #12]
    74e0:	4617      	mov	r7, r2
    74e2:	40c0      	lsrs	r0, r0
    74e4:	2226      	movs	r2, #38	@ 0x26
    74e6:	0a07      	lsrs	r7, r0, #8
    74e8:	ee04 20a2 	cdp	0, 0, cr2, cr4, cr2, {5}
    74ec:	1df0      	adds	r0, r6, #7
    74ee:	df10      	svc	16
    74f0:	047f      	lsls	r7, r7, #17
    74f2:	c046      	stmia	r0!, {r1, r2, r6}
    74f4:	c008      	stmia	r0!, {r3}
    74f6:	0460      	lsls	r0, r4, #17
    74f8:	018c      	lsls	r4, r1, #6
    74fa:	ee0a 00a7 	cdp	0, 0, cr0, cr10, cr7, {5}
    74fe:	5fe0      	ldrsh	r0, [r4, r7]
    7500:	010a      	lsls	r2, r1, #4
    7502:	a2ee      	add	r2, pc, #952	@ (adr r2, 0x78bc)
    7504:	f000 101d 	and.w	r0, r0, #1900573	@ 0x1d001d
    7508:	7fdf      	ldrb	r7, [r3, #31]
    750a:	4604      	mov	r4, r0
    750c:	18c0      	adds	r0, r0, r3
    750e:	6160      	str	r0, [r4, #20]
    7510:	8c04      	ldrh	r4, [r0, #32]
    7512:	1500      	asrs	r0, r0, #20
    7514:	c046      	stmia	r0!, {r1, r2, r6}
    7516:	3028      	adds	r0, #40	@ 0x28
    7518:	6981      	ldr	r1, [r0, #24]
    751a:	00a1      	lsls	r1, r4, #2
    751c:	2980      	cmp	r1, #128	@ 0x80
    751e:	10a1      	asrs	r1, r4, #2
    7520:	5fe0      	ldrsh	r0, [r4, r7]
    7522:	020a      	lsls	r2, r1, #8
    7524:	a2ee      	add	r2, pc, #952	@ (adr r2, 0x78e0)
    7526:	f010 101d 	ands.w	r0, r0, #1900573	@ 0x1d001d
    752a:	7fdf      	ldrb	r7, [r3, #31]
    752c:	4604      	mov	r4, r0
    752e:	08c0      	lsrs	r0, r0, #3
    7530:	60c0      	str	r0, [r0, #12]
    7532:	8c04      	ldrh	r4, [r0, #32]
    7534:	0a01      	lsrs	r1, r0, #8
    7536:	a7ee      	add	r7, pc, #952	@ (adr r7, 0x78f0)
    7538:	e010      	b.n	0x755c
    753a:	0a5f      	lsrs	r7, r3, #9
    753c:	ee00 10a2 	cdp	0, 0, cr1, cr0, cr2, {5}
    7540:	1df0      	adds	r0, r6, #7
    7542:	df10      	svc	16
    7544:	047f      	lsls	r7, r7, #17
    7546:	c046      	stmia	r0!, {r1, r2, r6}
    7548:	4008      	ands	r0, r1
    754a:	0461      	lsls	r1, r4, #17
    754c:	050c      	lsls	r4, r1, #20
    754e:	09c8      	lsrs	r0, r1, #7
    7550:	8046      	strh	r6, [r0, #2]
    7552:	ee10 00a2 	cdp	0, 1, cr0, cr0, cr2, {5}
    7556:	1df0      	adds	r0, r6, #7
    7558:	df10      	svc	16
    755a:	047f      	lsls	r7, r7, #17
    755c:	c046      	stmia	r0!, {r1, r2, r6}
    755e:	8008      	strh	r0, [r1, #0]
    7560:	0462      	lsls	r2, r4, #17
    7562:	018c      	lsls	r4, r1, #6
    7564:	4627      	mov	r7, r4
    7566:	28c0      	cmp	r0, #192	@ 0xc0
    7568:	6260      	str	r0, [r4, #36]	@ 0x24
    756a:	8c04      	ldrh	r4, [r0, #32]
    756c:	2503      	movs	r5, #3
    756e:	c046      	stmia	r0!, {r1, r2, r6}
    7570:	3048      	adds	r0, #72	@ 0x48
    7572:	6982      	ldr	r2, [r0, #24]
    7574:	40a2      	lsls	r2, r4
    7576:	2981      	cmp	r1, #129	@ 0x81
    7578:	80a2      	strh	r2, [r4, #4]
    757a:	a982      	add	r1, sp, #520	@ 0x208
    757c:	c0a1      	stmia	r0!, {r0, r5, r7}
    757e:	2983      	cmp	r1, #131	@ 0x83
    7580:	00a1      	lsls	r1, r4, #2
    7582:	5fe5      	ldrsh	r5, [r4, r7]
    7584:	640a      	str	r2, [r1, #64]	@ 0x40
    7586:	a2ee      	add	r2, pc, #952	@ (adr r2, 0x7940)
    7588:	f3c0 101d 	ubfx	r0, r0, #4, #30
    758c:	7fdf      	ldrb	r7, [r3, #31]
    758e:	4604      	mov	r4, r0
    7590:	08c0      	lsrs	r0, r0, #3
    7592:	60c0      	str	r0, [r0, #12]
    7594:	8c04      	ldrh	r4, [r0, #32]
    7596:	0a01      	lsrs	r1, r0, #8
    7598:	a7ee      	add	r7, pc, #952	@ (adr r7, 0x7954)
    759a:	e000      	b.n	0x759e
    759c:	0a5f      	lsrs	r7, r3, #9
    759e:	ee01 00a2 	cdp	0, 0, cr0, cr1, cr2, {5}
    75a2:	1df0      	adds	r0, r6, #7
    75a4:	df10      	svc	16
    75a6:	057e      	lsls	r6, r7, #21
    75a8:	6147      	str	r7, [r0, #20]
    75aa:	5414      	strb	r4, [r2, r0]
    75ac:	2386      	movs	r3, #134	@ 0x86
    75ae:	ec84 6440 	cfstrs	mvf6, [r4], {64}	@ 0x40
    75b2:	0a28      	lsrs	r0, r5, #8
    75b4:	0d01      	lsrs	r1, r0, #20
    75b6:	63fe      	str	r6, [r7, #60]	@ 0x3c
    75b8:	4504      	cmp	r4, r0
    75ba:	df86      	svc	134	@ 0x86
    75bc:	f102 7edf 	add.w	lr, r2, #29229056	@ 0x1be0000
    75c0:	5704      	ldrsb	r4, [r0, r4]
    75c2:	1461      	asrs	r1, r4, #17
    75c4:	8654      	strh	r4, [r2, #50]	@ 0x32
    75c6:	2423      	movs	r4, #35	@ 0x23
    75c8:	0c32      	lsrs	r2, r6, #16
    75ca:	8644      	strh	r4, [r0, #50]	@ 0x32
    75cc:	d108      	bne.n	0x75e0
    75ce:	3fe0      	subs	r7, #224	@ 0xe0
    75d0:	5046      	str	r6, [r0, r1]
    75d2:	f864 102d 	str??.w	r1, [r4, sp, lsl #2]
    75d6:	5f44      	ldrsh	r4, [r0, r5]
    75d8:	8654      	strh	r4, [r2, #50]	@ 0x32
    75da:	2423      	movs	r4, #35	@ 0x23
    75dc:	0832      	lsrs	r2, r6, #32
    75de:	8644      	strh	r4, [r0, #50]	@ 0x32
    75e0:	5f45      	ldrsh	r5, [r0, r5]
    75e2:	5f44      	ldrsh	r4, [r0, r5]
    75e4:	0880      	lsrs	r0, r0, #2
    75e6:	10a2      	asrs	r2, r4, #2
    75e8:	6540      	str	r0, [r0, #84]	@ 0x54
    75ea:	4238      	tst	r0, r7
    75ec:	10c8      	asrs	r0, r1, #3
    75ee:	8644      	strh	r4, [r0, #50]	@ 0x32
    75f0:	80a2      	strh	r2, [r4, #4]
    75f2:	1080      	asrs	r0, r0, #2
    75f4:	5f45      	ldrsh	r5, [r0, r5]
    75f6:	df10      	svc	16
    75f8:	057e      	lsls	r6, r7, #21
    75fa:	6147      	str	r7, [r0, #20]
    75fc:	5414      	strb	r4, [r2, r0]
    75fe:	2387      	movs	r3, #135	@ 0x87
    7600:	ec84 7440 	cfstrs	mvf7, [r4], {64}	@ 0x40
    7604:	0a28      	lsrs	r0, r5, #8
    7606:	0d01      	lsrs	r1, r0, #20
    7608:	63fe      	str	r6, [r7, #60]	@ 0x3c
    760a:	4504      	cmp	r4, r0
    760c:	df87      	svc	135	@ 0x87
    760e:	f102 7edf 	add.w	lr, r2, #29229056	@ 0x1be0000
    7612:	5704      	ldrsb	r4, [r0, r4]
    7614:	1461      	asrs	r1, r4, #17
    7616:	8754      	strh	r4, [r2, #58]	@ 0x3a
    7618:	2423      	movs	r4, #35	@ 0x23
    761a:	0c32      	lsrs	r2, r6, #16
    761c:	8744      	strh	r4, [r0, #58]	@ 0x3a
    761e:	d108      	bne.n	0x7632
    7620:	3fe0      	subs	r7, #224	@ 0xe0
    7622:	5046      	str	r6, [r0, r1]
    7624:	f874 102d 	ldr??.w	r1, [r4, sp, lsl #2]
    7628:	6044      	str	r4, [r0, #4]
    762a:	8754      	strh	r4, [r2, #58]	@ 0x3a
    762c:	2423      	movs	r4, #35	@ 0x23
    762e:	0832      	lsrs	r2, r6, #32
    7630:	8744      	strh	r4, [r0, #58]	@ 0x3a
    7632:	6045      	str	r5, [r0, #4]
    7634:	6044      	str	r4, [r0, #4]
    7636:	0880      	lsrs	r0, r0, #2
    7638:	10a2      	asrs	r2, r4, #2
    763a:	7540      	strb	r0, [r0, #21]
    763c:	4238      	tst	r0, r7
    763e:	10c8      	asrs	r0, r1, #3
    7640:	8744      	strh	r4, [r0, #58]	@ 0x3a
    7642:	80a2      	strh	r2, [r4, #4]
    7644:	1080      	asrs	r0, r0, #2
    7646:	6045      	str	r5, [r0, #4]
    7648:	d210      	bcs.n	0x766c
    764a:	0ace      	lsrs	r6, r1, #11
    764c:	0210      	lsls	r0, r2, #8
    764e:	7aa4      	ldrb	r4, [r4, #10]
    7650:	ad81      	add	r5, sp, #516	@ 0x204
    7652:	a410      	add	r4, pc, #64	@ (adr r4, 0x7694)
    7654:	800a      	strh	r2, [r1, #0]
    7656:	4299      	cmp	r1, r3
    7658:	8aa4      	ldrh	r4, [r4, #20]
    765a:	0d10      	lsrs	r0, r2, #20
    765c:	1c98      	adds	r0, r3, #2
    765e:	ab40      	add	r3, sp, #256	@ 0x100
    7660:	d83b      	bhi.n	0x76da
    7662:	4109      	asrs	r1, r1
    7664:	00ab      	lsls	r3, r5, #2
    7666:	44fe      	add	lr, pc
    7668:	8ab4      	ldrh	r4, [r6, #20]
    766a:	0d10      	lsrs	r0, r2, #20
    766c:	250a      	movs	r5, #10
    766e:	01ef      	lsls	r7, r5, #7
    7670:	d2f1      	bcs.n	0x7656
    7672:	0ace      	lsrs	r6, r1, #11
    7674:	0240      	lsls	r0, r0, #9
    7676:	0aa4      	lsrs	r4, r4, #10
    7678:	2220      	movs	r2, #32
    767a:	410a      	asrs	r2, r1
    767c:	17aa      	asrs	r2, r5, #30
    767e:	2e98      	cmp	r6, #152	@ 0x98
    7680:	aa44      	add	r2, sp, #272	@ 0x110
    7682:	10a2      	asrs	r2, r4, #2
    7684:	80d0      	strh	r0, [r2, #6]
    7686:	01f9      	lsls	r1, r7, #7
    7688:	0ab4      	lsrs	r4, r6, #10
    768a:	2220      	movs	r2, #32
    768c:	4109      	asrs	r1, r1
    768e:	3bab      	subs	r3, #171	@ 0xab
    7690:	45fe      	cmp	lr, pc
    7692:	2ab4      	cmp	r2, #180	@ 0xb4
    7694:	010a      	lsls	r2, r1, #4
    7696:	0a0d      	lsrs	r5, r1, #8
    7698:	ef25 f101 	vrhadd.s32	d15, d5, d1
    769c:	fcdf 4427 	ldc2l	4, cr4, [pc], {39}	@ 0x27
    76a0:	5ab2      	ldrh	r2, [r6, r2]
    76a2:	f20a 06fe 	addw	r6, sl, #254	@ 0xfe
    76a6:	c06e      	stmia	r0!, {r1, r2, r3, r5, r6}
    76a8:	2ae7      	cmp	r2, #231	@ 0xe7
    76aa:	2268      	movs	r2, #104	@ 0x68
    76ac:	a082      	add	r0, pc, #520	@ (adr r0, 0x78b8)
    76ae:	8000      	strh	r0, [r0, #0]
    76b0:	41a9      	sbcs	r1, r5
    76b2:	8b44      	ldrh	r4, [r0, #26]
    76b4:	e7c5      	b.n	0x7642
    76b6:	152a      	asrs	r2, r5, #20
    76b8:	0a59      	lsrs	r1, r3, #9
    76ba:	ef15 10a1 	vhadd.s16	d1, d21, d17
    76be:	27e0      	movs	r7, #224	@ 0xe0
    76c0:	04df      	lsls	r7, r3, #19
    76c2:	dff1      	svc	241	@ 0xf1
    76c4:	27fc      	movs	r7, #252	@ 0xfc
    76c6:	b344      	cbz	r4, 0x771a
    76c8:	0a5a      	lsrs	r2, r3, #9
    76ca:	fef2 6e06 	cdp2	14, 15, cr6, cr2, cr6, {0}
    76ce:	e7c0      	b.n	0x7652
    76d0:	682a      	ldr	r2, [r5, #0]
    76d2:	08d8      	lsrs	r0, r3, #3
    76d4:	000a      	movs	r2, r1
    76d6:	1a98      	subs	r0, r3, r2
    76d8:	b444      	push	{r2, r6}
    76da:	7c58      	ldrb	r0, [r3, #17]
    76dc:	42ae      	cmp	r6, r5
    76de:	a591      	add	r5, pc, #580	@ (adr r5, 0x7924)
    76e0:	f150 0a1e 	adcs.w	sl, r0, #30
    76e4:	7e01      	ldrb	r1, [r0, #24]
    76e6:	4df2      	ldr	r5, [pc, #968]	@ (0x7ab0)
    76e8:	df10      	svc	16
    76ea:	057c      	lsls	r4, r7, #21
    76ec:	6147      	str	r7, [r0, #20]
    76ee:	2114      	movs	r1, #20
    76f0:	b892      			@ <UNDEFINED> instruction: 0xb892
    76f2:	e24f      	b.n	0x7b94
    76f4:	cc26      	ldmia	r4!, {r1, r2, r5}
    76f6:	0000      	movs	r0, r0
    76f8:	6329      	str	r1, [r5, #48]	@ 0x30
    76fa:	fe04 24e2 	cdp2	4, 0, cr2, cr4, cr2, {7}
    76fe:	df84      	svc	132	@ 0x84
    7700:	f104 000a 	add.w	r0, r4, #10
    7704:	b545      	push	{r0, r2, r6, lr}
    7706:	ba45      	rev16	r5, r0
    7708:	000a      	movs	r2, r1
    770a:	b645      			@ <UNDEFINED> instruction: 0xb645
    770c:	bb45      	cbnz	r5, 0x7760
    770e:	000a      	movs	r2, r1
    7710:	b745      			@ <UNDEFINED> instruction: 0xb745
    7712:	bc45      	pop	{r0, r2, r6}
    7714:	000a      	movs	r2, r1
    7716:	b845      			@ <UNDEFINED> instruction: 0xb845
    7718:	bd45      	pop	{r0, r2, r6, pc}
    771a:	4410      	add	r0, r2
    771c:	45b5      	cmp	sp, r6
    771e:	44ba      	add	sl, r7
    7720:	45b6      	cmp	lr, r6
    7722:	44bb      	add	fp, r7
    7724:	45b7      	cmp	pc, r6
    7726:	44bc      	add	ip, r7
    7728:	45b8      	cmp	r8, r7
    772a:	10bd      	asrs	r5, r7, #2
    772c:	ba44      	rev16	r4, r0
    772e:	b554      	push	{r2, r4, r6, lr}
    7730:	8423      	strh	r3, [r4, #32]
    7732:	42bb      	cmp	r3, r7
    7734:	4bb4      	ldr	r3, [pc, #720]	@ (0x7a08)
    7736:	3b65      	subs	r3, #101	@ 0x65
    7738:	b842      			@ <UNDEFINED> instruction: 0xb842
    773a:	441c      	add	r4, r3
    773c:	54bc      	strb	r4, [r7, r2]
    773e:	23b7      	movs	r3, #183	@ 0xb7
    7740:	7294      	strb	r4, [r2, #10]
    7742:	bd44      	pop	{r2, r6, pc}
    7744:	b854      			@ <UNDEFINED> instruction: 0xb854
    7746:	9423      	str	r4, [sp, #140]	@ 0x8c
    7748:	0a31      	lsrs	r1, r6, #8
    774a:	ee01 00a2 	cdp	0, 0, cr0, cr1, cr2, {5}
    774e:	f100 7edf 	add.w	lr, r0, #29229056	@ 0x1be0000
    7752:	4705      	bx	r0
    7754:	1461      	asrs	r1, r4, #17
    7756:	9e14      	ldr	r6, [sp, #80]	@ 0x50
    7758:	4735      	bx	r6
    775a:	2da8      	cmp	r5, #168	@ 0xa8
    775c:	4046      	eors	r6, r0
    775e:	5c81      	ldrb	r1, [r0, r2]
    7760:	9423      	str	r4, [sp, #140]	@ 0x8c
    7762:	4633      	mov	r3, r6
    7764:	2455      	movs	r4, #85	@ 0x55
    7766:	0466      	lsls	r6, r4, #17
    7768:	bee0      	bkpt	0x00e0
    776a:	2556      	movs	r5, #86	@ 0x56
    776c:	8598      	strh	r0, [r3, #44]	@ 0x2c
    776e:	8546      	strh	r6, [r0, #42]	@ 0x2a
    7770:	fe10 5461 	cdp2	4, 1, cr5, cr0, cr1, {3}
    7774:	02df      	lsls	r7, r3, #11
    7776:	44f1      	add	r9, lr
    7778:	0862      	lsrs	r2, r4, #1
    777a:	40d1      	lsrs	r1, r2
    777c:	4614      	mov	r4, r2
    777e:	3625      	adds	r6, #37	@ 0x25
    7780:	2242      	movs	r2, #66	@ 0x42
    7782:	1062      	asrs	r2, r4, #1
    7784:	0624      	lsls	r4, r4, #24
    7786:	ee00 244b 	cdp	4, 0, cr2, cr0, cr11, {2}
    778a:	8826      	ldrh	r6, [r4, #0]
    778c:	0584      	lsls	r4, r0, #22
    778e:	55c8      	strb	r0, [r1, r7]
    7790:	59c0      	ldr	r0, [r0, r7]
    7792:	4110      	asrs	r0, r2
    7794:	0064      	lsls	r4, r4, #1
    7796:	8c41      	ldrh	r1, [r0, #34]	@ 0x22
    7798:	4100      	asrs	r0, r0
    779a:	008d      	lsls	r5, r1, #2
    779c:	8e41      	ldrh	r1, [r0, #50]	@ 0x32
    779e:	1000      	asrs	r0, r0, #32
    77a0:	dcd2      	bgt.n	0x7748
    77a2:	0008      	movs	r0, r1
    77a4:	cd21      	ldmia	r5, {r0, r5}
    77a6:	008c      	lsls	r4, r1, #2
    77a8:	0a07      	lsrs	r7, r0, #8
    77aa:	ee01 00a2 	cdp	0, 0, cr0, cr1, cr2, {5}
    77ae:	f100 c951 	bfl	4, 0x7a54
    77b2:	0005      	movs	r5, r0
    77b4:	264c      	movs	r6, #76	@ 0x4c
    77b6:	4c6d      	ldr	r4, [pc, #436]	@ (0x796c)
    77b8:	5107      	str	r7, [r0, r4]
    77ba:	e67f      	b.n	0x74bc
    77bc:	2014      	movs	r0, #20
    77be:	1000      	asrs	r0, r0, #32
    77c0:	df10      	svc	16
    77c2:	167e      	asrs	r6, r7, #25
    77c4:	000a      	movs	r2, r1
    77c6:	8047      	strh	r7, [r0, #2]
    77c8:	65b9      	str	r1, [r7, #88]	@ 0x58
    77ca:	5804      	ldr	r4, [r0, r0]
    77cc:	2912      	cmp	r1, #18
    77ce:	aa05      	add	r2, sp, #20
    77d0:	ed00 05ca 	cfstr32	mvfx0, [r0, #-808]	@ 0xfffffcd8
    77d4:	5852      	ldr	r2, [r2, r1]
    77d6:	046a      	lsls	r2, r5, #17
    77d8:	1258      	asrs	r0, r3, #9
    77da:	0529      	lsls	r1, r5, #20
    77dc:	caed      	ldmia	r2, {r0, r2, r3, r5, r6, r7}
    77de:	5205      	strh	r5, [r0, r0]
    77e0:	0c08      	lsrs	r0, r1, #16
    77e2:	1ce0      	adds	r0, r4, #3
    77e4:	460f      	mov	r7, r1
    77e6:	2580      	movs	r5, #128	@ 0x80
    77e8:	5291      	strh	r1, [r2, r2]
    77ea:	aed0      	add	r6, sp, #832	@ 0x340
    77ec:	205c      	movs	r0, #92	@ 0x5c
    77ee:	0a85      	lsrs	r5, r0, #10
    77f0:	8700      	strh	r0, [r0, #56]	@ 0x38
    77f2:	4603      	mov	r3, r0
    77f4:	1080      	asrs	r0, r0, #2
    77f6:	460d      	mov	r5, r1
    77f8:	d0c0      	beq.n	0x777c
    77fa:	ad82      	add	r5, sp, #520	@ 0x208
    77fc:	1669      	asrs	r1, r5, #25
    77fe:	02df      	lsls	r7, r3, #11
    7800:	dff1      	svc	241	@ 0xf1
    7802:	801d      	strh	r5, [r3, #0]
    7804:	112f      	asrs	r7, r5, #4
    7806:	31bc      	adds	r1, #188	@ 0xbc
    7808:	821e      	strh	r6, [r3, #16]
    780a:	073e      	lsls	r6, r7, #28
    780c:	010a      	lsls	r2, r1, #4
    780e:	a2ee      	add	r2, pc, #952	@ (adr r2, 0x7bc8)
    7810:	d000      	beq.n	0x7814
    7812:	c018      	stmia	r0!, {r3, r4}
    7814:	0c36      	lsrs	r6, r6, #16
    7816:	05c9      	lsls	r1, r1, #23
    7818:	010a      	lsls	r2, r1, #4
    781a:	2d21      	cmp	r5, #33	@ 0x21
    781c:	8cb5      	ldrh	r5, [r6, #36]	@ 0x24
    781e:	7301      	strb	r1, [r0, #12]
    7820:	20c3      	movs	r0, #195	@ 0xc3
    7822:	03e7      	lsls	r7, r4, #15
    7824:	f0cc 0a06 			@ <UNDEFINED> instruction: 0xf0cc0a06
    7828:	ed01 447b 	cfstrs	mvf4, [r1, #-492]	@ 0xfffffe14
    782c:	7521      	strb	r1, [r4, #20]
    782e:	47b4      	blxns	r6
    7830:	2462      	movs	r4, #98	@ 0x62
    7832:	008c      	lsls	r4, r1, #2
    7834:	c316      	stmia	r3!, {r1, r2, r4}
    7836:	5c92      	ldrb	r2, [r2, r2]
    7838:	4c00      	ldr	r4, [pc, #0]	@ (0x783c)
    783a:	6d26      	ldr	r6, [r4, #80]	@ 0x50
    783c:	074c      	lsls	r4, r1, #29
    783e:	3398      	adds	r3, #152	@ 0x98
    7840:	28c3      	cmp	r0, #195	@ 0xc3
    7842:	a3e7      	add	r3, pc, #924	@ (adr r3, 0x7be0)
    7844:	1010      	asrs	r0, r2, #32
    7846:	49d3      	ldr	r1, [pc, #844]	@ (0x7b94)
    7848:	e98b 8c31 			@ <UNDEFINED> instruction: 0xe98b8c31
    784c:	05c9      	lsls	r1, r1, #23
    784e:	010a      	lsls	r2, r1, #4
    7850:	f721 8cb4 	bgt.w	0xfffa91bc
    7854:	0701      	lsls	r1, r0, #28
    7856:	28c3      	cmp	r0, #195	@ 0xc3
    7858:	33e7      	adds	r3, #231	@ 0xe7
    785a:	c92e      	ldmia	r1, {r1, r2, r3, r5}
    785c:	6505      	str	r5, [r0, #80]	@ 0x50
    785e:	010a      	lsls	r2, r1, #4
    7860:	e721      	b.n	0x76a6
    7862:	8db4      	ldrh	r4, [r6, #44]	@ 0x2c
    7864:	5501      	strb	r1, [r0, r4]
    7866:	c6c2      	stmia	r6!, {r1, r6, r7}
    7868:	2074      	movs	r0, #116	@ 0x74
    786a:	0144      	lsls	r4, r0, #5
    786c:	4900      	ldr	r1, [pc, #0]	@ (0x7870)
    786e:	c6c2      	stmia	r6!, {r1, r6, r7}
    7870:	c074      	stmia	r0!, {r2, r4, r5, r6}
    7872:	000c      	movs	r4, r1
    7874:	4b80      	ldr	r3, [pc, #512]	@ (0x7a78)
    7876:	8c33      	ldrh	r3, [r6, #32]
    7878:	3e72      	subs	r6, #114	@ 0x72
    787a:	010a      	lsls	r2, r1, #4
    787c:	6721      	str	r1, [r4, #112]	@ 0x70
    787e:	04b4      	lsls	r4, r6, #18
    7880:	15c9      	asrs	r1, r1, #23
    7882:	dfb8      	svc	184	@ 0xb8
    7884:	90a0      	str	r0, [sp, #640]	@ 0x280
    7886:	9310      	str	r3, [sp, #64]	@ 0x40
    7888:	ae32      	add	r6, sp, #200	@ 0xc8
    788a:	a010      	add	r0, pc, #64	@ (adr r0, 0x78cc)
    788c:	1005      	asrs	r5, r0, #32
    788e:	8923      	ldrh	r3, [r4, #8]
    7890:	3dfc      	subs	r5, #252	@ 0xfc
    7892:	df10      	svc	16
    7894:	ed3f 05c9 	cfldr32	mvfx0, [pc, #-804]!	@ 0x7574
    7898:	1a00      	subs	r0, r0, r0
    789a:	21e3      	movs	r1, #227	@ 0xe3
    789c:	73e8      	strb	r0, [r5, #15]
    789e:	10a0      	asrs	r0, r4, #2
    78a0:	2ee0      	cmp	r6, #224	@ 0xe0
    78a2:	000a      	movs	r2, r1
    78a4:	018d      	lsls	r5, r1, #6
    78a6:	0a0a      	lsrs	r2, r1, #8
    78a8:	4701      	bx	r0
    78aa:	3fe0      	subs	r7, #224	@ 0xe0
    78ac:	000a      	movs	r2, r1
    78ae:	6047      	str	r7, [r0, #4]
    78b0:	df04      	svc	4
    78b2:	f101 3fdf 	add.w	pc, r1, #3755991007	@ 0xdfdfdfdf
    78b6:	821e      	strh	r6, [r3, #16]
    78b8:	073e      	lsls	r6, r7, #28
    78ba:	010a      	lsls	r2, r1, #4
    78bc:	a2ee      	add	r2, pc, #952	@ (adr r2, 0x7c78)
    78be:	d000      	beq.n	0x78c2
    78c0:	a018      	add	r0, pc, #96	@ (adr r0, 0x7924)
    78c2:	10a0      	asrs	r0, r4, #2
    78c4:	0470      	lsls	r0, r6, #17
    78c6:	a3fe      	add	r3, pc, #1016	@ (adr r3, 0x7cc0)
    78c8:	7000      	strb	r0, [r0, #0]
    78ca:	4604      	mov	r4, r0
    78cc:	1df0      	adds	r0, r6, #7
    78ce:	df10      	svc	16
    78d0:	167e      	asrs	r6, r7, #25
    78d2:	6047      	str	r7, [r0, #4]
    78d4:	5804      	ldr	r4, [r0, r0]
    78d6:	2912      	cmp	r1, #18
    78d8:	aa05      	add	r2, sp, #20
    78da:	ed01 05ca 	cfstr32	mvfx0, [r1, #-808]	@ 0xfffffcd8
    78de:	5852      	ldr	r2, [r2, r1]
    78e0:	046a      	lsls	r2, r5, #17
    78e2:	1258      	asrs	r0, r3, #9
    78e4:	0529      	lsls	r1, r5, #20
    78e6:	caed      	ldmia	r2, {r0, r2, r3, r5, r6, r7}
    78e8:	5205      	strh	r5, [r0, r0]
    78ea:	0c08      	lsrs	r0, r1, #16
    78ec:	1ce0      	adds	r0, r4, #3
    78ee:	460f      	mov	r7, r1
    78f0:	65a0      	str	r0, [r4, #88]	@ 0x58
    78f2:	ef20 6ded 	vsub.f32	q3, q8, <illegal reg q14.5>
    78f6:	5243      	strh	r3, [r0, r1]
    78f8:	2a68      	cmp	r2, #104	@ 0x68
    78fa:	0460      	lsls	r0, r4, #17
    78fc:	1258      	asrs	r0, r3, #9
    78fe:	0529      	lsls	r1, r5, #20
    7900:	caed      	ldmia	r2, {r0, r2, r3, r5, r6, r7}
    7902:	5205      	strh	r5, [r0, r0]
    7904:	3a78      	subs	r2, #120	@ 0x78
    7906:	1660      	asrs	r0, r4, #25
    7908:	02df      	lsls	r7, r3, #11
    790a:	dff1      	svc	241	@ 0xf1
    790c:	047d      	lsls	r5, r7, #17
    790e:	c544      	stmia	r5!, {r2, r6}
    7910:	0c5a      	lsrs	r2, r3, #17
    7912:	2ef2      	cmp	r6, #242	@ 0xf2
    7914:	8c45      	ldrh	r5, [r0, #34]	@ 0x22
    7916:	6f06      	ldr	r6, [r0, #112]	@ 0x70
    7918:	ed31 068b 	ldc	6, cr0, [r1, #-556]!	@ 0xfffffdd4
    791c:	4600      	mov	r0, r0
    791e:	21e3      	movs	r1, #227	@ 0xe3
    7920:	73e8      	strb	r0, [r5, #15]
    7922:	10a0      	asrs	r0, r4, #2
    7924:	2ee0      	cmp	r6, #224	@ 0xe0
    7926:	000a      	movs	r2, r1
    7928:	18d2      	adds	r2, r2, r3
    792a:	0f30      	lsrs	r0, r6, #28
    792c:	2046      	movs	r0, #70	@ 0x46
    792e:	4e8d      	ldr	r6, [pc, #564]	@ (0x7b64)
    7930:	60e8      	str	r0, [r5, #12]
    7932:	4e04      	ldr	r6, [pc, #16]	@ (0x7944)
    7934:	b141      	cbz	r1, 0x7948
    7936:	8268      	strh	r0, [r5, #18]
    7938:	4859      	ldr	r0, [pc, #356]	@ (0x7aa0)
    793a:	68b0      	ldr	r0, [r6, #8]
    793c:	d108      	bne.n	0x7950
    793e:	9990      	ldr	r1, [sp, #576]	@ 0x240
    7940:	d30c      	bcc.n	0x795c
    7942:	68be      	ldr	r6, [r7, #8]
    7944:	f010 1e34 	ands.w	lr, r0, #3407924	@ 0x340034
    7948:	3e82      	subs	r6, #130	@ 0x82
    794a:	0a07      	lsrs	r7, r0, #8
    794c:	ee01 00a2 	cdp	0, 0, cr0, cr1, cr2, {5}
    7950:	18d0      	adds	r0, r2, r3
    7952:	62a0      	str	r0, [r4, #40]	@ 0x28
    7954:	0c04      	lsrs	r4, r0, #16
    7956:	220c      	movs	r2, #12
    7958:	61e2      	str	r2, [r4, #28]
    795a:	4e04      	ldr	r6, [pc, #16]	@ (0x796c)
    795c:	b141      	cbz	r1, 0x7970
    795e:	8268      	strh	r0, [r5, #18]
    7960:	4859      	ldr	r0, [pc, #356]	@ (0x7ac8)
    7962:	68b0      	ldr	r0, [r6, #8]
    7964:	d108      	bne.n	0x7978
    7966:	a980      	add	r1, sp, #512	@ 0x200
    7968:	b517      	push	{r0, r1, r2, r4, lr}
    796a:	0068      	lsls	r0, r5, #1
    796c:	6f98      	ldr	r0, [r3, #120]	@ 0x78
    796e:	8b50      	ldrh	r0, [r2, #26]
    7970:	80c6      	strh	r6, [r0, #6]
    7972:	65dc      	str	r4, [r3, #92]	@ 0x5c
    7974:	4e04      	ldr	r6, [pc, #16]	@ (0x7988)
    7976:	b141      	cbz	r1, 0x798a
    7978:	8268      	strh	r0, [r5, #18]
    797a:	4859      	ldr	r0, [pc, #356]	@ (0x7ae0)
    797c:	68b0      	ldr	r0, [r6, #8]
    797e:	d108      	bne.n	0x7992
    7980:	14e0      	asrs	r0, r4, #19
    7982:	0186      	lsls	r6, r0, #6
    7984:	4308      	orrs	r0, r1
    7986:	68b1      	ldr	r1, [r6, #8]
    7988:	2423      	movs	r4, #35	@ 0x23
    798a:	3322      	adds	r3, #34	@ 0x22
    798c:	8b51      	ldrh	r1, [r2, #26]
    798e:	4006      	ands	r6, r0
    7990:	8c54      	ldrh	r4, [r2, #34]	@ 0x22
    7992:	0d10      	lsrs	r0, r2, #20
    7994:	c540      	stmia	r5!, {r6}
    7996:	c810      	ldmia	r0!, {r4}
    7998:	4407      	add	r7, r0
    799a:	eec5 00a2 	cdp	0, 12, cr0, cr5, cr2, {5}
    799e:	5450      	strb	r0, [r2, r1]
    79a0:	3fec      	subs	r7, #236	@ 0xec
    79a2:	8b51      	ldrh	r1, [r2, #26]
    79a4:	f006 103d 	and.w	r0, r6, #3997757	@ 0x3d003d
    79a8:	9ac3      	ldr	r2, [sp, #780]	@ 0x30c
    79aa:	305c      	adds	r0, #92	@ 0x5c
    79ac:	821e      	strh	r6, [r3, #16]
    79ae:	073e      	lsls	r6, r7, #28
    79b0:	010a      	lsls	r2, r1, #4
    79b2:	a2ee      	add	r2, pc, #952	@ (adr r2, 0x7d6c)
    79b4:	c000      	stmia	r0!, {}
    79b6:	7018      	strb	r0, [r3, #0]
    79b8:	8c30      	ldrh	r0, [r6, #32]
    79ba:	3e72      	subs	r6, #114	@ 0x72
    79bc:	010a      	lsls	r2, r1, #4
    79be:	015a      	lsls	r2, r3, #5
    79c0:	6021      	str	r1, [r4, #0]
    79c2:	10c7      	asrs	r7, r0, #3
    79c4:	fadf c347 			@ <UNDEFINED> instruction: 0xfadfc347
    79c8:	5c99      	ldrb	r1, [r3, r2]
    79ca:	00a0      	lsls	r0, r4, #2
    79cc:	2470      	movs	r4, #112	@ 0x70
    79ce:	4499      	add	r9, r3
    79d0:	2462      	movs	r4, #98	@ 0x62
    79d2:	1258      	asrs	r0, r3, #9
    79d4:	0529      	lsls	r1, r5, #20
    79d6:	caed      	ldmia	r2, {r0, r2, r3, r5, r6, r7}
    79d8:	5205      	strh	r5, [r0, r0]
    79da:	c848      	ldmia	r0!, {r3, r6}
    79dc:	2000      	movs	r0, #0
    79de:	1c33      	adds	r3, r6, #0
    79e0:	2462      	movs	r4, #98	@ 0x62
    79e2:	1258      	asrs	r0, r3, #9
    79e4:	0529      	lsls	r1, r5, #20
    79e6:	caed      	ldmia	r2, {r0, r2, r3, r5, r6, r7}
    79e8:	5205      	strh	r5, [r0, r0]
    79ea:	1ce8      	adds	r0, r5, #3
    79ec:	cc0e      	ldmia	r4!, {r1, r2, r3}
    79ee:	0000      	movs	r0, r0
    79f0:	b5b9      	push	{r0, r3, r4, r5, r7, lr}
    79f2:	2461      	movs	r4, #97	@ 0x61
    79f4:	1258      	asrs	r0, r3, #9
    79f6:	0529      	lsls	r1, r5, #20
    79f8:	caed      	ldmia	r2, {r0, r2, r3, r5, r6, r7}
    79fa:	5205      	strh	r5, [r0, r0]
    79fc:	3868      	subs	r0, #104	@ 0x68
    79fe:	00c0      	lsls	r0, r0, #3
    7a00:	3320      	adds	r3, #32
    7a02:	a188      	add	r1, pc, #544	@ (adr r1, 0x7c24)
    7a04:	1010      	asrs	r0, r2, #32
    7a06:	3413      	adds	r4, #19
    7a08:	8c2b      	ldrh	r3, [r5, #32]
    7a0a:	6b01      	ldr	r1, [r0, #48]	@ 0x30
    7a0c:	0c31      	lsrs	r1, r6, #16
    7a0e:	3e72      	subs	r6, #114	@ 0x72
    7a10:	a246      	add	r2, pc, #280	@ (adr r2, 0x7b2c)
    7a12:	2065      	movs	r0, #101	@ 0x65
    7a14:	edef 436d 	stcl	3, cr4, [pc, #436]!	@ 0x7bcc
    7a18:	e852 1e4c 			@ <UNDEFINED> instruction: 0xe8521e4c
    7a1c:	a246      	add	r2, pc, #280	@ (adr r2, 0x7b38)
    7a1e:	2065      	movs	r0, #101	@ 0x65
    7a20:	edef 436d 	stcl	3, cr4, [pc, #436]!	@ 0x7bd8
    7a24:	6852      	ldr	r2, [r2, #4]
    7a26:	2038      	movs	r0, #56	@ 0x38
    7a28:	11e4      	asrs	r4, r4, #7
    7a2a:	447a      	add	r2, pc
    7a2c:	67e0      	str	r0, [r4, #124]	@ 0x7c
    7a2e:	6f58      	ldr	r0, [r3, #116]	@ 0x74
    7a30:	10a0      	asrs	r0, r4, #2
    7a32:	fed0 1067 	cdp2	0, 13, cr1, cr0, cr7, {3}
    7a36:	26b3      	movs	r6, #179	@ 0xb3
    7a38:	347b      	adds	r4, #123	@ 0x7b
    7a3a:	2346      	movs	r3, #70	@ 0x46
    7a3c:	008c      	lsls	r4, r1, #2
    7a3e:	30e2      	adds	r0, #226	@ 0xe2
    7a40:	c92c      	ldmia	r1!, {r2, r3, r5}
    7a42:	c005      	stmia	r0!, {r0, r2}
    7a44:	d264      	bcs.n	0x7b10
    7a46:	74c6      	strb	r6, [r0, #19]
    7a48:	2460      	movs	r4, #96	@ 0x60
    7a4a:	1258      	asrs	r0, r3, #9
    7a4c:	0529      	lsls	r1, r5, #20
    7a4e:	caed      	ldmia	r2, {r0, r2, r3, r5, r6, r7}
    7a50:	5205      	strh	r5, [r0, r0]
    7a52:	3868      	subs	r0, #104	@ 0x68
    7a54:	08c0      	lsrs	r0, r0, #3
    7a56:	6350      	str	r0, [r2, #52]	@ 0x34
    7a58:	5824      	ldr	r4, [r4, r0]
    7a5a:	2912      	cmp	r1, #18
    7a5c:	ed05 05ca 	cfstr32	mvfx0, [r5, #-808]	@ 0xfffffcd8
    7a60:	6852      	ldr	r2, [r2, #4]
    7a62:	603a      	str	r2, [r7, #0]
    7a64:	5824      	ldr	r4, [r4, r0]
    7a66:	2912      	cmp	r1, #18
    7a68:	ed05 05ca 	cfstr32	mvfx0, [r5, #-808]	@ 0xfffffcd8
    7a6c:	2852      	cmp	r0, #82	@ 0x52
    7a6e:	01aa      	lsls	r2, r5, #6
    7a70:	03a7      	lsls	r7, r4, #14
    7a72:	a246      	add	r2, pc, #280	@ (adr r2, 0x7b8c)
    7a74:	2065      	movs	r0, #101	@ 0x65
    7a76:	edef 436d 	stcl	3, cr4, [pc, #436]!	@ 0x7c2c
    7a7a:	e852 2461 			@ <UNDEFINED> instruction: 0xe8522461
    7a7e:	1258      	asrs	r0, r3, #9
    7a80:	0529      	lsls	r1, r5, #20
    7a82:	caed      	ldmia	r2, {r0, r2, r3, r5, r6, r7}
    7a84:	5205      	strh	r5, [r0, r0]
    7a86:	1ce8      	adds	r0, r5, #3
    7a88:	461f      	mov	r7, r3
    7a8a:	2582      	movs	r5, #130	@ 0x82
    7a8c:	5291      	strh	r1, [r2, r2]
    7a8e:	aed0      	add	r6, sp, #832	@ 0x340
    7a90:	205c      	movs	r0, #92	@ 0x5c
    7a92:	8685      	strh	r5, [r0, #52]	@ 0x34
    7a94:	8d03      	ldrh	r3, [r0, #40]	@ 0x28
    7a96:	2600      	movs	r6, #0
    7a98:	020a      	lsls	r2, r1, #8
    7a9a:	6347      	str	r7, [r0, #52]	@ 0x34
    7a9c:	5824      	ldr	r4, [r4, r0]
    7a9e:	2912      	cmp	r1, #18
    7aa0:	aa05      	add	r2, sp, #20
    7aa2:	ed00 05ca 	cfstr32	mvfx0, [r0, #-808]	@ 0xfffffcd8
    7aa6:	5852      	ldr	r2, [r2, r1]
    7aa8:	799a      	ldrb	r2, [r3, #6]
    7aaa:	0a08      	lsrs	r0, r1, #8
    7aac:	4701      	bx	r0
    7aae:	c983      	ldmia	r1, {r0, r1, r7}
    7ab0:	8c37      	ldrh	r7, [r6, #32]
    7ab2:	3e72      	subs	r6, #114	@ 0x72
    7ab4:	010a      	lsls	r2, r1, #4
    7ab6:	2d21      	cmp	r5, #33	@ 0x21
    7ab8:	c3b2      	stmia	r3!, {r1, r4, r5, r7}
    7aba:	5c91      	ldrb	r1, [r2, r2]
    7abc:	00a0      	lsls	r0, r4, #2
    7abe:	3470      	adds	r4, #112	@ 0x70
    7ac0:	5998      	ldr	r0, [r3, r6]
    7ac2:	91c3      	str	r1, [sp, #780]	@ 0x30c
    7ac4:	805c      	strh	r4, [r3, #2]
    7ac6:	a4e9      	add	r4, pc, #932	@ (adr r4, 0x7e6c)
    7ac8:	7030      	strb	r0, [r6, #0]
    7aca:	9834      	ldr	r0, [sp, #208]	@ 0xd0
    7acc:	4643      	mov	r3, r8
    7ace:	2582      	movs	r5, #130	@ 0x82
    7ad0:	5291      	strh	r1, [r2, r2]
    7ad2:	aed0      	add	r6, sp, #832	@ 0x340
    7ad4:	205c      	movs	r0, #92	@ 0x5c
    7ad6:	ce85      	ldmia	r6!, {r0, r2, r7}
    7ad8:	20e1      	movs	r0, #225	@ 0xe1
    7ada:	4218      	tst	r0, r3
    7adc:	0015      	movs	r5, r2
    7ade:	2460      	movs	r4, #96	@ 0x60
    7ae0:	1258      	asrs	r0, r3, #9
    7ae2:	0529      	lsls	r1, r5, #20
    7ae4:	caed      	ldmia	r2, {r0, r2, r3, r5, r6, r7}
    7ae6:	5205      	strh	r5, [r0, r0]
    7ae8:	1ce8      	adds	r0, r5, #3
    7aea:	c31f      	stmia	r3!, {r0, r1, r2, r3, r4}
    7aec:	5c91      	ldrb	r1, [r2, r2]
    7aee:	2460      	movs	r4, #96	@ 0x60
    7af0:	d108      	bne.n	0x7b04
    7af2:	2460      	movs	r4, #96	@ 0x60
    7af4:	2d0c      	cmp	r5, #12
    7af6:	b0d9      	sub	sp, #356	@ 0x164
    7af8:	47ed      			@ <UNDEFINED> instruction: 0x47ed
    7afa:	06df      	lsls	r7, r3, #27
    7afc:	dff1      	svc	241	@ 0xf1
    7afe:	5448      	strb	r0, [r1, r1]
    7b00:	654c      	str	r4, [r1, #84]	@ 0x54
    7b02:	423c      	tst	r4, r7
    7b04:	38a9      	subs	r0, #169	@ 0xa9
    7b06:	6441      	str	r1, [r0, #68]	@ 0x44
    7b08:	c5ac      	stmia	r5!, {r2, r3, r5, r7}
    7b0a:	ef20 c452 	vqshl.s32	q6, q1, q0
    7b0e:	f068 0a46 	orn	sl, r8, #70	@ 0x46
    7b12:	4700      	bx	r0
    7b14:	44e0      	add	r8, ip
    7b16:	0186      	lsls	r6, r0, #6
    7b18:	2308      	movs	r3, #8
    7b1a:	020a      	lsls	r2, r1, #8
    7b1c:	8147      	strh	r7, [r0, #10]
    7b1e:	e1d9      	b.n	0x7ed4
    7b20:	4644      	mov	r4, r8
    7b22:	8821      	ldrh	r1, [r4, #0]
    7b24:	5684      	ldrsb	r4, [r0, r2]
    7b26:	4330      	orrs	r0, r6
    7b28:	460d      	mov	r5, r1
    7b2a:	0a21      	lsrs	r1, r4, #8
    7b2c:	0d01      	lsrs	r1, r0, #20
    7b2e:	c146      	stmia	r1!, {r1, r2, r6}
    7b30:	8020      	strh	r0, [r4, #0]
    7b32:	ed8c 8644 	stc	6, cr8, [ip, #272]	@ 0x110
    7b36:	0801      	lsrs	r1, r0, #32
    7b38:	0a23      	lsrs	r3, r4, #8
    7b3a:	4701      	bx	r0
    7b3c:	44e1      	add	r9, ip
    7b3e:	2146      	movs	r1, #70	@ 0x46
    7b40:	8488      	strh	r0, [r1, #36]	@ 0x24
    7b42:	3056      	adds	r0, #86	@ 0x56
    7b44:	2942      	cmp	r1, #66	@ 0x42
    7b46:	10a5      	asrs	r5, r4, #2
    7b48:	2470      	movs	r4, #112	@ 0x70
    7b4a:	a3fe      	add	r3, pc, #1016	@ (adr r3, 0x7f44)
    7b4c:	7000      	strb	r0, [r0, #0]
    7b4e:	4624      	mov	r4, r4
    7b50:	18d2      	adds	r2, r2, r3
    7b52:	e7c0      	b.n	0x7ad6
    7b54:	ce44      	ldmia	r6, {r2, r6}
    7b56:	10e2      	asrs	r2, r4, #3
    7b58:	1ffc      	subs	r4, r7, #7
    7b5a:	ffed 4e66 	vqrdmlah.s32	q10, <illegal reg q6.5>, d6[1]
    7b5e:	3864      	subs	r0, #100	@ 0x64
    7b60:	1c10      	adds	r0, r2, #0
    7b62:	3470      	adds	r4, #112	@ 0x70
    7b64:	166e      	asrs	r6, r5, #25
    7b66:	100c      	asrs	r4, r1, #32
    7b68:	206d      	movs	r0, #109	@ 0x6d
    7b6a:	cdc4      	ldmia	r5!, {r2, r6, r7}
    7b6c:	0000      	movs	r0, r0
    7b6e:	24a8      	movs	r4, #168	@ 0xa8
    7b70:	0652      	lsls	r2, r2, #25
    7b72:	8fe0      	ldrh	r0, [r4, #62]	@ 0x3e
    7b74:	22aa      	movs	r2, #170	@ 0xaa
    7b76:	0065      	lsls	r5, r4, #1
    7b78:	19fe      	adds	r6, r7, r7
    7b7a:	6527      	str	r7, [r4, #80]	@ 0x50
    7b7c:	fe00 15a8 	cdp2	5, 0, cr1, cr0, cr8, {5}
    7b80:	1f98      	subs	r0, r3, #6
    7b82:	e44e      	b.n	0x7422
    7b84:	6e2c      	ldr	r4, [r5, #96]	@ 0x60
    7b86:	3016      	adds	r0, #22
    7b88:	ee03 44e7 	cdp	4, 0, cr4, cr3, cr7, {7}
    7b8c:	e2ce      	b.n	0x812c
    7b8e:	1166      	asrs	r6, r4, #5
    7b90:	40b7      	lsls	r7, r6
    7b92:	8c64      	ldrh	r4, [r4, #34]	@ 0x22
    7b94:	0d10      	lsrs	r0, r2, #20
    7b96:	c640      	stmia	r6!, {r6}
    7b98:	c810      	ldmia	r0!, {r4}
    7b9a:	4407      	add	r7, r0
    7b9c:	eec6 00a2 	cdp	0, 12, cr0, cr6, cr2, {5}
    7ba0:	6450      	str	r0, [r2, #68]	@ 0x44
    7ba2:	b50c      	push	{r2, r3, lr}
    7ba4:	0068      	lsls	r0, r5, #1
    7ba6:	1322      	asrs	r2, r4, #12
    7ba8:	1e32      	subs	r2, r6, #0
    7baa:	3e82      	subs	r6, #130	@ 0x82
    7bac:	0a07      	lsrs	r7, r0, #8
    7bae:	ee01 00a2 	cdp	0, 0, cr0, cr1, cr2, {5}
    7bb2:	18c0      	adds	r0, r0, r3
    7bb4:	1070      	asrs	r0, r6, #1
    7bb6:	68b5      	ldr	r5, [r6, #8]
    7bb8:	cf00      	ldmia	r7!, {}
    7bba:	1008      	asrs	r0, r1, #32
    7bbc:	f0cf fd67 	bl	0xd768e
    7bc0:	4fe5      	ldr	r7, [pc, #916]	@ (0x7f58)
    7bc2:	46f2      	mov	sl, lr
    7bc4:	e44e      	b.n	0x7464
    7bc6:	a8cc      	add	r0, sp, #816	@ 0x330
    7bc8:	5258      	strh	r0, [r3, r1]
    7bca:	8046      	strh	r6, [r0, #2]
    7bcc:	8a8f      	ldrh	r7, [r1, #20]
    7bce:	ce21      	ldmia	r6!, {r0, r5}
    7bd0:	a8da      	add	r0, sp, #872	@ 0x368
    7bd2:	e263      	b.n	0x809c
    7bd4:	9dcc      	ldr	r5, [sp, #816]	@ 0x330
    7bd6:	087a      	lsrs	r2, r7, #1
    7bd8:	d199      	bne.n	0x7b0e
    7bda:	24e0      	movs	r4, #224	@ 0xe0
    7bdc:	02a6      	lsls	r6, r4, #10
    7bde:	e24e      	b.n	0x807e
    7be0:	e23c      	b.n	0x805c
    7be2:	25e8      	movs	r5, #232	@ 0xe8
    7be4:	e5de      	b.n	0x77a4
    7be6:	06f2      	lsls	r2, r6, #27
    7be8:	2cc2      	cmp	r4, #194	@ 0xc2
    7bea:	8ac4      	ldrh	r4, [r0, #22]
    7bec:	b321      	cbz	r1, 0x7c38
    7bee:	0af0      	lsrs	r0, r6, #11
    7bf0:	ef02 c991 	vmul.i8	d12, d18, d1
    7bf4:	4e09      	ldr	r6, [pc, #36]	@ (0x7c1c)
    7bf6:	2862      	cmp	r0, #98	@ 0x62
    7bf8:	24e0      	movs	r4, #224	@ 0xe0
    7bfa:	0396      	lsls	r6, r2, #14
    7bfc:	8c21      	ldrh	r1, [r4, #32]
    7bfe:	0af1      	lsrs	r1, r6, #11
    7c00:	ef03 d981 	vmla.i8	d13, d19, d1
    7c04:	24e7      	movs	r4, #231	@ 0xe7
    7c06:	0286      	lsls	r6, r0, #10
    7c08:	6647      	str	r7, [r0, #100]	@ 0x64
    7c0a:	8d64      	ldrh	r4, [r4, #42]	@ 0x2a
    7c0c:	0701      	lsls	r1, r0, #28
    7c0e:	000a      	movs	r2, r1
    7c10:	61ef      	str	r7, [r5, #28]
    7c12:	2164      	movs	r1, #100	@ 0x64
    7c14:	f1ee 040a 			@ <UNDEFINED> instruction: 0xf1ee040a
    7c18:	81ef      	strh	r7, [r5, #14]
    7c1a:	e4f9      	b.n	0x7610
    7c1c:	8624      	strh	r4, [r4, #48]	@ 0x30
    7c1e:	4702      	bx	r0
    7c20:	24e7      	movs	r4, #231	@ 0xe7
    7c22:	0386      	lsls	r6, r0, #14
    7c24:	e847 8624 	strex	r6, r8, [r7, #144]	@ 0x90
    7c28:	4704      	bxns	r0
    7c2a:	24e9      	movs	r4, #233	@ 0xe9
    7c2c:	0586      	lsls	r6, r0, #22
    7c2e:	ea47 8624 			@ <UNDEFINED> instruction: 0xea478624
    7c32:	4706      	bx	r0
    7c34:	24eb      	movs	r4, #235	@ 0xeb
    7c36:	0786      	lsls	r6, r0, #30
    7c38:	2c47      	cmp	r4, #71	@ 0x47
    7c3a:	ce80      	ldmia	r6!, {r7}
    7c3c:	3317      	adds	r3, #23
    7c3e:	af1d      	add	r7, sp, #116	@ 0x74
    7c40:	f050 661e 	orrs.w	r6, r0, #165675008	@ 0x9e00000
    7c44:	e5ed      	b.n	0x7822
    7c46:	10cf      	asrs	r7, r1, #3
    7c48:	cf10      	ldmia	r7!, {r4}
    7c4a:	7ff1      	ldrb	r1, [r6, #31]
    7c4c:	44fd      	add	sp, pc
    7c4e:	a66f      	add	r6, pc, #444	@ (adr r6, 0x7e0c)
    7c50:	72d0      	strb	r0, [r2, #11]
    7c52:	4e84      	ldr	r6, [pc, #528]	@ (0x7e64)
    7c54:	6526      	str	r6, [r4, #80]	@ 0x50
    7c56:	fe00 a9a9 	vseleq.f16	s20, s1, s19
    7c5a:	bce1      	pop	{r0, r5, r6, r7}
    7c5c:	7ea9      	ldrb	r1, [r5, #26]
    7c5e:	ace2      	add	r4, sp, #904	@ 0x388
    7c60:	caa9      	ldmia	r2!, {r0, r3, r5, r7}
    7c62:	bce2      	pop	{r1, r5, r6, r7}
    7c64:	22a9      	movs	r2, #169	@ 0xa9
    7c66:	ace3      	add	r4, sp, #908	@ 0x38c
    7c68:	26a9      	movs	r6, #169	@ 0xa9
    7c6a:	ce23      	ldmia	r6!, {r0, r1, r5}
    7c6c:	a9f3      	add	r1, sp, #972	@ 0x3cc
    7c6e:	237c      	movs	r3, #124	@ 0x7c
    7c70:	d9ce      	bls.n	0x7c10
    7c72:	eea9 6523 	cdp	5, 10, cr6, cr9, cr3, {1}
    7c76:	ff4b 75a9 	vrshl.u8	d23, d25, d27
    7c7a:	6521      	str	r1, [r4, #80]	@ 0x50
    7c7c:	f8f4 9aa9 	ldr??.w	r9, [r4, #2729]	@ 0xaa9
    7c80:	ce22      	ldmia	r6!, {r1, r5}
    7c82:	a9e8      	add	r1, sp, #928	@ 0x3a0
    7c84:	235c      	movs	r3, #92	@ 0x5c
    7c86:	e7ce      	b.n	0x7c26
    7c88:	a1a9      	add	r1, pc, #676	@ (adr r1, 0x7f30)
    7c8a:	ce23      	ldmia	r6!, {r0, r1, r5}
    7c8c:	a9f4      	add	r1, sp, #976	@ 0x3d0
    7c8e:	e3a2      	b.n	0x83d6
    7c90:	a9ec      	add	r1, sp, #944	@ 0x3b0
    7c92:	23ba      	movs	r3, #186	@ 0xba
    7c94:	4b65      	ldr	r3, [pc, #404]	@ (0x7e2c)
    7c96:	a9ff      	add	r1, sp, #1020	@ 0x3fc
    7c98:	2175      	movs	r1, #117	@ 0x75
    7c9a:	d965      	bls.n	0x7d68
    7c9c:	a9fc      	add	r1, sp, #1008	@ 0x3f0
    7c9e:	2333      	movs	r3, #51	@ 0x33
    7ca0:	1b65      	subs	r5, r4, r5
    7ca2:	a9fc      	add	r1, sp, #1008	@ 0x3f0
    7ca4:	225c      	movs	r2, #92	@ 0x5c
    7ca6:	d9ce      	bls.n	0x7c46
    7ca8:	40a9      	lsls	r1, r5
    7caa:	6523      	str	r3, [r4, #80]	@ 0x50
    7cac:	f82d e6a9 	strh.w	lr, [sp, <undefined>]
    7cb0:	ace1      	add	r4, sp, #900	@ 0x384
    7cb2:	4aa9      	ldr	r2, [pc, #676]	@ (0x7f58)
    7cb4:	6522      	str	r2, [r4, #80]	@ 0x50
    7cb6:	f806 dea9 	strbt	sp, [r6, #169]
    7cba:	ace1      	add	r4, sp, #900	@ 0x384
    7cbc:	42a9      	cmp	r1, r5
    7cbe:	ce22      	ldmia	r6!, {r1, r5}
    7cc0:	a9f5      	add	r1, sp, #980	@ 0x3d4
    7cc2:	2280      	movs	r2, #128	@ 0x80
    7cc4:	e4ce      	b.n	0x7664
    7cc6:	0fa9      	lsrs	r1, r5, #30
    7cc8:	6523      	str	r3, [r4, #80]	@ 0x50
    7cca:	f82d c2a9 	strh.w	ip, [sp, <undefined>]
    7cce:	ace1      	add	r4, sp, #900	@ 0x384
    7cd0:	26a9      	movs	r6, #169	@ 0xa9
    7cd2:	ce22      	ldmia	r6!, {r1, r5}
    7cd4:	a9f5      	add	r1, sp, #980	@ 0x3d4
    7cd6:	2264      	movs	r2, #100	@ 0x64
    7cd8:	e4ce      	b.n	0x7678
    7cda:	f2a9 ce22 	blx	0xab1920
    7cde:	a9ea      	add	r1, sp, #936	@ 0x3a8
    7ce0:	2309      	movs	r3, #9
    7ce2:	4765      	bx	ip
    7ce4:	a9fc      	add	r1, sp, #1008	@ 0x3f0
    7ce6:	2117      	movs	r1, #23
    7ce8:	fc65 a9fb 	stc2l	9, cr10, [r5], #-502	@ 0xfffffe0a	@ <UNPREDICTABLE>
    7cec:	2190      	movs	r1, #144	@ 0x90
    7cee:	efce 3aa9 	vmlsl.s8	<illegal reg q9.5>, d30, d25
    7cf2:	6522      	str	r2, [r4, #80]	@ 0x50
    7cf4:	f800 3aa9 	strb.w	r3, [r0, <undefined>]
    7cf8:	6522      	str	r2, [r4, #80]	@ 0x50
    7cfa:	f7f0 8da9 	smc	#40352	@ 0x9da0
    7cfe:	6522      	str	r2, [r4, #80]	@ 0x50
    7d00:	fc25 0ca9 	stc2	12, cr0, [r5], #-676	@ 0xfffffd5c
    7d04:	6521      	str	r1, [r4, #80]	@ 0x50
    7d06:	f3fc 62a9 			@ <UNDEFINED> instruction: 0xf3fc62a9
    7d0a:	6521      	str	r1, [r4, #80]	@ 0x50
    7d0c:	f000 62a9 	and.w	r2, r0, #88604672	@ 0x5480000
    7d10:	ce21      	ldmia	r6!, {r0, r5}
    7d12:	a9ef      	add	r1, sp, #956	@ 0x3bc
    7d14:	220c      	movs	r2, #12
    7d16:	0065      	lsls	r5, r4, #1
    7d18:	a9e0      	add	r1, sp, #896	@ 0x380
    7d1a:	220c      	movs	r2, #12
    7d1c:	0b65      	lsrs	r5, r4, #13
    7d1e:	a9f8      	add	r1, sp, #992	@ 0x3e0
    7d20:	2194      	movs	r1, #148	@ 0x94
    7d22:	f5ce 02a9 	rsb	r2, lr, #5537792	@ 0x548000
    7d26:	6522      	str	r2, [r4, #80]	@ 0x50
    7d28:	f80b 8aa9 	strb.w	r8, [fp, <undefined>]
    7d2c:	a991      	add	r1, sp, #580	@ 0x244
    7d2e:	0a28      	lsrs	r0, r5, #8
    7d30:	4706      	bx	r0
    7d32:	e998 0a27 			@ <UNDEFINED> instruction: 0xe9980a27
    7d36:	472b      	bx	r5
    7d38:	44e8      	add	r8, sp
    7d3a:	0286      	lsls	r6, r0, #10
    7d3c:	644e      	str	r6, [r1, #68]	@ 0x44
    7d3e:	603a      	str	r2, [r7, #0]
    7d40:	f04b a697 	bne.w	0x53a72
    7d44:	b605      			@ <UNDEFINED> instruction: 0xb605
    7d46:	7f06      	ldrb	r6, [r0, #28]
    7d48:	97eb      	str	r7, [sp, #940]	@ 0x3ac
    7d4a:	e07f      	b.n	0x7e4c
    7d4c:	7fb7      	ldrb	r7, [r6, #30]
    7d4e:	3312      	adds	r3, #18
    7d50:	9c3a      	ldr	r4, [sp, #232]	@ 0xe8
    7d52:	2409      	movs	r4, #9
    7d54:	2c0a      	cmp	r4, #10
    7d56:	e847 8644 	strex	r6, r8, [r7, #272]	@ 0x110
    7d5a:	4e02      	ldr	r6, [pc, #8]	@ (0x7d64)
    7d5c:	3a64      	subs	r2, #100	@ 0x64
    7d5e:	4b60      	ldr	r3, [pc, #384]	@ (0x7ee0)
    7d60:	97f0      	str	r7, [sp, #960]	@ 0x3c0
    7d62:	05a6      	lsls	r6, r4, #22
    7d64:	06b6      	lsls	r6, r6, #26
    7d66:	eb7f 7f97 	sbcs.w	pc, pc, r7, lsr #30
    7d6a:	b7e0      			@ <UNDEFINED> instruction: 0xb7e0
    7d6c:	127f      	asrs	r7, r7, #9
    7d6e:	39b3      	subs	r1, #179	@ 0xb3
    7d70:	299c      	cmp	r1, #156	@ 0x9c
    7d72:	0a20      	lsrs	r0, r4, #8
    7d74:	4700      	bx	r0
    7d76:	44e8      	add	r8, sp
    7d78:	e2ce      	b.n	0x8318
    7d7a:	44e0      	add	r8, ip
    7d7c:	04a6      	lsls	r6, r4, #18
    7d7e:	644e      	str	r6, [r1, #68]	@ 0x44
    7d80:	205b      	movs	r0, #91	@ 0x5b
    7d82:	dac4      	bge.n	0x7d0e
    7d84:	218a      	movs	r1, #138	@ 0x8a
    7d86:	eeb4 d399 	mrc	3, 5, sp, cr4, cr9, {4}
    7d8a:	70a1      	strb	r1, [r4, #2]
    7d8c:	8472      	strh	r2, [r6, #34]	@ 0x22
    7d8e:	644e      	str	r6, [r1, #68]	@ 0x44
    7d90:	e02a      	b.n	0x7de8
    7d92:	ce44      	ldmia	r6, {r2, r6}
    7d94:	20e4      	movs	r0, #228	@ 0xe4
    7d96:	8ac4      	ldrh	r4, [r0, #22]
    7d98:	1f21      	subs	r1, r4, #4
    7d9a:	99c3      	ldr	r1, [sp, #780]	@ 0x30c
    7d9c:	a1ad      	add	r1, pc, #692	@ (adr r1, 0x8054)
    7d9e:	7070      	strb	r0, [r6, #1]
    7da0:	9984      	ldr	r1, [sp, #528]	@ 0x210
    7da2:	a1a1      	add	r1, pc, #644	@ (adr r1, 0x8028)
    7da4:	7080      	strb	r0, [r0, #2]
    7da6:	9984      	ldr	r1, [sp, #528]	@ 0x210
    7da8:	a195      	add	r1, pc, #596	@ (adr r1, 0x8000)
    7daa:	7090      	strb	r0, [r2, #2]
    7dac:	9984      	ldr	r1, [sp, #528]	@ 0x210
    7dae:	a189      	add	r1, pc, #548	@ (adr r1, 0x7fd4)
    7db0:	70a0      	strb	r0, [r4, #2]
    7db2:	9984      	ldr	r1, [sp, #528]	@ 0x210
    7db4:	a17d      	add	r1, pc, #500	@ (adr r1, 0x7fac)
    7db6:	70b0      	strb	r0, [r6, #2]
    7db8:	9984      	ldr	r1, [sp, #528]	@ 0x210
    7dba:	a171      	add	r1, pc, #452	@ (adr r1, 0x7f80)
    7dbc:	70c0      	strb	r0, [r0, #3]
    7dbe:	9984      	ldr	r1, [sp, #528]	@ 0x210
    7dc0:	a165      	add	r1, pc, #404	@ (adr r1, 0x7f58)
    7dc2:	70d0      	strb	r0, [r2, #3]
    7dc4:	9984      	ldr	r1, [sp, #528]	@ 0x210
    7dc6:	a159      	add	r1, pc, #356	@ (adr r1, 0x7f2c)
    7dc8:	70e0      	strb	r0, [r4, #3]
    7dca:	9984      	ldr	r1, [sp, #528]	@ 0x210
    7dcc:	a14d      	add	r1, pc, #308	@ (adr r1, 0x7f04)
    7dce:	70f0      	strb	r0, [r6, #3]
    7dd0:	9984      	ldr	r1, [sp, #528]	@ 0x210
    7dd2:	a141      	add	r1, pc, #260	@ (adr r1, 0x7ed8)
    7dd4:	7100      	strb	r0, [r0, #4]
    7dd6:	9984      	ldr	r1, [sp, #528]	@ 0x210
    7dd8:	a135      	add	r1, pc, #212	@ (adr r1, 0x7eb0)
    7dda:	7110      	strb	r0, [r2, #4]
    7ddc:	9984      	ldr	r1, [sp, #528]	@ 0x210
    7dde:	a129      	add	r1, pc, #164	@ (adr r1, 0x7e84)
    7de0:	7120      	strb	r0, [r4, #4]
    7de2:	9984      	ldr	r1, [sp, #528]	@ 0x210
    7de4:	a11d      	add	r1, pc, #116	@ (adr r1, 0x7e5c)
    7de6:	7130      	strb	r0, [r6, #4]
    7de8:	9984      	ldr	r1, [sp, #528]	@ 0x210
    7dea:	a111      	add	r1, pc, #68	@ (adr r1, 0x7e30)
    7dec:	7140      	strb	r0, [r0, #5]
    7dee:	9984      	ldr	r1, [sp, #528]	@ 0x210
    7df0:	a105      	add	r1, pc, #20	@ (adr r1, 0x7e08)
    7df2:	7150      	strb	r0, [r2, #5]
    7df4:	9984      	ldr	r1, [sp, #528]	@ 0x210
    7df6:	a0f9      	add	r0, pc, #996	@ (adr r0, 0x81dc)
    7df8:	7160      	strb	r0, [r4, #5]
    7dfa:	9984      	ldr	r1, [sp, #528]	@ 0x210
    7dfc:	a0ed      	add	r0, pc, #948	@ (adr r0, 0x81b4)
    7dfe:	7170      	strb	r0, [r6, #5]
    7e00:	9984      	ldr	r1, [sp, #528]	@ 0x210
    7e02:	a0e1      	add	r0, pc, #900	@ (adr r0, 0x8188)
    7e04:	7180      	strb	r0, [r0, #6]
    7e06:	9984      	ldr	r1, [sp, #528]	@ 0x210
    7e08:	a0d5      	add	r0, pc, #852	@ (adr r0, 0x8160)
    7e0a:	7190      	strb	r0, [r2, #6]
    7e0c:	9984      	ldr	r1, [sp, #528]	@ 0x210
    7e0e:	a0c9      	add	r0, pc, #804	@ (adr r0, 0x8134)
    7e10:	71a0      	strb	r0, [r4, #6]
    7e12:	9984      	ldr	r1, [sp, #528]	@ 0x210
    7e14:	a0bd      	add	r0, pc, #756	@ (adr r0, 0x810c)
    7e16:	71b0      	strb	r0, [r6, #6]
    7e18:	9984      	ldr	r1, [sp, #528]	@ 0x210
    7e1a:	a0b1      	add	r0, pc, #708	@ (adr r0, 0x80e0)
    7e1c:	71c0      	strb	r0, [r0, #7]
    7e1e:	9984      	ldr	r1, [sp, #528]	@ 0x210
    7e20:	a0a5      	add	r0, pc, #660	@ (adr r0, 0x80b8)
    7e22:	71d0      	strb	r0, [r2, #7]
    7e24:	9984      	ldr	r1, [sp, #528]	@ 0x210
    7e26:	a099      	add	r0, pc, #612	@ (adr r0, 0x808c)
    7e28:	71e0      	strb	r0, [r4, #7]
    7e2a:	9984      	ldr	r1, [sp, #528]	@ 0x210
    7e2c:	a08d      	add	r0, pc, #564	@ (adr r0, 0x8064)
    7e2e:	71f0      	strb	r0, [r6, #7]
    7e30:	9984      	ldr	r1, [sp, #528]	@ 0x210
    7e32:	a081      	add	r0, pc, #516	@ (adr r0, 0x8038)
    7e34:	7200      	strb	r0, [r0, #8]
    7e36:	9884      	ldr	r0, [sp, #528]	@ 0x210
    7e38:	0a76      	lsrs	r6, r6, #9
    7e3a:	4701      	bx	r0
    7e3c:	44e8      	add	r8, sp
    7e3e:	0286      	lsls	r6, r0, #10
    7e40:	c121      	stmia	r1!, {r0, r5}
    7e42:	98ef      	ldr	r0, [sp, #956]	@ 0x3bc
    7e44:	0a5e      	lsrs	r6, r3, #9
    7e46:	4721      	bx	r4
    7e48:	3988      	subs	r1, #136	@ 0x88
    7e4a:	80a5      	strh	r5, [r4, #4]
    7e4c:	8472      	strh	r2, [r6, #34]	@ 0x22
    7e4e:	4898      	ldr	r0, [pc, #608]	@ (0x80b0)
    7e50:	290a      	cmp	r1, #10
    7e52:	8847      	ldrh	r7, [r0, #2]
    7e54:	a3d9      	add	r3, pc, #868	@ (adr r3, 0x81bc)
    7e56:	72a0      	strb	r0, [r4, #10]
    7e58:	9884      	ldr	r0, [sp, #528]	@ 0x210
    7e5a:	0a32      	lsrs	r2, r6, #8
    7e5c:	4722      	bx	r4
    7e5e:	7988      	ldrb	r0, [r1, #6]
    7e60:	30a2      	adds	r0, #162	@ 0xa2
    7e62:	8472      	strh	r2, [r6, #34]	@ 0x22
    7e64:	1c98      	adds	r0, r3, #2
    7e66:	240a      	movs	r4, #10
    7e68:	8847      	ldrh	r7, [r0, #2]
    7e6a:	a119      	add	r1, pc, #100	@ (adr r1, 0x7ed0)
    7e6c:	7250      	strb	r0, [r2, #9]
    7e6e:	fe84 60a3 	cdp2	0, 8, cr6, cr4, cr3, {5}
    7e72:	8472      	strh	r2, [r6, #34]	@ 0x22
    7e74:	c846      	ldmia	r0!, {r1, r2, r6}
    7e76:	82d0      	strh	r0, [r2, #22]
    7e78:	650c      	str	r4, [r1, #80]	@ 0x50
    7e7a:	5884      	ldr	r4, [r0, r2]
    7e7c:	2912      	cmp	r1, #18
    7e7e:	ed05 05ca 	cfstr32	mvfx0, [r5, #-808]	@ 0xfffffcd8
    7e82:	6852      	ldr	r2, [r2, #4]
    7e84:	603a      	str	r2, [r7, #0]
    7e86:	5a84      	ldrh	r4, [r0, r2]
    7e88:	f206 dede 	bl	0xa0ec48
    7e8c:	2436      	movs	r4, #54	@ 0x36
    7e8e:	8685      	strh	r5, [r0, #52]	@ 0x34
    7e90:	2302      	movs	r3, #2
    7e92:	aa82      	add	r2, sp, #520	@ 0x208
    7e94:	8461      	strh	r1, [r4, #34]	@ 0x22
    7e96:	1258      	asrs	r0, r3, #9
    7e98:	0529      	lsls	r1, r5, #20
    7e9a:	00aa      	lsls	r2, r5, #2
    7e9c:	caed      	ldmia	r2, {r0, r2, r3, r5, r6, r7}
    7e9e:	5205      	strh	r5, [r0, r0]
    7ea0:	ea58 cfd7 			@ <UNDEFINED> instruction: 0xea58cfd7
    7ea4:	100f      	asrs	r7, r1, #32
    7ea6:	fddf 4714 	ldc2l	7, cr4, [pc, #80]	@ 0x7ef8
    7eaa:	0460      	lsls	r0, r4, #17
    7eac:	5308      	strh	r0, [r1, r4]
    7eae:	67e0      	str	r0, [r4, #124]	@ 0x7c
    7eb0:	5046      	str	r6, [r0, r1]
    7eb2:	6800      	ldr	r0, [r0, #0]
    7eb4:	216e      	movs	r1, #110	@ 0x6e
    7eb6:	816d      	strh	r5, [r5, #10]
    7eb8:	ed06 0681 	stc	6, cr0, [r6, #-516]	@ 0xfffffdfc
    7ebc:	116e      	asrs	r6, r5, #5
    7ebe:	fe13 fede 	mrc2	14, 0, pc, cr3, cr14, {6}
    7ec2:	4067      	eors	r7, r4
    7ec4:	67e0      	str	r0, [r4, #124]	@ 0x7c
    7ec6:	0211      	lsls	r1, r2, #8
    7ec8:	3df0      	subs	r5, #240	@ 0xf0
    7eca:	df10      	svc	16
    7ecc:	14fb      	asrs	r3, r7, #19
    7ece:	6047      	str	r7, [r0, #4]
    7ed0:	a204      	add	r2, pc, #16	@ (adr r2, 0x7ee4)
    7ed2:	d010      	beq.n	0x7ef6
    7ed4:	00a0      	lsls	r0, r4, #2
    7ed6:	3470      	adds	r4, #112	@ 0x70
    7ed8:	020a      	lsls	r2, r1, #8
    7eda:	8447      	strh	r7, [r0, #34]	@ 0x22
    7edc:	e1b9      	b.n	0x8252
    7ede:	4614      	mov	r4, r2
    7ee0:	8824      	ldrh	r4, [r4, #0]
    7ee2:	5684      	ldrsb	r4, [r0, r2]
    7ee4:	4333      	orrs	r3, r6
    7ee6:	460d      	mov	r5, r1
    7ee8:	1084      	asrs	r4, r0, #2
    7eea:	460d      	mov	r5, r1
    7eec:	0564      	lsls	r4, r4, #21
    7eee:	8423      	strh	r3, [r4, #32]
    7ef0:	6d8d      	ldr	r5, [r1, #88]	@ 0x58
    7ef2:	4e34      	ldr	r6, [pc, #208]	@ (0x7fc4)
    7ef4:	0561      	lsls	r1, r4, #21
    7ef6:	5982      	ldr	r2, [r0, r6]
    7ef8:	5df8      	ldrb	r0, [r7, r7]
    7efa:	df10      	svc	16
    7efc:	07fc      	lsls	r4, r7, #31
    7efe:	e24f      	b.n	0x83a0
    7f00:	6e97      	ldr	r7, [r2, #104]	@ 0x68
    7f02:	d73d      	bvc.n	0x7f80
    7f04:	e873 0f74 	ldrd	r0, pc, [r3], #-464	@ 0x1d0
    7f08:	eb7e 73f6 	sbcs.w	r3, lr, r6, ror #31
    7f0c:	873d      	strh	r5, [r7, #56]	@ 0x38
    7f0e:	0287      	lsls	r7, r0, #10
    7f10:	0397      	lsls	r7, r2, #14
    7f12:	00cc      	lsls	r4, r1, #3
    7f14:	b800      			@ <UNDEFINED> instruction: 0xb800
    7f16:	1e10      	subs	r0, r2, #0
    7f18:	00dc      	lsls	r4, r3, #3
    7f1a:	2200      	movs	r2, #0
    7f1c:	8034      	strh	r4, [r6, #0]
    7f1e:	4e10      	ldr	r6, [pc, #64]	@ (0x7f60)
    7f20:	07e2      	lsls	r2, r4, #31
    7f22:	04df      	lsls	r7, r3, #19
    7f24:	56e1      	ldrsb	r1, [r4, r3]
    7f26:	00cc      	lsls	r4, r1, #3
    7f28:	3900      	subs	r1, #0
    7f2a:	36e4      	adds	r6, #228	@ 0xe4
    7f2c:	00cc      	lsls	r4, r1, #3
    7f2e:	1000      	asrs	r0, r0, #32
    7f30:	55aa      	strb	r2, [r5, r6]
    7f32:	33cc      	adds	r3, #204	@ 0xcc
    7f34:	0100      	lsls	r0, r0, #4
    7f36:	004c      	lsls	r4, r1, #1
    7f38:	f8df 7f66 	ldr.w	r7, [pc, #3942]	@ 0x8ea2
    7f3c:	24f4      	movs	r4, #244	@ 0xf4
    7f3e:	605f      	str	r7, [r3, #4]
    7f40:	20c0      	movs	r0, #192	@ 0xc0
    7f42:	40c0      	lsrs	r0, r0
    7f44:	08b9      	lsrs	r1, r7, #2
    7f46:	00a0      	lsls	r0, r4, #2
    7f48:	c072      	stmia	r0!, {r1, r4, r5, r6}
    7f4a:	c060      	stmia	r0!, {r5, r6}
    7f4c:	c020      	stmia	r0!, {r5}
    7f4e:	a910      	add	r1, sp, #64	@ 0x40
    7f50:	2ff2      	cmp	r7, #242	@ 0xf2
    7f52:	c280      	stmia	r2!, {r7}
    7f54:	d07c      	beq.n	0x8050
    7f56:	20a0      	movs	r0, #160	@ 0xa0
    7f58:	c070      	stmia	r0!, {r4, r5, r6}
    7f5a:	c060      	stmia	r0!, {r5, r6}
    7f5c:	c020      	stmia	r0!, {r5}
    7f5e:	a910      	add	r1, sp, #64	@ 0x40
    7f60:	7ff2      	ldrb	r2, [r6, #31]
    7f62:	a0d1      	add	r0, pc, #836	@ (adr r0, 0x82a8)
    7f64:	7020      	strb	r0, [r4, #0]
    7f66:	00c0      	lsls	r0, r0, #3
    7f68:	c060      	stmia	r0!, {r5, r6}
    7f6a:	c020      	stmia	r0!, {r5}
    7f6c:	a940      	add	r1, sp, #256	@ 0x100
    7f6e:	2017      	movs	r0, #23
    7f70:	20c0      	movs	r0, #192	@ 0xc0
    7f72:	e8a9 e00f 	stmia.w	r9!, {r0, r1, r2, r3, sp, lr, pc}
    7f76:	0264      	lsls	r4, r4, #9
    7f78:	199a      	adds	r2, r3, r6
    7f7a:	6efd      	ldr	r5, [r7, #108]	@ 0x6c
    7f7c:	47e6      			@ <UNDEFINED> instruction: 0x47e6
    7f7e:	e24e      	b.n	0x841e
    7f80:	cf05      	ldmia	r7!, {r0, r2}
    7f82:	3008      	adds	r0, #8
    7f84:	7465      	strb	r5, [r4, #17]
